

Microchip MPLAB XC8 Assembler V2.35 build 20211206165544 
                                                                                               Thu Jul 20 14:34:07 2023

Microchip MPLAB XC8 C Compiler v2.35 (Free license) build 20211206165544 Og1 
     1                           	processor	16F887
     2                           	pagewidth 120
     3                           	opt	flic
     4                           	psect	strings,global,class=STRING,delta=2,noexec
     5                           	psect	cinit,global,class=CODE,merge=1,delta=2
     6                           	psect	bssBANK1,global,class=BANK1,space=1,delta=1,noexec
     7                           	psect	cstackBANK1,global,class=BANK1,space=1,delta=1,noexec
     8                           	psect	cstackCOMMON,global,class=COMMON,space=1,delta=1,noexec
     9                           	psect	cstackBANK0,global,class=BANK0,space=1,delta=1,noexec
    10                           	psect	maintext,global,class=CODE,split=1,delta=2
    11                           	psect	text1,local,class=CODE,merge=1,delta=2
    12                           	psect	text2,local,class=CODE,merge=1,delta=2
    13                           	psect	text3,local,class=CODE,merge=1,delta=2
    14                           	psect	text4,local,class=CODE,merge=1,delta=2
    15                           	psect	text5,local,class=CODE,merge=1,delta=2,group=1
    16                           	psect	text6,local,class=CODE,merge=1,delta=2,group=1
    17                           	psect	text7,local,class=CODE,merge=1,delta=2,group=1
    18                           	psect	text8,local,class=CODE,merge=1,delta=2,group=1
    19                           	psect	text9,local,class=CODE,merge=1,delta=2,group=1
    20                           	psect	text10,local,class=CODE,merge=1,delta=2,group=1
    21                           	psect	text11,local,class=CODE,merge=1,delta=2,group=1
    22                           	psect	text12,local,class=CODE,merge=1,delta=2,group=1
    23                           	psect	text13,local,class=CODE,merge=1,delta=2,group=1
    24                           	psect	text14,local,class=CODE,merge=1,delta=2
    25                           	psect	text15,local,class=CODE,merge=1,delta=2
    26                           	psect	text16,local,class=CODE,merge=1,delta=2
    27                           	psect	text17,local,class=CODE,merge=1,delta=2
    28                           	psect	text18,local,class=CODE,merge=1,delta=2
    29                           	psect	text19,local,class=CODE,merge=1,delta=2
    30                           	psect	text20,local,class=CODE,merge=1,delta=2
    31                           	psect	idloc,global,abs,ovrld,class=IDLOC,space=5,delta=2,noexec
    32                           	psect	config,global,abs,ovrld,class=CONFIG,space=4,delta=2,noexec
    33                           	dabs	1,0x7E,2
    34  0000                     
    35                           ; Version 2.40
    36                           ; Generated 17/11/2021 GMT
    37                           ; 
    38                           ; Copyright © 2021, Microchip Technology Inc. and its subsidiaries ("Microchip")
    39                           ; All rights reserved.
    40                           ; 
    41                           ; This software is developed by Microchip Technology Inc. and its subsidiaries ("Microch
      +                          ip").
    42                           ; 
    43                           ; Redistribution and use in source and binary forms, with or without modification, are
    44                           ; permitted provided that the following conditions are met:
    45                           ; 
    46                           ;     1. Redistributions of source code must retain the above copyright notice, this lis
      +                          t of
    47                           ;        conditions and the following disclaimer.
    48                           ; 
    49                           ;     2. Redistributions in binary form must reproduce the above copyright notice, this 
      +                          list
    50                           ;        of conditions and the following disclaimer in the documentation and/or other
    51                           ;        materials provided with the distribution. Publication is not required when
    52                           ;        this file is used in an embedded application.
    53                           ; 
    54                           ;     3. Microchip's name may not be used to endorse or promote products derived from th
      +                          is
    55                           ;        software without specific prior written permission.
    56                           ; 
    57                           ; THIS SOFTWARE IS PROVIDED BY MICROCHIP "AS IS" AND ANY EXPRESS OR IMPLIED WARRANTIES,
    58                           ; INCLUDING, BUT NOT LIMITED TO, THE IMPLIED WARRANTIES OF MERCHANTABILITY AND FITNESS F
      +                          OR
    59                           ; PURPOSE ARE DISCLAIMED.  IN NO EVENT SHALL MICROCHIP BE LIABLE FOR ANY DIRECT, INDIREC
      +                          T,
    60                           ; INCIDENTAL, SPECIAL, EXEMPLARY, OR CONSEQUENTIAL DAMAGES (INCLUDING BUT NOT LIMITED TO
    61                           ; PROCUREMENT OF SUBSTITUTE GOODS OR SERVICES; LOSS OF USE, DATA OR PROFITS; OR BUSINESS
    62                           ; INTERRUPTION) HOWSOEVER CAUSED AND ON ANY THEORY OF LIABILITY, WHETHER IN CONTRACT, ST
      +                          RICT
    63                           ; LIABILITY, OR TORT (INCLUDING NEGLIGENCE OR OTHERWISE) ARISING IN ANY WAY OUT OF THE U
      +                          SE OF
    64                           ; THIS SOFTWARE, EVEN IF ADVISED OF THE POSSIBILITY OF SUCH DAMAGE.
    65                           ; 
    66                           ; 
    67                           ; Code-generator required, PIC16F887 Definitions
    68                           ; 
    69                           ; SFR Addresses
    70  0000                     	;# 
    71  0001                     	;# 
    72  0002                     	;# 
    73  0003                     	;# 
    74  0004                     	;# 
    75  0005                     	;# 
    76  0006                     	;# 
    77  0007                     	;# 
    78  0008                     	;# 
    79  0009                     	;# 
    80  000A                     	;# 
    81  000B                     	;# 
    82  000C                     	;# 
    83  000D                     	;# 
    84  000E                     	;# 
    85  000E                     	;# 
    86  000F                     	;# 
    87  0010                     	;# 
    88  0011                     	;# 
    89  0012                     	;# 
    90  0013                     	;# 
    91  0014                     	;# 
    92  0015                     	;# 
    93  0015                     	;# 
    94  0016                     	;# 
    95  0017                     	;# 
    96  0018                     	;# 
    97  0019                     	;# 
    98  001A                     	;# 
    99  001B                     	;# 
   100  001B                     	;# 
   101  001C                     	;# 
   102  001D                     	;# 
   103  001E                     	;# 
   104  001F                     	;# 
   105  0081                     	;# 
   106  0085                     	;# 
   107  0086                     	;# 
   108  0087                     	;# 
   109  0088                     	;# 
   110  0089                     	;# 
   111  008C                     	;# 
   112  008D                     	;# 
   113  008E                     	;# 
   114  008F                     	;# 
   115  0090                     	;# 
   116  0091                     	;# 
   117  0092                     	;# 
   118  0093                     	;# 
   119  0093                     	;# 
   120  0093                     	;# 
   121  0094                     	;# 
   122  0095                     	;# 
   123  0096                     	;# 
   124  0097                     	;# 
   125  0098                     	;# 
   126  0099                     	;# 
   127  009A                     	;# 
   128  009B                     	;# 
   129  009C                     	;# 
   130  009D                     	;# 
   131  009E                     	;# 
   132  009F                     	;# 
   133  0105                     	;# 
   134  0107                     	;# 
   135  0108                     	;# 
   136  0109                     	;# 
   137  010C                     	;# 
   138  010C                     	;# 
   139  010D                     	;# 
   140  010E                     	;# 
   141  010F                     	;# 
   142  0185                     	;# 
   143  0187                     	;# 
   144  0188                     	;# 
   145  0189                     	;# 
   146  018C                     	;# 
   147  018D                     	;# 
   148  0000                     	;# 
   149  0001                     	;# 
   150  0002                     	;# 
   151  0003                     	;# 
   152  0004                     	;# 
   153  0005                     	;# 
   154  0006                     	;# 
   155  0007                     	;# 
   156  0008                     	;# 
   157  0009                     	;# 
   158  000A                     	;# 
   159  000B                     	;# 
   160  000C                     	;# 
   161  000D                     	;# 
   162  000E                     	;# 
   163  000E                     	;# 
   164  000F                     	;# 
   165  0010                     	;# 
   166  0011                     	;# 
   167  0012                     	;# 
   168  0013                     	;# 
   169  0014                     	;# 
   170  0015                     	;# 
   171  0015                     	;# 
   172  0016                     	;# 
   173  0017                     	;# 
   174  0018                     	;# 
   175  0019                     	;# 
   176  001A                     	;# 
   177  001B                     	;# 
   178  001B                     	;# 
   179  001C                     	;# 
   180  001D                     	;# 
   181  001E                     	;# 
   182  001F                     	;# 
   183  0081                     	;# 
   184  0085                     	;# 
   185  0086                     	;# 
   186  0087                     	;# 
   187  0088                     	;# 
   188  0089                     	;# 
   189  008C                     	;# 
   190  008D                     	;# 
   191  008E                     	;# 
   192  008F                     	;# 
   193  0090                     	;# 
   194  0091                     	;# 
   195  0092                     	;# 
   196  0093                     	;# 
   197  0093                     	;# 
   198  0093                     	;# 
   199  0094                     	;# 
   200  0095                     	;# 
   201  0096                     	;# 
   202  0097                     	;# 
   203  0098                     	;# 
   204  0099                     	;# 
   205  009A                     	;# 
   206  009B                     	;# 
   207  009C                     	;# 
   208  009D                     	;# 
   209  009E                     	;# 
   210  009F                     	;# 
   211  0105                     	;# 
   212  0107                     	;# 
   213  0108                     	;# 
   214  0109                     	;# 
   215  010C                     	;# 
   216  010C                     	;# 
   217  010D                     	;# 
   218  010E                     	;# 
   219  010F                     	;# 
   220  0185                     	;# 
   221  0187                     	;# 
   222  0188                     	;# 
   223  0189                     	;# 
   224  018C                     	;# 
   225  018D                     	;# 
   226  0000                     	;# 
   227  0001                     	;# 
   228  0002                     	;# 
   229  0003                     	;# 
   230  0004                     	;# 
   231  0005                     	;# 
   232  0006                     	;# 
   233  0007                     	;# 
   234  0008                     	;# 
   235  0009                     	;# 
   236  000A                     	;# 
   237  000B                     	;# 
   238  000C                     	;# 
   239  000D                     	;# 
   240  000E                     	;# 
   241  000E                     	;# 
   242  000F                     	;# 
   243  0010                     	;# 
   244  0011                     	;# 
   245  0012                     	;# 
   246  0013                     	;# 
   247  0014                     	;# 
   248  0015                     	;# 
   249  0015                     	;# 
   250  0016                     	;# 
   251  0017                     	;# 
   252  0018                     	;# 
   253  0019                     	;# 
   254  001A                     	;# 
   255  001B                     	;# 
   256  001B                     	;# 
   257  001C                     	;# 
   258  001D                     	;# 
   259  001E                     	;# 
   260  001F                     	;# 
   261  0081                     	;# 
   262  0085                     	;# 
   263  0086                     	;# 
   264  0087                     	;# 
   265  0088                     	;# 
   266  0089                     	;# 
   267  008C                     	;# 
   268  008D                     	;# 
   269  008E                     	;# 
   270  008F                     	;# 
   271  0090                     	;# 
   272  0091                     	;# 
   273  0092                     	;# 
   274  0093                     	;# 
   275  0093                     	;# 
   276  0093                     	;# 
   277  0094                     	;# 
   278  0095                     	;# 
   279  0096                     	;# 
   280  0097                     	;# 
   281  0098                     	;# 
   282  0099                     	;# 
   283  009A                     	;# 
   284  009B                     	;# 
   285  009C                     	;# 
   286  009D                     	;# 
   287  009E                     	;# 
   288  009F                     	;# 
   289  0105                     	;# 
   290  0107                     	;# 
   291  0108                     	;# 
   292  0109                     	;# 
   293  010C                     	;# 
   294  010C                     	;# 
   295  010D                     	;# 
   296  010E                     	;# 
   297  010F                     	;# 
   298  0185                     	;# 
   299  0187                     	;# 
   300  0188                     	;# 
   301  0189                     	;# 
   302  018C                     	;# 
   303  018D                     	;# 
   304  0000                     	;# 
   305  0001                     	;# 
   306  0002                     	;# 
   307  0003                     	;# 
   308  0004                     	;# 
   309  0005                     	;# 
   310  0006                     	;# 
   311  0007                     	;# 
   312  0008                     	;# 
   313  0009                     	;# 
   314  000A                     	;# 
   315  000B                     	;# 
   316  000C                     	;# 
   317  000D                     	;# 
   318  000E                     	;# 
   319  000E                     	;# 
   320  000F                     	;# 
   321  0010                     	;# 
   322  0011                     	;# 
   323  0012                     	;# 
   324  0013                     	;# 
   325  0014                     	;# 
   326  0015                     	;# 
   327  0015                     	;# 
   328  0016                     	;# 
   329  0017                     	;# 
   330  0018                     	;# 
   331  0019                     	;# 
   332  001A                     	;# 
   333  001B                     	;# 
   334  001B                     	;# 
   335  001C                     	;# 
   336  001D                     	;# 
   337  001E                     	;# 
   338  001F                     	;# 
   339  0081                     	;# 
   340  0085                     	;# 
   341  0086                     	;# 
   342  0087                     	;# 
   343  0088                     	;# 
   344  0089                     	;# 
   345  008C                     	;# 
   346  008D                     	;# 
   347  008E                     	;# 
   348  008F                     	;# 
   349  0090                     	;# 
   350  0091                     	;# 
   351  0092                     	;# 
   352  0093                     	;# 
   353  0093                     	;# 
   354  0093                     	;# 
   355  0094                     	;# 
   356  0095                     	;# 
   357  0096                     	;# 
   358  0097                     	;# 
   359  0098                     	;# 
   360  0099                     	;# 
   361  009A                     	;# 
   362  009B                     	;# 
   363  009C                     	;# 
   364  009D                     	;# 
   365  009E                     	;# 
   366  009F                     	;# 
   367  0105                     	;# 
   368  0107                     	;# 
   369  0108                     	;# 
   370  0109                     	;# 
   371  010C                     	;# 
   372  010C                     	;# 
   373  010D                     	;# 
   374  010E                     	;# 
   375  010F                     	;# 
   376  0185                     	;# 
   377  0187                     	;# 
   378  0188                     	;# 
   379  0189                     	;# 
   380  018C                     	;# 
   381  018D                     	;# 
   382  001E                     _ADRESH	set	30
   383  0008                     _PORTDbits	set	8
   384  001F                     _ADCON0bits	set	31
   385  0008                     _PORTD	set	8
   386  008F                     _OSCCONbits	set	143
   387  009F                     _ADCON1bits	set	159
   388  0088                     _TRISD	set	136
   389  0189                     _ANSELH	set	393
   390  0188                     _ANSEL	set	392
   391                           
   392                           	psect	strings
   393  0800                     __pstrings:
   394  0800                     stringtab:
   395  0800                     __stringtab:
   396  0800                     stringcode:	
   397                           ;	String table - string pointers are 1 byte each
   398                           
   399  0800                     stringdir:
   400  0800  3008               	movlw	high stringdir
   401  0801  008A               	movwf	10
   402  0802  0804               	movf	4,w
   403  0803  0A84               	incf	4,f
   404  0804  0782               	addwf	2,f
   405  0805                     __stringbase:
   406  0805  3400               	retlw	0
   407  0806                     __end_of__stringtab:
   408  0806                     STR_1:
   409  0806  3450               	retlw	80	;'P'
   410  0807  344F               	retlw	79	;'O'
   411  0808  3454               	retlw	84	;'T'
   412  0809  3445               	retlw	69	;'E'
   413  080A  344E               	retlw	78	;'N'
   414  080B  3443               	retlw	67	;'C'
   415  080C  3449               	retlw	73	;'I'
   416  080D  344F               	retlw	79	;'O'
   417  080E  344D               	retlw	77	;'M'
   418  080F  3445               	retlw	69	;'E'
   419  0810  3454               	retlw	84	;'T'
   420  0811  3452               	retlw	82	;'R'
   421  0812  344F               	retlw	79	;'O'
   422  0813  3400               	retlw	0
   423  0814                     STR_2:
   424  0814  342E               	retlw	46	;'.'
   425  0815  3400               	retlw	0
   426                           
   427                           	psect	cinit
   428  07F6                     start_initialization:	
   429                           ; #config settings
   430                           
   431  07F6                     __initialization:
   432                           
   433                           ; Clear objects allocated to BANK1
   434  07F6  1683               	bsf	3,5	;RP0=1, select bank1
   435  07F7  1303               	bcf	3,6	;RP1=0, select bank1
   436  07F8  01AD               	clrf	__pbssBANK1& (0+127)
   437  07F9  01AE               	clrf	(__pbssBANK1+1)& (0+127)
   438  07FA  01AF               	clrf	(__pbssBANK1+2)& (0+127)
   439  07FB  01B0               	clrf	(__pbssBANK1+3)& (0+127)
   440  07FC                     end_of_initialization:	
   441                           ;End of C runtime variable initialization code
   442                           
   443  07FC                     __end_of__initialization:
   444  07FC  0183               	clrf	3
   445  07FD  120A  158A  2DDD   	ljmp	_main	;jump to C main() function
   446                           
   447                           	psect	bssBANK1
   448  00AD                     __pbssBANK1:
   449  00AD                     _centena:
   450  00AD                     	ds	1
   451  00AE                     _decena:
   452  00AE                     	ds	1
   453  00AF                     _unidad:
   454  00AF                     	ds	1
   455  00B0                     _POT:
   456  00B0                     	ds	1
   457                           
   458                           	psect	cstackBANK1
   459  00A0                     __pcstackBANK1:
   460  00A0                     ??_main:
   461                           
   462                           ; 1 bytes @ 0x0
   463  00A0                     	ds	9
   464  00A9                     _main$915:
   465                           
   466                           ; 4 bytes @ 0x9
   467  00A9                     	ds	4
   468                           
   469                           	psect	cstackCOMMON
   470  0070                     __pcstackCOMMON:
   471  0070                     ?_setup:
   472  0070                     ?_LCD_CLEAR4:	
   473                           ; 1 bytes @ 0x0
   474                           
   475  0070                     ?_LCD_STRING4:	
   476                           ; 1 bytes @ 0x0
   477                           
   478  0070                     ?_LCD_CHAR4:	
   479                           ; 1 bytes @ 0x0
   480                           
   481  0070                     ?_OSCILLATOR:	
   482                           ; 1 bytes @ 0x0
   483                           
   484  0070                     ??_OSCILLATOR:	
   485                           ; 1 bytes @ 0x0
   486                           
   487  0070                     ?_ADC_INIT:	
   488                           ; 1 bytes @ 0x0
   489                           
   490  0070                     ?_LCD_INIT4:	
   491                           ; 1 bytes @ 0x0
   492                           
   493  0070                     ?_main:	
   494                           ; 1 bytes @ 0x0
   495                           
   496  0070                     ?_LCD_PORT4:	
   497                           ; 1 bytes @ 0x0
   498                           
   499  0070                     ??_LCD_PORT4:	
   500                           ; 1 bytes @ 0x0
   501                           
   502  0070                     ?_LCD_COM4:	
   503                           ; 1 bytes @ 0x0
   504                           
   505  0070                     ?_ADC_READ:	
   506                           ; 1 bytes @ 0x0
   507                           
   508  0070                     ?__Umul8_16:	
   509                           ; 2 bytes @ 0x0
   510                           
   511  0070                     ?___wmul:	
   512                           ; 2 bytes @ 0x0
   513                           
   514  0070                     ?___fladd:	
   515                           ; 2 bytes @ 0x0
   516                           
   517  0070                     LCD_PORT4@a:	
   518                           ; 4 bytes @ 0x0
   519                           
   520  0070                     __Umul8_16@multiplicand:	
   521                           ; 1 bytes @ 0x0
   522                           
   523  0070                     ADC_INIT@c:	
   524                           ; 1 bytes @ 0x0
   525                           
   526  0070                     ___wmul@multiplier:	
   527                           ; 2 bytes @ 0x0
   528                           
   529  0070                     ___fladd@b:	
   530                           ; 2 bytes @ 0x0
   531                           
   532                           
   533                           ; 4 bytes @ 0x0
   534  0070                     	ds	1
   535  0071                     ??_LCD_CLEAR4:
   536  0071                     ??_LCD_CHAR4:	
   537                           ; 1 bytes @ 0x1
   538                           
   539  0071                     ??_LCD_COM4:	
   540                           ; 1 bytes @ 0x1
   541                           
   542                           
   543                           ; 1 bytes @ 0x1
   544  0071                     	ds	1
   545  0072                     ??_ADC_READ:
   546  0072                     ??_ADC_INIT:	
   547                           ; 1 bytes @ 0x2
   548                           
   549  0072                     ??__Umul8_16:	
   550                           ; 1 bytes @ 0x2
   551                           
   552  0072                     LCD_CHAR4@temp:	
   553                           ; 1 bytes @ 0x2
   554                           
   555  0072                     OSCILLATOR@f:	
   556                           ; 1 bytes @ 0x2
   557                           
   558  0072                     ___wmul@multiplicand:	
   559                           ; 1 bytes @ 0x2
   560                           
   561                           
   562                           ; 2 bytes @ 0x2
   563  0072                     	ds	1
   564  0073                     LCD_COM4@a:
   565  0073                     LCD_CHAR4@y:	
   566                           ; 1 bytes @ 0x3
   567                           
   568                           
   569                           ; 1 bytes @ 0x3
   570  0073                     	ds	1
   571  0074                     ?_LCD_XY4:
   572  0074                     ??_LCD_INIT4:	
   573                           ; 1 bytes @ 0x4
   574                           
   575  0074                     ??___wmul:	
   576                           ; 1 bytes @ 0x4
   577                           
   578  0074                     LCD_XY4@y:	
   579                           ; 1 bytes @ 0x4
   580                           
   581  0074                     LCD_CHAR4@a:	
   582                           ; 1 bytes @ 0x4
   583                           
   584  0074                     ___wmul@product:	
   585                           ; 1 bytes @ 0x4
   586                           
   587  0074                     __Umul8_16@product:	
   588                           ; 2 bytes @ 0x4
   589                           
   590  0074                     ___fladd@a:	
   591                           ; 2 bytes @ 0x4
   592                           
   593                           
   594                           ; 4 bytes @ 0x4
   595  0074                     	ds	1
   596  0075                     ??_LCD_XY4:
   597  0075                     ??_LCD_STRING4:	
   598                           ; 1 bytes @ 0x5
   599                           
   600  0075                     LCD_STRING4@i:	
   601                           ; 1 bytes @ 0x5
   602                           
   603                           
   604                           ; 2 bytes @ 0x5
   605  0075                     	ds	1
   606  0076                     ??_setup:
   607  0076                     ?___xxtofl:	
   608                           ; 1 bytes @ 0x6
   609                           
   610  0076                     __Umul8_16@word_mpld:	
   611                           ; 4 bytes @ 0x6
   612                           
   613  0076                     ___xxtofl@val:	
   614                           ; 2 bytes @ 0x6
   615                           
   616                           
   617                           ; 4 bytes @ 0x6
   618  0076                     	ds	1
   619  0077                     LCD_XY4@x:
   620  0077                     LCD_STRING4@a:	
   621                           ; 1 bytes @ 0x7
   622                           
   623                           
   624                           ; 1 bytes @ 0x7
   625  0077                     	ds	1
   626  0078                     LCD_XY4@z:
   627  0078                     ___fladd@signs:	
   628                           ; 1 bytes @ 0x8
   629                           
   630  0078                     __Umul8_16@multiplier:	
   631                           ; 1 bytes @ 0x8
   632                           
   633                           
   634                           ; 1 bytes @ 0x8
   635  0078                     	ds	1
   636  0079                     LCD_XY4@q:
   637  0079                     ___fladd@aexp:	
   638                           ; 1 bytes @ 0x9
   639                           
   640                           
   641                           ; 1 bytes @ 0x9
   642  0079                     	ds	1
   643  007A                     ??___xxtofl:
   644  007A                     LCD_XY4@temp:	
   645                           ; 1 bytes @ 0xA
   646                           
   647  007A                     ___fladd@bexp:	
   648                           ; 1 bytes @ 0xA
   649                           
   650                           
   651                           ; 1 bytes @ 0xA
   652  007A                     	ds	1
   653  007B                     ___fladd@grs:
   654                           
   655                           ; 1 bytes @ 0xB
   656  007B                     	ds	3
   657  007E                     ??___flsub:
   658                           
   659                           	psect	cstackBANK0
   660  0020                     __pcstackBANK0:	
   661                           ; 1 bytes @ 0xE
   662                           
   663  0020                     ??___fladd:
   664  0020                     ___xxtofl@sign:	
   665                           ; 1 bytes @ 0x0
   666                           
   667                           
   668                           ; 1 bytes @ 0x0
   669  0020                     	ds	1
   670  0021                     ___xxtofl@exp:
   671                           
   672                           ; 1 bytes @ 0x1
   673  0021                     	ds	1
   674  0022                     ___xxtofl@arg:
   675                           
   676                           ; 4 bytes @ 0x2
   677  0022                     	ds	4
   678  0026                     ?___flmul:
   679  0026                     ___flmul@b:	
   680                           ; 4 bytes @ 0x6
   681                           
   682                           
   683                           ; 4 bytes @ 0x6
   684  0026                     	ds	4
   685  002A                     ___flmul@a:
   686                           
   687                           ; 4 bytes @ 0xA
   688  002A                     	ds	4
   689  002E                     ??___flmul:
   690                           
   691                           ; 1 bytes @ 0xE
   692  002E                     	ds	5
   693  0033                     ___flmul@sign:
   694                           
   695                           ; 1 bytes @ 0x13
   696  0033                     	ds	1
   697  0034                     ___flmul@grs:
   698                           
   699                           ; 4 bytes @ 0x14
   700  0034                     	ds	4
   701  0038                     ___flmul@aexp:
   702                           
   703                           ; 1 bytes @ 0x18
   704  0038                     	ds	1
   705  0039                     ___flmul@bexp:
   706                           
   707                           ; 1 bytes @ 0x19
   708  0039                     	ds	1
   709  003A                     ___flmul@prod:
   710                           
   711                           ; 4 bytes @ 0x1A
   712  003A                     	ds	4
   713  003E                     ___flmul@temp:
   714                           
   715                           ; 2 bytes @ 0x1E
   716  003E                     	ds	2
   717  0040                     ?___flsub:
   718  0040                     ?___fldiv:	
   719                           ; 4 bytes @ 0x20
   720                           
   721  0040                     ___flsub@a:	
   722                           ; 4 bytes @ 0x20
   723                           
   724  0040                     ___fldiv@a:	
   725                           ; 4 bytes @ 0x20
   726                           
   727                           
   728                           ; 4 bytes @ 0x20
   729  0040                     	ds	4
   730  0044                     ___flsub@b:
   731  0044                     ___fldiv@b:	
   732                           ; 4 bytes @ 0x24
   733                           
   734                           
   735                           ; 4 bytes @ 0x24
   736  0044                     	ds	4
   737  0048                     ??___fldiv:
   738                           
   739                           ; 1 bytes @ 0x28
   740  0048                     	ds	5
   741  004D                     ___fldiv@rem:
   742                           
   743                           ; 4 bytes @ 0x2D
   744  004D                     	ds	4
   745  0051                     ___fldiv@sign:
   746                           
   747                           ; 1 bytes @ 0x31
   748  0051                     	ds	1
   749  0052                     ___fldiv@new_exp:
   750                           
   751                           ; 2 bytes @ 0x32
   752  0052                     	ds	2
   753  0054                     ___fldiv@grs:
   754                           
   755                           ; 4 bytes @ 0x34
   756  0054                     	ds	4
   757  0058                     ___fldiv@bexp:
   758                           
   759                           ; 1 bytes @ 0x38
   760  0058                     	ds	1
   761  0059                     ___fldiv@aexp:
   762                           
   763                           ; 1 bytes @ 0x39
   764  0059                     	ds	1
   765  005A                     ?___fltol:
   766  005A                     ___fltol@f1:	
   767                           ; 4 bytes @ 0x3A
   768                           
   769                           
   770                           ; 4 bytes @ 0x3A
   771  005A                     	ds	4
   772  005E                     ??___fltol:
   773                           
   774                           ; 1 bytes @ 0x3E
   775  005E                     	ds	5
   776  0063                     ___fltol@sign1:
   777                           
   778                           ; 1 bytes @ 0x43
   779  0063                     	ds	1
   780  0064                     ___fltol@exp1:
   781                           
   782                           ; 1 bytes @ 0x44
   783  0064                     	ds	1
   784  0065                     ?___awdiv:
   785  0065                     ___awdiv@divisor:	
   786                           ; 2 bytes @ 0x45
   787                           
   788                           
   789                           ; 2 bytes @ 0x45
   790  0065                     	ds	2
   791  0067                     ___awdiv@dividend:
   792                           
   793                           ; 2 bytes @ 0x47
   794  0067                     	ds	2
   795  0069                     ??___awdiv:
   796                           
   797                           ; 1 bytes @ 0x49
   798  0069                     	ds	1
   799  006A                     ___awdiv@counter:
   800                           
   801                           ; 1 bytes @ 0x4A
   802  006A                     	ds	1
   803  006B                     ___awdiv@sign:
   804                           
   805                           ; 1 bytes @ 0x4B
   806  006B                     	ds	1
   807  006C                     ___awdiv@quotient:
   808                           
   809                           ; 2 bytes @ 0x4C
   810  006C                     	ds	2
   811                           
   812                           	psect	maintext
   813  0DDD                     __pmaintext:	
   814 ;;
   815 ;;Main: autosize = 0, tempsize = 9, incstack = 0, save=0
   816 ;;
   817 ;; *************** function _main *****************
   818 ;; Defined at:
   819 ;;		line 40 in file "Pre_lab.c"
   820 ;; Parameters:    Size  Location     Type
   821 ;;		None
   822 ;; Auto vars:     Size  Location     Type
   823 ;;		None
   824 ;; Return value:  Size  Location     Type
   825 ;;                  1    wreg      void 
   826 ;; Registers used:
   827 ;;		wreg, fsr0l, fsr0h, status,2, status,0, btemp+1, pclath, cstack
   828 ;; Tracked objects:
   829 ;;		On entry : B00/0
   830 ;;		On exit  : 0/0
   831 ;;		Unchanged: 0/0
   832 ;; Data sizes:     COMMON   BANK0   BANK1   BANK3   BANK2
   833 ;;      Params:         0       0       0       0       0
   834 ;;      Locals:         0       0       4       0       0
   835 ;;      Temps:          0       0       9       0       0
   836 ;;      Totals:         0       0      13       0       0
   837 ;;Total ram usage:       13 bytes
   838 ;; Hardware stack levels required when called: 4
   839 ;; This function calls:
   840 ;;		_ADC_READ
   841 ;;		_LCD_CHAR4
   842 ;;		_LCD_CLEAR4
   843 ;;		_LCD_STRING4
   844 ;;		_LCD_XY4
   845 ;;		___awdiv
   846 ;;		___fldiv
   847 ;;		___flmul
   848 ;;		___flsub
   849 ;;		___fltol
   850 ;;		___wmul
   851 ;;		___xxtofl
   852 ;;		_setup
   853 ;; This function is called by:
   854 ;;		Startup code after reset
   855 ;; This function uses a non-reentrant model
   856 ;;
   857                           
   858  0DDD                     _main:	
   859                           ;psect for function _main
   860                           
   861  0DDD                     l2406:	
   862                           ;incstack = 0
   863                           ; Regs used in _main: [wreg-fsr0h+status,2+status,0+btemp+1+pclath+cstack]
   864                           
   865                           
   866                           ;Pre_lab.c: 42:     setup();
   867  0DDD  120A  158A  2237  120A  158A  	fcall	_setup
   868  0DE2                     l2408:
   869                           
   870                           ;Pre_lab.c: 45:         POT = ADC_READ();
   871  0DE2  120A  158A  216B  120A  158A  	fcall	_ADC_READ
   872  0DE7  0870               	movf	?_ADC_READ,w
   873  0DE8  1683               	bsf	3,5	;RP0=1, select bank1
   874  0DE9  1303               	bcf	3,6	;RP1=0, select bank1
   875  0DEA  00A0               	movwf	??_main^(0+128)
   876  0DEB  0820               	movf	??_main^(0+128),w
   877  0DEC  00B0               	movwf	_POT^(0+128)
   878  0DED                     l2410:
   879                           
   880                           ;Pre_lab.c: 46:         centena = (uint8_t)((POT*1.9607)/100);
   881  0DED  0830               	movf	_POT^(0+128),w
   882  0DEE  00A0               	movwf	??_main^(0+128)
   883  0DEF  01A1               	clrf	(??_main^(0+128)+1)
   884  0DF0  01A2               	clrf	(??_main^(0+128)+2)
   885  0DF1  01A3               	clrf	(??_main^(0+128)+3)
   886  0DF2  0823               	movf	(??_main+3)^(0+128),w
   887  0DF3  00F9               	movwf	___xxtofl@val+3
   888  0DF4  0822               	movf	(??_main+2)^(0+128),w
   889  0DF5  00F8               	movwf	___xxtofl@val+2
   890  0DF6  0821               	movf	(??_main+1)^(0+128),w
   891  0DF7  00F7               	movwf	___xxtofl@val+1
   892  0DF8  0820               	movf	??_main^(0+128),w
   893  0DF9  00F6               	movwf	___xxtofl@val
   894  0DFA  3001               	movlw	1
   895  0DFB  120A  158A  2521  120A  158A  	fcall	___xxtofl
   896  0E00  0879               	movf	?___xxtofl+3,w
   897  0E01  1283               	bcf	3,5	;RP0=0, select bank0
   898  0E02  1303               	bcf	3,6	;RP1=0, select bank0
   899  0E03  00AD               	movwf	___flmul@a+3
   900  0E04  0878               	movf	?___xxtofl+2,w
   901  0E05  00AC               	movwf	___flmul@a+2
   902  0E06  0877               	movf	?___xxtofl+1,w
   903  0E07  00AB               	movwf	___flmul@a+1
   904  0E08  0876               	movf	?___xxtofl,w
   905  0E09  00AA               	movwf	___flmul@a
   906  0E0A  303F               	movlw	63
   907  0E0B  00A9               	movwf	___flmul@b+3
   908  0E0C  30FA               	movlw	250
   909  0E0D  00A8               	movwf	___flmul@b+2
   910  0E0E  30F8               	movlw	248
   911  0E0F  00A7               	movwf	___flmul@b+1
   912  0E10  3038               	movlw	56
   913  0E11  00A6               	movwf	___flmul@b
   914  0E12  120A  118A  2495  120A  158A  	fcall	___flmul
   915  0E17  1283               	bcf	3,5	;RP0=0, select bank0
   916  0E18  1303               	bcf	3,6	;RP1=0, select bank0
   917  0E19  0829               	movf	?___flmul+3,w
   918  0E1A  00C7               	movwf	___fldiv@b+3
   919  0E1B  0828               	movf	?___flmul+2,w
   920  0E1C  00C6               	movwf	___fldiv@b+2
   921  0E1D  0827               	movf	?___flmul+1,w
   922  0E1E  00C5               	movwf	___fldiv@b+1
   923  0E1F  0826               	movf	?___flmul,w
   924  0E20  00C4               	movwf	___fldiv@b
   925  0E21  3042               	movlw	66
   926  0E22  00C3               	movwf	___fldiv@a+3
   927  0E23  30C8               	movlw	200
   928  0E24  00C2               	movwf	___fldiv@a+2
   929  0E25  3000               	movlw	0
   930  0E26  00C1               	movwf	___fldiv@a+1
   931  0E27  3000               	movlw	0
   932  0E28  00C0               	movwf	___fldiv@a
   933  0E29  120A  118A  2020  120A  158A  	fcall	___fldiv
   934  0E2E  1283               	bcf	3,5	;RP0=0, select bank0
   935  0E2F  1303               	bcf	3,6	;RP1=0, select bank0
   936  0E30  0843               	movf	?___fldiv+3,w
   937  0E31  00DD               	movwf	___fltol@f1+3
   938  0E32  0842               	movf	?___fldiv+2,w
   939  0E33  00DC               	movwf	___fltol@f1+2
   940  0E34  0841               	movf	?___fldiv+1,w
   941  0E35  00DB               	movwf	___fltol@f1+1
   942  0E36  0840               	movf	?___fldiv,w
   943  0E37  00DA               	movwf	___fltol@f1
   944  0E38  120A  158A  2409  120A  158A  	fcall	___fltol
   945  0E3D  1283               	bcf	3,5	;RP0=0, select bank0
   946  0E3E  1303               	bcf	3,6	;RP1=0, select bank0
   947  0E3F  085A               	movf	?___fltol,w
   948  0E40  1683               	bsf	3,5	;RP0=1, select bank1
   949  0E41  1303               	bcf	3,6	;RP1=0, select bank1
   950  0E42  00A4               	movwf	(??_main+4)^(0+128)
   951  0E43  0824               	movf	(??_main+4)^(0+128),w
   952  0E44  00AD               	movwf	_centena^(0+128)
   953  0E45                     l2412:
   954                           
   955                           ;Pre_lab.c: 47:         decena = (uint8_t)((POT*1.9607) - centena*100)/10;
   956  0E45  300A               	movlw	10
   957  0E46  1283               	bcf	3,5	;RP0=0, select bank0
   958  0E47  1303               	bcf	3,6	;RP1=0, select bank0
   959  0E48  00E5               	movwf	___awdiv@divisor
   960  0E49  3000               	movlw	0
   961  0E4A  00E6               	movwf	___awdiv@divisor+1
   962  0E4B  1683               	bsf	3,5	;RP0=1, select bank1
   963  0E4C  1303               	bcf	3,6	;RP1=0, select bank1
   964  0E4D  0830               	movf	_POT^(0+128),w
   965  0E4E  00A0               	movwf	??_main^(0+128)
   966  0E4F  01A1               	clrf	(??_main^(0+128)+1)
   967  0E50  01A2               	clrf	(??_main^(0+128)+2)
   968  0E51  01A3               	clrf	(??_main^(0+128)+3)
   969  0E52  0823               	movf	(??_main+3)^(0+128),w
   970  0E53  00F9               	movwf	___xxtofl@val+3
   971  0E54  0822               	movf	(??_main+2)^(0+128),w
   972  0E55  00F8               	movwf	___xxtofl@val+2
   973  0E56  0821               	movf	(??_main+1)^(0+128),w
   974  0E57  00F7               	movwf	___xxtofl@val+1
   975  0E58  0820               	movf	??_main^(0+128),w
   976  0E59  00F6               	movwf	___xxtofl@val
   977  0E5A  3001               	movlw	1
   978  0E5B  120A  158A  2521  120A  158A  	fcall	___xxtofl
   979  0E60  0879               	movf	?___xxtofl+3,w
   980  0E61  1283               	bcf	3,5	;RP0=0, select bank0
   981  0E62  1303               	bcf	3,6	;RP1=0, select bank0
   982  0E63  00AD               	movwf	___flmul@a+3
   983  0E64  0878               	movf	?___xxtofl+2,w
   984  0E65  00AC               	movwf	___flmul@a+2
   985  0E66  0877               	movf	?___xxtofl+1,w
   986  0E67  00AB               	movwf	___flmul@a+1
   987  0E68  0876               	movf	?___xxtofl,w
   988  0E69  00AA               	movwf	___flmul@a
   989  0E6A  303F               	movlw	63
   990  0E6B  00A9               	movwf	___flmul@b+3
   991  0E6C  30FA               	movlw	250
   992  0E6D  00A8               	movwf	___flmul@b+2
   993  0E6E  30F8               	movlw	248
   994  0E6F  00A7               	movwf	___flmul@b+1
   995  0E70  3038               	movlw	56
   996  0E71  00A6               	movwf	___flmul@b
   997  0E72  120A  118A  2495  120A  158A  	fcall	___flmul
   998  0E77  1283               	bcf	3,5	;RP0=0, select bank0
   999  0E78  1303               	bcf	3,6	;RP1=0, select bank0
  1000  0E79  0829               	movf	?___flmul+3,w
  1001  0E7A  00C7               	movwf	___flsub@b+3
  1002  0E7B  0828               	movf	?___flmul+2,w
  1003  0E7C  00C6               	movwf	___flsub@b+2
  1004  0E7D  0827               	movf	?___flmul+1,w
  1005  0E7E  00C5               	movwf	___flsub@b+1
  1006  0E7F  0826               	movf	?___flmul,w
  1007  0E80  00C4               	movwf	___flsub@b
  1008  0E81  3064               	movlw	100
  1009  0E82  00F2               	movwf	___wmul@multiplicand
  1010  0E83  3000               	movlw	0
  1011  0E84  00F3               	movwf	___wmul@multiplicand+1
  1012  0E85  1683               	bsf	3,5	;RP0=1, select bank1
  1013  0E86  1303               	bcf	3,6	;RP1=0, select bank1
  1014  0E87  082D               	movf	_centena^(0+128),w
  1015  0E88  00A4               	movwf	(??_main+4)^(0+128)
  1016  0E89  01A5               	clrf	((??_main+4)^(0+128)+1)
  1017  0E8A  0824               	movf	(??_main+4)^(0+128),w
  1018  0E8B  00F0               	movwf	___wmul@multiplier
  1019  0E8C  0825               	movf	(??_main+5)^(0+128),w
  1020  0E8D  00F1               	movwf	___wmul@multiplier+1
  1021  0E8E  120A  158A  21EB  120A  158A  	fcall	___wmul
  1022  0E93  0870               	movf	?___wmul,w
  1023  0E94  00F6               	movwf	___xxtofl@val
  1024  0E95  0871               	movf	?___wmul+1,w
  1025  0E96  00F7               	movwf	___xxtofl@val+1
  1026  0E97  3000               	movlw	0
  1027  0E98  1BF7               	btfsc	___xxtofl@val+1,7
  1028  0E99  30FF               	movlw	255
  1029  0E9A  00F8               	movwf	___xxtofl@val+2
  1030  0E9B  00F9               	movwf	___xxtofl@val+3
  1031  0E9C  3001               	movlw	1
  1032  0E9D  120A  158A  2521  120A  158A  	fcall	___xxtofl
  1033  0EA2  0879               	movf	?___xxtofl+3,w
  1034  0EA3  1283               	bcf	3,5	;RP0=0, select bank0
  1035  0EA4  1303               	bcf	3,6	;RP1=0, select bank0
  1036  0EA5  00C3               	movwf	___flsub@a+3
  1037  0EA6  0878               	movf	?___xxtofl+2,w
  1038  0EA7  00C2               	movwf	___flsub@a+2
  1039  0EA8  0877               	movf	?___xxtofl+1,w
  1040  0EA9  00C1               	movwf	___flsub@a+1
  1041  0EAA  0876               	movf	?___xxtofl,w
  1042  0EAB  00C0               	movwf	___flsub@a
  1043  0EAC  120A  158A  21A2  120A  158A  	fcall	___flsub
  1044  0EB1  1283               	bcf	3,5	;RP0=0, select bank0
  1045  0EB2  1303               	bcf	3,6	;RP1=0, select bank0
  1046  0EB3  0843               	movf	?___flsub+3,w
  1047  0EB4  00DD               	movwf	___fltol@f1+3
  1048  0EB5  0842               	movf	?___flsub+2,w
  1049  0EB6  00DC               	movwf	___fltol@f1+2
  1050  0EB7  0841               	movf	?___flsub+1,w
  1051  0EB8  00DB               	movwf	___fltol@f1+1
  1052  0EB9  0840               	movf	?___flsub,w
  1053  0EBA  00DA               	movwf	___fltol@f1
  1054  0EBB  120A  158A  2409  120A  158A  	fcall	___fltol
  1055  0EC0  1283               	bcf	3,5	;RP0=0, select bank0
  1056  0EC1  1303               	bcf	3,6	;RP1=0, select bank0
  1057  0EC2  085A               	movf	?___fltol,w
  1058  0EC3  1683               	bsf	3,5	;RP0=1, select bank1
  1059  0EC4  1303               	bcf	3,6	;RP1=0, select bank1
  1060  0EC5  00A6               	movwf	(??_main+6)^(0+128)
  1061  0EC6  01A7               	clrf	((??_main+6)^(0+128)+1)
  1062  0EC7  0826               	movf	(??_main+6)^(0+128),w
  1063  0EC8  1283               	bcf	3,5	;RP0=0, select bank0
  1064  0EC9  1303               	bcf	3,6	;RP1=0, select bank0
  1065  0ECA  00E7               	movwf	___awdiv@dividend
  1066  0ECB  1683               	bsf	3,5	;RP0=1, select bank1
  1067  0ECC  1303               	bcf	3,6	;RP1=0, select bank1
  1068  0ECD  0827               	movf	(??_main+7)^(0+128),w
  1069  0ECE  1283               	bcf	3,5	;RP0=0, select bank0
  1070  0ECF  1303               	bcf	3,6	;RP1=0, select bank0
  1071  0ED0  00E8               	movwf	___awdiv@dividend+1
  1072  0ED1  120A  158A  23A0  120A  158A  	fcall	___awdiv
  1073  0ED6  1283               	bcf	3,5	;RP0=0, select bank0
  1074  0ED7  1303               	bcf	3,6	;RP1=0, select bank0
  1075  0ED8  0865               	movf	?___awdiv,w
  1076  0ED9  1683               	bsf	3,5	;RP0=1, select bank1
  1077  0EDA  1303               	bcf	3,6	;RP1=0, select bank1
  1078  0EDB  00A8               	movwf	(??_main+8)^(0+128)
  1079  0EDC  0828               	movf	(??_main+8)^(0+128),w
  1080  0EDD  00AE               	movwf	_decena^(0+128)
  1081  0EDE                     l2414:
  1082                           
  1083                           ;Pre_lab.c: 48:         unidad = (uint8_t)((POT*1.9607) - centena*100 - decena*10);
  1084  0EDE  0830               	movf	_POT^(0+128),w
  1085  0EDF  00A0               	movwf	??_main^(0+128)
  1086  0EE0  01A1               	clrf	(??_main^(0+128)+1)
  1087  0EE1  01A2               	clrf	(??_main^(0+128)+2)
  1088  0EE2  01A3               	clrf	(??_main^(0+128)+3)
  1089  0EE3  0823               	movf	(??_main+3)^(0+128),w
  1090  0EE4  00F9               	movwf	___xxtofl@val+3
  1091  0EE5  0822               	movf	(??_main+2)^(0+128),w
  1092  0EE6  00F8               	movwf	___xxtofl@val+2
  1093  0EE7  0821               	movf	(??_main+1)^(0+128),w
  1094  0EE8  00F7               	movwf	___xxtofl@val+1
  1095  0EE9  0820               	movf	??_main^(0+128),w
  1096  0EEA  00F6               	movwf	___xxtofl@val
  1097  0EEB  3001               	movlw	1
  1098  0EEC  120A  158A  2521  120A  158A  	fcall	___xxtofl
  1099  0EF1  0879               	movf	?___xxtofl+3,w
  1100  0EF2  1283               	bcf	3,5	;RP0=0, select bank0
  1101  0EF3  1303               	bcf	3,6	;RP1=0, select bank0
  1102  0EF4  00AD               	movwf	___flmul@a+3
  1103  0EF5  0878               	movf	?___xxtofl+2,w
  1104  0EF6  00AC               	movwf	___flmul@a+2
  1105  0EF7  0877               	movf	?___xxtofl+1,w
  1106  0EF8  00AB               	movwf	___flmul@a+1
  1107  0EF9  0876               	movf	?___xxtofl,w
  1108  0EFA  00AA               	movwf	___flmul@a
  1109  0EFB  303F               	movlw	63
  1110  0EFC  00A9               	movwf	___flmul@b+3
  1111  0EFD  30FA               	movlw	250
  1112  0EFE  00A8               	movwf	___flmul@b+2
  1113  0EFF  30F8               	movlw	248
  1114  0F00  00A7               	movwf	___flmul@b+1
  1115  0F01  3038               	movlw	56
  1116  0F02  00A6               	movwf	___flmul@b
  1117  0F03  120A  118A  2495  120A  158A  	fcall	___flmul
  1118  0F08  1283               	bcf	3,5	;RP0=0, select bank0
  1119  0F09  1303               	bcf	3,6	;RP1=0, select bank0
  1120  0F0A  0829               	movf	?___flmul+3,w
  1121  0F0B  00C7               	movwf	___flsub@b+3
  1122  0F0C  0828               	movf	?___flmul+2,w
  1123  0F0D  00C6               	movwf	___flsub@b+2
  1124  0F0E  0827               	movf	?___flmul+1,w
  1125  0F0F  00C5               	movwf	___flsub@b+1
  1126  0F10  0826               	movf	?___flmul,w
  1127  0F11  00C4               	movwf	___flsub@b
  1128  0F12  3064               	movlw	100
  1129  0F13  00F2               	movwf	___wmul@multiplicand
  1130  0F14  3000               	movlw	0
  1131  0F15  00F3               	movwf	___wmul@multiplicand+1
  1132  0F16  1683               	bsf	3,5	;RP0=1, select bank1
  1133  0F17  1303               	bcf	3,6	;RP1=0, select bank1
  1134  0F18  082D               	movf	_centena^(0+128),w
  1135  0F19  00A4               	movwf	(??_main+4)^(0+128)
  1136  0F1A  01A5               	clrf	((??_main+4)^(0+128)+1)
  1137  0F1B  0824               	movf	(??_main+4)^(0+128),w
  1138  0F1C  00F0               	movwf	___wmul@multiplier
  1139  0F1D  0825               	movf	(??_main+5)^(0+128),w
  1140  0F1E  00F1               	movwf	___wmul@multiplier+1
  1141  0F1F  120A  158A  21EB  120A  158A  	fcall	___wmul
  1142  0F24  0870               	movf	?___wmul,w
  1143  0F25  00F6               	movwf	___xxtofl@val
  1144  0F26  0871               	movf	?___wmul+1,w
  1145  0F27  00F7               	movwf	___xxtofl@val+1
  1146  0F28  3000               	movlw	0
  1147  0F29  1BF7               	btfsc	___xxtofl@val+1,7
  1148  0F2A  30FF               	movlw	255
  1149  0F2B  00F8               	movwf	___xxtofl@val+2
  1150  0F2C  00F9               	movwf	___xxtofl@val+3
  1151  0F2D  3001               	movlw	1
  1152  0F2E  120A  158A  2521  120A  158A  	fcall	___xxtofl
  1153  0F33  0879               	movf	?___xxtofl+3,w
  1154  0F34  1283               	bcf	3,5	;RP0=0, select bank0
  1155  0F35  1303               	bcf	3,6	;RP1=0, select bank0
  1156  0F36  00C3               	movwf	___flsub@a+3
  1157  0F37  0878               	movf	?___xxtofl+2,w
  1158  0F38  00C2               	movwf	___flsub@a+2
  1159  0F39  0877               	movf	?___xxtofl+1,w
  1160  0F3A  00C1               	movwf	___flsub@a+1
  1161  0F3B  0876               	movf	?___xxtofl,w
  1162  0F3C  00C0               	movwf	___flsub@a
  1163  0F3D  120A  158A  21A2  120A  158A  	fcall	___flsub
  1164  0F42  1283               	bcf	3,5	;RP0=0, select bank0
  1165  0F43  1303               	bcf	3,6	;RP1=0, select bank0
  1166  0F44  0843               	movf	?___flsub+3,w
  1167  0F45  1683               	bsf	3,5	;RP0=1, select bank1
  1168  0F46  1303               	bcf	3,6	;RP1=0, select bank1
  1169  0F47  00AC               	movwf	(_main$915+3)^(0+128)
  1170  0F48  1283               	bcf	3,5	;RP0=0, select bank0
  1171  0F49  1303               	bcf	3,6	;RP1=0, select bank0
  1172  0F4A  0842               	movf	?___flsub+2,w
  1173  0F4B  1683               	bsf	3,5	;RP0=1, select bank1
  1174  0F4C  1303               	bcf	3,6	;RP1=0, select bank1
  1175  0F4D  00AB               	movwf	(_main$915+2)^(0+128)
  1176  0F4E  1283               	bcf	3,5	;RP0=0, select bank0
  1177  0F4F  1303               	bcf	3,6	;RP1=0, select bank0
  1178  0F50  0841               	movf	?___flsub+1,w
  1179  0F51  1683               	bsf	3,5	;RP0=1, select bank1
  1180  0F52  1303               	bcf	3,6	;RP1=0, select bank1
  1181  0F53  00AA               	movwf	(_main$915+1)^(0+128)
  1182  0F54  1283               	bcf	3,5	;RP0=0, select bank0
  1183  0F55  1303               	bcf	3,6	;RP1=0, select bank0
  1184  0F56  0840               	movf	?___flsub,w
  1185  0F57  1683               	bsf	3,5	;RP0=1, select bank1
  1186  0F58  1303               	bcf	3,6	;RP1=0, select bank1
  1187  0F59  00A9               	movwf	_main$915^(0+128)
  1188  0F5A                     l2416:
  1189                           
  1190                           ;Pre_lab.c: 48:         unidad = (uint8_t)((POT*1.9607) - centena*100 - decena*10);
  1191  0F5A  082C               	movf	(_main$915+3)^(0+128),w
  1192  0F5B  1283               	bcf	3,5	;RP0=0, select bank0
  1193  0F5C  1303               	bcf	3,6	;RP1=0, select bank0
  1194  0F5D  00C7               	movwf	___flsub@b+3
  1195  0F5E  1683               	bsf	3,5	;RP0=1, select bank1
  1196  0F5F  1303               	bcf	3,6	;RP1=0, select bank1
  1197  0F60  082B               	movf	(_main$915+2)^(0+128),w
  1198  0F61  1283               	bcf	3,5	;RP0=0, select bank0
  1199  0F62  1303               	bcf	3,6	;RP1=0, select bank0
  1200  0F63  00C6               	movwf	___flsub@b+2
  1201  0F64  1683               	bsf	3,5	;RP0=1, select bank1
  1202  0F65  1303               	bcf	3,6	;RP1=0, select bank1
  1203  0F66  082A               	movf	(_main$915+1)^(0+128),w
  1204  0F67  1283               	bcf	3,5	;RP0=0, select bank0
  1205  0F68  1303               	bcf	3,6	;RP1=0, select bank0
  1206  0F69  00C5               	movwf	___flsub@b+1
  1207  0F6A  1683               	bsf	3,5	;RP0=1, select bank1
  1208  0F6B  1303               	bcf	3,6	;RP1=0, select bank1
  1209  0F6C  0829               	movf	_main$915^(0+128),w
  1210  0F6D  1283               	bcf	3,5	;RP0=0, select bank0
  1211  0F6E  1303               	bcf	3,6	;RP1=0, select bank0
  1212  0F6F  00C4               	movwf	___flsub@b
  1213  0F70  300A               	movlw	10
  1214  0F71  00F2               	movwf	___wmul@multiplicand
  1215  0F72  3000               	movlw	0
  1216  0F73  00F3               	movwf	___wmul@multiplicand+1
  1217  0F74  1683               	bsf	3,5	;RP0=1, select bank1
  1218  0F75  1303               	bcf	3,6	;RP1=0, select bank1
  1219  0F76  082E               	movf	_decena^(0+128),w
  1220  0F77  00A0               	movwf	??_main^(0+128)
  1221  0F78  01A1               	clrf	(??_main^(0+128)+1)
  1222  0F79  0820               	movf	??_main^(0+128),w
  1223  0F7A  00F0               	movwf	___wmul@multiplier
  1224  0F7B  0821               	movf	(??_main+1)^(0+128),w
  1225  0F7C  00F1               	movwf	___wmul@multiplier+1
  1226  0F7D  120A  158A  21EB  120A  158A  	fcall	___wmul
  1227  0F82  0870               	movf	?___wmul,w
  1228  0F83  00F6               	movwf	___xxtofl@val
  1229  0F84  0871               	movf	?___wmul+1,w
  1230  0F85  00F7               	movwf	___xxtofl@val+1
  1231  0F86  3000               	movlw	0
  1232  0F87  1BF7               	btfsc	___xxtofl@val+1,7
  1233  0F88  30FF               	movlw	255
  1234  0F89  00F8               	movwf	___xxtofl@val+2
  1235  0F8A  00F9               	movwf	___xxtofl@val+3
  1236  0F8B  3001               	movlw	1
  1237  0F8C  120A  158A  2521  120A  158A  	fcall	___xxtofl
  1238  0F91  0879               	movf	?___xxtofl+3,w
  1239  0F92  1283               	bcf	3,5	;RP0=0, select bank0
  1240  0F93  1303               	bcf	3,6	;RP1=0, select bank0
  1241  0F94  00C3               	movwf	___flsub@a+3
  1242  0F95  0878               	movf	?___xxtofl+2,w
  1243  0F96  00C2               	movwf	___flsub@a+2
  1244  0F97  0877               	movf	?___xxtofl+1,w
  1245  0F98  00C1               	movwf	___flsub@a+1
  1246  0F99  0876               	movf	?___xxtofl,w
  1247  0F9A  00C0               	movwf	___flsub@a
  1248  0F9B  120A  158A  21A2  120A  158A  	fcall	___flsub
  1249  0FA0  1283               	bcf	3,5	;RP0=0, select bank0
  1250  0FA1  1303               	bcf	3,6	;RP1=0, select bank0
  1251  0FA2  0843               	movf	?___flsub+3,w
  1252  0FA3  00DD               	movwf	___fltol@f1+3
  1253  0FA4  0842               	movf	?___flsub+2,w
  1254  0FA5  00DC               	movwf	___fltol@f1+2
  1255  0FA6  0841               	movf	?___flsub+1,w
  1256  0FA7  00DB               	movwf	___fltol@f1+1
  1257  0FA8  0840               	movf	?___flsub,w
  1258  0FA9  00DA               	movwf	___fltol@f1
  1259  0FAA  120A  158A  2409  120A  158A  	fcall	___fltol
  1260  0FAF  1283               	bcf	3,5	;RP0=0, select bank0
  1261  0FB0  1303               	bcf	3,6	;RP1=0, select bank0
  1262  0FB1  085A               	movf	?___fltol,w
  1263  0FB2  1683               	bsf	3,5	;RP0=1, select bank1
  1264  0FB3  1303               	bcf	3,6	;RP1=0, select bank1
  1265  0FB4  00A2               	movwf	(??_main+2)^(0+128)
  1266  0FB5  0822               	movf	(??_main+2)^(0+128),w
  1267  0FB6  00AF               	movwf	_unidad^(0+128)
  1268  0FB7                     l2418:
  1269                           
  1270                           ;Pre_lab.c: 50:         centena += 48;
  1271  0FB7  3030               	movlw	48
  1272  0FB8  00A0               	movwf	??_main^(0+128)
  1273  0FB9  0820               	movf	??_main^(0+128),w
  1274  0FBA  07AD               	addwf	_centena^(0+128),f
  1275  0FBB                     l2420:
  1276                           
  1277                           ;Pre_lab.c: 51:         decena += 48;
  1278  0FBB  3030               	movlw	48
  1279  0FBC  00A0               	movwf	??_main^(0+128)
  1280  0FBD  0820               	movf	??_main^(0+128),w
  1281  0FBE  07AE               	addwf	_decena^(0+128),f
  1282  0FBF                     l2422:
  1283                           
  1284                           ;Pre_lab.c: 52:         unidad += 48;
  1285  0FBF  3030               	movlw	48
  1286  0FC0  00A0               	movwf	??_main^(0+128)
  1287  0FC1  0820               	movf	??_main^(0+128),w
  1288  0FC2  07AF               	addwf	_unidad^(0+128),f
  1289  0FC3                     l2424:
  1290                           
  1291                           ;Pre_lab.c: 54:         LCD_CLEAR4();
  1292  0FC3  120A  158A  215E  120A  158A  	fcall	_LCD_CLEAR4
  1293  0FC8                     l2426:
  1294                           
  1295                           ;Pre_lab.c: 55:         LCD_XY4(1,1);
  1296  0FC8  01F4               	clrf	LCD_XY4@y
  1297  0FC9  0AF4               	incf	LCD_XY4@y,f
  1298  0FCA  3001               	movlw	1
  1299  0FCB  120A  158A  22F1  120A  158A  	fcall	_LCD_XY4
  1300  0FD0                     l2428:
  1301                           
  1302                           ;Pre_lab.c: 56:         LCD_STRING4("POTENCIOMETRO");
  1303  0FD0  3001               	movlw	(low ((STR_1-__stringbase)| (0+32768)))& (0+255)
  1304  0FD1  120A  158A  21C6  120A  158A  	fcall	_LCD_STRING4
  1305  0FD6                     l2430:
  1306                           
  1307                           ;Pre_lab.c: 57:         LCD_XY4(2,1);
  1308  0FD6  01F4               	clrf	LCD_XY4@y
  1309  0FD7  0AF4               	incf	LCD_XY4@y,f
  1310  0FD8  3002               	movlw	2
  1311  0FD9  120A  158A  22F1  120A  158A  	fcall	_LCD_XY4
  1312  0FDE                     l2432:
  1313                           
  1314                           ;Pre_lab.c: 58:         LCD_CHAR4(centena);
  1315  0FDE  1683               	bsf	3,5	;RP0=1, select bank1
  1316  0FDF  1303               	bcf	3,6	;RP1=0, select bank1
  1317  0FE0  082D               	movf	_centena^(0+128),w
  1318  0FE1  120A  158A  226C  120A  158A  	fcall	_LCD_CHAR4
  1319  0FE6                     l2434:
  1320                           
  1321                           ;Pre_lab.c: 59:         LCD_STRING4(".");
  1322  0FE6  300F               	movlw	(low ((STR_2-__stringbase)| (0+32768)))& (0+255)
  1323  0FE7  120A  158A  21C6  120A  158A  	fcall	_LCD_STRING4
  1324  0FEC                     l2436:
  1325                           
  1326                           ;Pre_lab.c: 60:         LCD_CHAR4(decena);
  1327  0FEC  1683               	bsf	3,5	;RP0=1, select bank1
  1328  0FED  1303               	bcf	3,6	;RP1=0, select bank1
  1329  0FEE  082E               	movf	_decena^(0+128),w
  1330  0FEF  120A  158A  226C  120A  158A  	fcall	_LCD_CHAR4
  1331  0FF4                     l2438:
  1332                           
  1333                           ;Pre_lab.c: 61:         LCD_CHAR4(unidad);
  1334  0FF4  1683               	bsf	3,5	;RP0=1, select bank1
  1335  0FF5  1303               	bcf	3,6	;RP1=0, select bank1
  1336  0FF6  082F               	movf	_unidad^(0+128),w
  1337  0FF7  120A  158A  226C  120A  158A  	fcall	_LCD_CHAR4
  1338  0FFC  2DE2               	goto	l2408
  1339  0FFD  120A  118A  2800   	ljmp	start
  1340  1000                     __end_of_main:
  1341                           
  1342                           	psect	text1
  1343  0A37                     __ptext1:	
  1344 ;; *************** function _setup *****************
  1345 ;; Defined at:
  1346 ;;		line 105 in file "Pre_lab.c"
  1347 ;; Parameters:    Size  Location     Type
  1348 ;;		None
  1349 ;; Auto vars:     Size  Location     Type
  1350 ;;		None
  1351 ;; Return value:  Size  Location     Type
  1352 ;;                  1    wreg      void 
  1353 ;; Registers used:
  1354 ;;		wreg, fsr0l, fsr0h, status,2, status,0, pclath, cstack
  1355 ;; Tracked objects:
  1356 ;;		On entry : 0/0
  1357 ;;		On exit  : 0/0
  1358 ;;		Unchanged: 0/0
  1359 ;; Data sizes:     COMMON   BANK0   BANK1   BANK3   BANK2
  1360 ;;      Params:         0       0       0       0       0
  1361 ;;      Locals:         0       0       0       0       0
  1362 ;;      Temps:          1       0       0       0       0
  1363 ;;      Totals:         1       0       0       0       0
  1364 ;;Total ram usage:        1 bytes
  1365 ;; Hardware stack levels used: 1
  1366 ;; Hardware stack levels required when called: 3
  1367 ;; This function calls:
  1368 ;;		_ADC_INIT
  1369 ;;		_LCD_INIT4
  1370 ;;		_OSCILLATOR
  1371 ;; This function is called by:
  1372 ;;		_main
  1373 ;; This function uses a non-reentrant model
  1374 ;;
  1375                           
  1376  0A37                     _setup:	
  1377                           ;psect for function _setup
  1378                           
  1379  0A37                     l1910:	
  1380                           ;incstack = 0
  1381                           ; Regs used in _setup: [wreg-fsr0h+status,2+status,0+pclath+cstack]
  1382                           
  1383                           
  1384                           ;Pre_lab.c: 107:     ANSEL = 0b00100000;
  1385  0A37  3020               	movlw	32
  1386  0A38  1683               	bsf	3,5	;RP0=1, select bank3
  1387  0A39  1703               	bsf	3,6	;RP1=1, select bank3
  1388  0A3A  0088               	movwf	8	;volatile
  1389  0A3B                     l1912:
  1390                           
  1391                           ;Pre_lab.c: 108:     ANSELH = 0x00;
  1392  0A3B  0189               	clrf	9	;volatile
  1393  0A3C                     l1914:
  1394                           
  1395                           ;Pre_lab.c: 111:     TRISD = 0x00;
  1396  0A3C  1683               	bsf	3,5	;RP0=1, select bank1
  1397  0A3D  1303               	bcf	3,6	;RP1=0, select bank1
  1398  0A3E  0188               	clrf	8	;volatile
  1399  0A3F                     l1916:
  1400                           
  1401                           ;Pre_lab.c: 116:     PORTD = 0x00;
  1402  0A3F  1283               	bcf	3,5	;RP0=0, select bank0
  1403  0A40  1303               	bcf	3,6	;RP1=0, select bank0
  1404  0A41  0188               	clrf	8	;volatile
  1405  0A42                     l1918:
  1406                           
  1407                           ;Pre_lab.c: 119:     OSCILLATOR(1);
  1408  0A42  3001               	movlw	1
  1409  0A43  120A  158A  22A5  120A  158A  	fcall	_OSCILLATOR
  1410  0A48                     l1920:
  1411                           
  1412                           ;Pre_lab.c: 122:     ADC_INIT(5);
  1413  0A48  3005               	movlw	5
  1414  0A49  00F0               	movwf	ADC_INIT@c
  1415  0A4A  3000               	movlw	0
  1416  0A4B  00F1               	movwf	ADC_INIT@c+1
  1417  0A4C  120A  158A  2485  120A  158A  	fcall	_ADC_INIT
  1418  0A51                     l1922:
  1419                           
  1420                           ;Pre_lab.c: 124:     ADCON1bits.VCFG0 = 0;
  1421  0A51  1683               	bsf	3,5	;RP0=1, select bank1
  1422  0A52  1303               	bcf	3,6	;RP1=0, select bank1
  1423  0A53  121F               	bcf	31,4	;volatile
  1424  0A54                     l1924:
  1425                           
  1426                           ;Pre_lab.c: 125:     ADCON1bits.VCFG1 = 0;
  1427  0A54  129F               	bcf	31,5	;volatile
  1428  0A55                     l1926:
  1429                           
  1430                           ;Pre_lab.c: 127:     ADCON0bits.ADCS0 = 0;
  1431  0A55  1283               	bcf	3,5	;RP0=0, select bank0
  1432  0A56  1303               	bcf	3,6	;RP1=0, select bank0
  1433  0A57  131F               	bcf	31,6	;volatile
  1434  0A58                     l1928:
  1435                           
  1436                           ;Pre_lab.c: 128:     ADCON0bits.ADCS1 = 1;
  1437  0A58  179F               	bsf	31,7	;volatile
  1438  0A59                     l1930:
  1439                           
  1440                           ;Pre_lab.c: 130:     ADCON1bits.ADFM =0;
  1441  0A59  1683               	bsf	3,5	;RP0=1, select bank1
  1442  0A5A  1303               	bcf	3,6	;RP1=0, select bank1
  1443  0A5B  139F               	bcf	31,7	;volatile
  1444  0A5C                     l1932:
  1445                           
  1446                           ;Pre_lab.c: 132:     ADCON0bits.ADON = 1;
  1447  0A5C  1283               	bcf	3,5	;RP0=0, select bank0
  1448  0A5D  1303               	bcf	3,6	;RP1=0, select bank0
  1449  0A5E  141F               	bsf	31,0	;volatile
  1450  0A5F                     l1934:
  1451                           
  1452                           ;Pre_lab.c: 133:     _delay((unsigned long)((50)*(8000000/4000000.0)));
  1453  0A5F  3021               	movlw	33
  1454  0A60  00F6               	movwf	??_setup
  1455  0A61                     u3357:
  1456  0A61  0BF6               	decfsz	??_setup,f
  1457  0A62  2A61               	goto	u3357
  1458  0A63                     l1936:
  1459                           
  1460                           ;Pre_lab.c: 134:     ADCON0bits.GO_nDONE = 1;
  1461  0A63  1283               	bcf	3,5	;RP0=0, select bank0
  1462  0A64  1303               	bcf	3,6	;RP1=0, select bank0
  1463  0A65  149F               	bsf	31,1	;volatile
  1464  0A66                     l1938:
  1465                           
  1466                           ;Pre_lab.c: 136:     LCD_INIT4();
  1467  0A66  120A  158A  2343  120A  158A  	fcall	_LCD_INIT4
  1468  0A6B                     l51:
  1469  0A6B  0008               	return
  1470  0A6C                     __end_of_setup:
  1471                           
  1472                           	psect	text2
  1473  0AA5                     __ptext2:	
  1474 ;; *************** function _OSCILLATOR *****************
  1475 ;; Defined at:
  1476 ;;		line 23 in file "ADC.c"
  1477 ;; Parameters:    Size  Location     Type
  1478 ;;  f               1    wreg     unsigned char 
  1479 ;; Auto vars:     Size  Location     Type
  1480 ;;  f               1    2[COMMON] unsigned char 
  1481 ;; Return value:  Size  Location     Type
  1482 ;;                  1    wreg      void 
  1483 ;; Registers used:
  1484 ;;		wreg, fsr0l, fsr0h, status,2, status,0
  1485 ;; Tracked objects:
  1486 ;;		On entry : 0/0
  1487 ;;		On exit  : 0/0
  1488 ;;		Unchanged: 0/0
  1489 ;; Data sizes:     COMMON   BANK0   BANK1   BANK3   BANK2
  1490 ;;      Params:         0       0       0       0       0
  1491 ;;      Locals:         1       0       0       0       0
  1492 ;;      Temps:          2       0       0       0       0
  1493 ;;      Totals:         3       0       0       0       0
  1494 ;;Total ram usage:        3 bytes
  1495 ;; Hardware stack levels used: 1
  1496 ;; This function calls:
  1497 ;;		Nothing
  1498 ;; This function is called by:
  1499 ;;		_setup
  1500 ;; This function uses a non-reentrant model
  1501 ;;
  1502                           
  1503  0AA5                     _OSCILLATOR:	
  1504                           ;psect for function _OSCILLATOR
  1505                           
  1506                           
  1507                           ;incstack = 0
  1508                           ; Regs used in _OSCILLATOR: [wreg-fsr0h+status,2+status,0]
  1509                           ;OSCILLATOR@f stored from wreg
  1510  0AA5  00F2               	movwf	OSCILLATOR@f
  1511  0AA6                     l1672:
  1512                           
  1513                           ;ADC.c: 24:     OSCCONbits.SCS = 1;
  1514  0AA6  1683               	bsf	3,5	;RP0=1, select bank1
  1515  0AA7  1303               	bcf	3,6	;RP1=0, select bank1
  1516  0AA8  140F               	bsf	15,0	;volatile
  1517                           
  1518                           ;ADC.c: 26:     switch(f){
  1519  0AA9  2ACE               	goto	l1676
  1520  0AAA                     l112:	
  1521                           ;ADC.c: 27:         case(1):
  1522                           
  1523                           
  1524                           ;ADC.c: 28:             OSCCONbits.IRCF2 =1;
  1525  0AAA  170F               	bsf	15,6	;volatile
  1526                           
  1527                           ;ADC.c: 29:             OSCCONbits.IRCF1 =1;
  1528  0AAB  168F               	bsf	15,5	;volatile
  1529                           
  1530                           ;ADC.c: 30:             OSCCONbits.IRCF0 =1;
  1531  0AAC  160F               	bsf	15,4	;volatile
  1532                           
  1533                           ;ADC.c: 31:             break;
  1534  0AAD  2AF0               	goto	l122
  1535  0AAE                     l114:	
  1536                           ;ADC.c: 33:         case(2):
  1537                           
  1538                           
  1539                           ;ADC.c: 34:             OSCCONbits.IRCF2 =1;
  1540  0AAE  170F               	bsf	15,6	;volatile
  1541                           
  1542                           ;ADC.c: 35:             OSCCONbits.IRCF1 =1;
  1543  0AAF  168F               	bsf	15,5	;volatile
  1544                           
  1545                           ;ADC.c: 36:             OSCCONbits.IRCF0 =0;
  1546  0AB0  120F               	bcf	15,4	;volatile
  1547                           
  1548                           ;ADC.c: 37:             break;
  1549  0AB1  2AF0               	goto	l122
  1550  0AB2                     l115:	
  1551                           ;ADC.c: 39:         case(3):
  1552                           
  1553                           
  1554                           ;ADC.c: 40:             OSCCONbits.IRCF2 =1;
  1555  0AB2  170F               	bsf	15,6	;volatile
  1556                           
  1557                           ;ADC.c: 41:             OSCCONbits.IRCF1 =0;
  1558  0AB3  128F               	bcf	15,5	;volatile
  1559                           
  1560                           ;ADC.c: 42:             OSCCONbits.IRCF0 =1;
  1561  0AB4  160F               	bsf	15,4	;volatile
  1562                           
  1563                           ;ADC.c: 43:             break;
  1564  0AB5  2AF0               	goto	l122
  1565  0AB6                     l116:	
  1566                           ;ADC.c: 45:         case(4):
  1567                           
  1568                           
  1569                           ;ADC.c: 46:             OSCCONbits.IRCF2 =1;
  1570  0AB6  170F               	bsf	15,6	;volatile
  1571                           
  1572                           ;ADC.c: 47:             OSCCONbits.IRCF1 =0;
  1573  0AB7  128F               	bcf	15,5	;volatile
  1574                           
  1575                           ;ADC.c: 48:             OSCCONbits.IRCF0 =0;
  1576  0AB8  120F               	bcf	15,4	;volatile
  1577                           
  1578                           ;ADC.c: 49:             break;
  1579  0AB9  2AF0               	goto	l122
  1580  0ABA                     l117:	
  1581                           ;ADC.c: 51:         case(5):
  1582                           
  1583                           
  1584                           ;ADC.c: 52:             OSCCONbits.IRCF2 =0;
  1585  0ABA  130F               	bcf	15,6	;volatile
  1586                           
  1587                           ;ADC.c: 53:             OSCCONbits.IRCF1 =1;
  1588  0ABB  168F               	bsf	15,5	;volatile
  1589                           
  1590                           ;ADC.c: 54:             OSCCONbits.IRCF0 =1;
  1591  0ABC  160F               	bsf	15,4	;volatile
  1592                           
  1593                           ;ADC.c: 55:             break;
  1594  0ABD  2AF0               	goto	l122
  1595  0ABE                     l118:	
  1596                           ;ADC.c: 57:         case(6):
  1597                           
  1598                           
  1599                           ;ADC.c: 58:             OSCCONbits.IRCF2 =0;
  1600  0ABE  130F               	bcf	15,6	;volatile
  1601                           
  1602                           ;ADC.c: 59:             OSCCONbits.IRCF1 =1;
  1603  0ABF  168F               	bsf	15,5	;volatile
  1604                           
  1605                           ;ADC.c: 60:             OSCCONbits.IRCF0 =0;
  1606  0AC0  120F               	bcf	15,4	;volatile
  1607                           
  1608                           ;ADC.c: 61:             break;
  1609  0AC1  2AF0               	goto	l122
  1610  0AC2                     l119:	
  1611                           ;ADC.c: 63:         case(7):
  1612                           
  1613                           
  1614                           ;ADC.c: 64:             OSCCONbits.IRCF2 =0;
  1615  0AC2  130F               	bcf	15,6	;volatile
  1616                           
  1617                           ;ADC.c: 65:             OSCCONbits.IRCF1 =0;
  1618  0AC3  128F               	bcf	15,5	;volatile
  1619                           
  1620                           ;ADC.c: 66:             OSCCONbits.IRCF0 =1;
  1621  0AC4  160F               	bsf	15,4	;volatile
  1622                           
  1623                           ;ADC.c: 67:             break;
  1624  0AC5  2AF0               	goto	l122
  1625  0AC6                     l120:	
  1626                           ;ADC.c: 69:         case(8):
  1627                           
  1628                           
  1629                           ;ADC.c: 70:             OSCCONbits.IRCF2 =0;
  1630  0AC6  130F               	bcf	15,6	;volatile
  1631                           
  1632                           ;ADC.c: 71:             OSCCONbits.IRCF1 =0;
  1633  0AC7  128F               	bcf	15,5	;volatile
  1634                           
  1635                           ;ADC.c: 72:             OSCCONbits.IRCF0 =0;
  1636  0AC8  120F               	bcf	15,4	;volatile
  1637                           
  1638                           ;ADC.c: 73:             break;
  1639  0AC9  2AF0               	goto	l122
  1640  0ACA                     l121:	
  1641                           ;ADC.c: 75:         default:
  1642                           
  1643                           
  1644                           ;ADC.c: 76:             OSCCONbits.IRCF2 =1;
  1645  0ACA  170F               	bsf	15,6	;volatile
  1646                           
  1647                           ;ADC.c: 77:             OSCCONbits.IRCF1 =1;
  1648  0ACB  168F               	bsf	15,5	;volatile
  1649                           
  1650                           ;ADC.c: 78:             OSCCONbits.IRCF0 =0;
  1651  0ACC  120F               	bcf	15,4	;volatile
  1652                           
  1653                           ;ADC.c: 79:             break;
  1654  0ACD  2AF0               	goto	l122
  1655  0ACE                     l1676:
  1656  0ACE  0872               	movf	OSCILLATOR@f,w
  1657  0ACF  00F0               	movwf	??_OSCILLATOR
  1658  0AD0  01F1               	clrf	??_OSCILLATOR+1
  1659                           
  1660                           ; Switch on 2 bytes has been partitioned into a top level switch of size 1, and 1 sub-sw
      +                          itches
  1661                           ; Switch size 1, requested type "simple"
  1662                           ; Number of cases is 1, Range of values is 0 to 0
  1663                           ; switch strategies available:
  1664                           ; Name         Instructions Cycles
  1665                           ; simple_byte            4     3 (average)
  1666                           ; direct_byte           11     8 (fixed)
  1667                           ; jumptable            260     6 (fixed)
  1668                           ;	Chosen strategy is simple_byte
  1669  0AD1  0871               	movf	??_OSCILLATOR+1,w
  1670  0AD2  3A00               	xorlw	0	; case 0
  1671  0AD3  1903               	skipnz
  1672  0AD4  2AD6               	goto	l2488
  1673  0AD5  2ACA               	goto	l121
  1674  0AD6                     l2488:
  1675                           
  1676                           ; Switch size 1, requested type "simple"
  1677                           ; Number of cases is 8, Range of values is 1 to 8
  1678                           ; switch strategies available:
  1679                           ; Name         Instructions Cycles
  1680                           ; simple_byte           25    13 (average)
  1681                           ; direct_byte           35    11 (fixed)
  1682                           ; jumptable            263     9 (fixed)
  1683                           ;	Chosen strategy is simple_byte
  1684  0AD6  0870               	movf	??_OSCILLATOR,w
  1685  0AD7  3A01               	xorlw	1	; case 1
  1686  0AD8  1903               	skipnz
  1687  0AD9  2AAA               	goto	l112
  1688  0ADA  3A03               	xorlw	3	; case 2
  1689  0ADB  1903               	skipnz
  1690  0ADC  2AAE               	goto	l114
  1691  0ADD  3A01               	xorlw	1	; case 3
  1692  0ADE  1903               	skipnz
  1693  0ADF  2AB2               	goto	l115
  1694  0AE0  3A07               	xorlw	7	; case 4
  1695  0AE1  1903               	skipnz
  1696  0AE2  2AB6               	goto	l116
  1697  0AE3  3A01               	xorlw	1	; case 5
  1698  0AE4  1903               	skipnz
  1699  0AE5  2ABA               	goto	l117
  1700  0AE6  3A03               	xorlw	3	; case 6
  1701  0AE7  1903               	skipnz
  1702  0AE8  2ABE               	goto	l118
  1703  0AE9  3A01               	xorlw	1	; case 7
  1704  0AEA  1903               	skipnz
  1705  0AEB  2AC2               	goto	l119
  1706  0AEC  3A0F               	xorlw	15	; case 8
  1707  0AED  1903               	skipnz
  1708  0AEE  2AC6               	goto	l120
  1709  0AEF  2ACA               	goto	l121
  1710  0AF0                     l122:
  1711  0AF0  0008               	return
  1712  0AF1                     __end_of_OSCILLATOR:
  1713                           
  1714                           	psect	text3
  1715  0B43                     __ptext3:	
  1716 ;; *************** function _LCD_INIT4 *****************
  1717 ;; Defined at:
  1718 ;;		line 62 in file "LCD.c"
  1719 ;; Parameters:    Size  Location     Type
  1720 ;;		None
  1721 ;; Auto vars:     Size  Location     Type
  1722 ;;		None
  1723 ;; Return value:  Size  Location     Type
  1724 ;;                  1    wreg      void 
  1725 ;; Registers used:
  1726 ;;		wreg, status,2, status,0, pclath, cstack
  1727 ;; Tracked objects:
  1728 ;;		On entry : 0/0
  1729 ;;		On exit  : 0/0
  1730 ;;		Unchanged: 0/0
  1731 ;; Data sizes:     COMMON   BANK0   BANK1   BANK3   BANK2
  1732 ;;      Params:         0       0       0       0       0
  1733 ;;      Locals:         0       0       0       0       0
  1734 ;;      Temps:          2       0       0       0       0
  1735 ;;      Totals:         2       0       0       0       0
  1736 ;;Total ram usage:        2 bytes
  1737 ;; Hardware stack levels used: 1
  1738 ;; Hardware stack levels required when called: 2
  1739 ;; This function calls:
  1740 ;;		_LCD_COM4
  1741 ;;		_LCD_PORT4
  1742 ;; This function is called by:
  1743 ;;		_setup
  1744 ;; This function uses a non-reentrant model
  1745 ;;
  1746                           
  1747  0B43                     _LCD_INIT4:	
  1748                           ;psect for function _LCD_INIT4
  1749                           
  1750  0B43                     l1692:	
  1751                           ;incstack = 0
  1752                           ; Regs used in _LCD_INIT4: [wreg+status,2+status,0+pclath+cstack]
  1753                           
  1754                           
  1755                           ;LCD.c: 63:     LCD_PORT4(0x00);
  1756  0B43  3000               	movlw	0
  1757  0B44  120A  158A  2180  120A  158A  	fcall	_LCD_PORT4
  1758  0B49                     l1694:
  1759                           
  1760                           ;LCD.c: 64:     _delay((unsigned long)((20)*(8000000/4000.0)));
  1761  0B49  3034               	movlw	52
  1762  0B4A  00F5               	movwf	??_LCD_INIT4+1
  1763  0B4B  30F1               	movlw	241
  1764  0B4C  00F4               	movwf	??_LCD_INIT4
  1765  0B4D                     u3367:
  1766  0B4D  0BF4               	decfsz	??_LCD_INIT4,f
  1767  0B4E  2B4D               	goto	u3367
  1768  0B4F  0BF5               	decfsz	??_LCD_INIT4+1,f
  1769  0B50  2B4D               	goto	u3367
  1770  0B51  2B52               	nop2
  1771  0B52                     l1696:
  1772                           
  1773                           ;LCD.c: 65:     LCD_COM4(0x03);
  1774  0B52  3003               	movlw	3
  1775  0B53  120A  118A  2006  120A  158A  	fcall	_LCD_COM4
  1776                           
  1777                           ;LCD.c: 66:     _delay((unsigned long)((5)*(8000000/4000.0)));
  1778  0B58  300D               	movlw	13
  1779  0B59  00F5               	movwf	??_LCD_INIT4+1
  1780  0B5A  30FB               	movlw	251
  1781  0B5B  00F4               	movwf	??_LCD_INIT4
  1782  0B5C                     u3377:
  1783  0B5C  0BF4               	decfsz	??_LCD_INIT4,f
  1784  0B5D  2B5C               	goto	u3377
  1785  0B5E  0BF5               	decfsz	??_LCD_INIT4+1,f
  1786  0B5F  2B5C               	goto	u3377
  1787  0B60  2B61               	nop2
  1788  0B61                     l1698:
  1789                           
  1790                           ;LCD.c: 67:     LCD_COM4(0x03);
  1791  0B61  3003               	movlw	3
  1792  0B62  120A  118A  2006  120A  158A  	fcall	_LCD_COM4
  1793  0B67                     l1700:
  1794                           
  1795                           ;LCD.c: 68:     _delay((unsigned long)((11)*(8000000/4000.0)));
  1796  0B67  301D               	movlw	29
  1797  0B68  00F5               	movwf	??_LCD_INIT4+1
  1798  0B69  3091               	movlw	145
  1799  0B6A  00F4               	movwf	??_LCD_INIT4
  1800  0B6B                     u3387:
  1801  0B6B  0BF4               	decfsz	??_LCD_INIT4,f
  1802  0B6C  2B6B               	goto	u3387
  1803  0B6D  0BF5               	decfsz	??_LCD_INIT4+1,f
  1804  0B6E  2B6B               	goto	u3387
  1805                           
  1806                           ;LCD.c: 69:     LCD_COM4(0x03);
  1807  0B6F  3003               	movlw	3
  1808  0B70  120A  118A  2006  120A  158A  	fcall	_LCD_COM4
  1809                           
  1810                           ;LCD.c: 71:     LCD_COM4(0x02);
  1811  0B75  3002               	movlw	2
  1812  0B76  120A  118A  2006  120A  158A  	fcall	_LCD_COM4
  1813                           
  1814                           ;LCD.c: 72:     LCD_COM4(0x02);
  1815  0B7B  3002               	movlw	2
  1816  0B7C  120A  118A  2006  120A  158A  	fcall	_LCD_COM4
  1817                           
  1818                           ;LCD.c: 73:     LCD_COM4(0x08);
  1819  0B81  3008               	movlw	8
  1820  0B82  120A  118A  2006  120A  158A  	fcall	_LCD_COM4
  1821                           
  1822                           ;LCD.c: 74:     LCD_COM4(0x00);
  1823  0B87  3000               	movlw	0
  1824  0B88  120A  118A  2006  120A  158A  	fcall	_LCD_COM4
  1825                           
  1826                           ;LCD.c: 75:     LCD_COM4(0x0C);
  1827  0B8D  300C               	movlw	12
  1828  0B8E  120A  118A  2006  120A  158A  	fcall	_LCD_COM4
  1829                           
  1830                           ;LCD.c: 76:     LCD_COM4(0x00);
  1831  0B93  3000               	movlw	0
  1832  0B94  120A  118A  2006  120A  158A  	fcall	_LCD_COM4
  1833                           
  1834                           ;LCD.c: 77:     LCD_COM4(0x06);
  1835  0B99  3006               	movlw	6
  1836  0B9A  120A  118A  2006  120A  158A  	fcall	_LCD_COM4
  1837  0B9F                     l81:
  1838  0B9F  0008               	return
  1839  0BA0                     __end_of_LCD_INIT4:
  1840                           
  1841                           	psect	text4
  1842  0C85                     __ptext4:	
  1843 ;; *************** function _ADC_INIT *****************
  1844 ;; Defined at:
  1845 ;;		line 85 in file "ADC.c"
  1846 ;; Parameters:    Size  Location     Type
  1847 ;;  c               2    0[COMMON] int 
  1848 ;; Auto vars:     Size  Location     Type
  1849 ;;		None
  1850 ;; Return value:  Size  Location     Type
  1851 ;;                  1    wreg      void 
  1852 ;; Registers used:
  1853 ;;		wreg, fsr0l, fsr0h, status,2, status,0
  1854 ;; Tracked objects:
  1855 ;;		On entry : 0/0
  1856 ;;		On exit  : 0/0
  1857 ;;		Unchanged: 0/0
  1858 ;; Data sizes:     COMMON   BANK0   BANK1   BANK3   BANK2
  1859 ;;      Params:         2       0       0       0       0
  1860 ;;      Locals:         0       0       0       0       0
  1861 ;;      Temps:          0       0       0       0       0
  1862 ;;      Totals:         2       0       0       0       0
  1863 ;;Total ram usage:        2 bytes
  1864 ;; Hardware stack levels used: 1
  1865 ;; This function calls:
  1866 ;;		Nothing
  1867 ;; This function is called by:
  1868 ;;		_setup
  1869 ;; This function uses a non-reentrant model
  1870 ;;
  1871                           
  1872  0C85                     _ADC_INIT:	
  1873                           ;psect for function _ADC_INIT
  1874                           
  1875  0C85                     l1682:	
  1876                           ;incstack = 0
  1877                           ; Regs used in _ADC_INIT: [wreg-fsr0h+status,2+status,0]
  1878                           
  1879                           
  1880                           ;ADC.c: 86:     switch(c){
  1881  0C85  2CEF               	goto	l1686
  1882  0C86                     l126:	
  1883                           ;ADC.c: 87:         case 0:
  1884                           
  1885                           
  1886                           ;ADC.c: 88:             ADCON0bits.CHS3 = 0;
  1887  0C86  1283               	bcf	3,5	;RP0=0, select bank0
  1888  0C87  1303               	bcf	3,6	;RP1=0, select bank0
  1889  0C88  129F               	bcf	31,5	;volatile
  1890                           
  1891                           ;ADC.c: 89:             ADCON0bits.CHS2 = 0;
  1892  0C89  121F               	bcf	31,4	;volatile
  1893                           
  1894                           ;ADC.c: 90:             ADCON0bits.CHS1 = 0;
  1895  0C8A  119F               	bcf	31,3	;volatile
  1896                           
  1897                           ;ADC.c: 91:             ADCON0bits.CHS0 = 0;
  1898  0C8B  111F               	bcf	31,2	;volatile
  1899                           
  1900                           ;ADC.c: 92:             break;
  1901  0C8C  2D20               	goto	l142
  1902  0C8D                     l128:	
  1903                           ;ADC.c: 94:         case 1:
  1904                           
  1905                           
  1906                           ;ADC.c: 95:             ADCON0bits.CHS3 = 0;
  1907  0C8D  1283               	bcf	3,5	;RP0=0, select bank0
  1908  0C8E  1303               	bcf	3,6	;RP1=0, select bank0
  1909  0C8F  129F               	bcf	31,5	;volatile
  1910                           
  1911                           ;ADC.c: 96:             ADCON0bits.CHS2 = 0;
  1912  0C90  121F               	bcf	31,4	;volatile
  1913                           
  1914                           ;ADC.c: 97:             ADCON0bits.CHS1 = 0;
  1915  0C91  119F               	bcf	31,3	;volatile
  1916                           
  1917                           ;ADC.c: 98:             ADCON0bits.CHS0 = 1;
  1918  0C92  151F               	bsf	31,2	;volatile
  1919                           
  1920                           ;ADC.c: 99:             break;
  1921  0C93  2D20               	goto	l142
  1922  0C94                     l129:	
  1923                           ;ADC.c: 101:         case 2:
  1924                           
  1925                           
  1926                           ;ADC.c: 102:             ADCON0bits.CHS3 = 0;
  1927  0C94  1283               	bcf	3,5	;RP0=0, select bank0
  1928  0C95  1303               	bcf	3,6	;RP1=0, select bank0
  1929  0C96  129F               	bcf	31,5	;volatile
  1930                           
  1931                           ;ADC.c: 103:             ADCON0bits.CHS2 = 0;
  1932  0C97  121F               	bcf	31,4	;volatile
  1933                           
  1934                           ;ADC.c: 104:             ADCON0bits.CHS1 = 1;
  1935  0C98  159F               	bsf	31,3	;volatile
  1936                           
  1937                           ;ADC.c: 105:             ADCON0bits.CHS0 = 0;
  1938  0C99  111F               	bcf	31,2	;volatile
  1939                           
  1940                           ;ADC.c: 106:             break;
  1941  0C9A  2D20               	goto	l142
  1942  0C9B                     l130:	
  1943                           ;ADC.c: 108:         case 3:
  1944                           
  1945                           
  1946                           ;ADC.c: 109:             ADCON0bits.CHS3 = 0;
  1947  0C9B  1283               	bcf	3,5	;RP0=0, select bank0
  1948  0C9C  1303               	bcf	3,6	;RP1=0, select bank0
  1949  0C9D  129F               	bcf	31,5	;volatile
  1950                           
  1951                           ;ADC.c: 110:             ADCON0bits.CHS2 = 0;
  1952  0C9E  121F               	bcf	31,4	;volatile
  1953                           
  1954                           ;ADC.c: 111:             ADCON0bits.CHS1 = 1;
  1955  0C9F  159F               	bsf	31,3	;volatile
  1956                           
  1957                           ;ADC.c: 112:             ADCON0bits.CHS0 = 1;
  1958  0CA0  151F               	bsf	31,2	;volatile
  1959                           
  1960                           ;ADC.c: 113:             break;
  1961  0CA1  2D20               	goto	l142
  1962  0CA2                     l131:	
  1963                           ;ADC.c: 115:         case 4:
  1964                           
  1965                           
  1966                           ;ADC.c: 116:             ADCON0bits.CHS3 = 0;
  1967  0CA2  1283               	bcf	3,5	;RP0=0, select bank0
  1968  0CA3  1303               	bcf	3,6	;RP1=0, select bank0
  1969  0CA4  129F               	bcf	31,5	;volatile
  1970                           
  1971                           ;ADC.c: 117:             ADCON0bits.CHS2 = 1;
  1972  0CA5  161F               	bsf	31,4	;volatile
  1973                           
  1974                           ;ADC.c: 118:             ADCON0bits.CHS1 = 0;
  1975  0CA6  119F               	bcf	31,3	;volatile
  1976                           
  1977                           ;ADC.c: 119:             ADCON0bits.CHS0 = 0;
  1978  0CA7  111F               	bcf	31,2	;volatile
  1979                           
  1980                           ;ADC.c: 120:             break;
  1981  0CA8  2D20               	goto	l142
  1982  0CA9                     l132:	
  1983                           ;ADC.c: 122:         case 5:
  1984                           
  1985                           
  1986                           ;ADC.c: 123:             ADCON0bits.CHS3 = 0;
  1987  0CA9  1283               	bcf	3,5	;RP0=0, select bank0
  1988  0CAA  1303               	bcf	3,6	;RP1=0, select bank0
  1989  0CAB  129F               	bcf	31,5	;volatile
  1990                           
  1991                           ;ADC.c: 124:             ADCON0bits.CHS2 = 1;
  1992  0CAC  161F               	bsf	31,4	;volatile
  1993                           
  1994                           ;ADC.c: 125:             ADCON0bits.CHS1 = 0;
  1995  0CAD  119F               	bcf	31,3	;volatile
  1996                           
  1997                           ;ADC.c: 126:             ADCON0bits.CHS0 = 1;
  1998  0CAE  151F               	bsf	31,2	;volatile
  1999                           
  2000                           ;ADC.c: 127:             break;
  2001  0CAF  2D20               	goto	l142
  2002  0CB0                     l133:	
  2003                           ;ADC.c: 129:         case 6:
  2004                           
  2005                           
  2006                           ;ADC.c: 130:             ADCON0bits.CHS3 = 0;
  2007  0CB0  1283               	bcf	3,5	;RP0=0, select bank0
  2008  0CB1  1303               	bcf	3,6	;RP1=0, select bank0
  2009  0CB2  129F               	bcf	31,5	;volatile
  2010                           
  2011                           ;ADC.c: 131:             ADCON0bits.CHS2 = 1;
  2012  0CB3  161F               	bsf	31,4	;volatile
  2013                           
  2014                           ;ADC.c: 132:             ADCON0bits.CHS1 = 1;
  2015  0CB4  159F               	bsf	31,3	;volatile
  2016                           
  2017                           ;ADC.c: 133:             ADCON0bits.CHS0 = 0;
  2018  0CB5  111F               	bcf	31,2	;volatile
  2019                           
  2020                           ;ADC.c: 134:             break;
  2021  0CB6  2D20               	goto	l142
  2022  0CB7                     l134:	
  2023                           ;ADC.c: 136:         case 7:
  2024                           
  2025                           
  2026                           ;ADC.c: 137:             ADCON0bits.CHS3 = 0;
  2027  0CB7  1283               	bcf	3,5	;RP0=0, select bank0
  2028  0CB8  1303               	bcf	3,6	;RP1=0, select bank0
  2029  0CB9  129F               	bcf	31,5	;volatile
  2030                           
  2031                           ;ADC.c: 138:             ADCON0bits.CHS2 = 1;
  2032  0CBA  161F               	bsf	31,4	;volatile
  2033                           
  2034                           ;ADC.c: 139:             ADCON0bits.CHS1 = 1;
  2035  0CBB  159F               	bsf	31,3	;volatile
  2036                           
  2037                           ;ADC.c: 140:             ADCON0bits.CHS0 = 1;
  2038  0CBC  151F               	bsf	31,2	;volatile
  2039                           
  2040                           ;ADC.c: 141:             break;
  2041  0CBD  2D20               	goto	l142
  2042  0CBE                     l135:	
  2043                           ;ADC.c: 143:         case 8:
  2044                           
  2045                           
  2046                           ;ADC.c: 144:             ADCON0bits.CHS3 = 1;
  2047  0CBE  1283               	bcf	3,5	;RP0=0, select bank0
  2048  0CBF  1303               	bcf	3,6	;RP1=0, select bank0
  2049  0CC0  169F               	bsf	31,5	;volatile
  2050                           
  2051                           ;ADC.c: 145:             ADCON0bits.CHS2 = 0;
  2052  0CC1  121F               	bcf	31,4	;volatile
  2053                           
  2054                           ;ADC.c: 146:             ADCON0bits.CHS1 = 0;
  2055  0CC2  119F               	bcf	31,3	;volatile
  2056                           
  2057                           ;ADC.c: 147:             ADCON0bits.CHS0 = 0;
  2058  0CC3  111F               	bcf	31,2	;volatile
  2059                           
  2060                           ;ADC.c: 148:             break;
  2061  0CC4  2D20               	goto	l142
  2062  0CC5                     l136:	
  2063                           ;ADC.c: 150:         case 9:
  2064                           
  2065                           
  2066                           ;ADC.c: 151:             ADCON0bits.CHS3 = 1;
  2067  0CC5  1283               	bcf	3,5	;RP0=0, select bank0
  2068  0CC6  1303               	bcf	3,6	;RP1=0, select bank0
  2069  0CC7  169F               	bsf	31,5	;volatile
  2070                           
  2071                           ;ADC.c: 152:             ADCON0bits.CHS2 = 0;
  2072  0CC8  121F               	bcf	31,4	;volatile
  2073                           
  2074                           ;ADC.c: 153:             ADCON0bits.CHS1 = 0;
  2075  0CC9  119F               	bcf	31,3	;volatile
  2076                           
  2077                           ;ADC.c: 154:             ADCON0bits.CHS0 = 1;
  2078  0CCA  151F               	bsf	31,2	;volatile
  2079                           
  2080                           ;ADC.c: 155:             break;
  2081  0CCB  2D20               	goto	l142
  2082  0CCC                     l137:	
  2083                           ;ADC.c: 157:         case 10:
  2084                           
  2085                           
  2086                           ;ADC.c: 158:             ADCON0bits.CHS3 = 1;
  2087  0CCC  1283               	bcf	3,5	;RP0=0, select bank0
  2088  0CCD  1303               	bcf	3,6	;RP1=0, select bank0
  2089  0CCE  169F               	bsf	31,5	;volatile
  2090                           
  2091                           ;ADC.c: 159:             ADCON0bits.CHS2 = 0;
  2092  0CCF  121F               	bcf	31,4	;volatile
  2093                           
  2094                           ;ADC.c: 160:             ADCON0bits.CHS1 = 1;
  2095  0CD0  159F               	bsf	31,3	;volatile
  2096                           
  2097                           ;ADC.c: 161:             ADCON0bits.CHS0 = 0;
  2098  0CD1  111F               	bcf	31,2	;volatile
  2099                           
  2100                           ;ADC.c: 162:             break;
  2101  0CD2  2D20               	goto	l142
  2102  0CD3                     l138:	
  2103                           ;ADC.c: 164:         case 11:
  2104                           
  2105                           
  2106                           ;ADC.c: 165:             ADCON0bits.CHS3 = 1;
  2107  0CD3  1283               	bcf	3,5	;RP0=0, select bank0
  2108  0CD4  1303               	bcf	3,6	;RP1=0, select bank0
  2109  0CD5  169F               	bsf	31,5	;volatile
  2110                           
  2111                           ;ADC.c: 166:             ADCON0bits.CHS2 = 0;
  2112  0CD6  121F               	bcf	31,4	;volatile
  2113                           
  2114                           ;ADC.c: 167:             ADCON0bits.CHS1 = 1;
  2115  0CD7  159F               	bsf	31,3	;volatile
  2116                           
  2117                           ;ADC.c: 168:             ADCON0bits.CHS0 = 1;
  2118  0CD8  151F               	bsf	31,2	;volatile
  2119                           
  2120                           ;ADC.c: 169:             break;
  2121  0CD9  2D20               	goto	l142
  2122  0CDA                     l139:	
  2123                           ;ADC.c: 171:         case 12:
  2124                           
  2125                           
  2126                           ;ADC.c: 172:             ADCON0bits.CHS3 = 1;
  2127  0CDA  1283               	bcf	3,5	;RP0=0, select bank0
  2128  0CDB  1303               	bcf	3,6	;RP1=0, select bank0
  2129  0CDC  169F               	bsf	31,5	;volatile
  2130                           
  2131                           ;ADC.c: 173:             ADCON0bits.CHS2 = 1;
  2132  0CDD  161F               	bsf	31,4	;volatile
  2133                           
  2134                           ;ADC.c: 174:             ADCON0bits.CHS1 = 0;
  2135  0CDE  119F               	bcf	31,3	;volatile
  2136                           
  2137                           ;ADC.c: 175:             ADCON0bits.CHS0 = 0;
  2138  0CDF  111F               	bcf	31,2	;volatile
  2139                           
  2140                           ;ADC.c: 176:             break;
  2141  0CE0  2D20               	goto	l142
  2142  0CE1                     l140:	
  2143                           ;ADC.c: 178:         case 13:
  2144                           
  2145                           
  2146                           ;ADC.c: 179:             ADCON0bits.CHS3 = 1;
  2147  0CE1  1283               	bcf	3,5	;RP0=0, select bank0
  2148  0CE2  1303               	bcf	3,6	;RP1=0, select bank0
  2149  0CE3  169F               	bsf	31,5	;volatile
  2150                           
  2151                           ;ADC.c: 180:             ADCON0bits.CHS2 = 1;
  2152  0CE4  161F               	bsf	31,4	;volatile
  2153                           
  2154                           ;ADC.c: 181:             ADCON0bits.CHS1 = 0;
  2155  0CE5  119F               	bcf	31,3	;volatile
  2156                           
  2157                           ;ADC.c: 182:             ADCON0bits.CHS0 = 1;
  2158  0CE6  151F               	bsf	31,2	;volatile
  2159                           
  2160                           ;ADC.c: 183:             break;
  2161  0CE7  2D20               	goto	l142
  2162  0CE8                     l141:	
  2163                           ;ADC.c: 185:         default:
  2164                           
  2165                           
  2166                           ;ADC.c: 186:             ADCON0bits.CHS3 = 0;
  2167  0CE8  1283               	bcf	3,5	;RP0=0, select bank0
  2168  0CE9  1303               	bcf	3,6	;RP1=0, select bank0
  2169  0CEA  129F               	bcf	31,5	;volatile
  2170                           
  2171                           ;ADC.c: 187:             ADCON0bits.CHS2 = 0;
  2172  0CEB  121F               	bcf	31,4	;volatile
  2173                           
  2174                           ;ADC.c: 188:             ADCON0bits.CHS1 = 0;
  2175  0CEC  119F               	bcf	31,3	;volatile
  2176                           
  2177                           ;ADC.c: 189:             ADCON0bits.CHS0 = 0;
  2178  0CED  111F               	bcf	31,2	;volatile
  2179                           
  2180                           ;ADC.c: 190:             break;
  2181  0CEE  2D20               	goto	l142
  2182  0CEF                     l1686:
  2183                           
  2184                           ; Switch on 2 bytes has been partitioned into a top level switch of size 1, and 1 sub-sw
      +                          itches
  2185                           ; Switch size 1, requested type "simple"
  2186                           ; Number of cases is 1, Range of values is 0 to 0
  2187                           ; switch strategies available:
  2188                           ; Name         Instructions Cycles
  2189                           ; simple_byte            4     3 (average)
  2190                           ; direct_byte           11     8 (fixed)
  2191                           ; jumptable            260     6 (fixed)
  2192                           ;	Chosen strategy is simple_byte
  2193  0CEF  0871               	movf	ADC_INIT@c+1,w
  2194  0CF0  3A00               	xorlw	0	; case 0
  2195  0CF1  1903               	skipnz
  2196  0CF2  2CF4               	goto	l2490
  2197  0CF3  2CE8               	goto	l141
  2198  0CF4                     l2490:
  2199                           
  2200                           ; Switch size 1, requested type "simple"
  2201                           ; Number of cases is 14, Range of values is 0 to 13
  2202                           ; switch strategies available:
  2203                           ; Name         Instructions Cycles
  2204                           ; simple_byte           43    22 (average)
  2205                           ; direct_byte           50     8 (fixed)
  2206                           ; jumptable            260     6 (fixed)
  2207                           ;	Chosen strategy is simple_byte
  2208  0CF4  0870               	movf	ADC_INIT@c,w
  2209  0CF5  3A00               	xorlw	0	; case 0
  2210  0CF6  1903               	skipnz
  2211  0CF7  2C86               	goto	l126
  2212  0CF8  3A01               	xorlw	1	; case 1
  2213  0CF9  1903               	skipnz
  2214  0CFA  2C8D               	goto	l128
  2215  0CFB  3A03               	xorlw	3	; case 2
  2216  0CFC  1903               	skipnz
  2217  0CFD  2C94               	goto	l129
  2218  0CFE  3A01               	xorlw	1	; case 3
  2219  0CFF  1903               	skipnz
  2220  0D00  2C9B               	goto	l130
  2221  0D01  3A07               	xorlw	7	; case 4
  2222  0D02  1903               	skipnz
  2223  0D03  2CA2               	goto	l131
  2224  0D04  3A01               	xorlw	1	; case 5
  2225  0D05  1903               	skipnz
  2226  0D06  2CA9               	goto	l132
  2227  0D07  3A03               	xorlw	3	; case 6
  2228  0D08  1903               	skipnz
  2229  0D09  2CB0               	goto	l133
  2230  0D0A  3A01               	xorlw	1	; case 7
  2231  0D0B  1903               	skipnz
  2232  0D0C  2CB7               	goto	l134
  2233  0D0D  3A0F               	xorlw	15	; case 8
  2234  0D0E  1903               	skipnz
  2235  0D0F  2CBE               	goto	l135
  2236  0D10  3A01               	xorlw	1	; case 9
  2237  0D11  1903               	skipnz
  2238  0D12  2CC5               	goto	l136
  2239  0D13  3A03               	xorlw	3	; case 10
  2240  0D14  1903               	skipnz
  2241  0D15  2CCC               	goto	l137
  2242  0D16  3A01               	xorlw	1	; case 11
  2243  0D17  1903               	skipnz
  2244  0D18  2CD3               	goto	l138
  2245  0D19  3A07               	xorlw	7	; case 12
  2246  0D1A  1903               	skipnz
  2247  0D1B  2CDA               	goto	l139
  2248  0D1C  3A01               	xorlw	1	; case 13
  2249  0D1D  1903               	skipnz
  2250  0D1E  2CE1               	goto	l140
  2251  0D1F  2CE8               	goto	l141
  2252  0D20                     l142:
  2253  0D20  0008               	return
  2254  0D21                     __end_of_ADC_INIT:
  2255                           
  2256                           	psect	text5
  2257  0D21                     __ptext5:	
  2258 ;; *************** function ___xxtofl *****************
  2259 ;; Defined at:
  2260 ;;		line 10 in file "C:\Program Files\Microchip\xc8\v2.35\pic\sources\c90\common\xxtofl.c"
  2261 ;; Parameters:    Size  Location     Type
  2262 ;;  sign            1    wreg     unsigned char 
  2263 ;;  val             4    6[COMMON] long 
  2264 ;; Auto vars:     Size  Location     Type
  2265 ;;  sign            1    0[BANK0 ] unsigned char 
  2266 ;;  arg             4    2[BANK0 ] unsigned long 
  2267 ;;  exp             1    1[BANK0 ] unsigned char 
  2268 ;; Return value:  Size  Location     Type
  2269 ;;                  4    6[COMMON] unsigned char 
  2270 ;; Registers used:
  2271 ;;		wreg, status,2, status,0
  2272 ;; Tracked objects:
  2273 ;;		On entry : 0/0
  2274 ;;		On exit  : 0/0
  2275 ;;		Unchanged: 0/0
  2276 ;; Data sizes:     COMMON   BANK0   BANK1   BANK3   BANK2
  2277 ;;      Params:         4       0       0       0       0
  2278 ;;      Locals:         0       6       0       0       0
  2279 ;;      Temps:          4       0       0       0       0
  2280 ;;      Totals:         8       6       0       0       0
  2281 ;;Total ram usage:       14 bytes
  2282 ;; Hardware stack levels used: 1
  2283 ;; This function calls:
  2284 ;;		Nothing
  2285 ;; This function is called by:
  2286 ;;		_main
  2287 ;; This function uses a non-reentrant model
  2288 ;;
  2289                           
  2290  0D21                     ___xxtofl:	
  2291                           ;psect for function ___xxtofl
  2292                           
  2293                           
  2294                           ;incstack = 0
  2295                           ; Regs used in ___xxtofl: [wreg+status,2+status,0]
  2296                           ;___xxtofl@sign stored from wreg
  2297  0D21  1283               	bcf	3,5	;RP0=0, select bank0
  2298  0D22  1303               	bcf	3,6	;RP1=0, select bank0
  2299  0D23  00A0               	movwf	___xxtofl@sign
  2300  0D24                     l2362:
  2301  0D24  0820               	movf	___xxtofl@sign,w
  2302  0D25  1903               	btfsc	3,2
  2303  0D26  2D28               	goto	u3211
  2304  0D27  2D29               	goto	u3210
  2305  0D28                     u3211:
  2306  0D28  2D3D               	goto	l2368
  2307  0D29                     u3210:
  2308  0D29                     l2364:
  2309  0D29  1FF9               	btfss	___xxtofl@val+3,7
  2310  0D2A  2D2C               	goto	u3221
  2311  0D2B  2D2D               	goto	u3220
  2312  0D2C                     u3221:
  2313  0D2C  2D3D               	goto	l2368
  2314  0D2D                     u3220:
  2315  0D2D                     l2366:
  2316  0D2D  0976               	comf	___xxtofl@val,w
  2317  0D2E  00A2               	movwf	___xxtofl@arg
  2318  0D2F  0977               	comf	___xxtofl@val+1,w
  2319  0D30  00A3               	movwf	___xxtofl@arg+1
  2320  0D31  0978               	comf	___xxtofl@val+2,w
  2321  0D32  00A4               	movwf	___xxtofl@arg+2
  2322  0D33  0979               	comf	___xxtofl@val+3,w
  2323  0D34  00A5               	movwf	___xxtofl@arg+3
  2324  0D35  0AA2               	incf	___xxtofl@arg,f
  2325  0D36  1903               	skipnz
  2326  0D37  0AA3               	incf	___xxtofl@arg+1,f
  2327  0D38  1903               	skipnz
  2328  0D39  0AA4               	incf	___xxtofl@arg+2,f
  2329  0D3A  1903               	skipnz
  2330  0D3B  0AA5               	incf	___xxtofl@arg+3,f
  2331  0D3C  2D45               	goto	l681
  2332  0D3D                     l2368:
  2333  0D3D  0879               	movf	___xxtofl@val+3,w
  2334  0D3E  00A5               	movwf	___xxtofl@arg+3
  2335  0D3F  0878               	movf	___xxtofl@val+2,w
  2336  0D40  00A4               	movwf	___xxtofl@arg+2
  2337  0D41  0877               	movf	___xxtofl@val+1,w
  2338  0D42  00A3               	movwf	___xxtofl@arg+1
  2339  0D43  0876               	movf	___xxtofl@val,w
  2340  0D44  00A2               	movwf	___xxtofl@arg
  2341  0D45                     l681:
  2342  0D45  0879               	movf	___xxtofl@val+3,w
  2343  0D46  0478               	iorwf	___xxtofl@val+2,w
  2344  0D47  0477               	iorwf	___xxtofl@val+1,w
  2345  0D48  0476               	iorwf	___xxtofl@val,w
  2346  0D49  1D03               	skipz
  2347  0D4A  2D4C               	goto	u3231
  2348  0D4B  2D4D               	goto	u3230
  2349  0D4C                     u3231:
  2350  0D4C  2D56               	goto	l2374
  2351  0D4D                     u3230:
  2352  0D4D                     l2370:
  2353  0D4D  3000               	movlw	0
  2354  0D4E  00F9               	movwf	?___xxtofl+3
  2355  0D4F  3000               	movlw	0
  2356  0D50  00F8               	movwf	?___xxtofl+2
  2357  0D51  3000               	movlw	0
  2358  0D52  00F7               	movwf	?___xxtofl+1
  2359  0D53  3000               	movlw	0
  2360  0D54  00F6               	movwf	?___xxtofl
  2361  0D55  2DDC               	goto	l683
  2362  0D56                     l2374:
  2363  0D56  3096               	movlw	150
  2364  0D57  00FA               	movwf	??___xxtofl
  2365  0D58  087A               	movf	??___xxtofl,w
  2366  0D59  00A1               	movwf	___xxtofl@exp
  2367  0D5A  2D68               	goto	l2378
  2368  0D5B                     l2376:
  2369  0D5B  3001               	movlw	1
  2370  0D5C  00FA               	movwf	??___xxtofl
  2371  0D5D  087A               	movf	??___xxtofl,w
  2372  0D5E  07A1               	addwf	___xxtofl@exp,f
  2373  0D5F  3001               	movlw	1
  2374  0D60                     u3245:
  2375  0D60  1003               	clrc
  2376  0D61  0CA5               	rrf	___xxtofl@arg+3,f
  2377  0D62  0CA4               	rrf	___xxtofl@arg+2,f
  2378  0D63  0CA3               	rrf	___xxtofl@arg+1,f
  2379  0D64  0CA2               	rrf	___xxtofl@arg,f
  2380  0D65  3EFF               	addlw	-1
  2381  0D66  1D03               	skipz
  2382  0D67  2D60               	goto	u3245
  2383  0D68                     l2378:
  2384  0D68  30FE               	movlw	254
  2385  0D69  0525               	andwf	___xxtofl@arg+3,w
  2386  0D6A  1D03               	btfss	3,2
  2387  0D6B  2D6D               	goto	u3251
  2388  0D6C  2D6E               	goto	u3250
  2389  0D6D                     u3251:
  2390  0D6D  2D5B               	goto	l2376
  2391  0D6E                     u3250:
  2392  0D6E  2D8A               	goto	l687
  2393  0D6F                     l2380:
  2394  0D6F  3001               	movlw	1
  2395  0D70  00FA               	movwf	??___xxtofl
  2396  0D71  087A               	movf	??___xxtofl,w
  2397  0D72  07A1               	addwf	___xxtofl@exp,f
  2398  0D73                     l2382:
  2399  0D73  3001               	movlw	1
  2400  0D74  07A2               	addwf	___xxtofl@arg,f
  2401  0D75  3000               	movlw	0
  2402  0D76  1803               	skipnc
  2403  0D77  3001               	movlw	1
  2404  0D78  07A3               	addwf	___xxtofl@arg+1,f
  2405  0D79  3000               	movlw	0
  2406  0D7A  1803               	skipnc
  2407  0D7B  3001               	movlw	1
  2408  0D7C  07A4               	addwf	___xxtofl@arg+2,f
  2409  0D7D  3000               	movlw	0
  2410  0D7E  1803               	skipnc
  2411  0D7F  3001               	movlw	1
  2412  0D80  07A5               	addwf	___xxtofl@arg+3,f
  2413  0D81                     l2384:
  2414  0D81  3001               	movlw	1
  2415  0D82                     u3265:
  2416  0D82  1003               	clrc
  2417  0D83  0CA5               	rrf	___xxtofl@arg+3,f
  2418  0D84  0CA4               	rrf	___xxtofl@arg+2,f
  2419  0D85  0CA3               	rrf	___xxtofl@arg+1,f
  2420  0D86  0CA2               	rrf	___xxtofl@arg,f
  2421  0D87  3EFF               	addlw	-1
  2422  0D88  1D03               	skipz
  2423  0D89  2D82               	goto	u3265
  2424  0D8A                     l687:
  2425  0D8A  30FF               	movlw	255
  2426  0D8B  0525               	andwf	___xxtofl@arg+3,w
  2427  0D8C  1D03               	btfss	3,2
  2428  0D8D  2D8F               	goto	u3271
  2429  0D8E  2D90               	goto	u3270
  2430  0D8F                     u3271:
  2431  0D8F  2D6F               	goto	l2380
  2432  0D90                     u3270:
  2433  0D90  2D9C               	goto	l2388
  2434  0D91                     l2386:
  2435  0D91  3001               	movlw	1
  2436  0D92  02A1               	subwf	___xxtofl@exp,f
  2437  0D93  3001               	movlw	1
  2438  0D94  00FA               	movwf	??___xxtofl
  2439  0D95                     u3285:
  2440  0D95  1003               	clrc
  2441  0D96  0DA2               	rlf	___xxtofl@arg,f
  2442  0D97  0DA3               	rlf	___xxtofl@arg+1,f
  2443  0D98  0DA4               	rlf	___xxtofl@arg+2,f
  2444  0D99  0DA5               	rlf	___xxtofl@arg+3,f
  2445  0D9A  0BFA               	decfsz	??___xxtofl,f
  2446  0D9B  2D95               	goto	u3285
  2447  0D9C                     l2388:
  2448  0D9C  1BA4               	btfsc	___xxtofl@arg+2,7
  2449  0D9D  2D9F               	goto	u3291
  2450  0D9E  2DA0               	goto	u3290
  2451  0D9F                     u3291:
  2452  0D9F  2DA6               	goto	l694
  2453  0DA0                     u3290:
  2454  0DA0                     l2390:
  2455  0DA0  3002               	movlw	2
  2456  0DA1  0221               	subwf	___xxtofl@exp,w
  2457  0DA2  1803               	skipnc
  2458  0DA3  2DA5               	goto	u3301
  2459  0DA4  2DA6               	goto	u3300
  2460  0DA5                     u3301:
  2461  0DA5  2D91               	goto	l2386
  2462  0DA6                     u3300:
  2463  0DA6                     l694:
  2464  0DA6  1821               	btfsc	___xxtofl@exp,0
  2465  0DA7  2DA9               	goto	u3311
  2466  0DA8  2DAA               	goto	u3310
  2467  0DA9                     u3311:
  2468  0DA9  2DB2               	goto	l695
  2469  0DAA                     u3310:
  2470  0DAA                     l2392:
  2471  0DAA  30FF               	movlw	255
  2472  0DAB  05A2               	andwf	___xxtofl@arg,f
  2473  0DAC  30FF               	movlw	255
  2474  0DAD  05A3               	andwf	___xxtofl@arg+1,f
  2475  0DAE  307F               	movlw	127
  2476  0DAF  05A4               	andwf	___xxtofl@arg+2,f
  2477  0DB0  30FF               	movlw	255
  2478  0DB1  05A5               	andwf	___xxtofl@arg+3,f
  2479  0DB2                     l695:
  2480  0DB2  1003               	clrc
  2481  0DB3  0CA1               	rrf	___xxtofl@exp,f
  2482  0DB4                     l2394:
  2483  0DB4  0821               	movf	___xxtofl@exp,w
  2484  0DB5  00FA               	movwf	??___xxtofl
  2485  0DB6  01FB               	clrf	??___xxtofl+1
  2486  0DB7  01FC               	clrf	??___xxtofl+2
  2487  0DB8  01FD               	clrf	??___xxtofl+3
  2488  0DB9  3018               	movlw	24
  2489  0DBA                     u3325:
  2490  0DBA  1003               	clrc
  2491  0DBB  0DFA               	rlf	??___xxtofl,f
  2492  0DBC  0DFB               	rlf	??___xxtofl+1,f
  2493  0DBD  0DFC               	rlf	??___xxtofl+2,f
  2494  0DBE  0DFD               	rlf	??___xxtofl+3,f
  2495  0DBF                     u3320:
  2496  0DBF  3EFF               	addlw	-1
  2497  0DC0  1D03               	skipz
  2498  0DC1  2DBA               	goto	u3325
  2499  0DC2  087A               	movf	??___xxtofl,w
  2500  0DC3  04A2               	iorwf	___xxtofl@arg,f
  2501  0DC4  087B               	movf	??___xxtofl+1,w
  2502  0DC5  04A3               	iorwf	___xxtofl@arg+1,f
  2503  0DC6  087C               	movf	??___xxtofl+2,w
  2504  0DC7  04A4               	iorwf	___xxtofl@arg+2,f
  2505  0DC8  087D               	movf	??___xxtofl+3,w
  2506  0DC9  04A5               	iorwf	___xxtofl@arg+3,f
  2507  0DCA                     l2396:
  2508  0DCA  0820               	movf	___xxtofl@sign,w
  2509  0DCB  1903               	btfsc	3,2
  2510  0DCC  2DCE               	goto	u3331
  2511  0DCD  2DCF               	goto	u3330
  2512  0DCE                     u3331:
  2513  0DCE  2DD4               	goto	l2402
  2514  0DCF                     u3330:
  2515  0DCF                     l2398:
  2516  0DCF  1FF9               	btfss	___xxtofl@val+3,7
  2517  0DD0  2DD2               	goto	u3341
  2518  0DD1  2DD3               	goto	u3340
  2519  0DD2                     u3341:
  2520  0DD2  2DD4               	goto	l2402
  2521  0DD3                     u3340:
  2522  0DD3                     l2400:
  2523  0DD3  17A5               	bsf	___xxtofl@arg+3,7
  2524  0DD4                     l2402:
  2525  0DD4  0825               	movf	___xxtofl@arg+3,w
  2526  0DD5  00F9               	movwf	?___xxtofl+3
  2527  0DD6  0824               	movf	___xxtofl@arg+2,w
  2528  0DD7  00F8               	movwf	?___xxtofl+2
  2529  0DD8  0823               	movf	___xxtofl@arg+1,w
  2530  0DD9  00F7               	movwf	?___xxtofl+1
  2531  0DDA  0822               	movf	___xxtofl@arg,w
  2532  0DDB  00F6               	movwf	?___xxtofl
  2533  0DDC                     l683:
  2534  0DDC  0008               	return
  2535  0DDD                     __end_of___xxtofl:
  2536                           
  2537                           	psect	text6
  2538  09EB                     __ptext6:	
  2539 ;; *************** function ___wmul *****************
  2540 ;; Defined at:
  2541 ;;		line 15 in file "C:\Program Files\Microchip\xc8\v2.35\pic\sources\c90\common\Umul16.c"
  2542 ;; Parameters:    Size  Location     Type
  2543 ;;  multiplier      2    0[COMMON] unsigned int 
  2544 ;;  multiplicand    2    2[COMMON] unsigned int 
  2545 ;; Auto vars:     Size  Location     Type
  2546 ;;  product         2    4[COMMON] unsigned int 
  2547 ;; Return value:  Size  Location     Type
  2548 ;;                  2    0[COMMON] unsigned int 
  2549 ;; Registers used:
  2550 ;;		wreg, status,2, status,0
  2551 ;; Tracked objects:
  2552 ;;		On entry : 0/0
  2553 ;;		On exit  : 0/0
  2554 ;;		Unchanged: 0/0
  2555 ;; Data sizes:     COMMON   BANK0   BANK1   BANK3   BANK2
  2556 ;;      Params:         4       0       0       0       0
  2557 ;;      Locals:         2       0       0       0       0
  2558 ;;      Temps:          0       0       0       0       0
  2559 ;;      Totals:         6       0       0       0       0
  2560 ;;Total ram usage:        6 bytes
  2561 ;; Hardware stack levels used: 1
  2562 ;; This function calls:
  2563 ;;		Nothing
  2564 ;; This function is called by:
  2565 ;;		_main
  2566 ;; This function uses a non-reentrant model
  2567 ;;
  2568                           
  2569  09EB                     ___wmul:	
  2570                           ;psect for function ___wmul
  2571                           
  2572  09EB                     l1980:	
  2573                           ;incstack = 0
  2574                           ; Regs used in ___wmul: [wreg+status,2+status,0]
  2575                           
  2576  09EB  01F4               	clrf	___wmul@product
  2577  09EC  01F5               	clrf	___wmul@product+1
  2578  09ED                     l1982:
  2579  09ED  1C70               	btfss	___wmul@multiplier,0
  2580  09EE  29F0               	goto	u2311
  2581  09EF  29F1               	goto	u2310
  2582  09F0                     u2311:
  2583  09F0  29F7               	goto	l248
  2584  09F1                     u2310:
  2585  09F1                     l1984:
  2586  09F1  0872               	movf	___wmul@multiplicand,w
  2587  09F2  07F4               	addwf	___wmul@product,f
  2588  09F3  1803               	skipnc
  2589  09F4  0AF5               	incf	___wmul@product+1,f
  2590  09F5  0873               	movf	___wmul@multiplicand+1,w
  2591  09F6  07F5               	addwf	___wmul@product+1,f
  2592  09F7                     l248:
  2593  09F7  3001               	movlw	1
  2594  09F8                     u2325:
  2595  09F8  1003               	clrc
  2596  09F9  0DF2               	rlf	___wmul@multiplicand,f
  2597  09FA  0DF3               	rlf	___wmul@multiplicand+1,f
  2598  09FB  3EFF               	addlw	-1
  2599  09FC  1D03               	skipz
  2600  09FD  29F8               	goto	u2325
  2601  09FE                     l1986:
  2602  09FE  3001               	movlw	1
  2603  09FF                     u2335:
  2604  09FF  1003               	clrc
  2605  0A00  0CF1               	rrf	___wmul@multiplier+1,f
  2606  0A01  0CF0               	rrf	___wmul@multiplier,f
  2607  0A02  3EFF               	addlw	-1
  2608  0A03  1D03               	skipz
  2609  0A04  29FF               	goto	u2335
  2610  0A05                     l1988:
  2611  0A05  0870               	movf	___wmul@multiplier,w
  2612  0A06  0471               	iorwf	___wmul@multiplier+1,w
  2613  0A07  1D03               	btfss	3,2
  2614  0A08  2A0A               	goto	u2341
  2615  0A09  2A0B               	goto	u2340
  2616  0A0A                     u2341:
  2617  0A0A  29ED               	goto	l1982
  2618  0A0B                     u2340:
  2619  0A0B                     l1990:
  2620  0A0B  0875               	movf	___wmul@product+1,w
  2621  0A0C  00F1               	movwf	?___wmul+1
  2622  0A0D  0874               	movf	___wmul@product,w
  2623  0A0E  00F0               	movwf	?___wmul
  2624  0A0F                     l250:
  2625  0A0F  0008               	return
  2626  0A10                     __end_of___wmul:
  2627                           
  2628                           	psect	text7
  2629  0C09                     __ptext7:	
  2630 ;; *************** function ___fltol *****************
  2631 ;; Defined at:
  2632 ;;		line 43 in file "C:\Program Files\Microchip\xc8\v2.35\pic\sources\c90\common\fltol.c"
  2633 ;; Parameters:    Size  Location     Type
  2634 ;;  f1              4   58[BANK0 ] unsigned int 
  2635 ;; Auto vars:     Size  Location     Type
  2636 ;;  exp1            1   68[BANK0 ] unsigned char 
  2637 ;;  sign1           1   67[BANK0 ] unsigned char 
  2638 ;; Return value:  Size  Location     Type
  2639 ;;                  4   58[BANK0 ] long 
  2640 ;; Registers used:
  2641 ;;		wreg, status,2, status,0
  2642 ;; Tracked objects:
  2643 ;;		On entry : 0/0
  2644 ;;		On exit  : 0/0
  2645 ;;		Unchanged: 0/0
  2646 ;; Data sizes:     COMMON   BANK0   BANK1   BANK3   BANK2
  2647 ;;      Params:         0       4       0       0       0
  2648 ;;      Locals:         0       2       0       0       0
  2649 ;;      Temps:          0       5       0       0       0
  2650 ;;      Totals:         0      11       0       0       0
  2651 ;;Total ram usage:       11 bytes
  2652 ;; Hardware stack levels used: 1
  2653 ;; This function calls:
  2654 ;;		Nothing
  2655 ;; This function is called by:
  2656 ;;		_main
  2657 ;; This function uses a non-reentrant model
  2658 ;;
  2659                           
  2660  0C09                     ___fltol:	
  2661                           ;psect for function ___fltol
  2662                           
  2663  0C09                     l2038:	
  2664                           ;incstack = 0
  2665                           ; Regs used in ___fltol: [wreg+status,2+status,0]
  2666                           
  2667  0C09  1003               	clrc
  2668  0C0A  1283               	bcf	3,5	;RP0=0, select bank0
  2669  0C0B  1303               	bcf	3,6	;RP1=0, select bank0
  2670  0C0C  0D5C               	rlf	___fltol@f1+2,w
  2671  0C0D  0D5D               	rlf	___fltol@f1+3,w
  2672  0C0E  00DE               	movwf	??___fltol
  2673  0C0F  085E               	movf	??___fltol,w
  2674  0C10  00E4               	movwf	___fltol@exp1
  2675  0C11  0864               	movf	___fltol@exp1,w
  2676  0C12  1D03               	btfss	3,2
  2677  0C13  2C15               	goto	u2451
  2678  0C14  2C16               	goto	u2450
  2679  0C15                     u2451:
  2680  0C15  2C1F               	goto	l2044
  2681  0C16                     u2450:
  2682  0C16                     l2040:
  2683  0C16  3000               	movlw	0
  2684  0C17  00DD               	movwf	?___fltol+3
  2685  0C18  3000               	movlw	0
  2686  0C19  00DC               	movwf	?___fltol+2
  2687  0C1A  3000               	movlw	0
  2688  0C1B  00DB               	movwf	?___fltol+1
  2689  0C1C  3000               	movlw	0
  2690  0C1D  00DA               	movwf	?___fltol
  2691  0C1E  2C84               	goto	l434
  2692  0C1F                     l2044:
  2693  0C1F  085A               	movf	___fltol@f1,w
  2694  0C20  00DE               	movwf	??___fltol
  2695  0C21  085B               	movf	___fltol@f1+1,w
  2696  0C22  00DF               	movwf	??___fltol+1
  2697  0C23  085C               	movf	___fltol@f1+2,w
  2698  0C24  00E0               	movwf	??___fltol+2
  2699  0C25  085D               	movf	___fltol@f1+3,w
  2700  0C26  00E1               	movwf	??___fltol+3
  2701  0C27  301F               	movlw	31
  2702  0C28                     u2465:
  2703  0C28  1003               	clrc
  2704  0C29  0CE1               	rrf	??___fltol+3,f
  2705  0C2A  0CE0               	rrf	??___fltol+2,f
  2706  0C2B  0CDF               	rrf	??___fltol+1,f
  2707  0C2C  0CDE               	rrf	??___fltol,f
  2708  0C2D                     u2460:
  2709  0C2D  3EFF               	addlw	-1
  2710  0C2E  1D03               	skipz
  2711  0C2F  2C28               	goto	u2465
  2712  0C30  085E               	movf	??___fltol,w
  2713  0C31  00E2               	movwf	??___fltol+4
  2714  0C32  0862               	movf	??___fltol+4,w
  2715  0C33  00E3               	movwf	___fltol@sign1
  2716  0C34                     l2046:
  2717  0C34  17DC               	bsf	___fltol@f1+2,7
  2718  0C35                     l2048:
  2719  0C35  30FF               	movlw	255
  2720  0C36  05DA               	andwf	___fltol@f1,f
  2721  0C37  30FF               	movlw	255
  2722  0C38  05DB               	andwf	___fltol@f1+1,f
  2723  0C39  30FF               	movlw	255
  2724  0C3A  05DC               	andwf	___fltol@f1+2,f
  2725  0C3B  3000               	movlw	0
  2726  0C3C  05DD               	andwf	___fltol@f1+3,f
  2727  0C3D                     l2050:
  2728  0C3D  3096               	movlw	150
  2729  0C3E  02E4               	subwf	___fltol@exp1,f
  2730  0C3F                     l2052:
  2731  0C3F  1FE4               	btfss	___fltol@exp1,7
  2732  0C40  2C42               	goto	u2471
  2733  0C41  2C43               	goto	u2470
  2734  0C42                     u2471:
  2735  0C42  2C5D               	goto	l2062
  2736  0C43                     u2470:
  2737  0C43                     l2054:
  2738  0C43  0864               	movf	___fltol@exp1,w
  2739  0C44  3A80               	xorlw	128
  2740  0C45  3E97               	addlw	151
  2741  0C46  1803               	skipnc
  2742  0C47  2C49               	goto	u2481
  2743  0C48  2C4A               	goto	u2480
  2744  0C49                     u2481:
  2745  0C49  2C4B               	goto	l2060
  2746  0C4A                     u2480:
  2747  0C4A  2C16               	goto	l2040
  2748  0C4B                     l2060:
  2749  0C4B  3001               	movlw	1
  2750  0C4C                     u2495:
  2751  0C4C  1003               	clrc
  2752  0C4D  0CDD               	rrf	___fltol@f1+3,f
  2753  0C4E  0CDC               	rrf	___fltol@f1+2,f
  2754  0C4F  0CDB               	rrf	___fltol@f1+1,f
  2755  0C50  0CDA               	rrf	___fltol@f1,f
  2756  0C51  3EFF               	addlw	-1
  2757  0C52  1D03               	skipz
  2758  0C53  2C4C               	goto	u2495
  2759  0C54  3001               	movlw	1
  2760  0C55  00DE               	movwf	??___fltol
  2761  0C56  085E               	movf	??___fltol,w
  2762  0C57  07E4               	addwf	___fltol@exp1,f
  2763  0C58  1D03               	btfss	3,2
  2764  0C59  2C5B               	goto	u2501
  2765  0C5A  2C5C               	goto	u2500
  2766  0C5B                     u2501:
  2767  0C5B  2C4B               	goto	l2060
  2768  0C5C                     u2500:
  2769  0C5C  2C74               	goto	l2070
  2770  0C5D                     l2062:
  2771  0C5D  3020               	movlw	32
  2772  0C5E  0264               	subwf	___fltol@exp1,w
  2773  0C5F  1C03               	skipc
  2774  0C60  2C62               	goto	u2511
  2775  0C61  2C63               	goto	u2510
  2776  0C62                     u2511:
  2777  0C62  2C6F               	goto	l441
  2778  0C63                     u2510:
  2779  0C63  2C16               	goto	l2040
  2780  0C64                     l2068:
  2781  0C64  3001               	movlw	1
  2782  0C65  00DE               	movwf	??___fltol
  2783  0C66                     u2525:
  2784  0C66  1003               	clrc
  2785  0C67  0DDA               	rlf	___fltol@f1,f
  2786  0C68  0DDB               	rlf	___fltol@f1+1,f
  2787  0C69  0DDC               	rlf	___fltol@f1+2,f
  2788  0C6A  0DDD               	rlf	___fltol@f1+3,f
  2789  0C6B  0BDE               	decfsz	??___fltol,f
  2790  0C6C  2C66               	goto	u2525
  2791  0C6D  3001               	movlw	1
  2792  0C6E  02E4               	subwf	___fltol@exp1,f
  2793  0C6F                     l441:
  2794  0C6F  0864               	movf	___fltol@exp1,w
  2795  0C70  1D03               	btfss	3,2
  2796  0C71  2C73               	goto	u2531
  2797  0C72  2C74               	goto	u2530
  2798  0C73                     u2531:
  2799  0C73  2C64               	goto	l2068
  2800  0C74                     u2530:
  2801  0C74                     l2070:
  2802  0C74  0863               	movf	___fltol@sign1,w
  2803  0C75  1903               	btfsc	3,2
  2804  0C76  2C78               	goto	u2541
  2805  0C77  2C79               	goto	u2540
  2806  0C78                     u2541:
  2807  0C78  2C84               	goto	l444
  2808  0C79                     u2540:
  2809  0C79                     l2072:
  2810  0C79  09DA               	comf	___fltol@f1,f
  2811  0C7A  09DB               	comf	___fltol@f1+1,f
  2812  0C7B  09DC               	comf	___fltol@f1+2,f
  2813  0C7C  09DD               	comf	___fltol@f1+3,f
  2814  0C7D  0ADA               	incf	___fltol@f1,f
  2815  0C7E  1903               	skipnz
  2816  0C7F  0ADB               	incf	___fltol@f1+1,f
  2817  0C80  1903               	skipnz
  2818  0C81  0ADC               	incf	___fltol@f1+2,f
  2819  0C82  1903               	skipnz
  2820  0C83  0ADD               	incf	___fltol@f1+3,f
  2821  0C84                     l444:
  2822  0C84                     l434:
  2823  0C84  0008               	return
  2824  0C85                     __end_of___fltol:
  2825                           
  2826                           	psect	text8
  2827  09A2                     __ptext8:	
  2828 ;; *************** function ___flsub *****************
  2829 ;; Defined at:
  2830 ;;		line 242 in file "C:\Program Files\Microchip\xc8\v2.35\pic\sources\c90\common\sprcadd.c"
  2831 ;; Parameters:    Size  Location     Type
  2832 ;;  a               4   32[BANK0 ] long 
  2833 ;;  b               4   36[BANK0 ] long 
  2834 ;; Auto vars:     Size  Location     Type
  2835 ;;		None
  2836 ;; Return value:  Size  Location     Type
  2837 ;;                  4   32[BANK0 ] long 
  2838 ;; Registers used:
  2839 ;;		wreg, status,2, status,0, btemp+1, pclath, cstack
  2840 ;; Tracked objects:
  2841 ;;		On entry : 0/0
  2842 ;;		On exit  : 0/0
  2843 ;;		Unchanged: 0/0
  2844 ;; Data sizes:     COMMON   BANK0   BANK1   BANK3   BANK2
  2845 ;;      Params:         0       8       0       0       0
  2846 ;;      Locals:         0       0       0       0       0
  2847 ;;      Temps:          0       0       0       0       0
  2848 ;;      Totals:         0       8       0       0       0
  2849 ;;Total ram usage:        8 bytes
  2850 ;; Hardware stack levels used: 1
  2851 ;; Hardware stack levels required when called: 1
  2852 ;; This function calls:
  2853 ;;		___fladd
  2854 ;; This function is called by:
  2855 ;;		_main
  2856 ;; This function uses a non-reentrant model
  2857 ;;
  2858                           
  2859  09A2                     ___flsub:	
  2860                           ;psect for function ___flsub
  2861                           
  2862  09A2                     l2074:	
  2863                           ;incstack = 0
  2864                           ; Regs used in ___flsub: [wreg+status,2+status,0+btemp+1+pclath+cstack]
  2865                           
  2866  09A2  3080               	movlw	128
  2867  09A3  1283               	bcf	3,5	;RP0=0, select bank0
  2868  09A4  1303               	bcf	3,6	;RP1=0, select bank0
  2869  09A5  06C3               	xorwf	___flsub@a+3,f
  2870  09A6                     l2076:
  2871  09A6  0847               	movf	___flsub@b+3,w
  2872  09A7  00F3               	movwf	___fladd@b+3
  2873  09A8  0846               	movf	___flsub@b+2,w
  2874  09A9  00F2               	movwf	___fladd@b+2
  2875  09AA  0845               	movf	___flsub@b+1,w
  2876  09AB  00F1               	movwf	___fladd@b+1
  2877  09AC  0844               	movf	___flsub@b,w
  2878  09AD  00F0               	movwf	___fladd@b
  2879  09AE  0843               	movf	___flsub@a+3,w
  2880  09AF  00F7               	movwf	___fladd@a+3
  2881  09B0  0842               	movf	___flsub@a+2,w
  2882  09B1  00F6               	movwf	___fladd@a+2
  2883  09B2  0841               	movf	___flsub@a+1,w
  2884  09B3  00F5               	movwf	___fladd@a+1
  2885  09B4  0840               	movf	___flsub@a,w
  2886  09B5  00F4               	movwf	___fladd@a
  2887  09B6  120A  118A  21FD  120A  158A  	fcall	___fladd
  2888  09BB  0873               	movf	?___fladd+3,w
  2889  09BC  1283               	bcf	3,5	;RP0=0, select bank0
  2890  09BD  1303               	bcf	3,6	;RP1=0, select bank0
  2891  09BE  00C3               	movwf	?___flsub+3
  2892  09BF  0872               	movf	?___fladd+2,w
  2893  09C0  00C2               	movwf	?___flsub+2
  2894  09C1  0871               	movf	?___fladd+1,w
  2895  09C2  00C1               	movwf	?___flsub+1
  2896  09C3  0870               	movf	?___fladd,w
  2897  09C4  00C0               	movwf	?___flsub
  2898  09C5                     l587:
  2899  09C5  0008               	return
  2900  09C6                     __end_of___flsub:
  2901                           
  2902                           	psect	text9
  2903  01FD                     __ptext9:	
  2904 ;; *************** function ___fladd *****************
  2905 ;; Defined at:
  2906 ;;		line 10 in file "C:\Program Files\Microchip\xc8\v2.35\pic\sources\c90\common\sprcadd.c"
  2907 ;; Parameters:    Size  Location     Type
  2908 ;;  b               4    0[COMMON] long 
  2909 ;;  a               4    4[COMMON] long 
  2910 ;; Auto vars:     Size  Location     Type
  2911 ;;  grs             1   11[COMMON] unsigned char 
  2912 ;;  bexp            1   10[COMMON] unsigned char 
  2913 ;;  aexp            1    9[COMMON] unsigned char 
  2914 ;;  signs           1    8[COMMON] unsigned char 
  2915 ;; Return value:  Size  Location     Type
  2916 ;;                  4    0[COMMON] unsigned char 
  2917 ;; Registers used:
  2918 ;;		wreg, status,2, status,0, btemp+1
  2919 ;; Tracked objects:
  2920 ;;		On entry : 0/0
  2921 ;;		On exit  : 0/0
  2922 ;;		Unchanged: 0/0
  2923 ;; Data sizes:     COMMON   BANK0   BANK1   BANK3   BANK2
  2924 ;;      Params:         8       0       0       0       0
  2925 ;;      Locals:         4       0       0       0       0
  2926 ;;      Temps:          0       8       0       0       0
  2927 ;;      Totals:        12       8       0       0       0
  2928 ;;Total ram usage:       20 bytes
  2929 ;; Hardware stack levels used: 1
  2930 ;; This function calls:
  2931 ;;		Nothing
  2932 ;; This function is called by:
  2933 ;;		___flsub
  2934 ;; This function uses a non-reentrant model
  2935 ;;
  2936                           
  2937  01FD                     ___fladd:	
  2938                           ;psect for function ___fladd
  2939                           
  2940  01FD                     l1702:	
  2941                           ;incstack = 0
  2942                           ; Regs used in ___fladd: [wreg+status,2+status,0+btemp+1]
  2943                           
  2944  01FD  0873               	movf	___fladd@b+3,w
  2945  01FE  3980               	andlw	128
  2946  01FF  1283               	bcf	3,5	;RP0=0, select bank0
  2947  0200  1303               	bcf	3,6	;RP1=0, select bank0
  2948  0201  00A0               	movwf	??___fladd
  2949  0202  0820               	movf	??___fladd,w
  2950  0203  00F8               	movwf	___fladd@signs
  2951  0204                     l1704:
  2952  0204  0873               	movf	___fladd@b+3,w
  2953  0205  00A0               	movwf	??___fladd
  2954  0206  0720               	addwf	??___fladd,w
  2955  0207  00A1               	movwf	??___fladd+1
  2956  0208  0821               	movf	??___fladd+1,w
  2957  0209  00FA               	movwf	___fladd@bexp
  2958  020A                     l1706:
  2959  020A  1FF2               	btfss	___fladd@b+2,7
  2960  020B  2A0D               	goto	u1751
  2961  020C  2A0E               	goto	u1750
  2962  020D                     u1751:
  2963  020D  2A0F               	goto	l1710
  2964  020E                     u1750:
  2965  020E                     l1708:
  2966  020E  147A               	bsf	___fladd@bexp,0
  2967  020F                     l1710:
  2968  020F  087A               	movf	___fladd@bexp,w
  2969  0210  1903               	btfsc	3,2
  2970  0211  2A13               	goto	u1761
  2971  0212  2A14               	goto	u1760
  2972  0213                     u1761:
  2973  0213  2A24               	goto	l1720
  2974  0214                     u1760:
  2975  0214                     l1712:
  2976  0214  0A7A               	incf	___fladd@bexp,w
  2977  0215  1D03               	btfss	3,2
  2978  0216  2A18               	goto	u1771
  2979  0217  2A19               	goto	u1770
  2980  0218                     u1771:
  2981  0218  2A21               	goto	l1716
  2982  0219                     u1770:
  2983  0219                     l1714:
  2984  0219  3000               	movlw	0
  2985  021A  00F3               	movwf	___fladd@b+3
  2986  021B  3000               	movlw	0
  2987  021C  00F2               	movwf	___fladd@b+2
  2988  021D  3000               	movlw	0
  2989  021E  00F1               	movwf	___fladd@b+1
  2990  021F  3000               	movlw	0
  2991  0220  00F0               	movwf	___fladd@b
  2992  0221                     l1716:
  2993  0221  17F2               	bsf	___fladd@b+2,7
  2994  0222                     l1718:
  2995  0222  01F3               	clrf	___fladd@b+3
  2996  0223  2A2C               	goto	l1722
  2997  0224                     l1720:
  2998  0224  3000               	movlw	0
  2999  0225  00F3               	movwf	___fladd@b+3
  3000  0226  3000               	movlw	0
  3001  0227  00F2               	movwf	___fladd@b+2
  3002  0228  3000               	movlw	0
  3003  0229  00F1               	movwf	___fladd@b+1
  3004  022A  3000               	movlw	0
  3005  022B  00F0               	movwf	___fladd@b
  3006  022C                     l1722:
  3007  022C  0877               	movf	___fladd@a+3,w
  3008  022D  3980               	andlw	128
  3009  022E  00A0               	movwf	??___fladd
  3010  022F  0820               	movf	??___fladd,w
  3011  0230  00F9               	movwf	___fladd@aexp
  3012  0231                     l1724:
  3013  0231  0879               	movf	___fladd@aexp,w
  3014  0232  0678               	xorwf	___fladd@signs,w
  3015  0233  1903               	skipnz
  3016  0234  2A36               	goto	u1781
  3017  0235  2A37               	goto	u1780
  3018  0236                     u1781:
  3019  0236  2A38               	goto	l1728
  3020  0237                     u1780:
  3021  0237                     l1726:
  3022  0237  1778               	bsf	___fladd@signs,6
  3023  0238                     l1728:
  3024  0238  0877               	movf	___fladd@a+3,w
  3025  0239  00A0               	movwf	??___fladd
  3026  023A  0720               	addwf	??___fladd,w
  3027  023B  00A1               	movwf	??___fladd+1
  3028  023C  0821               	movf	??___fladd+1,w
  3029  023D  00F9               	movwf	___fladd@aexp
  3030  023E                     l1730:
  3031  023E  1FF6               	btfss	___fladd@a+2,7
  3032  023F  2A41               	goto	u1791
  3033  0240  2A42               	goto	u1790
  3034  0241                     u1791:
  3035  0241  2A43               	goto	l1734
  3036  0242                     u1790:
  3037  0242                     l1732:
  3038  0242  1479               	bsf	___fladd@aexp,0
  3039  0243                     l1734:
  3040  0243  0879               	movf	___fladd@aexp,w
  3041  0244  1903               	btfsc	3,2
  3042  0245  2A47               	goto	u1801
  3043  0246  2A48               	goto	u1800
  3044  0247                     u1801:
  3045  0247  2A58               	goto	l1744
  3046  0248                     u1800:
  3047  0248                     l1736:
  3048  0248  0A79               	incf	___fladd@aexp,w
  3049  0249  1D03               	btfss	3,2
  3050  024A  2A4C               	goto	u1811
  3051  024B  2A4D               	goto	u1810
  3052  024C                     u1811:
  3053  024C  2A55               	goto	l1740
  3054  024D                     u1810:
  3055  024D                     l1738:
  3056  024D  3000               	movlw	0
  3057  024E  00F7               	movwf	___fladd@a+3
  3058  024F  3000               	movlw	0
  3059  0250  00F6               	movwf	___fladd@a+2
  3060  0251  3000               	movlw	0
  3061  0252  00F5               	movwf	___fladd@a+1
  3062  0253  3000               	movlw	0
  3063  0254  00F4               	movwf	___fladd@a
  3064  0255                     l1740:
  3065  0255  17F6               	bsf	___fladd@a+2,7
  3066  0256                     l1742:
  3067  0256  01F7               	clrf	___fladd@a+3
  3068  0257  2A60               	goto	l541
  3069  0258                     l1744:
  3070  0258  3000               	movlw	0
  3071  0259  00F7               	movwf	___fladd@a+3
  3072  025A  3000               	movlw	0
  3073  025B  00F6               	movwf	___fladd@a+2
  3074  025C  3000               	movlw	0
  3075  025D  00F5               	movwf	___fladd@a+1
  3076  025E  3000               	movlw	0
  3077  025F  00F4               	movwf	___fladd@a
  3078  0260                     l541:
  3079  0260  087A               	movf	___fladd@bexp,w
  3080  0261  0279               	subwf	___fladd@aexp,w
  3081  0262  1803               	skipnc
  3082  0263  2A65               	goto	u1821
  3083  0264  2A66               	goto	u1820
  3084  0265                     u1821:
  3085  0265  2AAA               	goto	l1780
  3086  0266                     u1820:
  3087  0266                     l1746:
  3088  0266  1F78               	btfss	___fladd@signs,6
  3089  0267  2A69               	goto	u1831
  3090  0268  2A6A               	goto	u1830
  3091  0269                     u1831:
  3092  0269  2A6E               	goto	l1750
  3093  026A                     u1830:
  3094  026A                     l1748:
  3095  026A  3080               	movlw	128
  3096  026B  00A0               	movwf	??___fladd
  3097  026C  0820               	movf	??___fladd,w
  3098  026D  06F8               	xorwf	___fladd@signs,f
  3099  026E                     l1750:
  3100  026E  087A               	movf	___fladd@bexp,w
  3101  026F  00A0               	movwf	??___fladd
  3102  0270  0820               	movf	??___fladd,w
  3103  0271  00FB               	movwf	___fladd@grs
  3104  0272                     l1752:
  3105  0272  0879               	movf	___fladd@aexp,w
  3106  0273  00A0               	movwf	??___fladd
  3107  0274  0820               	movf	??___fladd,w
  3108  0275  00FA               	movwf	___fladd@bexp
  3109  0276                     l1754:
  3110  0276  087B               	movf	___fladd@grs,w
  3111  0277  00A0               	movwf	??___fladd
  3112  0278  0820               	movf	??___fladd,w
  3113  0279  00F9               	movwf	___fladd@aexp
  3114  027A                     l1756:
  3115  027A  0870               	movf	___fladd@b,w
  3116  027B  00A0               	movwf	??___fladd
  3117  027C  0820               	movf	??___fladd,w
  3118  027D  00FB               	movwf	___fladd@grs
  3119  027E                     l1758:
  3120  027E  0874               	movf	___fladd@a,w
  3121  027F  00A0               	movwf	??___fladd
  3122  0280  0820               	movf	??___fladd,w
  3123  0281  00F0               	movwf	___fladd@b
  3124  0282                     l1760:
  3125  0282  087B               	movf	___fladd@grs,w
  3126  0283  00A0               	movwf	??___fladd
  3127  0284  0820               	movf	??___fladd,w
  3128  0285  00F4               	movwf	___fladd@a
  3129  0286                     l1762:
  3130  0286  0871               	movf	___fladd@b+1,w
  3131  0287  00A0               	movwf	??___fladd
  3132  0288  0820               	movf	??___fladd,w
  3133  0289  00FB               	movwf	___fladd@grs
  3134  028A                     l1764:
  3135  028A  0875               	movf	___fladd@a+1,w
  3136  028B  00A0               	movwf	??___fladd
  3137  028C  0820               	movf	??___fladd,w
  3138  028D  00F1               	movwf	___fladd@b+1
  3139  028E                     l1766:
  3140  028E  087B               	movf	___fladd@grs,w
  3141  028F  00A0               	movwf	??___fladd
  3142  0290  0820               	movf	??___fladd,w
  3143  0291  00F5               	movwf	___fladd@a+1
  3144  0292                     l1768:
  3145  0292  0872               	movf	___fladd@b+2,w
  3146  0293  00A0               	movwf	??___fladd
  3147  0294  0820               	movf	??___fladd,w
  3148  0295  00FB               	movwf	___fladd@grs
  3149  0296                     l1770:
  3150  0296  0876               	movf	___fladd@a+2,w
  3151  0297  00A0               	movwf	??___fladd
  3152  0298  0820               	movf	??___fladd,w
  3153  0299  00F2               	movwf	___fladd@b+2
  3154  029A                     l1772:
  3155  029A  087B               	movf	___fladd@grs,w
  3156  029B  00A0               	movwf	??___fladd
  3157  029C  0820               	movf	??___fladd,w
  3158  029D  00F6               	movwf	___fladd@a+2
  3159  029E                     l1774:
  3160  029E  0873               	movf	___fladd@b+3,w
  3161  029F  00A0               	movwf	??___fladd
  3162  02A0  0820               	movf	??___fladd,w
  3163  02A1  00FB               	movwf	___fladd@grs
  3164  02A2                     l1776:
  3165  02A2  0877               	movf	___fladd@a+3,w
  3166  02A3  00A0               	movwf	??___fladd
  3167  02A4  0820               	movf	??___fladd,w
  3168  02A5  00F3               	movwf	___fladd@b+3
  3169  02A6                     l1778:
  3170  02A6  087B               	movf	___fladd@grs,w
  3171  02A7  00A0               	movwf	??___fladd
  3172  02A8  0820               	movf	??___fladd,w
  3173  02A9  00F7               	movwf	___fladd@a+3
  3174  02AA                     l1780:
  3175  02AA  01FB               	clrf	___fladd@grs
  3176  02AB                     l1782:
  3177  02AB  0879               	movf	___fladd@aexp,w
  3178  02AC  00A0               	movwf	??___fladd
  3179  02AD  01A1               	clrf	??___fladd+1
  3180  02AE  0821               	movf	??___fladd+1,w
  3181  02AF  00A3               	movwf	??___fladd+3
  3182  02B0  087A               	movf	___fladd@bexp,w
  3183  02B1  0220               	subwf	??___fladd,w
  3184  02B2  00A2               	movwf	??___fladd+2
  3185  02B3  1C03               	skipc
  3186  02B4  03A3               	decf	??___fladd+3,f
  3187  02B5  0823               	movf	??___fladd+3,w
  3188  02B6  3A80               	xorlw	128
  3189  02B7  00FF               	movwf	btemp+1
  3190  02B8  3080               	movlw	128
  3191  02B9  027F               	subwf	btemp+1,w
  3192  02BA  1D03               	skipz
  3193  02BB  2ABE               	goto	u1845
  3194  02BC  301A               	movlw	26
  3195  02BD  0222               	subwf	??___fladd+2,w
  3196  02BE                     u1845:
  3197  02BE  1C03               	skipc
  3198  02BF  2AC1               	goto	u1841
  3199  02C0  2AC2               	goto	u1840
  3200  02C1                     u1841:
  3201  02C1  2B03               	goto	l1798
  3202  02C2                     u1840:
  3203  02C2                     l1784:
  3204  02C2  0873               	movf	___fladd@b+3,w
  3205  02C3  0472               	iorwf	___fladd@b+2,w
  3206  02C4  0471               	iorwf	___fladd@b+1,w
  3207  02C5  0470               	iorwf	___fladd@b,w
  3208  02C6  1D03               	skipz
  3209  02C7  2AC9               	goto	u1851
  3210  02C8  2ACB               	goto	u1850
  3211  02C9                     u1851:
  3212  02C9  3001               	movlw	1
  3213  02CA  2ACC               	goto	u1860
  3214  02CB                     u1850:
  3215  02CB  3000               	movlw	0
  3216  02CC                     u1860:
  3217  02CC  1283               	bcf	3,5	;RP0=0, select bank0
  3218  02CD  1303               	bcf	3,6	;RP1=0, select bank0
  3219  02CE  00A0               	movwf	??___fladd
  3220  02CF  0820               	movf	??___fladd,w
  3221  02D0  00FB               	movwf	___fladd@grs
  3222  02D1  3000               	movlw	0
  3223  02D2  00F3               	movwf	___fladd@b+3
  3224  02D3  3000               	movlw	0
  3225  02D4  00F2               	movwf	___fladd@b+2
  3226  02D5  3000               	movlw	0
  3227  02D6  00F1               	movwf	___fladd@b+1
  3228  02D7  3000               	movlw	0
  3229  02D8  00F0               	movwf	___fladd@b
  3230  02D9  0879               	movf	___fladd@aexp,w
  3231  02DA  00A0               	movwf	??___fladd
  3232  02DB  0820               	movf	??___fladd,w
  3233  02DC  00FA               	movwf	___fladd@bexp
  3234  02DD  2B09               	goto	l545
  3235  02DE                     l547:
  3236  02DE  1C7B               	btfss	___fladd@grs,0
  3237  02DF  2AE1               	goto	u1871
  3238  02E0  2AE2               	goto	u1870
  3239  02E1                     u1871:
  3240  02E1  2AED               	goto	l1788
  3241  02E2                     u1870:
  3242  02E2                     l1786:
  3243  02E2  087B               	movf	___fladd@grs,w
  3244  02E3  1283               	bcf	3,5	;RP0=0, select bank0
  3245  02E4  1303               	bcf	3,6	;RP1=0, select bank0
  3246  02E5  00A0               	movwf	??___fladd
  3247  02E6  1003               	clrc
  3248  02E7  0C20               	rrf	??___fladd,w
  3249  02E8  3801               	iorlw	1
  3250  02E9  00A1               	movwf	??___fladd+1
  3251  02EA  0821               	movf	??___fladd+1,w
  3252  02EB  00FB               	movwf	___fladd@grs
  3253  02EC  2AEF               	goto	l1790
  3254  02ED                     l1788:
  3255  02ED  1003               	clrc
  3256  02EE  0CFB               	rrf	___fladd@grs,f
  3257  02EF                     l1790:
  3258  02EF  1C70               	btfss	___fladd@b,0
  3259  02F0  2AF2               	goto	u1881
  3260  02F1  2AF3               	goto	u1880
  3261  02F2                     u1881:
  3262  02F2  2AF4               	goto	l1794
  3263  02F3                     u1880:
  3264  02F3                     l1792:
  3265  02F3  17FB               	bsf	___fladd@grs,7
  3266  02F4                     l1794:
  3267  02F4  3001               	movlw	1
  3268  02F5  1283               	bcf	3,5	;RP0=0, select bank0
  3269  02F6  1303               	bcf	3,6	;RP1=0, select bank0
  3270  02F7  00A0               	movwf	??___fladd
  3271  02F8                     u1895:
  3272  02F8  0D73               	rlf	___fladd@b+3,w
  3273  02F9  0CF3               	rrf	___fladd@b+3,f
  3274  02FA  0CF2               	rrf	___fladd@b+2,f
  3275  02FB  0CF1               	rrf	___fladd@b+1,f
  3276  02FC  0CF0               	rrf	___fladd@b,f
  3277  02FD  0BA0               	decfsz	??___fladd& (0+127),f
  3278  02FE  2AF8               	goto	u1895
  3279  02FF                     l1796:
  3280  02FF  3001               	movlw	1
  3281  0300  00A0               	movwf	??___fladd
  3282  0301  0820               	movf	??___fladd,w
  3283  0302  07FA               	addwf	___fladd@bexp,f
  3284  0303                     l1798:
  3285  0303  0879               	movf	___fladd@aexp,w
  3286  0304  027A               	subwf	___fladd@bexp,w
  3287  0305  1C03               	skipc
  3288  0306  2B08               	goto	u1901
  3289  0307  2B09               	goto	u1900
  3290  0308                     u1901:
  3291  0308  2ADE               	goto	l547
  3292  0309                     u1900:
  3293  0309                     l545:
  3294  0309  1B78               	btfsc	___fladd@signs,6
  3295  030A  2B0C               	goto	u1911
  3296  030B  2B0D               	goto	u1910
  3297  030C                     u1911:
  3298  030C  2B5C               	goto	l1824
  3299  030D                     u1910:
  3300  030D                     l1800:
  3301  030D  087A               	movf	___fladd@bexp,w
  3302  030E  1D03               	btfss	3,2
  3303  030F  2B11               	goto	u1921
  3304  0310  2B12               	goto	u1920
  3305  0311                     u1921:
  3306  0311  2B1B               	goto	l1806
  3307  0312                     u1920:
  3308  0312                     l1802:
  3309  0312  3000               	movlw	0
  3310  0313  00F3               	movwf	?___fladd+3
  3311  0314  3000               	movlw	0
  3312  0315  00F2               	movwf	?___fladd+2
  3313  0316  3000               	movlw	0
  3314  0317  00F1               	movwf	?___fladd+1
  3315  0318  3000               	movlw	0
  3316  0319  00F0               	movwf	?___fladd
  3317  031A  2C94               	goto	l554
  3318  031B                     l1806:
  3319  031B  0874               	movf	___fladd@a,w
  3320  031C  07F0               	addwf	___fladd@b,f
  3321  031D  0875               	movf	___fladd@a+1,w
  3322  031E  1103               	clrz
  3323  031F  1803               	skipnc
  3324  0320  3E01               	addlw	1
  3325  0321  1903               	skipnz
  3326  0322  2B24               	goto	u1931
  3327  0323  07F1               	addwf	___fladd@b+1,f
  3328  0324                     u1931:
  3329  0324  0876               	movf	___fladd@a+2,w
  3330  0325  1103               	clrz
  3331  0326  1803               	skipnc
  3332  0327  3E01               	addlw	1
  3333  0328  1903               	skipnz
  3334  0329  2B2B               	goto	u1932
  3335  032A  07F2               	addwf	___fladd@b+2,f
  3336  032B                     u1932:
  3337  032B  0877               	movf	___fladd@a+3,w
  3338  032C  1103               	clrz
  3339  032D  1803               	skipnc
  3340  032E  3E01               	addlw	1
  3341  032F  1903               	skipnz
  3342  0330  2B32               	goto	u1933
  3343  0331  07F3               	addwf	___fladd@b+3,f
  3344  0332                     u1933:
  3345  0332                     l1808:
  3346  0332  1C73               	btfss	___fladd@b+3,0
  3347  0333  2B35               	goto	u1941
  3348  0334  2B36               	goto	u1940
  3349  0335                     u1941:
  3350  0335  2C14               	goto	l1858
  3351  0336                     u1940:
  3352  0336                     l1810:
  3353  0336  1C7B               	btfss	___fladd@grs,0
  3354  0337  2B39               	goto	u1951
  3355  0338  2B3A               	goto	u1950
  3356  0339                     u1951:
  3357  0339  2B45               	goto	l1814
  3358  033A                     u1950:
  3359  033A                     l1812:
  3360  033A  087B               	movf	___fladd@grs,w
  3361  033B  1283               	bcf	3,5	;RP0=0, select bank0
  3362  033C  1303               	bcf	3,6	;RP1=0, select bank0
  3363  033D  00A0               	movwf	??___fladd
  3364  033E  1003               	clrc
  3365  033F  0C20               	rrf	??___fladd,w
  3366  0340  3801               	iorlw	1
  3367  0341  00A1               	movwf	??___fladd+1
  3368  0342  0821               	movf	??___fladd+1,w
  3369  0343  00FB               	movwf	___fladd@grs
  3370  0344  2B47               	goto	l1816
  3371  0345                     l1814:
  3372  0345  1003               	clrc
  3373  0346  0CFB               	rrf	___fladd@grs,f
  3374  0347                     l1816:
  3375  0347  1C70               	btfss	___fladd@b,0
  3376  0348  2B4A               	goto	u1961
  3377  0349  2B4B               	goto	u1960
  3378  034A                     u1961:
  3379  034A  2B4C               	goto	l1820
  3380  034B                     u1960:
  3381  034B                     l1818:
  3382  034B  17FB               	bsf	___fladd@grs,7
  3383  034C                     l1820:
  3384  034C  3001               	movlw	1
  3385  034D  1283               	bcf	3,5	;RP0=0, select bank0
  3386  034E  1303               	bcf	3,6	;RP1=0, select bank0
  3387  034F  00A0               	movwf	??___fladd
  3388  0350                     u1975:
  3389  0350  0D73               	rlf	___fladd@b+3,w
  3390  0351  0CF3               	rrf	___fladd@b+3,f
  3391  0352  0CF2               	rrf	___fladd@b+2,f
  3392  0353  0CF1               	rrf	___fladd@b+1,f
  3393  0354  0CF0               	rrf	___fladd@b,f
  3394  0355  0BA0               	decfsz	??___fladd& (0+127),f
  3395  0356  2B50               	goto	u1975
  3396  0357                     l1822:
  3397  0357  3001               	movlw	1
  3398  0358  00A0               	movwf	??___fladd
  3399  0359  0820               	movf	??___fladd,w
  3400  035A  07FA               	addwf	___fladd@bexp,f
  3401  035B  2C14               	goto	l1858
  3402  035C                     l1824:
  3403  035C  0873               	movf	___fladd@b+3,w
  3404  035D  3A80               	xorlw	128
  3405  035E  00FF               	movwf	btemp+1
  3406  035F  0877               	movf	___fladd@a+3,w
  3407  0360  3A80               	xorlw	128
  3408  0361  027F               	subwf	btemp+1,w
  3409  0362  1D03               	skipz
  3410  0363  2B6E               	goto	u1983
  3411  0364  0876               	movf	___fladd@a+2,w
  3412  0365  0272               	subwf	___fladd@b+2,w
  3413  0366  1D03               	skipz
  3414  0367  2B6E               	goto	u1983
  3415  0368  0875               	movf	___fladd@a+1,w
  3416  0369  0271               	subwf	___fladd@b+1,w
  3417  036A  1D03               	skipz
  3418  036B  2B6E               	goto	u1983
  3419  036C  0874               	movf	___fladd@a,w
  3420  036D  0270               	subwf	___fladd@b,w
  3421  036E                     u1983:
  3422  036E  1803               	skipnc
  3423  036F  2B71               	goto	u1981
  3424  0370  2B72               	goto	u1980
  3425  0371                     u1981:
  3426  0371  2BCC               	goto	l1834
  3427  0372                     u1980:
  3428  0372                     l1826:
  3429  0372  30FF               	movlw	255
  3430  0373  1283               	bcf	3,5	;RP0=0, select bank0
  3431  0374  1303               	bcf	3,6	;RP1=0, select bank0
  3432  0375  00A0               	movwf	??___fladd
  3433  0376  30FF               	movlw	255
  3434  0377  00A1               	movwf	??___fladd+1
  3435  0378  30FF               	movlw	255
  3436  0379  00A2               	movwf	??___fladd+2
  3437  037A  30FF               	movlw	255
  3438  037B  00A3               	movwf	??___fladd+3
  3439  037C  0874               	movf	___fladd@a,w
  3440  037D  00A4               	movwf	??___fladd+4
  3441  037E  0875               	movf	___fladd@a+1,w
  3442  037F  00A5               	movwf	??___fladd+5
  3443  0380  0876               	movf	___fladd@a+2,w
  3444  0381  00A6               	movwf	??___fladd+6
  3445  0382  0877               	movf	___fladd@a+3,w
  3446  0383  00A7               	movwf	??___fladd+7
  3447  0384  0870               	movf	___fladd@b,w
  3448  0385  02A4               	subwf	??___fladd+4,f
  3449  0386  0871               	movf	___fladd@b+1,w
  3450  0387  1C03               	skipc
  3451  0388  0F71               	incfsz	___fladd@b+1,w
  3452  0389  2B8B               	goto	u1991
  3453  038A  2B8C               	goto	u1992
  3454  038B                     u1991:
  3455  038B  02A5               	subwf	??___fladd+5,f
  3456  038C                     u1992:
  3457  038C  0872               	movf	___fladd@b+2,w
  3458  038D  1C03               	skipc
  3459  038E  0F72               	incfsz	___fladd@b+2,w
  3460  038F  2B91               	goto	u1993
  3461  0390  2B92               	goto	u1994
  3462  0391                     u1993:
  3463  0391  02A6               	subwf	??___fladd+6,f
  3464  0392                     u1994:
  3465  0392  0873               	movf	___fladd@b+3,w
  3466  0393  1C03               	skipc
  3467  0394  0F73               	incfsz	___fladd@b+3,w
  3468  0395  2B97               	goto	u1995
  3469  0396  2B98               	goto	u1996
  3470  0397                     u1995:
  3471  0397  02A7               	subwf	??___fladd+7,f
  3472  0398                     u1996:
  3473  0398  0824               	movf	??___fladd+4,w
  3474  0399  07A0               	addwf	??___fladd,f
  3475  039A  0825               	movf	??___fladd+5,w
  3476  039B  1803               	skipnc
  3477  039C  0F25               	incfsz	??___fladd+5,w
  3478  039D  2B9F               	goto	u2000
  3479  039E  2BA0               	goto	u2001
  3480  039F                     u2000:
  3481  039F  07A1               	addwf	??___fladd+1,f
  3482  03A0                     u2001:
  3483  03A0  0826               	movf	??___fladd+6,w
  3484  03A1  1803               	skipnc
  3485  03A2  0F26               	incfsz	??___fladd+6,w
  3486  03A3  2BA5               	goto	u2002
  3487  03A4  2BA6               	goto	u2003
  3488  03A5                     u2002:
  3489  03A5  07A2               	addwf	??___fladd+2,f
  3490  03A6                     u2003:
  3491  03A6  0827               	movf	??___fladd+7,w
  3492  03A7  1803               	skipnc
  3493  03A8  0A27               	incf	??___fladd+7,w
  3494  03A9  07A3               	addwf	??___fladd+3,f
  3495  03AA  0823               	movf	??___fladd+3,w
  3496  03AB  00F3               	movwf	___fladd@b+3
  3497  03AC  0822               	movf	??___fladd+2,w
  3498  03AD  00F2               	movwf	___fladd@b+2
  3499  03AE  0821               	movf	??___fladd+1,w
  3500  03AF  00F1               	movwf	___fladd@b+1
  3501  03B0  0820               	movf	??___fladd,w
  3502  03B1  00F0               	movwf	___fladd@b
  3503  03B2                     l1828:
  3504  03B2  3080               	movlw	128
  3505  03B3  00A0               	movwf	??___fladd
  3506  03B4  0820               	movf	??___fladd,w
  3507  03B5  06F8               	xorwf	___fladd@signs,f
  3508  03B6  09FB               	comf	___fladd@grs,f
  3509  03B7  0AFB               	incf	___fladd@grs,f
  3510  03B8                     l1830:
  3511  03B8  087B               	movf	___fladd@grs,w
  3512  03B9  1D03               	btfss	3,2
  3513  03BA  2BBC               	goto	u2011
  3514  03BB  2BBD               	goto	u2010
  3515  03BC                     u2011:
  3516  03BC  2BDA               	goto	l562
  3517  03BD                     u2010:
  3518  03BD                     l1832:
  3519  03BD  3001               	movlw	1
  3520  03BE  07F0               	addwf	___fladd@b,f
  3521  03BF  3000               	movlw	0
  3522  03C0  1803               	skipnc
  3523  03C1  3001               	movlw	1
  3524  03C2  07F1               	addwf	___fladd@b+1,f
  3525  03C3  3000               	movlw	0
  3526  03C4  1803               	skipnc
  3527  03C5  3001               	movlw	1
  3528  03C6  07F2               	addwf	___fladd@b+2,f
  3529  03C7  3000               	movlw	0
  3530  03C8  1803               	skipnc
  3531  03C9  3001               	movlw	1
  3532  03CA  07F3               	addwf	___fladd@b+3,f
  3533  03CB  2BDA               	goto	l562
  3534  03CC                     l1834:
  3535  03CC  0874               	movf	___fladd@a,w
  3536  03CD  02F0               	subwf	___fladd@b,f
  3537  03CE  0875               	movf	___fladd@a+1,w
  3538  03CF  1C03               	skipc
  3539  03D0  0F75               	incfsz	___fladd@a+1,w
  3540  03D1  02F1               	subwf	___fladd@b+1,f
  3541  03D2  0876               	movf	___fladd@a+2,w
  3542  03D3  1C03               	skipc
  3543  03D4  0F76               	incfsz	___fladd@a+2,w
  3544  03D5  02F2               	subwf	___fladd@b+2,f
  3545  03D6  0877               	movf	___fladd@a+3,w
  3546  03D7  1C03               	skipc
  3547  03D8  0F77               	incfsz	___fladd@a+3,w
  3548  03D9  02F3               	subwf	___fladd@b+3,f
  3549  03DA                     l562:
  3550  03DA  0873               	movf	___fladd@b+3,w
  3551  03DB  0472               	iorwf	___fladd@b+2,w
  3552  03DC  0471               	iorwf	___fladd@b+1,w
  3553  03DD  0470               	iorwf	___fladd@b,w
  3554  03DE  1D03               	skipz
  3555  03DF  2BE1               	goto	u2021
  3556  03E0  2BE2               	goto	u2020
  3557  03E1                     u2021:
  3558  03E1  2C10               	goto	l1856
  3559  03E2                     u2020:
  3560  03E2                     l1836:
  3561  03E2  087B               	movf	___fladd@grs,w
  3562  03E3  1D03               	btfss	3,2
  3563  03E4  2BE6               	goto	u2031
  3564  03E5  2BE7               	goto	u2030
  3565  03E6                     u2031:
  3566  03E6  2C10               	goto	l1856
  3567  03E7                     u2030:
  3568  03E7                     l1838:
  3569  03E7  3000               	movlw	0
  3570  03E8  00F3               	movwf	?___fladd+3
  3571  03E9  3000               	movlw	0
  3572  03EA  00F2               	movwf	?___fladd+2
  3573  03EB  3000               	movlw	0
  3574  03EC  00F1               	movwf	?___fladd+1
  3575  03ED  3000               	movlw	0
  3576  03EE  00F0               	movwf	?___fladd
  3577  03EF  2C94               	goto	l554
  3578  03F0                     l1842:
  3579  03F0  3001               	movlw	1
  3580  03F1  1283               	bcf	3,5	;RP0=0, select bank0
  3581  03F2  1303               	bcf	3,6	;RP1=0, select bank0
  3582  03F3  00A0               	movwf	??___fladd
  3583  03F4                     u2045:
  3584  03F4  1003               	clrc
  3585  03F5  0DF0               	rlf	___fladd@b,f
  3586  03F6  0DF1               	rlf	___fladd@b+1,f
  3587  03F7  0DF2               	rlf	___fladd@b+2,f
  3588  03F8  0DF3               	rlf	___fladd@b+3,f
  3589  03F9  0BA0               	decfsz	??___fladd,f
  3590  03FA  2BF4               	goto	u2045
  3591  03FB                     l1844:
  3592  03FB  1FFB               	btfss	___fladd@grs,7
  3593  03FC  2BFE               	goto	u2051
  3594  03FD  2BFF               	goto	u2050
  3595  03FE                     u2051:
  3596  03FE  2C00               	goto	l566
  3597  03FF                     u2050:
  3598  03FF                     l1846:
  3599  03FF  1470               	bsf	___fladd@b,0
  3600  0400                     l566:
  3601  0400  1C7B               	btfss	___fladd@grs,0
  3602  0401  2C03               	goto	u2061
  3603  0402  2C04               	goto	u2060
  3604  0403                     u2061:
  3605  0403  2C07               	goto	l1850
  3606  0404                     u2060:
  3607  0404                     l1848:
  3608  0404  1403               	setc
  3609  0405  0DFB               	rlf	___fladd@grs,f
  3610  0406  2C09               	goto	l1852
  3611  0407                     l1850:
  3612  0407  1003               	clrc
  3613  0408  0DFB               	rlf	___fladd@grs,f
  3614  0409                     l1852:
  3615  0409  087A               	movf	___fladd@bexp,w
  3616  040A  1903               	btfsc	3,2
  3617  040B  2C0D               	goto	u2071
  3618  040C  2C0E               	goto	u2070
  3619  040D                     u2071:
  3620  040D  2C10               	goto	l1856
  3621  040E                     u2070:
  3622  040E                     l1854:
  3623  040E  3001               	movlw	1
  3624  040F  02FA               	subwf	___fladd@bexp,f
  3625  0410                     l1856:
  3626  0410  1FF2               	btfss	___fladd@b+2,7
  3627  0411  2C13               	goto	u2081
  3628  0412  2C14               	goto	u2080
  3629  0413                     u2081:
  3630  0413  2BF0               	goto	l1842
  3631  0414                     u2080:
  3632  0414                     l1858:
  3633  0414  01F9               	clrf	___fladd@aexp
  3634  0415                     l1860:
  3635  0415  1FFB               	btfss	___fladd@grs,7
  3636  0416  2C18               	goto	u2091
  3637  0417  2C19               	goto	u2090
  3638  0418                     u2091:
  3639  0418  2C27               	goto	l1868
  3640  0419                     u2090:
  3641  0419                     l1862:
  3642  0419  087B               	movf	___fladd@grs,w
  3643  041A  397F               	andlw	127
  3644  041B  1903               	btfsc	3,2
  3645  041C  2C1E               	goto	u2101
  3646  041D  2C1F               	goto	u2100
  3647  041E                     u2101:
  3648  041E  2C22               	goto	l572
  3649  041F                     u2100:
  3650  041F                     l1864:
  3651  041F  01F9               	clrf	___fladd@aexp
  3652  0420  0AF9               	incf	___fladd@aexp,f
  3653  0421  2C27               	goto	l1868
  3654  0422                     l572:
  3655  0422  1C70               	btfss	___fladd@b,0
  3656  0423  2C25               	goto	u2111
  3657  0424  2C26               	goto	u2110
  3658  0425                     u2111:
  3659  0425  2C27               	goto	l1868
  3660  0426                     u2110:
  3661  0426  2C1F               	goto	l1864
  3662  0427                     l1868:
  3663  0427  0879               	movf	___fladd@aexp,w
  3664  0428  1903               	btfsc	3,2
  3665  0429  2C2B               	goto	u2121
  3666  042A  2C2C               	goto	u2120
  3667  042B                     u2121:
  3668  042B  2C62               	goto	l575
  3669  042C                     u2120:
  3670  042C                     l1870:
  3671  042C  3001               	movlw	1
  3672  042D  07F0               	addwf	___fladd@b,f
  3673  042E  3000               	movlw	0
  3674  042F  1803               	skipnc
  3675  0430  3001               	movlw	1
  3676  0431  07F1               	addwf	___fladd@b+1,f
  3677  0432  3000               	movlw	0
  3678  0433  1803               	skipnc
  3679  0434  3001               	movlw	1
  3680  0435  07F2               	addwf	___fladd@b+2,f
  3681  0436  3000               	movlw	0
  3682  0437  1803               	skipnc
  3683  0438  3001               	movlw	1
  3684  0439  07F3               	addwf	___fladd@b+3,f
  3685  043A                     l1872:
  3686  043A  1C73               	btfss	___fladd@b+3,0
  3687  043B  2C3D               	goto	u2131
  3688  043C  2C3E               	goto	u2130
  3689  043D                     u2131:
  3690  043D  2C62               	goto	l575
  3691  043E                     u2130:
  3692  043E                     l1874:
  3693  043E  0870               	movf	___fladd@b,w
  3694  043F  1283               	bcf	3,5	;RP0=0, select bank0
  3695  0440  1303               	bcf	3,6	;RP1=0, select bank0
  3696  0441  00A0               	movwf	??___fladd
  3697  0442  0871               	movf	___fladd@b+1,w
  3698  0443  00A1               	movwf	??___fladd+1
  3699  0444  0872               	movf	___fladd@b+2,w
  3700  0445  00A2               	movwf	??___fladd+2
  3701  0446  0873               	movf	___fladd@b+3,w
  3702  0447  00A3               	movwf	??___fladd+3
  3703  0448  3001               	movlw	1
  3704  0449  00A4               	movwf	??___fladd+4
  3705  044A                     u2145:
  3706  044A  0D23               	rlf	??___fladd+3,w
  3707  044B  0CA3               	rrf	??___fladd+3,f
  3708  044C  0CA2               	rrf	??___fladd+2,f
  3709  044D  0CA1               	rrf	??___fladd+1,f
  3710  044E  0CA0               	rrf	??___fladd,f
  3711  044F                     u2140:
  3712  044F  0BA4               	decfsz	??___fladd+4,f
  3713  0450  2C4A               	goto	u2145
  3714  0451  0823               	movf	??___fladd+3,w
  3715  0452  00F3               	movwf	___fladd@b+3
  3716  0453  0822               	movf	??___fladd+2,w
  3717  0454  00F2               	movwf	___fladd@b+2
  3718  0455  0821               	movf	??___fladd+1,w
  3719  0456  00F1               	movwf	___fladd@b+1
  3720  0457  0820               	movf	??___fladd,w
  3721  0458  00F0               	movwf	___fladd@b
  3722  0459  0A7A               	incf	___fladd@bexp,w
  3723  045A  1903               	btfsc	3,2
  3724  045B  2C5D               	goto	u2151
  3725  045C  2C5E               	goto	u2150
  3726  045D                     u2151:
  3727  045D  2C62               	goto	l575
  3728  045E                     u2150:
  3729  045E                     l1876:
  3730  045E  3001               	movlw	1
  3731  045F  00A0               	movwf	??___fladd
  3732  0460  0820               	movf	??___fladd,w
  3733  0461  07FA               	addwf	___fladd@bexp,f
  3734  0462                     l575:
  3735  0462  0A7A               	incf	___fladd@bexp,w
  3736  0463  1903               	btfsc	3,2
  3737  0464  2C66               	goto	u2161
  3738  0465  2C67               	goto	u2160
  3739  0466                     u2161:
  3740  0466  2C6C               	goto	l1880
  3741  0467                     u2160:
  3742  0467                     l1878:
  3743  0467  087A               	movf	___fladd@bexp,w
  3744  0468  1D03               	btfss	3,2
  3745  0469  2C6B               	goto	u2171
  3746  046A  2C6C               	goto	u2170
  3747  046B                     u2171:
  3748  046B  2C7A               	goto	l1886
  3749  046C                     u2170:
  3750  046C                     l1880:
  3751  046C  3000               	movlw	0
  3752  046D  00F3               	movwf	___fladd@b+3
  3753  046E  3000               	movlw	0
  3754  046F  00F2               	movwf	___fladd@b+2
  3755  0470  3000               	movlw	0
  3756  0471  00F1               	movwf	___fladd@b+1
  3757  0472  3000               	movlw	0
  3758  0473  00F0               	movwf	___fladd@b
  3759  0474                     l1882:
  3760  0474  087A               	movf	___fladd@bexp,w
  3761  0475  1D03               	btfss	3,2
  3762  0476  2C78               	goto	u2181
  3763  0477  2C79               	goto	u2180
  3764  0478                     u2181:
  3765  0478  2C7A               	goto	l1886
  3766  0479                     u2180:
  3767  0479                     l1884:
  3768  0479  01F8               	clrf	___fladd@signs
  3769  047A                     l1886:
  3770  047A  1C7A               	btfss	___fladd@bexp,0
  3771  047B  2C7D               	goto	u2191
  3772  047C  2C7E               	goto	u2190
  3773  047D                     u2191:
  3774  047D  2C80               	goto	l1890
  3775  047E                     u2190:
  3776  047E                     l1888:
  3777  047E  17F2               	bsf	___fladd@b+2,7
  3778  047F  2C86               	goto	l583
  3779  0480                     l1890:
  3780  0480  307F               	movlw	127
  3781  0481  1283               	bcf	3,5	;RP0=0, select bank0
  3782  0482  1303               	bcf	3,6	;RP1=0, select bank0
  3783  0483  00A0               	movwf	??___fladd
  3784  0484  0820               	movf	??___fladd,w
  3785  0485  05F2               	andwf	___fladd@b+2,f
  3786  0486                     l583:
  3787  0486  087A               	movf	___fladd@bexp,w
  3788  0487  1283               	bcf	3,5	;RP0=0, select bank0
  3789  0488  1303               	bcf	3,6	;RP1=0, select bank0
  3790  0489  00A0               	movwf	??___fladd
  3791  048A  1003               	clrc
  3792  048B  0C20               	rrf	??___fladd,w
  3793  048C  00A1               	movwf	??___fladd+1
  3794  048D  0821               	movf	??___fladd+1,w
  3795  048E  00F3               	movwf	___fladd@b+3
  3796  048F                     l1892:
  3797  048F  1FF8               	btfss	___fladd@signs,7
  3798  0490  2C92               	goto	u2201
  3799  0491  2C93               	goto	u2200
  3800  0492                     u2201:
  3801  0492  2C94               	goto	l584
  3802  0493                     u2200:
  3803  0493                     l1894:
  3804  0493  17F3               	bsf	___fladd@b+3,7
  3805  0494                     l584:
  3806  0494                     l554:
  3807  0494  0008               	return
  3808  0495                     __end_of___fladd:
  3809                           
  3810                           	psect	text10
  3811  0495                     __ptext10:	
  3812 ;; *************** function ___flmul *****************
  3813 ;; Defined at:
  3814 ;;		line 8 in file "C:\Program Files\Microchip\xc8\v2.35\pic\sources\c90\common\sprcmul.c"
  3815 ;; Parameters:    Size  Location     Type
  3816 ;;  b               4    6[BANK0 ] unsigned char 
  3817 ;;  a               4   10[BANK0 ] unsigned char 
  3818 ;; Auto vars:     Size  Location     Type
  3819 ;;  prod            4   26[BANK0 ] struct .
  3820 ;;  grs             4   20[BANK0 ] unsigned long 
  3821 ;;  temp            2   30[BANK0 ] struct .
  3822 ;;  bexp            1   25[BANK0 ] unsigned char 
  3823 ;;  aexp            1   24[BANK0 ] unsigned char 
  3824 ;;  sign            1   19[BANK0 ] unsigned char 
  3825 ;; Return value:  Size  Location     Type
  3826 ;;                  4    6[BANK0 ] unsigned char 
  3827 ;; Registers used:
  3828 ;;		wreg, status,2, status,0, btemp+1, pclath, cstack
  3829 ;; Tracked objects:
  3830 ;;		On entry : 0/0
  3831 ;;		On exit  : 0/0
  3832 ;;		Unchanged: 0/0
  3833 ;; Data sizes:     COMMON   BANK0   BANK1   BANK3   BANK2
  3834 ;;      Params:         0       8       0       0       0
  3835 ;;      Locals:         0      13       0       0       0
  3836 ;;      Temps:          0       5       0       0       0
  3837 ;;      Totals:         0      26       0       0       0
  3838 ;;Total ram usage:       26 bytes
  3839 ;; Hardware stack levels used: 1
  3840 ;; Hardware stack levels required when called: 1
  3841 ;; This function calls:
  3842 ;;		__Umul8_16
  3843 ;; This function is called by:
  3844 ;;		_main
  3845 ;; This function uses a non-reentrant model
  3846 ;;
  3847                           
  3848  0495                     ___flmul:	
  3849                           ;psect for function ___flmul
  3850                           
  3851  0495                     l2222:	
  3852                           ;incstack = 0
  3853                           ; Regs used in ___flmul: [wreg+status,2+status,0+btemp+1+pclath+cstack]
  3854                           
  3855  0495  1283               	bcf	3,5	;RP0=0, select bank0
  3856  0496  1303               	bcf	3,6	;RP1=0, select bank0
  3857  0497  0829               	movf	___flmul@b+3,w
  3858  0498  3980               	andlw	128
  3859  0499  00AE               	movwf	??___flmul
  3860  049A  082E               	movf	??___flmul,w
  3861  049B  00B3               	movwf	___flmul@sign
  3862  049C                     l2224:
  3863  049C  0829               	movf	___flmul@b+3,w
  3864  049D  00AE               	movwf	??___flmul
  3865  049E  072E               	addwf	??___flmul,w
  3866  049F  00AF               	movwf	??___flmul+1
  3867  04A0  082F               	movf	??___flmul+1,w
  3868  04A1  00B9               	movwf	___flmul@bexp
  3869  04A2                     l2226:
  3870  04A2  1FA8               	btfss	___flmul@b+2,7
  3871  04A3  2CA5               	goto	u2841
  3872  04A4  2CA6               	goto	u2840
  3873  04A5                     u2841:
  3874  04A5  2CA7               	goto	l2230
  3875  04A6                     u2840:
  3876  04A6                     l2228:
  3877  04A6  1439               	bsf	___flmul@bexp,0
  3878  04A7                     l2230:
  3879  04A7  0839               	movf	___flmul@bexp,w
  3880  04A8  1903               	btfsc	3,2
  3881  04A9  2CAB               	goto	u2851
  3882  04AA  2CAC               	goto	u2850
  3883  04AB                     u2851:
  3884  04AB  2CBB               	goto	l2238
  3885  04AC                     u2850:
  3886  04AC                     l2232:
  3887  04AC  0A39               	incf	___flmul@bexp,w
  3888  04AD  1D03               	btfss	3,2
  3889  04AE  2CB0               	goto	u2861
  3890  04AF  2CB1               	goto	u2860
  3891  04B0                     u2861:
  3892  04B0  2CB9               	goto	l2236
  3893  04B1                     u2860:
  3894  04B1                     l2234:
  3895  04B1  3000               	movlw	0
  3896  04B2  00A9               	movwf	___flmul@b+3
  3897  04B3  3000               	movlw	0
  3898  04B4  00A8               	movwf	___flmul@b+2
  3899  04B5  3000               	movlw	0
  3900  04B6  00A7               	movwf	___flmul@b+1
  3901  04B7  3000               	movlw	0
  3902  04B8  00A6               	movwf	___flmul@b
  3903  04B9                     l2236:
  3904  04B9  17A8               	bsf	___flmul@b+2,7
  3905  04BA  2CC3               	goto	l2240
  3906  04BB                     l2238:
  3907  04BB  3000               	movlw	0
  3908  04BC  00A9               	movwf	___flmul@b+3
  3909  04BD  3000               	movlw	0
  3910  04BE  00A8               	movwf	___flmul@b+2
  3911  04BF  3000               	movlw	0
  3912  04C0  00A7               	movwf	___flmul@b+1
  3913  04C1  3000               	movlw	0
  3914  04C2  00A6               	movwf	___flmul@b
  3915  04C3                     l2240:
  3916  04C3  082D               	movf	___flmul@a+3,w
  3917  04C4  3980               	andlw	128
  3918  04C5  00AE               	movwf	??___flmul
  3919  04C6  082E               	movf	??___flmul,w
  3920  04C7  06B3               	xorwf	___flmul@sign,f
  3921  04C8                     l2242:
  3922  04C8  082D               	movf	___flmul@a+3,w
  3923  04C9  00AE               	movwf	??___flmul
  3924  04CA  072E               	addwf	??___flmul,w
  3925  04CB  00AF               	movwf	??___flmul+1
  3926  04CC  082F               	movf	??___flmul+1,w
  3927  04CD  00B8               	movwf	___flmul@aexp
  3928  04CE                     l2244:
  3929  04CE  1FAC               	btfss	___flmul@a+2,7
  3930  04CF  2CD1               	goto	u2871
  3931  04D0  2CD2               	goto	u2870
  3932  04D1                     u2871:
  3933  04D1  2CD3               	goto	l2248
  3934  04D2                     u2870:
  3935  04D2                     l2246:
  3936  04D2  1438               	bsf	___flmul@aexp,0
  3937  04D3                     l2248:
  3938  04D3  0838               	movf	___flmul@aexp,w
  3939  04D4  1903               	btfsc	3,2
  3940  04D5  2CD7               	goto	u2881
  3941  04D6  2CD8               	goto	u2880
  3942  04D7                     u2881:
  3943  04D7  2CE7               	goto	l2256
  3944  04D8                     u2880:
  3945  04D8                     l2250:
  3946  04D8  0A38               	incf	___flmul@aexp,w
  3947  04D9  1D03               	btfss	3,2
  3948  04DA  2CDC               	goto	u2891
  3949  04DB  2CDD               	goto	u2890
  3950  04DC                     u2891:
  3951  04DC  2CE5               	goto	l2254
  3952  04DD                     u2890:
  3953  04DD                     l2252:
  3954  04DD  3000               	movlw	0
  3955  04DE  00AD               	movwf	___flmul@a+3
  3956  04DF  3000               	movlw	0
  3957  04E0  00AC               	movwf	___flmul@a+2
  3958  04E1  3000               	movlw	0
  3959  04E2  00AB               	movwf	___flmul@a+1
  3960  04E3  3000               	movlw	0
  3961  04E4  00AA               	movwf	___flmul@a
  3962  04E5                     l2254:
  3963  04E5  17AC               	bsf	___flmul@a+2,7
  3964  04E6  2CEF               	goto	l2258
  3965  04E7                     l2256:
  3966  04E7  3000               	movlw	0
  3967  04E8  00AD               	movwf	___flmul@a+3
  3968  04E9  3000               	movlw	0
  3969  04EA  00AC               	movwf	___flmul@a+2
  3970  04EB  3000               	movlw	0
  3971  04EC  00AB               	movwf	___flmul@a+1
  3972  04ED  3000               	movlw	0
  3973  04EE  00AA               	movwf	___flmul@a
  3974  04EF                     l2258:
  3975  04EF  0838               	movf	___flmul@aexp,w
  3976  04F0  1903               	btfsc	3,2
  3977  04F1  2CF3               	goto	u2901
  3978  04F2  2CF4               	goto	u2900
  3979  04F3                     u2901:
  3980  04F3  2CF9               	goto	l2262
  3981  04F4                     u2900:
  3982  04F4                     l2260:
  3983  04F4  0839               	movf	___flmul@bexp,w
  3984  04F5  1D03               	btfss	3,2
  3985  04F6  2CF8               	goto	u2911
  3986  04F7  2CF9               	goto	u2910
  3987  04F8                     u2911:
  3988  04F8  2D02               	goto	l2266
  3989  04F9                     u2910:
  3990  04F9                     l2262:
  3991  04F9  3000               	movlw	0
  3992  04FA  00A9               	movwf	?___flmul+3
  3993  04FB  3000               	movlw	0
  3994  04FC  00A8               	movwf	?___flmul+2
  3995  04FD  3000               	movlw	0
  3996  04FE  00A7               	movwf	?___flmul+1
  3997  04FF  3000               	movlw	0
  3998  0500  00A6               	movwf	?___flmul
  3999  0501  2FF5               	goto	l637
  4000  0502                     l2266:
  4001  0502  0826               	movf	___flmul@b,w
  4002  0503  00AE               	movwf	??___flmul
  4003  0504  082E               	movf	??___flmul,w
  4004  0505  00F0               	movwf	__Umul8_16@multiplicand
  4005  0506  082C               	movf	___flmul@a+2,w
  4006  0507  120A  158A  2210  120A  118A  	fcall	__Umul8_16
  4007  050C  0871               	movf	?__Umul8_16+1,w
  4008  050D  1283               	bcf	3,5	;RP0=0, select bank0
  4009  050E  1303               	bcf	3,6	;RP1=0, select bank0
  4010  050F  00BF               	movwf	___flmul@temp+1
  4011  0510  0870               	movf	?__Umul8_16,w
  4012  0511  00BE               	movwf	___flmul@temp
  4013  0512                     l2268:
  4014  0512  083E               	movf	___flmul@temp,w
  4015  0513  00AE               	movwf	??___flmul
  4016  0514  01AF               	clrf	??___flmul+1
  4017  0515  01B0               	clrf	??___flmul+2
  4018  0516  01B1               	clrf	??___flmul+3
  4019  0517  0831               	movf	??___flmul+3,w
  4020  0518  00B7               	movwf	___flmul@grs+3
  4021  0519  0830               	movf	??___flmul+2,w
  4022  051A  00B6               	movwf	___flmul@grs+2
  4023  051B  082F               	movf	??___flmul+1,w
  4024  051C  00B5               	movwf	___flmul@grs+1
  4025  051D  082E               	movf	??___flmul,w
  4026  051E  00B4               	movwf	___flmul@grs
  4027  051F                     l2270:
  4028  051F  083F               	movf	___flmul@temp+1,w
  4029  0520  00AE               	movwf	??___flmul
  4030  0521  01AF               	clrf	??___flmul+1
  4031  0522  01B0               	clrf	??___flmul+2
  4032  0523  01B1               	clrf	??___flmul+3
  4033  0524  0831               	movf	??___flmul+3,w
  4034  0525  00BD               	movwf	___flmul@prod+3
  4035  0526  0830               	movf	??___flmul+2,w
  4036  0527  00BC               	movwf	___flmul@prod+2
  4037  0528  082F               	movf	??___flmul+1,w
  4038  0529  00BB               	movwf	___flmul@prod+1
  4039  052A  082E               	movf	??___flmul,w
  4040  052B  00BA               	movwf	___flmul@prod
  4041  052C  0827               	movf	___flmul@b+1,w
  4042  052D  00AE               	movwf	??___flmul
  4043  052E  082E               	movf	??___flmul,w
  4044  052F  00F0               	movwf	__Umul8_16@multiplicand
  4045  0530  082B               	movf	___flmul@a+1,w
  4046  0531  120A  158A  2210  120A  118A  	fcall	__Umul8_16
  4047  0536  0871               	movf	?__Umul8_16+1,w
  4048  0537  1283               	bcf	3,5	;RP0=0, select bank0
  4049  0538  1303               	bcf	3,6	;RP1=0, select bank0
  4050  0539  00BF               	movwf	___flmul@temp+1
  4051  053A  0870               	movf	?__Umul8_16,w
  4052  053B  00BE               	movwf	___flmul@temp
  4053  053C                     l2272:
  4054  053C  083E               	movf	___flmul@temp,w
  4055  053D  00AE               	movwf	??___flmul
  4056  053E  01AF               	clrf	??___flmul+1
  4057  053F  01B0               	clrf	??___flmul+2
  4058  0540  01B1               	clrf	??___flmul+3
  4059  0541  082E               	movf	??___flmul,w
  4060  0542  07B4               	addwf	___flmul@grs,f
  4061  0543  082F               	movf	??___flmul+1,w
  4062  0544  1103               	clrz
  4063  0545  1803               	skipnc
  4064  0546  3E01               	addlw	1
  4065  0547  1903               	skipnz
  4066  0548  2D4A               	goto	u2921
  4067  0549  07B5               	addwf	___flmul@grs+1,f
  4068  054A                     u2921:
  4069  054A  0830               	movf	??___flmul+2,w
  4070  054B  1103               	clrz
  4071  054C  1803               	skipnc
  4072  054D  3E01               	addlw	1
  4073  054E  1903               	skipnz
  4074  054F  2D51               	goto	u2922
  4075  0550  07B6               	addwf	___flmul@grs+2,f
  4076  0551                     u2922:
  4077  0551  0831               	movf	??___flmul+3,w
  4078  0552  1103               	clrz
  4079  0553  1803               	skipnc
  4080  0554  3E01               	addlw	1
  4081  0555  1903               	skipnz
  4082  0556  2D58               	goto	u2923
  4083  0557  07B7               	addwf	___flmul@grs+3,f
  4084  0558                     u2923:
  4085  0558                     l2274:
  4086  0558  083F               	movf	___flmul@temp+1,w
  4087  0559  00AE               	movwf	??___flmul
  4088  055A  01AF               	clrf	??___flmul+1
  4089  055B  01B0               	clrf	??___flmul+2
  4090  055C  01B1               	clrf	??___flmul+3
  4091  055D  082E               	movf	??___flmul,w
  4092  055E  07BA               	addwf	___flmul@prod,f
  4093  055F  082F               	movf	??___flmul+1,w
  4094  0560  1103               	clrz
  4095  0561  1803               	skipnc
  4096  0562  3E01               	addlw	1
  4097  0563  1903               	skipnz
  4098  0564  2D66               	goto	u2931
  4099  0565  07BB               	addwf	___flmul@prod+1,f
  4100  0566                     u2931:
  4101  0566  0830               	movf	??___flmul+2,w
  4102  0567  1103               	clrz
  4103  0568  1803               	skipnc
  4104  0569  3E01               	addlw	1
  4105  056A  1903               	skipnz
  4106  056B  2D6D               	goto	u2932
  4107  056C  07BC               	addwf	___flmul@prod+2,f
  4108  056D                     u2932:
  4109  056D  0831               	movf	??___flmul+3,w
  4110  056E  1103               	clrz
  4111  056F  1803               	skipnc
  4112  0570  3E01               	addlw	1
  4113  0571  1903               	skipnz
  4114  0572  2D74               	goto	u2933
  4115  0573  07BD               	addwf	___flmul@prod+3,f
  4116  0574                     u2933:
  4117  0574  0828               	movf	___flmul@b+2,w
  4118  0575  00AE               	movwf	??___flmul
  4119  0576  082E               	movf	??___flmul,w
  4120  0577  00F0               	movwf	__Umul8_16@multiplicand
  4121  0578  082A               	movf	___flmul@a,w
  4122  0579  120A  158A  2210  120A  118A  	fcall	__Umul8_16
  4123  057E  0871               	movf	?__Umul8_16+1,w
  4124  057F  1283               	bcf	3,5	;RP0=0, select bank0
  4125  0580  1303               	bcf	3,6	;RP1=0, select bank0
  4126  0581  00BF               	movwf	___flmul@temp+1
  4127  0582  0870               	movf	?__Umul8_16,w
  4128  0583  00BE               	movwf	___flmul@temp
  4129  0584                     l2276:
  4130  0584  083E               	movf	___flmul@temp,w
  4131  0585  00AE               	movwf	??___flmul
  4132  0586  01AF               	clrf	??___flmul+1
  4133  0587  01B0               	clrf	??___flmul+2
  4134  0588  01B1               	clrf	??___flmul+3
  4135  0589  082E               	movf	??___flmul,w
  4136  058A  07B4               	addwf	___flmul@grs,f
  4137  058B  082F               	movf	??___flmul+1,w
  4138  058C  1103               	clrz
  4139  058D  1803               	skipnc
  4140  058E  3E01               	addlw	1
  4141  058F  1903               	skipnz
  4142  0590  2D92               	goto	u2941
  4143  0591  07B5               	addwf	___flmul@grs+1,f
  4144  0592                     u2941:
  4145  0592  0830               	movf	??___flmul+2,w
  4146  0593  1103               	clrz
  4147  0594  1803               	skipnc
  4148  0595  3E01               	addlw	1
  4149  0596  1903               	skipnz
  4150  0597  2D99               	goto	u2942
  4151  0598  07B6               	addwf	___flmul@grs+2,f
  4152  0599                     u2942:
  4153  0599  0831               	movf	??___flmul+3,w
  4154  059A  1103               	clrz
  4155  059B  1803               	skipnc
  4156  059C  3E01               	addlw	1
  4157  059D  1903               	skipnz
  4158  059E  2DA0               	goto	u2943
  4159  059F  07B7               	addwf	___flmul@grs+3,f
  4160  05A0                     u2943:
  4161  05A0                     l2278:
  4162  05A0  083F               	movf	___flmul@temp+1,w
  4163  05A1  00AE               	movwf	??___flmul
  4164  05A2  01AF               	clrf	??___flmul+1
  4165  05A3  01B0               	clrf	??___flmul+2
  4166  05A4  01B1               	clrf	??___flmul+3
  4167  05A5  082E               	movf	??___flmul,w
  4168  05A6  07BA               	addwf	___flmul@prod,f
  4169  05A7  082F               	movf	??___flmul+1,w
  4170  05A8  1103               	clrz
  4171  05A9  1803               	skipnc
  4172  05AA  3E01               	addlw	1
  4173  05AB  1903               	skipnz
  4174  05AC  2DAE               	goto	u2951
  4175  05AD  07BB               	addwf	___flmul@prod+1,f
  4176  05AE                     u2951:
  4177  05AE  0830               	movf	??___flmul+2,w
  4178  05AF  1103               	clrz
  4179  05B0  1803               	skipnc
  4180  05B1  3E01               	addlw	1
  4181  05B2  1903               	skipnz
  4182  05B3  2DB5               	goto	u2952
  4183  05B4  07BC               	addwf	___flmul@prod+2,f
  4184  05B5                     u2952:
  4185  05B5  0831               	movf	??___flmul+3,w
  4186  05B6  1103               	clrz
  4187  05B7  1803               	skipnc
  4188  05B8  3E01               	addlw	1
  4189  05B9  1903               	skipnz
  4190  05BA  2DBC               	goto	u2953
  4191  05BB  07BD               	addwf	___flmul@prod+3,f
  4192  05BC                     u2953:
  4193  05BC                     l2280:
  4194  05BC  3008               	movlw	8
  4195  05BD  00AE               	movwf	??___flmul
  4196  05BE                     u2965:
  4197  05BE  1003               	clrc
  4198  05BF  0DB4               	rlf	___flmul@grs,f
  4199  05C0  0DB5               	rlf	___flmul@grs+1,f
  4200  05C1  0DB6               	rlf	___flmul@grs+2,f
  4201  05C2  0DB7               	rlf	___flmul@grs+3,f
  4202  05C3  0BAE               	decfsz	??___flmul,f
  4203  05C4  2DBE               	goto	u2965
  4204  05C5                     l2282:
  4205  05C5  0827               	movf	___flmul@b+1,w
  4206  05C6  00AE               	movwf	??___flmul
  4207  05C7  082E               	movf	??___flmul,w
  4208  05C8  00F0               	movwf	__Umul8_16@multiplicand
  4209  05C9  082A               	movf	___flmul@a,w
  4210  05CA  120A  158A  2210  120A  118A  	fcall	__Umul8_16
  4211  05CF  0871               	movf	?__Umul8_16+1,w
  4212  05D0  1283               	bcf	3,5	;RP0=0, select bank0
  4213  05D1  1303               	bcf	3,6	;RP1=0, select bank0
  4214  05D2  00BF               	movwf	___flmul@temp+1
  4215  05D3  0870               	movf	?__Umul8_16,w
  4216  05D4  00BE               	movwf	___flmul@temp
  4217  05D5                     l2284:
  4218  05D5  083E               	movf	___flmul@temp,w
  4219  05D6  00AE               	movwf	??___flmul
  4220  05D7  083F               	movf	___flmul@temp+1,w
  4221  05D8  00AF               	movwf	??___flmul+1
  4222  05D9  01B0               	clrf	??___flmul+2
  4223  05DA  01B1               	clrf	??___flmul+3
  4224  05DB  082E               	movf	??___flmul,w
  4225  05DC  07B4               	addwf	___flmul@grs,f
  4226  05DD  082F               	movf	??___flmul+1,w
  4227  05DE  1103               	clrz
  4228  05DF  1803               	skipnc
  4229  05E0  3E01               	addlw	1
  4230  05E1  1903               	skipnz
  4231  05E2  2DE4               	goto	u2971
  4232  05E3  07B5               	addwf	___flmul@grs+1,f
  4233  05E4                     u2971:
  4234  05E4  0830               	movf	??___flmul+2,w
  4235  05E5  1103               	clrz
  4236  05E6  1803               	skipnc
  4237  05E7  3E01               	addlw	1
  4238  05E8  1903               	skipnz
  4239  05E9  2DEB               	goto	u2972
  4240  05EA  07B6               	addwf	___flmul@grs+2,f
  4241  05EB                     u2972:
  4242  05EB  0831               	movf	??___flmul+3,w
  4243  05EC  1103               	clrz
  4244  05ED  1803               	skipnc
  4245  05EE  3E01               	addlw	1
  4246  05EF  1903               	skipnz
  4247  05F0  2DF2               	goto	u2973
  4248  05F1  07B7               	addwf	___flmul@grs+3,f
  4249  05F2                     u2973:
  4250  05F2                     l2286:
  4251  05F2  0826               	movf	___flmul@b,w
  4252  05F3  00AE               	movwf	??___flmul
  4253  05F4  082E               	movf	??___flmul,w
  4254  05F5  00F0               	movwf	__Umul8_16@multiplicand
  4255  05F6  082B               	movf	___flmul@a+1,w
  4256  05F7  120A  158A  2210  120A  118A  	fcall	__Umul8_16
  4257  05FC  0871               	movf	?__Umul8_16+1,w
  4258  05FD  1283               	bcf	3,5	;RP0=0, select bank0
  4259  05FE  1303               	bcf	3,6	;RP1=0, select bank0
  4260  05FF  00BF               	movwf	___flmul@temp+1
  4261  0600  0870               	movf	?__Umul8_16,w
  4262  0601  00BE               	movwf	___flmul@temp
  4263  0602                     l2288:
  4264  0602  083E               	movf	___flmul@temp,w
  4265  0603  00AE               	movwf	??___flmul
  4266  0604  083F               	movf	___flmul@temp+1,w
  4267  0605  00AF               	movwf	??___flmul+1
  4268  0606  01B0               	clrf	??___flmul+2
  4269  0607  01B1               	clrf	??___flmul+3
  4270  0608  082E               	movf	??___flmul,w
  4271  0609  07B4               	addwf	___flmul@grs,f
  4272  060A  082F               	movf	??___flmul+1,w
  4273  060B  1103               	clrz
  4274  060C  1803               	skipnc
  4275  060D  3E01               	addlw	1
  4276  060E  1903               	skipnz
  4277  060F  2E11               	goto	u2981
  4278  0610  07B5               	addwf	___flmul@grs+1,f
  4279  0611                     u2981:
  4280  0611  0830               	movf	??___flmul+2,w
  4281  0612  1103               	clrz
  4282  0613  1803               	skipnc
  4283  0614  3E01               	addlw	1
  4284  0615  1903               	skipnz
  4285  0616  2E18               	goto	u2982
  4286  0617  07B6               	addwf	___flmul@grs+2,f
  4287  0618                     u2982:
  4288  0618  0831               	movf	??___flmul+3,w
  4289  0619  1103               	clrz
  4290  061A  1803               	skipnc
  4291  061B  3E01               	addlw	1
  4292  061C  1903               	skipnz
  4293  061D  2E1F               	goto	u2983
  4294  061E  07B7               	addwf	___flmul@grs+3,f
  4295  061F                     u2983:
  4296  061F                     l2290:
  4297  061F  3008               	movlw	8
  4298  0620  00AE               	movwf	??___flmul
  4299  0621                     u2995:
  4300  0621  1003               	clrc
  4301  0622  0DB4               	rlf	___flmul@grs,f
  4302  0623  0DB5               	rlf	___flmul@grs+1,f
  4303  0624  0DB6               	rlf	___flmul@grs+2,f
  4304  0625  0DB7               	rlf	___flmul@grs+3,f
  4305  0626  0BAE               	decfsz	??___flmul,f
  4306  0627  2E21               	goto	u2995
  4307  0628  0826               	movf	___flmul@b,w
  4308  0629  00AE               	movwf	??___flmul
  4309  062A  082E               	movf	??___flmul,w
  4310  062B  00F0               	movwf	__Umul8_16@multiplicand
  4311  062C  082A               	movf	___flmul@a,w
  4312  062D  120A  158A  2210  120A  118A  	fcall	__Umul8_16
  4313  0632  0871               	movf	?__Umul8_16+1,w
  4314  0633  1283               	bcf	3,5	;RP0=0, select bank0
  4315  0634  1303               	bcf	3,6	;RP1=0, select bank0
  4316  0635  00BF               	movwf	___flmul@temp+1
  4317  0636  0870               	movf	?__Umul8_16,w
  4318  0637  00BE               	movwf	___flmul@temp
  4319  0638                     l2292:
  4320  0638  083E               	movf	___flmul@temp,w
  4321  0639  00AE               	movwf	??___flmul
  4322  063A  083F               	movf	___flmul@temp+1,w
  4323  063B  00AF               	movwf	??___flmul+1
  4324  063C  01B0               	clrf	??___flmul+2
  4325  063D  01B1               	clrf	??___flmul+3
  4326  063E  082E               	movf	??___flmul,w
  4327  063F  07B4               	addwf	___flmul@grs,f
  4328  0640  082F               	movf	??___flmul+1,w
  4329  0641  1103               	clrz
  4330  0642  1803               	skipnc
  4331  0643  3E01               	addlw	1
  4332  0644  1903               	skipnz
  4333  0645  2E47               	goto	u3001
  4334  0646  07B5               	addwf	___flmul@grs+1,f
  4335  0647                     u3001:
  4336  0647  0830               	movf	??___flmul+2,w
  4337  0648  1103               	clrz
  4338  0649  1803               	skipnc
  4339  064A  3E01               	addlw	1
  4340  064B  1903               	skipnz
  4341  064C  2E4E               	goto	u3002
  4342  064D  07B6               	addwf	___flmul@grs+2,f
  4343  064E                     u3002:
  4344  064E  0831               	movf	??___flmul+3,w
  4345  064F  1103               	clrz
  4346  0650  1803               	skipnc
  4347  0651  3E01               	addlw	1
  4348  0652  1903               	skipnz
  4349  0653  2E55               	goto	u3003
  4350  0654  07B7               	addwf	___flmul@grs+3,f
  4351  0655                     u3003:
  4352  0655                     l2294:
  4353  0655  0827               	movf	___flmul@b+1,w
  4354  0656  00AE               	movwf	??___flmul
  4355  0657  082E               	movf	??___flmul,w
  4356  0658  00F0               	movwf	__Umul8_16@multiplicand
  4357  0659  082C               	movf	___flmul@a+2,w
  4358  065A  120A  158A  2210  120A  118A  	fcall	__Umul8_16
  4359  065F  0871               	movf	?__Umul8_16+1,w
  4360  0660  1283               	bcf	3,5	;RP0=0, select bank0
  4361  0661  1303               	bcf	3,6	;RP1=0, select bank0
  4362  0662  00BF               	movwf	___flmul@temp+1
  4363  0663  0870               	movf	?__Umul8_16,w
  4364  0664  00BE               	movwf	___flmul@temp
  4365  0665  083E               	movf	___flmul@temp,w
  4366  0666  00AE               	movwf	??___flmul
  4367  0667  083F               	movf	___flmul@temp+1,w
  4368  0668  00AF               	movwf	??___flmul+1
  4369  0669  01B0               	clrf	??___flmul+2
  4370  066A  01B1               	clrf	??___flmul+3
  4371  066B  082E               	movf	??___flmul,w
  4372  066C  07BA               	addwf	___flmul@prod,f
  4373  066D  082F               	movf	??___flmul+1,w
  4374  066E  1103               	clrz
  4375  066F  1803               	skipnc
  4376  0670  3E01               	addlw	1
  4377  0671  1903               	skipnz
  4378  0672  2E74               	goto	u3011
  4379  0673  07BB               	addwf	___flmul@prod+1,f
  4380  0674                     u3011:
  4381  0674  0830               	movf	??___flmul+2,w
  4382  0675  1103               	clrz
  4383  0676  1803               	skipnc
  4384  0677  3E01               	addlw	1
  4385  0678  1903               	skipnz
  4386  0679  2E7B               	goto	u3012
  4387  067A  07BC               	addwf	___flmul@prod+2,f
  4388  067B                     u3012:
  4389  067B  0831               	movf	??___flmul+3,w
  4390  067C  1103               	clrz
  4391  067D  1803               	skipnc
  4392  067E  3E01               	addlw	1
  4393  067F  1903               	skipnz
  4394  0680  2E82               	goto	u3013
  4395  0681  07BD               	addwf	___flmul@prod+3,f
  4396  0682                     u3013:
  4397  0682                     l2296:
  4398  0682  0828               	movf	___flmul@b+2,w
  4399  0683  00AE               	movwf	??___flmul
  4400  0684  082E               	movf	??___flmul,w
  4401  0685  00F0               	movwf	__Umul8_16@multiplicand
  4402  0686  082B               	movf	___flmul@a+1,w
  4403  0687  120A  158A  2210  120A  118A  	fcall	__Umul8_16
  4404  068C  0871               	movf	?__Umul8_16+1,w
  4405  068D  1283               	bcf	3,5	;RP0=0, select bank0
  4406  068E  1303               	bcf	3,6	;RP1=0, select bank0
  4407  068F  00BF               	movwf	___flmul@temp+1
  4408  0690  0870               	movf	?__Umul8_16,w
  4409  0691  00BE               	movwf	___flmul@temp
  4410  0692                     l2298:
  4411  0692  083E               	movf	___flmul@temp,w
  4412  0693  00AE               	movwf	??___flmul
  4413  0694  083F               	movf	___flmul@temp+1,w
  4414  0695  00AF               	movwf	??___flmul+1
  4415  0696  01B0               	clrf	??___flmul+2
  4416  0697  01B1               	clrf	??___flmul+3
  4417  0698  082E               	movf	??___flmul,w
  4418  0699  07BA               	addwf	___flmul@prod,f
  4419  069A  082F               	movf	??___flmul+1,w
  4420  069B  1103               	clrz
  4421  069C  1803               	skipnc
  4422  069D  3E01               	addlw	1
  4423  069E  1903               	skipnz
  4424  069F  2EA1               	goto	u3021
  4425  06A0  07BB               	addwf	___flmul@prod+1,f
  4426  06A1                     u3021:
  4427  06A1  0830               	movf	??___flmul+2,w
  4428  06A2  1103               	clrz
  4429  06A3  1803               	skipnc
  4430  06A4  3E01               	addlw	1
  4431  06A5  1903               	skipnz
  4432  06A6  2EA8               	goto	u3022
  4433  06A7  07BC               	addwf	___flmul@prod+2,f
  4434  06A8                     u3022:
  4435  06A8  0831               	movf	??___flmul+3,w
  4436  06A9  1103               	clrz
  4437  06AA  1803               	skipnc
  4438  06AB  3E01               	addlw	1
  4439  06AC  1903               	skipnz
  4440  06AD  2EAF               	goto	u3023
  4441  06AE  07BD               	addwf	___flmul@prod+3,f
  4442  06AF                     u3023:
  4443  06AF  0828               	movf	___flmul@b+2,w
  4444  06B0  00AE               	movwf	??___flmul
  4445  06B1  082E               	movf	??___flmul,w
  4446  06B2  00F0               	movwf	__Umul8_16@multiplicand
  4447  06B3  082C               	movf	___flmul@a+2,w
  4448  06B4  120A  158A  2210  120A  118A  	fcall	__Umul8_16
  4449  06B9  0871               	movf	?__Umul8_16+1,w
  4450  06BA  1283               	bcf	3,5	;RP0=0, select bank0
  4451  06BB  1303               	bcf	3,6	;RP1=0, select bank0
  4452  06BC  00BF               	movwf	___flmul@temp+1
  4453  06BD  0870               	movf	?__Umul8_16,w
  4454  06BE  00BE               	movwf	___flmul@temp
  4455  06BF                     l2300:
  4456  06BF  083E               	movf	___flmul@temp,w
  4457  06C0  00AE               	movwf	??___flmul
  4458  06C1  083F               	movf	___flmul@temp+1,w
  4459  06C2  00AF               	movwf	??___flmul+1
  4460  06C3  01B0               	clrf	??___flmul+2
  4461  06C4  01B1               	clrf	??___flmul+3
  4462  06C5  3008               	movlw	8
  4463  06C6                     u3035:
  4464  06C6  1003               	clrc
  4465  06C7  0DAE               	rlf	??___flmul,f
  4466  06C8  0DAF               	rlf	??___flmul+1,f
  4467  06C9  0DB0               	rlf	??___flmul+2,f
  4468  06CA  0DB1               	rlf	??___flmul+3,f
  4469  06CB                     u3030:
  4470  06CB  3EFF               	addlw	-1
  4471  06CC  1D03               	skipz
  4472  06CD  2EC6               	goto	u3035
  4473  06CE  082E               	movf	??___flmul,w
  4474  06CF  07BA               	addwf	___flmul@prod,f
  4475  06D0  082F               	movf	??___flmul+1,w
  4476  06D1  1103               	clrz
  4477  06D2  1803               	skipnc
  4478  06D3  3E01               	addlw	1
  4479  06D4  1903               	skipnz
  4480  06D5  2ED7               	goto	u3041
  4481  06D6  07BB               	addwf	___flmul@prod+1,f
  4482  06D7                     u3041:
  4483  06D7  0830               	movf	??___flmul+2,w
  4484  06D8  1103               	clrz
  4485  06D9  1803               	skipnc
  4486  06DA  3E01               	addlw	1
  4487  06DB  1903               	skipnz
  4488  06DC  2EDE               	goto	u3042
  4489  06DD  07BC               	addwf	___flmul@prod+2,f
  4490  06DE                     u3042:
  4491  06DE  0831               	movf	??___flmul+3,w
  4492  06DF  1103               	clrz
  4493  06E0  1803               	skipnc
  4494  06E1  3E01               	addlw	1
  4495  06E2  1903               	skipnz
  4496  06E3  2EE5               	goto	u3043
  4497  06E4  07BD               	addwf	___flmul@prod+3,f
  4498  06E5                     u3043:
  4499  06E5                     l2302:
  4500  06E5  0834               	movf	___flmul@grs,w
  4501  06E6  00AE               	movwf	??___flmul
  4502  06E7  0835               	movf	___flmul@grs+1,w
  4503  06E8  00AF               	movwf	??___flmul+1
  4504  06E9  0836               	movf	___flmul@grs+2,w
  4505  06EA  00B0               	movwf	??___flmul+2
  4506  06EB  0837               	movf	___flmul@grs+3,w
  4507  06EC  00B1               	movwf	??___flmul+3
  4508  06ED  3018               	movlw	24
  4509  06EE                     u3055:
  4510  06EE  1003               	clrc
  4511  06EF  0CB1               	rrf	??___flmul+3,f
  4512  06F0  0CB0               	rrf	??___flmul+2,f
  4513  06F1  0CAF               	rrf	??___flmul+1,f
  4514  06F2  0CAE               	rrf	??___flmul,f
  4515  06F3                     u3050:
  4516  06F3  3EFF               	addlw	-1
  4517  06F4  1D03               	skipz
  4518  06F5  2EEE               	goto	u3055
  4519  06F6  082E               	movf	??___flmul,w
  4520  06F7  07BA               	addwf	___flmul@prod,f
  4521  06F8  082F               	movf	??___flmul+1,w
  4522  06F9  1103               	clrz
  4523  06FA  1803               	skipnc
  4524  06FB  3E01               	addlw	1
  4525  06FC  1903               	skipnz
  4526  06FD  2EFF               	goto	u3061
  4527  06FE  07BB               	addwf	___flmul@prod+1,f
  4528  06FF                     u3061:
  4529  06FF  0830               	movf	??___flmul+2,w
  4530  0700  1103               	clrz
  4531  0701  1803               	skipnc
  4532  0702  3E01               	addlw	1
  4533  0703  1903               	skipnz
  4534  0704  2F06               	goto	u3062
  4535  0705  07BC               	addwf	___flmul@prod+2,f
  4536  0706                     u3062:
  4537  0706  0831               	movf	??___flmul+3,w
  4538  0707  1103               	clrz
  4539  0708  1803               	skipnc
  4540  0709  3E01               	addlw	1
  4541  070A  1903               	skipnz
  4542  070B  2F0D               	goto	u3063
  4543  070C  07BD               	addwf	___flmul@prod+3,f
  4544  070D                     u3063:
  4545  070D                     l2304:
  4546  070D  3008               	movlw	8
  4547  070E  00AE               	movwf	??___flmul
  4548  070F                     u3075:
  4549  070F  1003               	clrc
  4550  0710  0DB4               	rlf	___flmul@grs,f
  4551  0711  0DB5               	rlf	___flmul@grs+1,f
  4552  0712  0DB6               	rlf	___flmul@grs+2,f
  4553  0713  0DB7               	rlf	___flmul@grs+3,f
  4554  0714  0BAE               	decfsz	??___flmul,f
  4555  0715  2F0F               	goto	u3075
  4556  0716                     l2306:
  4557  0716  0839               	movf	___flmul@bexp,w
  4558  0717  0738               	addwf	___flmul@aexp,w
  4559  0718  00AE               	movwf	??___flmul
  4560  0719  01AF               	clrf	??___flmul+1
  4561  071A  0DAF               	rlf	??___flmul+1,f
  4562  071B  082E               	movf	??___flmul,w
  4563  071C  3E82               	addlw	130
  4564  071D  00BE               	movwf	___flmul@temp
  4565  071E  082F               	movf	??___flmul+1,w
  4566  071F  1803               	skipnc
  4567  0720  3E01               	addlw	1
  4568  0721  3EFF               	addlw	255
  4569  0722  00BF               	movwf	___flmul@temp+1
  4570  0723  2F41               	goto	l2318
  4571  0724                     l2308:
  4572  0724  3001               	movlw	1
  4573  0725  00AE               	movwf	??___flmul
  4574  0726                     u3085:
  4575  0726  1003               	clrc
  4576  0727  0DBA               	rlf	___flmul@prod,f
  4577  0728  0DBB               	rlf	___flmul@prod+1,f
  4578  0729  0DBC               	rlf	___flmul@prod+2,f
  4579  072A  0DBD               	rlf	___flmul@prod+3,f
  4580  072B  0BAE               	decfsz	??___flmul,f
  4581  072C  2F26               	goto	u3085
  4582  072D                     l2310:
  4583  072D  1FB7               	btfss	___flmul@grs+3,7
  4584  072E  2F30               	goto	u3091
  4585  072F  2F31               	goto	u3090
  4586  0730                     u3091:
  4587  0730  2F32               	goto	l2314
  4588  0731                     u3090:
  4589  0731                     l2312:
  4590  0731  143A               	bsf	___flmul@prod,0
  4591  0732                     l2314:
  4592  0732  3001               	movlw	1
  4593  0733  00AE               	movwf	??___flmul
  4594  0734                     u3105:
  4595  0734  1003               	clrc
  4596  0735  0DB4               	rlf	___flmul@grs,f
  4597  0736  0DB5               	rlf	___flmul@grs+1,f
  4598  0737  0DB6               	rlf	___flmul@grs+2,f
  4599  0738  0DB7               	rlf	___flmul@grs+3,f
  4600  0739  0BAE               	decfsz	??___flmul,f
  4601  073A  2F34               	goto	u3105
  4602  073B                     l2316:
  4603  073B  30FF               	movlw	255
  4604  073C  07BE               	addwf	___flmul@temp,f
  4605  073D  1803               	skipnc
  4606  073E  0ABF               	incf	___flmul@temp+1,f
  4607  073F  30FF               	movlw	255
  4608  0740  07BF               	addwf	___flmul@temp+1,f
  4609  0741                     l2318:
  4610  0741  1FBC               	btfss	___flmul@prod+2,7
  4611  0742  2F44               	goto	u3111
  4612  0743  2F45               	goto	u3110
  4613  0744                     u3111:
  4614  0744  2F24               	goto	l2308
  4615  0745                     u3110:
  4616  0745                     l2320:
  4617  0745  01B8               	clrf	___flmul@aexp
  4618  0746                     l2322:
  4619  0746  1FB7               	btfss	___flmul@grs+3,7
  4620  0747  2F49               	goto	u3121
  4621  0748  2F4A               	goto	u3120
  4622  0749                     u3121:
  4623  0749  2F66               	goto	l2330
  4624  074A                     u3120:
  4625  074A                     l2324:
  4626  074A  30FF               	movlw	255
  4627  074B  0534               	andwf	___flmul@grs,w
  4628  074C  00AE               	movwf	??___flmul
  4629  074D  30FF               	movlw	255
  4630  074E  0535               	andwf	___flmul@grs+1,w
  4631  074F  00AF               	movwf	??___flmul+1
  4632  0750  30FF               	movlw	255
  4633  0751  0536               	andwf	___flmul@grs+2,w
  4634  0752  00B0               	movwf	??___flmul+2
  4635  0753  307F               	movlw	127
  4636  0754  0537               	andwf	___flmul@grs+3,w
  4637  0755  00B1               	movwf	??___flmul+3
  4638  0756  0831               	movf	??___flmul+3,w
  4639  0757  0430               	iorwf	??___flmul+2,w
  4640  0758  042F               	iorwf	??___flmul+1,w
  4641  0759  042E               	iorwf	??___flmul,w
  4642  075A  1903               	skipnz
  4643  075B  2F5D               	goto	u3131
  4644  075C  2F5E               	goto	u3130
  4645  075D                     u3131:
  4646  075D  2F61               	goto	l643
  4647  075E                     u3130:
  4648  075E                     l2326:
  4649  075E  01B8               	clrf	___flmul@aexp
  4650  075F  0AB8               	incf	___flmul@aexp,f
  4651  0760  2F66               	goto	l2330
  4652  0761                     l643:
  4653  0761  1C3A               	btfss	___flmul@prod,0
  4654  0762  2F64               	goto	u3141
  4655  0763  2F65               	goto	u3140
  4656  0764                     u3141:
  4657  0764  2F66               	goto	l2330
  4658  0765                     u3140:
  4659  0765  2F5E               	goto	l2326
  4660  0766                     l2330:
  4661  0766  0838               	movf	___flmul@aexp,w
  4662  0767  1903               	btfsc	3,2
  4663  0768  2F6A               	goto	u3151
  4664  0769  2F6B               	goto	u3150
  4665  076A                     u3151:
  4666  076A  2F9C               	goto	l2340
  4667  076B                     u3150:
  4668  076B                     l2332:
  4669  076B  3001               	movlw	1
  4670  076C  07BA               	addwf	___flmul@prod,f
  4671  076D  3000               	movlw	0
  4672  076E  1803               	skipnc
  4673  076F  3001               	movlw	1
  4674  0770  07BB               	addwf	___flmul@prod+1,f
  4675  0771  3000               	movlw	0
  4676  0772  1803               	skipnc
  4677  0773  3001               	movlw	1
  4678  0774  07BC               	addwf	___flmul@prod+2,f
  4679  0775  3000               	movlw	0
  4680  0776  1803               	skipnc
  4681  0777  3001               	movlw	1
  4682  0778  07BD               	addwf	___flmul@prod+3,f
  4683  0779                     l2334:
  4684  0779  1C3D               	btfss	___flmul@prod+3,0
  4685  077A  2F7C               	goto	u3161
  4686  077B  2F7D               	goto	u3160
  4687  077C                     u3161:
  4688  077C  2F9C               	goto	l2340
  4689  077D                     u3160:
  4690  077D                     l2336:
  4691  077D  083A               	movf	___flmul@prod,w
  4692  077E  00AE               	movwf	??___flmul
  4693  077F  083B               	movf	___flmul@prod+1,w
  4694  0780  00AF               	movwf	??___flmul+1
  4695  0781  083C               	movf	___flmul@prod+2,w
  4696  0782  00B0               	movwf	??___flmul+2
  4697  0783  083D               	movf	___flmul@prod+3,w
  4698  0784  00B1               	movwf	??___flmul+3
  4699  0785  3001               	movlw	1
  4700  0786  00B2               	movwf	??___flmul+4
  4701  0787                     u3175:
  4702  0787  0D31               	rlf	??___flmul+3,w
  4703  0788  0CB1               	rrf	??___flmul+3,f
  4704  0789  0CB0               	rrf	??___flmul+2,f
  4705  078A  0CAF               	rrf	??___flmul+1,f
  4706  078B  0CAE               	rrf	??___flmul,f
  4707  078C                     u3170:
  4708  078C  0BB2               	decfsz	??___flmul+4,f
  4709  078D  2F87               	goto	u3175
  4710  078E  0831               	movf	??___flmul+3,w
  4711  078F  00BD               	movwf	___flmul@prod+3
  4712  0790  0830               	movf	??___flmul+2,w
  4713  0791  00BC               	movwf	___flmul@prod+2
  4714  0792  082F               	movf	??___flmul+1,w
  4715  0793  00BB               	movwf	___flmul@prod+1
  4716  0794  082E               	movf	??___flmul,w
  4717  0795  00BA               	movwf	___flmul@prod
  4718  0796                     l2338:
  4719  0796  3001               	movlw	1
  4720  0797  07BE               	addwf	___flmul@temp,f
  4721  0798  1803               	skipnc
  4722  0799  0ABF               	incf	___flmul@temp+1,f
  4723  079A  3000               	movlw	0
  4724  079B  07BF               	addwf	___flmul@temp+1,f
  4725  079C                     l2340:
  4726  079C  083F               	movf	___flmul@temp+1,w
  4727  079D  3A80               	xorlw	128
  4728  079E  00FF               	movwf	btemp+1
  4729  079F  3080               	movlw	128
  4730  07A0  027F               	subwf	btemp+1,w
  4731  07A1  1D03               	skipz
  4732  07A2  2FA5               	goto	u3185
  4733  07A3  30FF               	movlw	255
  4734  07A4  023E               	subwf	___flmul@temp,w
  4735  07A5                     u3185:
  4736  07A5  1C03               	skipc
  4737  07A6  2FA8               	goto	u3181
  4738  07A7  2FA9               	goto	u3180
  4739  07A8                     u3181:
  4740  07A8  2FB4               	goto	l2344
  4741  07A9                     u3180:
  4742  07A9                     l2342:
  4743  07A9  307F               	movlw	127
  4744  07AA  1283               	bcf	3,5	;RP0=0, select bank0
  4745  07AB  1303               	bcf	3,6	;RP1=0, select bank0
  4746  07AC  00BD               	movwf	___flmul@prod+3
  4747  07AD  3080               	movlw	128
  4748  07AE  00BC               	movwf	___flmul@prod+2
  4749  07AF  3000               	movlw	0
  4750  07B0  00BB               	movwf	___flmul@prod+1
  4751  07B1  3000               	movlw	0
  4752  07B2  00BA               	movwf	___flmul@prod
  4753  07B3  2FE9               	goto	l649
  4754  07B4                     l2344:
  4755  07B4  1283               	bcf	3,5	;RP0=0, select bank0
  4756  07B5  1303               	bcf	3,6	;RP1=0, select bank0
  4757  07B6  083F               	movf	___flmul@temp+1,w
  4758  07B7  3A80               	xorlw	128
  4759  07B8  00FF               	movwf	btemp+1
  4760  07B9  3080               	movlw	128
  4761  07BA  027F               	subwf	btemp+1,w
  4762  07BB  1D03               	skipz
  4763  07BC  2FBF               	goto	u3195
  4764  07BD  3001               	movlw	1
  4765  07BE  023E               	subwf	___flmul@temp,w
  4766  07BF                     u3195:
  4767  07BF  1803               	skipnc
  4768  07C0  2FC2               	goto	u3191
  4769  07C1  2FC3               	goto	u3190
  4770  07C2                     u3191:
  4771  07C2  2FCF               	goto	l2350
  4772  07C3                     u3190:
  4773  07C3                     l2346:
  4774  07C3  3000               	movlw	0
  4775  07C4  1283               	bcf	3,5	;RP0=0, select bank0
  4776  07C5  1303               	bcf	3,6	;RP1=0, select bank0
  4777  07C6  00BD               	movwf	___flmul@prod+3
  4778  07C7  3000               	movlw	0
  4779  07C8  00BC               	movwf	___flmul@prod+2
  4780  07C9  3000               	movlw	0
  4781  07CA  00BB               	movwf	___flmul@prod+1
  4782  07CB  3000               	movlw	0
  4783  07CC  00BA               	movwf	___flmul@prod
  4784  07CD                     l2348:
  4785  07CD  01B3               	clrf	___flmul@sign
  4786  07CE  2FE9               	goto	l649
  4787  07CF                     l2350:
  4788  07CF  1283               	bcf	3,5	;RP0=0, select bank0
  4789  07D0  1303               	bcf	3,6	;RP1=0, select bank0
  4790  07D1  083E               	movf	___flmul@temp,w
  4791  07D2  00AE               	movwf	??___flmul
  4792  07D3  082E               	movf	??___flmul,w
  4793  07D4  00B9               	movwf	___flmul@bexp
  4794  07D5  30FF               	movlw	255
  4795  07D6  05BA               	andwf	___flmul@prod,f
  4796  07D7  30FF               	movlw	255
  4797  07D8  05BB               	andwf	___flmul@prod+1,f
  4798  07D9  307F               	movlw	127
  4799  07DA  05BC               	andwf	___flmul@prod+2,f
  4800  07DB  3000               	movlw	0
  4801  07DC  05BD               	andwf	___flmul@prod+3,f
  4802  07DD                     l2352:
  4803  07DD  1C39               	btfss	___flmul@bexp,0
  4804  07DE  2FE0               	goto	u3201
  4805  07DF  2FE1               	goto	u3200
  4806  07E0                     u3201:
  4807  07E0  2FE2               	goto	l2356
  4808  07E1                     u3200:
  4809  07E1                     l2354:
  4810  07E1  17BC               	bsf	___flmul@prod+2,7
  4811  07E2                     l2356:
  4812  07E2  0839               	movf	___flmul@bexp,w
  4813  07E3  00AE               	movwf	??___flmul
  4814  07E4  1003               	clrc
  4815  07E5  0C2E               	rrf	??___flmul,w
  4816  07E6  00AF               	movwf	??___flmul+1
  4817  07E7  082F               	movf	??___flmul+1,w
  4818  07E8  00BD               	movwf	___flmul@prod+3
  4819  07E9                     l649:
  4820  07E9  0833               	movf	___flmul@sign,w
  4821  07EA  00AE               	movwf	??___flmul
  4822  07EB  082E               	movf	??___flmul,w
  4823  07EC  04BD               	iorwf	___flmul@prod+3,f
  4824  07ED                     l2358:
  4825  07ED  083D               	movf	___flmul@prod+3,w
  4826  07EE  00A9               	movwf	?___flmul+3
  4827  07EF  083C               	movf	___flmul@prod+2,w
  4828  07F0  00A8               	movwf	?___flmul+2
  4829  07F1  083B               	movf	___flmul@prod+1,w
  4830  07F2  00A7               	movwf	?___flmul+1
  4831  07F3  083A               	movf	___flmul@prod,w
  4832  07F4  00A6               	movwf	?___flmul
  4833  07F5                     l637:
  4834  07F5  0008               	return
  4835  07F6                     __end_of___flmul:
  4836                           
  4837                           	psect	text11
  4838  0A10                     __ptext11:	
  4839 ;; *************** function __Umul8_16 *****************
  4840 ;; Defined at:
  4841 ;;		line 4 in file "C:\Program Files\Microchip\xc8\v2.35\pic\sources\c90\common\Umul8_16.c"
  4842 ;; Parameters:    Size  Location     Type
  4843 ;;  multiplier      1    wreg     unsigned char 
  4844 ;;  multiplicand    1    0[COMMON] unsigned char 
  4845 ;; Auto vars:     Size  Location     Type
  4846 ;;  multiplier      1    8[COMMON] unsigned char 
  4847 ;;  word_mpld       2    6[COMMON] unsigned int 
  4848 ;;  product         2    4[COMMON] unsigned int 
  4849 ;; Return value:  Size  Location     Type
  4850 ;;                  2    0[COMMON] unsigned int 
  4851 ;; Registers used:
  4852 ;;		wreg, status,2, status,0
  4853 ;; Tracked objects:
  4854 ;;		On entry : 0/0
  4855 ;;		On exit  : 0/0
  4856 ;;		Unchanged: 0/0
  4857 ;; Data sizes:     COMMON   BANK0   BANK1   BANK3   BANK2
  4858 ;;      Params:         2       0       0       0       0
  4859 ;;      Locals:         5       0       0       0       0
  4860 ;;      Temps:          2       0       0       0       0
  4861 ;;      Totals:         9       0       0       0       0
  4862 ;;Total ram usage:        9 bytes
  4863 ;; Hardware stack levels used: 1
  4864 ;; This function calls:
  4865 ;;		Nothing
  4866 ;; This function is called by:
  4867 ;;		___flmul
  4868 ;; This function uses a non-reentrant model
  4869 ;;
  4870                           
  4871  0A10                     __Umul8_16:	
  4872                           ;psect for function __Umul8_16
  4873                           
  4874                           
  4875                           ;incstack = 0
  4876                           ; Regs used in __Umul8_16: [wreg+status,2+status,0]
  4877                           ;__Umul8_16@multiplier stored from wreg
  4878  0A10  00F8               	movwf	__Umul8_16@multiplier
  4879  0A11                     l1896:
  4880  0A11  01F4               	clrf	__Umul8_16@product
  4881  0A12  01F5               	clrf	__Umul8_16@product+1
  4882  0A13                     l1898:
  4883  0A13  0870               	movf	__Umul8_16@multiplicand,w
  4884  0A14  00F2               	movwf	??__Umul8_16
  4885  0A15  01F3               	clrf	??__Umul8_16+1
  4886  0A16  0872               	movf	??__Umul8_16,w
  4887  0A17  00F6               	movwf	__Umul8_16@word_mpld
  4888  0A18  0873               	movf	??__Umul8_16+1,w
  4889  0A19  00F7               	movwf	__Umul8_16@word_mpld+1
  4890  0A1A                     l1900:
  4891  0A1A  1C78               	btfss	__Umul8_16@multiplier,0
  4892  0A1B  2A1D               	goto	u2211
  4893  0A1C  2A1E               	goto	u2210
  4894  0A1D                     u2211:
  4895  0A1D  2A24               	goto	l656
  4896  0A1E                     u2210:
  4897  0A1E                     l1902:
  4898  0A1E  0876               	movf	__Umul8_16@word_mpld,w
  4899  0A1F  07F4               	addwf	__Umul8_16@product,f
  4900  0A20  1803               	skipnc
  4901  0A21  0AF5               	incf	__Umul8_16@product+1,f
  4902  0A22  0877               	movf	__Umul8_16@word_mpld+1,w
  4903  0A23  07F5               	addwf	__Umul8_16@product+1,f
  4904  0A24                     l656:
  4905  0A24  3001               	movlw	1
  4906  0A25                     u2225:
  4907  0A25  1003               	clrc
  4908  0A26  0DF6               	rlf	__Umul8_16@word_mpld,f
  4909  0A27  0DF7               	rlf	__Umul8_16@word_mpld+1,f
  4910  0A28  3EFF               	addlw	-1
  4911  0A29  1D03               	skipz
  4912  0A2A  2A25               	goto	u2225
  4913  0A2B  1003               	clrc
  4914  0A2C  0CF8               	rrf	__Umul8_16@multiplier,f
  4915  0A2D                     l1904:
  4916  0A2D  0878               	movf	__Umul8_16@multiplier,w
  4917  0A2E  1D03               	btfss	3,2
  4918  0A2F  2A31               	goto	u2231
  4919  0A30  2A32               	goto	u2230
  4920  0A31                     u2231:
  4921  0A31  2A1A               	goto	l1900
  4922  0A32                     u2230:
  4923  0A32                     l1906:
  4924  0A32  0875               	movf	__Umul8_16@product+1,w
  4925  0A33  00F1               	movwf	?__Umul8_16+1
  4926  0A34  0874               	movf	__Umul8_16@product,w
  4927  0A35  00F0               	movwf	?__Umul8_16
  4928  0A36                     l658:
  4929  0A36  0008               	return
  4930  0A37                     __end_of__Umul8_16:
  4931                           
  4932                           	psect	text12
  4933  0020                     __ptext12:	
  4934 ;; *************** function ___fldiv *****************
  4935 ;; Defined at:
  4936 ;;		line 8 in file "C:\Program Files\Microchip\xc8\v2.35\pic\sources\c90\common\sprcdiv.c"
  4937 ;; Parameters:    Size  Location     Type
  4938 ;;  a               4   32[BANK0 ] unsigned int 
  4939 ;;  b               4   36[BANK0 ] unsigned int 
  4940 ;; Auto vars:     Size  Location     Type
  4941 ;;  grs             4   52[BANK0 ] unsigned long 
  4942 ;;  rem             4   45[BANK0 ] unsigned long 
  4943 ;;  new_exp         2   50[BANK0 ] int 
  4944 ;;  aexp            1   57[BANK0 ] unsigned char 
  4945 ;;  bexp            1   56[BANK0 ] unsigned char 
  4946 ;;  sign            1   49[BANK0 ] unsigned char 
  4947 ;; Return value:  Size  Location     Type
  4948 ;;                  4   32[BANK0 ] unsigned char 
  4949 ;; Registers used:
  4950 ;;		wreg, status,2, status,0, btemp+1
  4951 ;; Tracked objects:
  4952 ;;		On entry : 0/0
  4953 ;;		On exit  : 0/0
  4954 ;;		Unchanged: 0/0
  4955 ;; Data sizes:     COMMON   BANK0   BANK1   BANK3   BANK2
  4956 ;;      Params:         0       8       0       0       0
  4957 ;;      Locals:         0      13       0       0       0
  4958 ;;      Temps:          0       5       0       0       0
  4959 ;;      Totals:         0      26       0       0       0
  4960 ;;Total ram usage:       26 bytes
  4961 ;; Hardware stack levels used: 1
  4962 ;; This function calls:
  4963 ;;		Nothing
  4964 ;; This function is called by:
  4965 ;;		_main
  4966 ;; This function uses a non-reentrant model
  4967 ;;
  4968                           
  4969  0020                     ___fldiv:	
  4970                           ;psect for function ___fldiv
  4971                           
  4972  0020                     l2080:	
  4973                           ;incstack = 0
  4974                           ; Regs used in ___fldiv: [wreg+status,2+status,0+btemp+1]
  4975                           
  4976  0020  1283               	bcf	3,5	;RP0=0, select bank0
  4977  0021  1303               	bcf	3,6	;RP1=0, select bank0
  4978  0022  0847               	movf	___fldiv@b+3,w
  4979  0023  3980               	andlw	128
  4980  0024  00C8               	movwf	??___fldiv
  4981  0025  0848               	movf	??___fldiv,w
  4982  0026  00D1               	movwf	___fldiv@sign
  4983  0027                     l2082:
  4984  0027  0847               	movf	___fldiv@b+3,w
  4985  0028  00C8               	movwf	??___fldiv
  4986  0029  0748               	addwf	??___fldiv,w
  4987  002A  00C9               	movwf	??___fldiv+1
  4988  002B  0849               	movf	??___fldiv+1,w
  4989  002C  00D8               	movwf	___fldiv@bexp
  4990  002D                     l2084:
  4991  002D  1FC6               	btfss	___fldiv@b+2,7
  4992  002E  2830               	goto	u2551
  4993  002F  2831               	goto	u2550
  4994  0030                     u2551:
  4995  0030  2832               	goto	l2088
  4996  0031                     u2550:
  4997  0031                     l2086:
  4998  0031  1458               	bsf	___fldiv@bexp,0
  4999  0032                     l2088:
  5000  0032  0858               	movf	___fldiv@bexp,w
  5001  0033  1903               	btfsc	3,2
  5002  0034  2836               	goto	u2561
  5003  0035  2837               	goto	u2560
  5004  0036                     u2561:
  5005  0036  2847               	goto	l2098
  5006  0037                     u2560:
  5007  0037                     l2090:
  5008  0037  0A58               	incf	___fldiv@bexp,w
  5009  0038  1D03               	btfss	3,2
  5010  0039  283B               	goto	u2571
  5011  003A  283C               	goto	u2570
  5012  003B                     u2571:
  5013  003B  2844               	goto	l2094
  5014  003C                     u2570:
  5015  003C                     l2092:
  5016  003C  3000               	movlw	0
  5017  003D  00C7               	movwf	___fldiv@b+3
  5018  003E  3000               	movlw	0
  5019  003F  00C6               	movwf	___fldiv@b+2
  5020  0040  3000               	movlw	0
  5021  0041  00C5               	movwf	___fldiv@b+1
  5022  0042  3000               	movlw	0
  5023  0043  00C4               	movwf	___fldiv@b
  5024  0044                     l2094:
  5025  0044  17C6               	bsf	___fldiv@b+2,7
  5026  0045                     l2096:
  5027  0045  01C7               	clrf	___fldiv@b+3
  5028  0046  284F               	goto	l2100
  5029  0047                     l2098:
  5030  0047  3000               	movlw	0
  5031  0048  00C7               	movwf	___fldiv@b+3
  5032  0049  3000               	movlw	0
  5033  004A  00C6               	movwf	___fldiv@b+2
  5034  004B  3000               	movlw	0
  5035  004C  00C5               	movwf	___fldiv@b+1
  5036  004D  3000               	movlw	0
  5037  004E  00C4               	movwf	___fldiv@b
  5038  004F                     l2100:
  5039  004F  0843               	movf	___fldiv@a+3,w
  5040  0050  3980               	andlw	128
  5041  0051  00C8               	movwf	??___fldiv
  5042  0052  0848               	movf	??___fldiv,w
  5043  0053  06D1               	xorwf	___fldiv@sign,f
  5044  0054                     l2102:
  5045  0054  0843               	movf	___fldiv@a+3,w
  5046  0055  00C8               	movwf	??___fldiv
  5047  0056  0748               	addwf	??___fldiv,w
  5048  0057  00C9               	movwf	??___fldiv+1
  5049  0058  0849               	movf	??___fldiv+1,w
  5050  0059  00D9               	movwf	___fldiv@aexp
  5051  005A                     l2104:
  5052  005A  1FC2               	btfss	___fldiv@a+2,7
  5053  005B  285D               	goto	u2581
  5054  005C  285E               	goto	u2580
  5055  005D                     u2581:
  5056  005D  285F               	goto	l2108
  5057  005E                     u2580:
  5058  005E                     l2106:
  5059  005E  1459               	bsf	___fldiv@aexp,0
  5060  005F                     l2108:
  5061  005F  0859               	movf	___fldiv@aexp,w
  5062  0060  1903               	btfsc	3,2
  5063  0061  2863               	goto	u2591
  5064  0062  2864               	goto	u2590
  5065  0063                     u2591:
  5066  0063  2874               	goto	l2118
  5067  0064                     u2590:
  5068  0064                     l2110:
  5069  0064  0A59               	incf	___fldiv@aexp,w
  5070  0065  1D03               	btfss	3,2
  5071  0066  2868               	goto	u2601
  5072  0067  2869               	goto	u2600
  5073  0068                     u2601:
  5074  0068  2871               	goto	l2114
  5075  0069                     u2600:
  5076  0069                     l2112:
  5077  0069  3000               	movlw	0
  5078  006A  00C3               	movwf	___fldiv@a+3
  5079  006B  3000               	movlw	0
  5080  006C  00C2               	movwf	___fldiv@a+2
  5081  006D  3000               	movlw	0
  5082  006E  00C1               	movwf	___fldiv@a+1
  5083  006F  3000               	movlw	0
  5084  0070  00C0               	movwf	___fldiv@a
  5085  0071                     l2114:
  5086  0071  17C2               	bsf	___fldiv@a+2,7
  5087  0072                     l2116:
  5088  0072  01C3               	clrf	___fldiv@a+3
  5089  0073  287C               	goto	l597
  5090  0074                     l2118:
  5091  0074  3000               	movlw	0
  5092  0075  00C3               	movwf	___fldiv@a+3
  5093  0076  3000               	movlw	0
  5094  0077  00C2               	movwf	___fldiv@a+2
  5095  0078  3000               	movlw	0
  5096  0079  00C1               	movwf	___fldiv@a+1
  5097  007A  3000               	movlw	0
  5098  007B  00C0               	movwf	___fldiv@a
  5099  007C                     l597:
  5100  007C  0843               	movf	___fldiv@a+3,w
  5101  007D  0442               	iorwf	___fldiv@a+2,w
  5102  007E  0441               	iorwf	___fldiv@a+1,w
  5103  007F  0440               	iorwf	___fldiv@a,w
  5104  0080  1D03               	skipz
  5105  0081  2883               	goto	u2611
  5106  0082  2884               	goto	u2610
  5107  0083                     u2611:
  5108  0083  289D               	goto	l2128
  5109  0084                     u2610:
  5110  0084                     l2120:
  5111  0084  3000               	movlw	0
  5112  0085  00C7               	movwf	___fldiv@b+3
  5113  0086  3000               	movlw	0
  5114  0087  00C6               	movwf	___fldiv@b+2
  5115  0088  3000               	movlw	0
  5116  0089  00C5               	movwf	___fldiv@b+1
  5117  008A  3000               	movlw	0
  5118  008B  00C4               	movwf	___fldiv@b
  5119  008C  3080               	movlw	128
  5120  008D  04C6               	iorwf	___fldiv@b+2,f
  5121  008E  307F               	movlw	127
  5122  008F  04C7               	iorwf	___fldiv@b+3,f
  5123  0090                     l2122:
  5124  0090  0851               	movf	___fldiv@sign,w
  5125  0091  00C8               	movwf	??___fldiv
  5126  0092  0848               	movf	??___fldiv,w
  5127  0093  04C7               	iorwf	___fldiv@b+3,f
  5128  0094                     l2124:
  5129  0094  0847               	movf	___fldiv@b+3,w
  5130  0095  00C3               	movwf	?___fldiv+3
  5131  0096  0846               	movf	___fldiv@b+2,w
  5132  0097  00C2               	movwf	?___fldiv+2
  5133  0098  0845               	movf	___fldiv@b+1,w
  5134  0099  00C1               	movwf	?___fldiv+1
  5135  009A  0844               	movf	___fldiv@b,w
  5136  009B  00C0               	movwf	?___fldiv
  5137  009C  29FC               	goto	l599
  5138  009D                     l2128:
  5139  009D  0858               	movf	___fldiv@bexp,w
  5140  009E  1D03               	btfss	3,2
  5141  009F  28A1               	goto	u2621
  5142  00A0  28A2               	goto	u2620
  5143  00A1                     u2621:
  5144  00A1  28AB               	goto	l2134
  5145  00A2                     u2620:
  5146  00A2                     l2130:
  5147  00A2  3000               	movlw	0
  5148  00A3  00C3               	movwf	?___fldiv+3
  5149  00A4  3000               	movlw	0
  5150  00A5  00C2               	movwf	?___fldiv+2
  5151  00A6  3000               	movlw	0
  5152  00A7  00C1               	movwf	?___fldiv+1
  5153  00A8  3000               	movlw	0
  5154  00A9  00C0               	movwf	?___fldiv
  5155  00AA  29FC               	goto	l599
  5156  00AB                     l2134:
  5157  00AB  0858               	movf	___fldiv@bexp,w
  5158  00AC  00C8               	movwf	??___fldiv
  5159  00AD  01C9               	clrf	??___fldiv+1
  5160  00AE  0849               	movf	??___fldiv+1,w
  5161  00AF  00CB               	movwf	??___fldiv+3
  5162  00B0  0859               	movf	___fldiv@aexp,w
  5163  00B1  0248               	subwf	??___fldiv,w
  5164  00B2  00CA               	movwf	??___fldiv+2
  5165  00B3  1C03               	skipc
  5166  00B4  03CB               	decf	??___fldiv+3,f
  5167  00B5  084A               	movf	??___fldiv+2,w
  5168  00B6  3E7F               	addlw	127
  5169  00B7  00D2               	movwf	___fldiv@new_exp
  5170  00B8  084B               	movf	??___fldiv+3,w
  5171  00B9  1803               	skipnc
  5172  00BA  3E01               	addlw	1
  5173  00BB  3E00               	addlw	0
  5174  00BC  00D3               	movwf	___fldiv@new_exp+1
  5175  00BD                     l2136:
  5176  00BD  0847               	movf	___fldiv@b+3,w
  5177  00BE  00D0               	movwf	___fldiv@rem+3
  5178  00BF  0846               	movf	___fldiv@b+2,w
  5179  00C0  00CF               	movwf	___fldiv@rem+2
  5180  00C1  0845               	movf	___fldiv@b+1,w
  5181  00C2  00CE               	movwf	___fldiv@rem+1
  5182  00C3  0844               	movf	___fldiv@b,w
  5183  00C4  00CD               	movwf	___fldiv@rem
  5184  00C5                     l2138:
  5185  00C5  3000               	movlw	0
  5186  00C6  00C7               	movwf	___fldiv@b+3
  5187  00C7  3000               	movlw	0
  5188  00C8  00C6               	movwf	___fldiv@b+2
  5189  00C9  3000               	movlw	0
  5190  00CA  00C5               	movwf	___fldiv@b+1
  5191  00CB  3000               	movlw	0
  5192  00CC  00C4               	movwf	___fldiv@b
  5193  00CD                     l2140:
  5194  00CD  3000               	movlw	0
  5195  00CE  00D7               	movwf	___fldiv@grs+3
  5196  00CF  3000               	movlw	0
  5197  00D0  00D6               	movwf	___fldiv@grs+2
  5198  00D1  3000               	movlw	0
  5199  00D2  00D5               	movwf	___fldiv@grs+1
  5200  00D3  3000               	movlw	0
  5201  00D4  00D4               	movwf	___fldiv@grs
  5202  00D5                     l2142:
  5203  00D5  01D9               	clrf	___fldiv@aexp
  5204  00D6  2921               	goto	l2162
  5205  00D7                     l2144:
  5206  00D7  0859               	movf	___fldiv@aexp,w
  5207  00D8  1903               	btfsc	3,2
  5208  00D9  28DB               	goto	u2631
  5209  00DA  28DC               	goto	u2630
  5210  00DB                     u2631:
  5211  00DB  28FC               	goto	l2154
  5212  00DC                     u2630:
  5213  00DC                     l2146:
  5214  00DC  3001               	movlw	1
  5215  00DD  00C8               	movwf	??___fldiv
  5216  00DE                     u2645:
  5217  00DE  1003               	clrc
  5218  00DF  0DCD               	rlf	___fldiv@rem,f
  5219  00E0  0DCE               	rlf	___fldiv@rem+1,f
  5220  00E1  0DCF               	rlf	___fldiv@rem+2,f
  5221  00E2  0DD0               	rlf	___fldiv@rem+3,f
  5222  00E3  0BC8               	decfsz	??___fldiv,f
  5223  00E4  28DE               	goto	u2645
  5224  00E5  3001               	movlw	1
  5225  00E6  00C8               	movwf	??___fldiv
  5226  00E7                     u2655:
  5227  00E7  1003               	clrc
  5228  00E8  0DC4               	rlf	___fldiv@b,f
  5229  00E9  0DC5               	rlf	___fldiv@b+1,f
  5230  00EA  0DC6               	rlf	___fldiv@b+2,f
  5231  00EB  0DC7               	rlf	___fldiv@b+3,f
  5232  00EC  0BC8               	decfsz	??___fldiv,f
  5233  00ED  28E7               	goto	u2655
  5234  00EE                     l2148:
  5235  00EE  1FD7               	btfss	___fldiv@grs+3,7
  5236  00EF  28F1               	goto	u2661
  5237  00F0  28F2               	goto	u2660
  5238  00F1                     u2661:
  5239  00F1  28F3               	goto	l2152
  5240  00F2                     u2660:
  5241  00F2                     l2150:
  5242  00F2  1444               	bsf	___fldiv@b,0
  5243  00F3                     l2152:
  5244  00F3  3001               	movlw	1
  5245  00F4  00C8               	movwf	??___fldiv
  5246  00F5                     u2675:
  5247  00F5  1003               	clrc
  5248  00F6  0DD4               	rlf	___fldiv@grs,f
  5249  00F7  0DD5               	rlf	___fldiv@grs+1,f
  5250  00F8  0DD6               	rlf	___fldiv@grs+2,f
  5251  00F9  0DD7               	rlf	___fldiv@grs+3,f
  5252  00FA  0BC8               	decfsz	??___fldiv,f
  5253  00FB  28F5               	goto	u2675
  5254  00FC                     l2154:
  5255  00FC  0843               	movf	___fldiv@a+3,w
  5256  00FD  0250               	subwf	___fldiv@rem+3,w
  5257  00FE  1D03               	skipz
  5258  00FF  290A               	goto	u2685
  5259  0100  0842               	movf	___fldiv@a+2,w
  5260  0101  024F               	subwf	___fldiv@rem+2,w
  5261  0102  1D03               	skipz
  5262  0103  290A               	goto	u2685
  5263  0104  0841               	movf	___fldiv@a+1,w
  5264  0105  024E               	subwf	___fldiv@rem+1,w
  5265  0106  1D03               	skipz
  5266  0107  290A               	goto	u2685
  5267  0108  0840               	movf	___fldiv@a,w
  5268  0109  024D               	subwf	___fldiv@rem,w
  5269  010A                     u2685:
  5270  010A  1C03               	skipc
  5271  010B  290D               	goto	u2681
  5272  010C  290E               	goto	u2680
  5273  010D                     u2681:
  5274  010D  291D               	goto	l2160
  5275  010E                     u2680:
  5276  010E                     l2156:
  5277  010E  1757               	bsf	___fldiv@grs+3,6
  5278  010F                     l2158:
  5279  010F  0840               	movf	___fldiv@a,w
  5280  0110  02CD               	subwf	___fldiv@rem,f
  5281  0111  0841               	movf	___fldiv@a+1,w
  5282  0112  1C03               	skipc
  5283  0113  0F41               	incfsz	___fldiv@a+1,w
  5284  0114  02CE               	subwf	___fldiv@rem+1,f
  5285  0115  0842               	movf	___fldiv@a+2,w
  5286  0116  1C03               	skipc
  5287  0117  0F42               	incfsz	___fldiv@a+2,w
  5288  0118  02CF               	subwf	___fldiv@rem+2,f
  5289  0119  0843               	movf	___fldiv@a+3,w
  5290  011A  1C03               	skipc
  5291  011B  0F43               	incfsz	___fldiv@a+3,w
  5292  011C  02D0               	subwf	___fldiv@rem+3,f
  5293  011D                     l2160:
  5294  011D  3001               	movlw	1
  5295  011E  00C8               	movwf	??___fldiv
  5296  011F  0848               	movf	??___fldiv,w
  5297  0120  07D9               	addwf	___fldiv@aexp,f
  5298  0121                     l2162:
  5299  0121  301A               	movlw	26
  5300  0122  0259               	subwf	___fldiv@aexp,w
  5301  0123  1C03               	skipc
  5302  0124  2926               	goto	u2691
  5303  0125  2927               	goto	u2690
  5304  0126                     u2691:
  5305  0126  28D7               	goto	l2144
  5306  0127                     u2690:
  5307  0127                     l2164:
  5308  0127  0850               	movf	___fldiv@rem+3,w
  5309  0128  044F               	iorwf	___fldiv@rem+2,w
  5310  0129  044E               	iorwf	___fldiv@rem+1,w
  5311  012A  044D               	iorwf	___fldiv@rem,w
  5312  012B  1903               	skipnz
  5313  012C  292E               	goto	u2701
  5314  012D  292F               	goto	u2700
  5315  012E                     u2701:
  5316  012E  294E               	goto	l2178
  5317  012F                     u2700:
  5318  012F                     l2166:
  5319  012F  1454               	bsf	___fldiv@grs,0
  5320  0130  294E               	goto	l2178
  5321  0131                     l2168:
  5322  0131  3001               	movlw	1
  5323  0132  00C8               	movwf	??___fldiv
  5324  0133                     u2715:
  5325  0133  1003               	clrc
  5326  0134  0DC4               	rlf	___fldiv@b,f
  5327  0135  0DC5               	rlf	___fldiv@b+1,f
  5328  0136  0DC6               	rlf	___fldiv@b+2,f
  5329  0137  0DC7               	rlf	___fldiv@b+3,f
  5330  0138  0BC8               	decfsz	??___fldiv,f
  5331  0139  2933               	goto	u2715
  5332  013A                     l2170:
  5333  013A  1FD7               	btfss	___fldiv@grs+3,7
  5334  013B  293D               	goto	u2721
  5335  013C  293E               	goto	u2720
  5336  013D                     u2721:
  5337  013D  293F               	goto	l2174
  5338  013E                     u2720:
  5339  013E                     l2172:
  5340  013E  1444               	bsf	___fldiv@b,0
  5341  013F                     l2174:
  5342  013F  3001               	movlw	1
  5343  0140  00C8               	movwf	??___fldiv
  5344  0141                     u2735:
  5345  0141  1003               	clrc
  5346  0142  0DD4               	rlf	___fldiv@grs,f
  5347  0143  0DD5               	rlf	___fldiv@grs+1,f
  5348  0144  0DD6               	rlf	___fldiv@grs+2,f
  5349  0145  0DD7               	rlf	___fldiv@grs+3,f
  5350  0146  0BC8               	decfsz	??___fldiv,f
  5351  0147  2941               	goto	u2735
  5352  0148                     l2176:
  5353  0148  30FF               	movlw	255
  5354  0149  07D2               	addwf	___fldiv@new_exp,f
  5355  014A  1803               	skipnc
  5356  014B  0AD3               	incf	___fldiv@new_exp+1,f
  5357  014C  30FF               	movlw	255
  5358  014D  07D3               	addwf	___fldiv@new_exp+1,f
  5359  014E                     l2178:
  5360  014E  1FC6               	btfss	___fldiv@b+2,7
  5361  014F  2951               	goto	u2741
  5362  0150  2952               	goto	u2740
  5363  0151                     u2741:
  5364  0151  2931               	goto	l2168
  5365  0152                     u2740:
  5366  0152                     l2180:
  5367  0152  01D9               	clrf	___fldiv@aexp
  5368  0153                     l2182:
  5369  0153  1FD7               	btfss	___fldiv@grs+3,7
  5370  0154  2956               	goto	u2751
  5371  0155  2957               	goto	u2750
  5372  0156                     u2751:
  5373  0156  2973               	goto	l2190
  5374  0157                     u2750:
  5375  0157                     l2184:
  5376  0157  30FF               	movlw	255
  5377  0158  0554               	andwf	___fldiv@grs,w
  5378  0159  00C8               	movwf	??___fldiv
  5379  015A  30FF               	movlw	255
  5380  015B  0555               	andwf	___fldiv@grs+1,w
  5381  015C  00C9               	movwf	??___fldiv+1
  5382  015D  30FF               	movlw	255
  5383  015E  0556               	andwf	___fldiv@grs+2,w
  5384  015F  00CA               	movwf	??___fldiv+2
  5385  0160  307F               	movlw	127
  5386  0161  0557               	andwf	___fldiv@grs+3,w
  5387  0162  00CB               	movwf	??___fldiv+3
  5388  0163  084B               	movf	??___fldiv+3,w
  5389  0164  044A               	iorwf	??___fldiv+2,w
  5390  0165  0449               	iorwf	??___fldiv+1,w
  5391  0166  0448               	iorwf	??___fldiv,w
  5392  0167  1903               	skipnz
  5393  0168  296A               	goto	u2761
  5394  0169  296B               	goto	u2760
  5395  016A                     u2761:
  5396  016A  296E               	goto	l613
  5397  016B                     u2760:
  5398  016B                     l2186:
  5399  016B  01D9               	clrf	___fldiv@aexp
  5400  016C  0AD9               	incf	___fldiv@aexp,f
  5401  016D  2973               	goto	l2190
  5402  016E                     l613:
  5403  016E  1C44               	btfss	___fldiv@b,0
  5404  016F  2971               	goto	u2771
  5405  0170  2972               	goto	u2770
  5406  0171                     u2771:
  5407  0171  2973               	goto	l2190
  5408  0172                     u2770:
  5409  0172  296B               	goto	l2186
  5410  0173                     l2190:
  5411  0173  0859               	movf	___fldiv@aexp,w
  5412  0174  1903               	btfsc	3,2
  5413  0175  2977               	goto	u2781
  5414  0176  2978               	goto	u2780
  5415  0177                     u2781:
  5416  0177  29A9               	goto	l2200
  5417  0178                     u2780:
  5418  0178                     l2192:
  5419  0178  3001               	movlw	1
  5420  0179  07C4               	addwf	___fldiv@b,f
  5421  017A  3000               	movlw	0
  5422  017B  1803               	skipnc
  5423  017C  3001               	movlw	1
  5424  017D  07C5               	addwf	___fldiv@b+1,f
  5425  017E  3000               	movlw	0
  5426  017F  1803               	skipnc
  5427  0180  3001               	movlw	1
  5428  0181  07C6               	addwf	___fldiv@b+2,f
  5429  0182  3000               	movlw	0
  5430  0183  1803               	skipnc
  5431  0184  3001               	movlw	1
  5432  0185  07C7               	addwf	___fldiv@b+3,f
  5433  0186                     l2194:
  5434  0186  1C47               	btfss	___fldiv@b+3,0
  5435  0187  2989               	goto	u2791
  5436  0188  298A               	goto	u2790
  5437  0189                     u2791:
  5438  0189  29A9               	goto	l2200
  5439  018A                     u2790:
  5440  018A                     l2196:
  5441  018A  0844               	movf	___fldiv@b,w
  5442  018B  00C8               	movwf	??___fldiv
  5443  018C  0845               	movf	___fldiv@b+1,w
  5444  018D  00C9               	movwf	??___fldiv+1
  5445  018E  0846               	movf	___fldiv@b+2,w
  5446  018F  00CA               	movwf	??___fldiv+2
  5447  0190  0847               	movf	___fldiv@b+3,w
  5448  0191  00CB               	movwf	??___fldiv+3
  5449  0192  3001               	movlw	1
  5450  0193  00CC               	movwf	??___fldiv+4
  5451  0194                     u2805:
  5452  0194  0D4B               	rlf	??___fldiv+3,w
  5453  0195  0CCB               	rrf	??___fldiv+3,f
  5454  0196  0CCA               	rrf	??___fldiv+2,f
  5455  0197  0CC9               	rrf	??___fldiv+1,f
  5456  0198  0CC8               	rrf	??___fldiv,f
  5457  0199                     u2800:
  5458  0199  0BCC               	decfsz	??___fldiv+4,f
  5459  019A  2994               	goto	u2805
  5460  019B  084B               	movf	??___fldiv+3,w
  5461  019C  00C7               	movwf	___fldiv@b+3
  5462  019D  084A               	movf	??___fldiv+2,w
  5463  019E  00C6               	movwf	___fldiv@b+2
  5464  019F  0849               	movf	??___fldiv+1,w
  5465  01A0  00C5               	movwf	___fldiv@b+1
  5466  01A1  0848               	movf	??___fldiv,w
  5467  01A2  00C4               	movwf	___fldiv@b
  5468  01A3                     l2198:
  5469  01A3  3001               	movlw	1
  5470  01A4  07D2               	addwf	___fldiv@new_exp,f
  5471  01A5  1803               	skipnc
  5472  01A6  0AD3               	incf	___fldiv@new_exp+1,f
  5473  01A7  3000               	movlw	0
  5474  01A8  07D3               	addwf	___fldiv@new_exp+1,f
  5475  01A9                     l2200:
  5476  01A9  0853               	movf	___fldiv@new_exp+1,w
  5477  01AA  3A80               	xorlw	128
  5478  01AB  00FF               	movwf	btemp+1
  5479  01AC  3080               	movlw	128
  5480  01AD  027F               	subwf	btemp+1,w
  5481  01AE  1D03               	skipz
  5482  01AF  29B2               	goto	u2815
  5483  01B0  30FF               	movlw	255
  5484  01B1  0252               	subwf	___fldiv@new_exp,w
  5485  01B2                     u2815:
  5486  01B2  1C03               	skipc
  5487  01B3  29B5               	goto	u2811
  5488  01B4  29B6               	goto	u2810
  5489  01B5                     u2811:
  5490  01B5  29C4               	goto	l2204
  5491  01B6                     u2810:
  5492  01B6                     l2202:
  5493  01B6  30FF               	movlw	255
  5494  01B7  1283               	bcf	3,5	;RP0=0, select bank0
  5495  01B8  1303               	bcf	3,6	;RP1=0, select bank0
  5496  01B9  00D2               	movwf	___fldiv@new_exp
  5497  01BA  3000               	movlw	0
  5498  01BB  00D3               	movwf	___fldiv@new_exp+1
  5499  01BC  3000               	movlw	0
  5500  01BD  00C7               	movwf	___fldiv@b+3
  5501  01BE  3000               	movlw	0
  5502  01BF  00C6               	movwf	___fldiv@b+2
  5503  01C0  3000               	movlw	0
  5504  01C1  00C5               	movwf	___fldiv@b+1
  5505  01C2  3000               	movlw	0
  5506  01C3  00C4               	movwf	___fldiv@b
  5507  01C4                     l2204:
  5508  01C4  1283               	bcf	3,5	;RP0=0, select bank0
  5509  01C5  1303               	bcf	3,6	;RP1=0, select bank0
  5510  01C6  0853               	movf	___fldiv@new_exp+1,w
  5511  01C7  3A80               	xorlw	128
  5512  01C8  00FF               	movwf	btemp+1
  5513  01C9  3080               	movlw	128
  5514  01CA  027F               	subwf	btemp+1,w
  5515  01CB  1D03               	skipz
  5516  01CC  29CF               	goto	u2825
  5517  01CD  3001               	movlw	1
  5518  01CE  0252               	subwf	___fldiv@new_exp,w
  5519  01CF                     u2825:
  5520  01CF  1803               	skipnc
  5521  01D0  29D2               	goto	u2821
  5522  01D1  29D3               	goto	u2820
  5523  01D2                     u2821:
  5524  01D2  29E0               	goto	l619
  5525  01D3                     u2820:
  5526  01D3                     l2206:
  5527  01D3  1283               	bcf	3,5	;RP0=0, select bank0
  5528  01D4  1303               	bcf	3,6	;RP1=0, select bank0
  5529  01D5  01D2               	clrf	___fldiv@new_exp
  5530  01D6  01D3               	clrf	___fldiv@new_exp+1
  5531  01D7                     l2208:
  5532  01D7  3000               	movlw	0
  5533  01D8  00C7               	movwf	___fldiv@b+3
  5534  01D9  3000               	movlw	0
  5535  01DA  00C6               	movwf	___fldiv@b+2
  5536  01DB  3000               	movlw	0
  5537  01DC  00C5               	movwf	___fldiv@b+1
  5538  01DD  3000               	movlw	0
  5539  01DE  00C4               	movwf	___fldiv@b
  5540  01DF                     l2210:
  5541  01DF  01D1               	clrf	___fldiv@sign
  5542  01E0                     l619:
  5543  01E0  1283               	bcf	3,5	;RP0=0, select bank0
  5544  01E1  1303               	bcf	3,6	;RP1=0, select bank0
  5545  01E2  0852               	movf	___fldiv@new_exp,w
  5546  01E3  00C8               	movwf	??___fldiv
  5547  01E4  0848               	movf	??___fldiv,w
  5548  01E5  00D8               	movwf	___fldiv@bexp
  5549  01E6                     l2212:
  5550  01E6  1C58               	btfss	___fldiv@bexp,0
  5551  01E7  29E9               	goto	u2831
  5552  01E8  29EA               	goto	u2830
  5553  01E9                     u2831:
  5554  01E9  29EC               	goto	l2216
  5555  01EA                     u2830:
  5556  01EA                     l2214:
  5557  01EA  17C6               	bsf	___fldiv@b+2,7
  5558  01EB  29F0               	goto	l621
  5559  01EC                     l2216:
  5560  01EC  307F               	movlw	127
  5561  01ED  00C8               	movwf	??___fldiv
  5562  01EE  0848               	movf	??___fldiv,w
  5563  01EF  05C6               	andwf	___fldiv@b+2,f
  5564  01F0                     l621:
  5565  01F0  0858               	movf	___fldiv@bexp,w
  5566  01F1  00C8               	movwf	??___fldiv
  5567  01F2  1003               	clrc
  5568  01F3  0C48               	rrf	??___fldiv,w
  5569  01F4  00C9               	movwf	??___fldiv+1
  5570  01F5  0849               	movf	??___fldiv+1,w
  5571  01F6  00C7               	movwf	___fldiv@b+3
  5572  01F7  0851               	movf	___fldiv@sign,w
  5573  01F8  00C8               	movwf	??___fldiv
  5574  01F9  0848               	movf	??___fldiv,w
  5575  01FA  04C7               	iorwf	___fldiv@b+3,f
  5576  01FB  2894               	goto	l2124
  5577  01FC                     l599:
  5578  01FC  0008               	return
  5579  01FD                     __end_of___fldiv:
  5580                           
  5581                           	psect	text13
  5582  0BA0                     __ptext13:	
  5583 ;; *************** function ___awdiv *****************
  5584 ;; Defined at:
  5585 ;;		line 5 in file "C:\Program Files\Microchip\xc8\v2.35\pic\sources\c90\common\awdiv.c"
  5586 ;; Parameters:    Size  Location     Type
  5587 ;;  divisor         2   69[BANK0 ] int 
  5588 ;;  dividend        2   71[BANK0 ] int 
  5589 ;; Auto vars:     Size  Location     Type
  5590 ;;  quotient        2   76[BANK0 ] int 
  5591 ;;  sign            1   75[BANK0 ] unsigned char 
  5592 ;;  counter         1   74[BANK0 ] unsigned char 
  5593 ;; Return value:  Size  Location     Type
  5594 ;;                  2   69[BANK0 ] int 
  5595 ;; Registers used:
  5596 ;;		wreg, status,2, status,0
  5597 ;; Tracked objects:
  5598 ;;		On entry : 0/0
  5599 ;;		On exit  : 0/0
  5600 ;;		Unchanged: 0/0
  5601 ;; Data sizes:     COMMON   BANK0   BANK1   BANK3   BANK2
  5602 ;;      Params:         0       4       0       0       0
  5603 ;;      Locals:         0       4       0       0       0
  5604 ;;      Temps:          0       1       0       0       0
  5605 ;;      Totals:         0       9       0       0       0
  5606 ;;Total ram usage:        9 bytes
  5607 ;; Hardware stack levels used: 1
  5608 ;; This function calls:
  5609 ;;		Nothing
  5610 ;; This function is called by:
  5611 ;;		_main
  5612 ;;		_UNIDAD
  5613 ;; This function uses a non-reentrant model
  5614 ;;
  5615                           
  5616  0BA0                     ___awdiv:	
  5617                           ;psect for function ___awdiv
  5618                           
  5619  0BA0                     l1994:	
  5620                           ;incstack = 0
  5621                           ; Regs used in ___awdiv: [wreg+status,2+status,0]
  5622                           
  5623  0BA0  1283               	bcf	3,5	;RP0=0, select bank0
  5624  0BA1  1303               	bcf	3,6	;RP1=0, select bank0
  5625  0BA2  01EB               	clrf	___awdiv@sign
  5626  0BA3                     l1996:
  5627  0BA3  1FE6               	btfss	___awdiv@divisor+1,7
  5628  0BA4  2BA6               	goto	u2351
  5629  0BA5  2BA7               	goto	u2350
  5630  0BA6                     u2351:
  5631  0BA6  2BAE               	goto	l2002
  5632  0BA7                     u2350:
  5633  0BA7                     l1998:
  5634  0BA7  09E5               	comf	___awdiv@divisor,f
  5635  0BA8  09E6               	comf	___awdiv@divisor+1,f
  5636  0BA9  0AE5               	incf	___awdiv@divisor,f
  5637  0BAA  1903               	skipnz
  5638  0BAB  0AE6               	incf	___awdiv@divisor+1,f
  5639  0BAC                     l2000:
  5640  0BAC  01EB               	clrf	___awdiv@sign
  5641  0BAD  0AEB               	incf	___awdiv@sign,f
  5642  0BAE                     l2002:
  5643  0BAE  1FE8               	btfss	___awdiv@dividend+1,7
  5644  0BAF  2BB1               	goto	u2361
  5645  0BB0  2BB2               	goto	u2360
  5646  0BB1                     u2361:
  5647  0BB1  2BBB               	goto	l2008
  5648  0BB2                     u2360:
  5649  0BB2                     l2004:
  5650  0BB2  09E7               	comf	___awdiv@dividend,f
  5651  0BB3  09E8               	comf	___awdiv@dividend+1,f
  5652  0BB4  0AE7               	incf	___awdiv@dividend,f
  5653  0BB5  1903               	skipnz
  5654  0BB6  0AE8               	incf	___awdiv@dividend+1,f
  5655  0BB7                     l2006:
  5656  0BB7  3001               	movlw	1
  5657  0BB8  00E9               	movwf	??___awdiv
  5658  0BB9  0869               	movf	??___awdiv,w
  5659  0BBA  06EB               	xorwf	___awdiv@sign,f
  5660  0BBB                     l2008:
  5661  0BBB  01EC               	clrf	___awdiv@quotient
  5662  0BBC  01ED               	clrf	___awdiv@quotient+1
  5663  0BBD                     l2010:
  5664  0BBD  0865               	movf	___awdiv@divisor,w
  5665  0BBE  0466               	iorwf	___awdiv@divisor+1,w
  5666  0BBF  1903               	btfsc	3,2
  5667  0BC0  2BC2               	goto	u2371
  5668  0BC1  2BC3               	goto	u2370
  5669  0BC2                     u2371:
  5670  0BC2  2BFA               	goto	l2030
  5671  0BC3                     u2370:
  5672  0BC3                     l2012:
  5673  0BC3  01EA               	clrf	___awdiv@counter
  5674  0BC4  0AEA               	incf	___awdiv@counter,f
  5675  0BC5  2BD1               	goto	l2018
  5676  0BC6                     l2014:
  5677  0BC6  3001               	movlw	1
  5678  0BC7                     u2385:
  5679  0BC7  1003               	clrc
  5680  0BC8  0DE5               	rlf	___awdiv@divisor,f
  5681  0BC9  0DE6               	rlf	___awdiv@divisor+1,f
  5682  0BCA  3EFF               	addlw	-1
  5683  0BCB  1D03               	skipz
  5684  0BCC  2BC7               	goto	u2385
  5685  0BCD                     l2016:
  5686  0BCD  3001               	movlw	1
  5687  0BCE  00E9               	movwf	??___awdiv
  5688  0BCF  0869               	movf	??___awdiv,w
  5689  0BD0  07EA               	addwf	___awdiv@counter,f
  5690  0BD1                     l2018:
  5691  0BD1  1FE6               	btfss	___awdiv@divisor+1,7
  5692  0BD2  2BD4               	goto	u2391
  5693  0BD3  2BD5               	goto	u2390
  5694  0BD4                     u2391:
  5695  0BD4  2BC6               	goto	l2014
  5696  0BD5                     u2390:
  5697  0BD5                     l2020:
  5698  0BD5  3001               	movlw	1
  5699  0BD6                     u2405:
  5700  0BD6  1003               	clrc
  5701  0BD7  0DEC               	rlf	___awdiv@quotient,f
  5702  0BD8  0DED               	rlf	___awdiv@quotient+1,f
  5703  0BD9  3EFF               	addlw	-1
  5704  0BDA  1D03               	skipz
  5705  0BDB  2BD6               	goto	u2405
  5706  0BDC  0866               	movf	___awdiv@divisor+1,w
  5707  0BDD  0268               	subwf	___awdiv@dividend+1,w
  5708  0BDE  1D03               	skipz
  5709  0BDF  2BE2               	goto	u2415
  5710  0BE0  0865               	movf	___awdiv@divisor,w
  5711  0BE1  0267               	subwf	___awdiv@dividend,w
  5712  0BE2                     u2415:
  5713  0BE2  1C03               	skipc
  5714  0BE3  2BE5               	goto	u2411
  5715  0BE4  2BE6               	goto	u2410
  5716  0BE5                     u2411:
  5717  0BE5  2BED               	goto	l2026
  5718  0BE6                     u2410:
  5719  0BE6                     l2022:
  5720  0BE6  0865               	movf	___awdiv@divisor,w
  5721  0BE7  02E7               	subwf	___awdiv@dividend,f
  5722  0BE8  0866               	movf	___awdiv@divisor+1,w
  5723  0BE9  1C03               	skipc
  5724  0BEA  03E8               	decf	___awdiv@dividend+1,f
  5725  0BEB  02E8               	subwf	___awdiv@dividend+1,f
  5726  0BEC                     l2024:
  5727  0BEC  146C               	bsf	___awdiv@quotient,0
  5728  0BED                     l2026:
  5729  0BED  3001               	movlw	1
  5730  0BEE                     u2425:
  5731  0BEE  1003               	clrc
  5732  0BEF  0CE6               	rrf	___awdiv@divisor+1,f
  5733  0BF0  0CE5               	rrf	___awdiv@divisor,f
  5734  0BF1  3EFF               	addlw	-1
  5735  0BF2  1D03               	skipz
  5736  0BF3  2BEE               	goto	u2425
  5737  0BF4                     l2028:
  5738  0BF4  3001               	movlw	1
  5739  0BF5  02EA               	subwf	___awdiv@counter,f
  5740  0BF6  1D03               	btfss	3,2
  5741  0BF7  2BF9               	goto	u2431
  5742  0BF8  2BFA               	goto	u2430
  5743  0BF9                     u2431:
  5744  0BF9  2BD5               	goto	l2020
  5745  0BFA                     u2430:
  5746  0BFA                     l2030:
  5747  0BFA  086B               	movf	___awdiv@sign,w
  5748  0BFB  1903               	btfsc	3,2
  5749  0BFC  2BFE               	goto	u2441
  5750  0BFD  2BFF               	goto	u2440
  5751  0BFE                     u2441:
  5752  0BFE  2C04               	goto	l2034
  5753  0BFF                     u2440:
  5754  0BFF                     l2032:
  5755  0BFF  09EC               	comf	___awdiv@quotient,f
  5756  0C00  09ED               	comf	___awdiv@quotient+1,f
  5757  0C01  0AEC               	incf	___awdiv@quotient,f
  5758  0C02  1903               	skipnz
  5759  0C03  0AED               	incf	___awdiv@quotient+1,f
  5760  0C04                     l2034:
  5761  0C04  086D               	movf	___awdiv@quotient+1,w
  5762  0C05  00E6               	movwf	?___awdiv+1
  5763  0C06  086C               	movf	___awdiv@quotient,w
  5764  0C07  00E5               	movwf	?___awdiv
  5765  0C08                     l401:
  5766  0C08  0008               	return
  5767  0C09                     __end_of___awdiv:
  5768                           
  5769                           	psect	text14
  5770  0AF1                     __ptext14:	
  5771 ;; *************** function _LCD_XY4 *****************
  5772 ;; Defined at:
  5773 ;;		line 46 in file "LCD.c"
  5774 ;; Parameters:    Size  Location     Type
  5775 ;;  x               1    wreg     unsigned char 
  5776 ;;  y               1    4[COMMON] unsigned char 
  5777 ;; Auto vars:     Size  Location     Type
  5778 ;;  x               1    7[COMMON] unsigned char 
  5779 ;;  temp            1   10[COMMON] unsigned char 
  5780 ;;  q               1    9[COMMON] unsigned char 
  5781 ;;  z               1    8[COMMON] unsigned char 
  5782 ;; Return value:  Size  Location     Type
  5783 ;;                  1    wreg      void 
  5784 ;; Registers used:
  5785 ;;		wreg, status,2, status,0, pclath, cstack
  5786 ;; Tracked objects:
  5787 ;;		On entry : 0/0
  5788 ;;		On exit  : 0/0
  5789 ;;		Unchanged: 0/0
  5790 ;; Data sizes:     COMMON   BANK0   BANK1   BANK3   BANK2
  5791 ;;      Params:         1       0       0       0       0
  5792 ;;      Locals:         4       0       0       0       0
  5793 ;;      Temps:          2       0       0       0       0
  5794 ;;      Totals:         7       0       0       0       0
  5795 ;;Total ram usage:        7 bytes
  5796 ;; Hardware stack levels used: 1
  5797 ;; Hardware stack levels required when called: 2
  5798 ;; This function calls:
  5799 ;;		_LCD_COM4
  5800 ;; This function is called by:
  5801 ;;		_main
  5802 ;; This function uses a non-reentrant model
  5803 ;;
  5804                           
  5805  0AF1                     _LCD_XY4:	
  5806                           ;psect for function _LCD_XY4
  5807                           
  5808                           
  5809                           ;incstack = 0
  5810                           ; Regs used in _LCD_XY4: [wreg+status,2+status,0+pclath+cstack]
  5811                           ;LCD_XY4@x stored from wreg
  5812  0AF1  00F7               	movwf	LCD_XY4@x
  5813  0AF2                     l1952:
  5814                           
  5815                           ;LCD.c: 47:     char temp,z,q;;LCD.c: 48:     if(x == 1){
  5816  0AF2  0377               	decf	LCD_XY4@x,w
  5817  0AF3  1D03               	btfss	3,2
  5818  0AF4  2AF6               	goto	u2261
  5819  0AF5  2AF7               	goto	u2260
  5820  0AF6                     u2261:
  5821  0AF6  2B1A               	goto	l1962
  5822  0AF7                     u2260:
  5823  0AF7                     l1954:
  5824                           
  5825                           ;LCD.c: 49:         temp = 0x80 + y - 1;
  5826  0AF7  0874               	movf	LCD_XY4@y,w
  5827  0AF8  3E7F               	addlw	127
  5828  0AF9  00F5               	movwf	??_LCD_XY4
  5829  0AFA  0875               	movf	??_LCD_XY4,w
  5830  0AFB  00FA               	movwf	LCD_XY4@temp
  5831                           
  5832                           ;LCD.c: 50:         z = temp >> 4;
  5833  0AFC  087A               	movf	LCD_XY4@temp,w
  5834  0AFD  00F5               	movwf	??_LCD_XY4
  5835  0AFE  3004               	movlw	4
  5836  0AFF                     u2275:
  5837  0AFF  1003               	clrc
  5838  0B00  0CF5               	rrf	??_LCD_XY4,f
  5839  0B01  3EFF               	addlw	-1
  5840  0B02  1D03               	skipz
  5841  0B03  2AFF               	goto	u2275
  5842  0B04  0875               	movf	??_LCD_XY4,w
  5843  0B05  00F6               	movwf	??_LCD_XY4+1
  5844  0B06  0876               	movf	??_LCD_XY4+1,w
  5845  0B07  00F8               	movwf	LCD_XY4@z
  5846  0B08                     l1956:
  5847                           
  5848                           ;LCD.c: 51:         q = temp & 0x0F;
  5849  0B08  087A               	movf	LCD_XY4@temp,w
  5850  0B09  390F               	andlw	15
  5851  0B0A  00F5               	movwf	??_LCD_XY4
  5852  0B0B  0875               	movf	??_LCD_XY4,w
  5853  0B0C  00F9               	movwf	LCD_XY4@q
  5854  0B0D                     l1958:
  5855                           
  5856                           ;LCD.c: 52:         LCD_COM4(z);
  5857  0B0D  0878               	movf	LCD_XY4@z,w
  5858  0B0E  120A  118A  2006  120A  158A  	fcall	_LCD_COM4
  5859  0B13                     l1960:
  5860                           
  5861                           ;LCD.c: 53:         LCD_COM4(q);
  5862  0B13  0879               	movf	LCD_XY4@q,w
  5863  0B14  120A  118A  2006  120A  158A  	fcall	_LCD_COM4
  5864                           
  5865                           ;LCD.c: 54:     }else if (x == 2){
  5866  0B19  2B42               	goto	l78
  5867  0B1A                     l1962:
  5868  0B1A  3002               	movlw	2
  5869  0B1B  0677               	xorwf	LCD_XY4@x,w
  5870  0B1C  1D03               	btfss	3,2
  5871  0B1D  2B1F               	goto	u2281
  5872  0B1E  2B20               	goto	u2280
  5873  0B1F                     u2281:
  5874  0B1F  2B42               	goto	l78
  5875  0B20                     u2280:
  5876  0B20                     l1964:
  5877                           
  5878                           ;LCD.c: 55:         temp = 0xC0 + y - 1;
  5879  0B20  0874               	movf	LCD_XY4@y,w
  5880  0B21  3EBF               	addlw	191
  5881  0B22  00F5               	movwf	??_LCD_XY4
  5882  0B23  0875               	movf	??_LCD_XY4,w
  5883  0B24  00FA               	movwf	LCD_XY4@temp
  5884                           
  5885                           ;LCD.c: 56:         z = temp >> 4;
  5886  0B25  087A               	movf	LCD_XY4@temp,w
  5887  0B26  00F5               	movwf	??_LCD_XY4
  5888  0B27  3004               	movlw	4
  5889  0B28                     u2295:
  5890  0B28  1003               	clrc
  5891  0B29  0CF5               	rrf	??_LCD_XY4,f
  5892  0B2A  3EFF               	addlw	-1
  5893  0B2B  1D03               	skipz
  5894  0B2C  2B28               	goto	u2295
  5895  0B2D  0875               	movf	??_LCD_XY4,w
  5896  0B2E  00F6               	movwf	??_LCD_XY4+1
  5897  0B2F  0876               	movf	??_LCD_XY4+1,w
  5898  0B30  00F8               	movwf	LCD_XY4@z
  5899  0B31                     l1966:
  5900                           
  5901                           ;LCD.c: 57:         q = temp & 0x0F;
  5902  0B31  087A               	movf	LCD_XY4@temp,w
  5903  0B32  390F               	andlw	15
  5904  0B33  00F5               	movwf	??_LCD_XY4
  5905  0B34  0875               	movf	??_LCD_XY4,w
  5906  0B35  00F9               	movwf	LCD_XY4@q
  5907  0B36                     l1968:
  5908                           
  5909                           ;LCD.c: 58:         LCD_COM4(z);
  5910  0B36  0878               	movf	LCD_XY4@z,w
  5911  0B37  120A  118A  2006  120A  158A  	fcall	_LCD_COM4
  5912  0B3C                     l1970:
  5913                           
  5914                           ;LCD.c: 59:         LCD_COM4(q);
  5915  0B3C  0879               	movf	LCD_XY4@q,w
  5916  0B3D  120A  118A  2006  120A  158A  	fcall	_LCD_COM4
  5917  0B42                     l78:
  5918  0B42  0008               	return
  5919  0B43                     __end_of_LCD_XY4:
  5920                           
  5921                           	psect	text15
  5922  0006                     __ptext15:	
  5923 ;; *************** function _LCD_COM4 *****************
  5924 ;; Defined at:
  5925 ;;		line 34 in file "LCD.c"
  5926 ;; Parameters:    Size  Location     Type
  5927 ;;  a               1    wreg     unsigned char 
  5928 ;; Auto vars:     Size  Location     Type
  5929 ;;  a               1    3[COMMON] unsigned char 
  5930 ;; Return value:  Size  Location     Type
  5931 ;;                  1    wreg      void 
  5932 ;; Registers used:
  5933 ;;		wreg, status,2, status,0, pclath, cstack
  5934 ;; Tracked objects:
  5935 ;;		On entry : 0/0
  5936 ;;		On exit  : 0/0
  5937 ;;		Unchanged: 0/0
  5938 ;; Data sizes:     COMMON   BANK0   BANK1   BANK3   BANK2
  5939 ;;      Params:         0       0       0       0       0
  5940 ;;      Locals:         1       0       0       0       0
  5941 ;;      Temps:          2       0       0       0       0
  5942 ;;      Totals:         3       0       0       0       0
  5943 ;;Total ram usage:        3 bytes
  5944 ;; Hardware stack levels used: 1
  5945 ;; Hardware stack levels required when called: 1
  5946 ;; This function calls:
  5947 ;;		_LCD_PORT4
  5948 ;; This function is called by:
  5949 ;;		_LCD_XY4
  5950 ;;		_LCD_INIT4
  5951 ;;		_LCD_RIGHT4
  5952 ;;		_LCD_LEFT4
  5953 ;; This function uses a non-reentrant model
  5954 ;;
  5955                           
  5956  0006                     _LCD_COM4:	
  5957                           ;psect for function _LCD_COM4
  5958                           
  5959                           
  5960                           ;incstack = 0
  5961                           ; Regs used in _LCD_COM4: [wreg+status,2+status,0+pclath+cstack]
  5962                           ;LCD_COM4@a stored from wreg
  5963  0006  00F3               	movwf	LCD_COM4@a
  5964  0007                     l1642:
  5965                           
  5966                           ;LCD.c: 35:     PORTDbits.RD2 = 0;
  5967  0007  1283               	bcf	3,5	;RP0=0, select bank0
  5968  0008  1303               	bcf	3,6	;RP1=0, select bank0
  5969  0009  1108               	bcf	8,2	;volatile
  5970  000A                     l1644:
  5971                           
  5972                           ;LCD.c: 36:     LCD_PORT4(a);
  5973  000A  0873               	movf	LCD_COM4@a,w
  5974  000B  120A  158A  2180  120A  118A  	fcall	_LCD_PORT4
  5975  0010                     l1646:
  5976                           
  5977                           ;LCD.c: 37:     PORTDbits.RD3 = 1;
  5978  0010  1283               	bcf	3,5	;RP0=0, select bank0
  5979  0011  1303               	bcf	3,6	;RP1=0, select bank0
  5980  0012  1588               	bsf	8,3	;volatile
  5981  0013                     l1648:
  5982                           
  5983                           ;LCD.c: 38:     _delay((unsigned long)((4)*(8000000/4000.0)));
  5984  0013  300B               	movlw	11
  5985  0014  00F2               	movwf	??_LCD_COM4+1
  5986  0015  3062               	movlw	98
  5987  0016  00F1               	movwf	??_LCD_COM4
  5988  0017                     u3397:
  5989  0017  0BF1               	decfsz	??_LCD_COM4,f
  5990  0018  2817               	goto	u3397
  5991  0019  0BF2               	decfsz	??_LCD_COM4+1,f
  5992  001A  2817               	goto	u3397
  5993  001B  0000               	nop
  5994  001C                     l1650:
  5995                           
  5996                           ;LCD.c: 39:     PORTDbits.RD3 = 0;
  5997  001C  1283               	bcf	3,5	;RP0=0, select bank0
  5998  001D  1303               	bcf	3,6	;RP1=0, select bank0
  5999  001E  1188               	bcf	8,3	;volatile
  6000  001F                     l69:
  6001  001F  0008               	return
  6002  0020                     __end_of_LCD_COM4:
  6003                           
  6004                           	psect	text16
  6005  09C6                     __ptext16:	
  6006 ;; *************** function _LCD_STRING4 *****************
  6007 ;; Defined at:
  6008 ;;		line 93 in file "LCD.c"
  6009 ;; Parameters:    Size  Location     Type
  6010 ;;  a               1    wreg     PTR unsigned char 
  6011 ;;		 -> STR_2(2), STR_1(14), 
  6012 ;; Auto vars:     Size  Location     Type
  6013 ;;  a               1    7[COMMON] PTR unsigned char 
  6014 ;;		 -> STR_2(2), STR_1(14), 
  6015 ;;  i               2    5[COMMON] int 
  6016 ;; Return value:  Size  Location     Type
  6017 ;;                  1    wreg      void 
  6018 ;; Registers used:
  6019 ;;		wreg, fsr0l, fsr0h, status,2, status,0, pclath, cstack
  6020 ;; Tracked objects:
  6021 ;;		On entry : 0/0
  6022 ;;		On exit  : 0/0
  6023 ;;		Unchanged: 0/0
  6024 ;; Data sizes:     COMMON   BANK0   BANK1   BANK3   BANK2
  6025 ;;      Params:         0       0       0       0       0
  6026 ;;      Locals:         3       0       0       0       0
  6027 ;;      Temps:          0       0       0       0       0
  6028 ;;      Totals:         3       0       0       0       0
  6029 ;;Total ram usage:        3 bytes
  6030 ;; Hardware stack levels used: 1
  6031 ;; Hardware stack levels required when called: 2
  6032 ;; This function calls:
  6033 ;;		_LCD_CHAR4
  6034 ;; This function is called by:
  6035 ;;		_main
  6036 ;; This function uses a non-reentrant model
  6037 ;;
  6038                           
  6039  09C6                     _LCD_STRING4:	
  6040                           ;psect for function _LCD_STRING4
  6041                           
  6042                           
  6043                           ;incstack = 0
  6044                           ; Regs used in _LCD_STRING4: [wreg-fsr0h+status,2+status,0+pclath+cstack]
  6045                           ;LCD_STRING4@a stored from wreg
  6046  09C6  00F7               	movwf	LCD_STRING4@a
  6047  09C7                     l1972:
  6048                           
  6049                           ;LCD.c: 94:     int i;;LCD.c: 95:     for (i = 0; a[i] != '\0'; i++)
  6050  09C7  01F5               	clrf	LCD_STRING4@i
  6051  09C8  01F6               	clrf	LCD_STRING4@i+1
  6052  09C9  29DD               	goto	l1978
  6053  09CA                     l1974:
  6054                           
  6055                           ;LCD.c: 96:         LCD_CHAR4(a[i]);
  6056  09CA  0875               	movf	LCD_STRING4@i,w
  6057  09CB  0777               	addwf	LCD_STRING4@a,w
  6058  09CC  0084               	movwf	4
  6059  09CD  120A  158A  2000  120A  158A  	fcall	stringdir
  6060  09D2  120A  158A  226C  120A  158A  	fcall	_LCD_CHAR4
  6061  09D7                     l1976:
  6062  09D7  3001               	movlw	1
  6063  09D8  07F5               	addwf	LCD_STRING4@i,f
  6064  09D9  1803               	skipnc
  6065  09DA  0AF6               	incf	LCD_STRING4@i+1,f
  6066  09DB  3000               	movlw	0
  6067  09DC  07F6               	addwf	LCD_STRING4@i+1,f
  6068  09DD                     l1978:
  6069  09DD  0875               	movf	LCD_STRING4@i,w
  6070  09DE  0777               	addwf	LCD_STRING4@a,w
  6071  09DF  0084               	movwf	4
  6072  09E0  120A  158A  2000  120A  158A  	fcall	stringdir
  6073  09E5  3A00               	xorlw	0
  6074  09E6  1D03               	skipz
  6075  09E7  29E9               	goto	u2301
  6076  09E8  29EA               	goto	u2300
  6077  09E9                     u2301:
  6078  09E9  29CA               	goto	l1974
  6079  09EA                     u2300:
  6080  09EA                     l90:
  6081  09EA  0008               	return
  6082  09EB                     __end_of_LCD_STRING4:
  6083                           
  6084                           	psect	text17
  6085  0A6C                     __ptext17:	
  6086 ;; *************** function _LCD_CHAR4 *****************
  6087 ;; Defined at:
  6088 ;;		line 79 in file "LCD.c"
  6089 ;; Parameters:    Size  Location     Type
  6090 ;;  a               1    wreg     unsigned char 
  6091 ;; Auto vars:     Size  Location     Type
  6092 ;;  a               1    4[COMMON] unsigned char 
  6093 ;;  y               1    3[COMMON] unsigned char 
  6094 ;;  temp            1    2[COMMON] unsigned char 
  6095 ;; Return value:  Size  Location     Type
  6096 ;;                  1    wreg      void 
  6097 ;; Registers used:
  6098 ;;		wreg, status,2, status,0, pclath, cstack
  6099 ;; Tracked objects:
  6100 ;;		On entry : 0/0
  6101 ;;		On exit  : 0/0
  6102 ;;		Unchanged: 0/0
  6103 ;; Data sizes:     COMMON   BANK0   BANK1   BANK3   BANK2
  6104 ;;      Params:         0       0       0       0       0
  6105 ;;      Locals:         3       0       0       0       0
  6106 ;;      Temps:          1       0       0       0       0
  6107 ;;      Totals:         4       0       0       0       0
  6108 ;;Total ram usage:        4 bytes
  6109 ;; Hardware stack levels used: 1
  6110 ;; Hardware stack levels required when called: 1
  6111 ;; This function calls:
  6112 ;;		_LCD_PORT4
  6113 ;; This function is called by:
  6114 ;;		_main
  6115 ;;		_LCD_STRING4
  6116 ;; This function uses a non-reentrant model
  6117 ;;
  6118                           
  6119  0A6C                     _LCD_CHAR4:	
  6120                           ;psect for function _LCD_CHAR4
  6121                           
  6122                           
  6123                           ;incstack = 0
  6124                           ; Regs used in _LCD_CHAR4: [wreg+status,2+status,0+pclath+cstack]
  6125                           ;LCD_CHAR4@a stored from wreg
  6126  0A6C  00F4               	movwf	LCD_CHAR4@a
  6127  0A6D                     l1652:
  6128                           
  6129                           ;LCD.c: 80:     char temp, y;;LCD.c: 81:     temp = a & 0x0F;
  6130  0A6D  0874               	movf	LCD_CHAR4@a,w
  6131  0A6E  390F               	andlw	15
  6132  0A6F  00F1               	movwf	??_LCD_CHAR4
  6133  0A70  0871               	movf	??_LCD_CHAR4,w
  6134  0A71  00F2               	movwf	LCD_CHAR4@temp
  6135                           
  6136                           ;LCD.c: 82:     y = a & 0xF0;
  6137  0A72  0874               	movf	LCD_CHAR4@a,w
  6138  0A73  39F0               	andlw	240
  6139  0A74  00F1               	movwf	??_LCD_CHAR4
  6140  0A75  0871               	movf	??_LCD_CHAR4,w
  6141  0A76  00F3               	movwf	LCD_CHAR4@y
  6142  0A77                     l1654:
  6143                           
  6144                           ;LCD.c: 83:     PORTDbits.RD2 = 1;
  6145  0A77  1283               	bcf	3,5	;RP0=0, select bank0
  6146  0A78  1303               	bcf	3,6	;RP1=0, select bank0
  6147  0A79  1508               	bsf	8,2	;volatile
  6148  0A7A                     l1656:
  6149                           
  6150                           ;LCD.c: 84:     LCD_PORT4(y >> 4);
  6151  0A7A  0873               	movf	LCD_CHAR4@y,w
  6152  0A7B  00F1               	movwf	??_LCD_CHAR4
  6153  0A7C  3004               	movlw	4
  6154  0A7D                     u1745:
  6155  0A7D  1003               	clrc
  6156  0A7E  0CF1               	rrf	??_LCD_CHAR4,f
  6157  0A7F  3EFF               	addlw	-1
  6158  0A80  1D03               	skipz
  6159  0A81  2A7D               	goto	u1745
  6160  0A82  0871               	movf	??_LCD_CHAR4,w
  6161  0A83  120A  158A  2180  120A  158A  	fcall	_LCD_PORT4
  6162  0A88                     l1658:
  6163                           
  6164                           ;LCD.c: 85:     PORTDbits.RD3 = 1;
  6165  0A88  1283               	bcf	3,5	;RP0=0, select bank0
  6166  0A89  1303               	bcf	3,6	;RP1=0, select bank0
  6167  0A8A  1588               	bsf	8,3	;volatile
  6168  0A8B                     l1660:
  6169                           
  6170                           ;LCD.c: 86:     _delay((unsigned long)((40)*(8000000/4000000.0)));
  6171  0A8B  301A               	movlw	26
  6172  0A8C  00F1               	movwf	??_LCD_CHAR4
  6173  0A8D                     u3407:
  6174  0A8D  0BF1               	decfsz	??_LCD_CHAR4,f
  6175  0A8E  2A8D               	goto	u3407
  6176  0A8F  0000               	nop
  6177  0A90                     l1662:
  6178                           
  6179                           ;LCD.c: 87:     PORTDbits.RD3 = 0;
  6180  0A90  1283               	bcf	3,5	;RP0=0, select bank0
  6181  0A91  1303               	bcf	3,6	;RP1=0, select bank0
  6182  0A92  1188               	bcf	8,3	;volatile
  6183  0A93                     l1664:
  6184                           
  6185                           ;LCD.c: 88:     LCD_PORT4(temp);
  6186  0A93  0872               	movf	LCD_CHAR4@temp,w
  6187  0A94  120A  158A  2180  120A  158A  	fcall	_LCD_PORT4
  6188  0A99                     l1666:
  6189                           
  6190                           ;LCD.c: 89:     PORTDbits.RD3 = 1;
  6191  0A99  1283               	bcf	3,5	;RP0=0, select bank0
  6192  0A9A  1303               	bcf	3,6	;RP1=0, select bank0
  6193  0A9B  1588               	bsf	8,3	;volatile
  6194  0A9C                     l1668:
  6195                           
  6196                           ;LCD.c: 90:     _delay((unsigned long)((40)*(8000000/4000000.0)));
  6197  0A9C  301A               	movlw	26
  6198  0A9D  00F1               	movwf	??_LCD_CHAR4
  6199  0A9E                     u3417:
  6200  0A9E  0BF1               	decfsz	??_LCD_CHAR4,f
  6201  0A9F  2A9E               	goto	u3417
  6202  0AA0  0000               	nop
  6203  0AA1                     l1670:
  6204                           
  6205                           ;LCD.c: 91:     PORTDbits.RD3 = 0;
  6206  0AA1  1283               	bcf	3,5	;RP0=0, select bank0
  6207  0AA2  1303               	bcf	3,6	;RP1=0, select bank0
  6208  0AA3  1188               	bcf	8,3	;volatile
  6209  0AA4                     l84:
  6210  0AA4  0008               	return
  6211  0AA5                     __end_of_LCD_CHAR4:
  6212                           
  6213                           	psect	text18
  6214  095E                     __ptext18:	
  6215 ;; *************** function _LCD_CLEAR4 *****************
  6216 ;; Defined at:
  6217 ;;		line 41 in file "LCD.c"
  6218 ;; Parameters:    Size  Location     Type
  6219 ;;		None
  6220 ;; Auto vars:     Size  Location     Type
  6221 ;;		None
  6222 ;; Return value:  Size  Location     Type
  6223 ;;                  1    wreg      void 
  6224 ;; Registers used:
  6225 ;;		wreg, status,2, status,0, pclath, cstack
  6226 ;; Tracked objects:
  6227 ;;		On entry : 0/0
  6228 ;;		On exit  : 0/0
  6229 ;;		Unchanged: 0/0
  6230 ;; Data sizes:     COMMON   BANK0   BANK1   BANK3   BANK2
  6231 ;;      Params:         0       0       0       0       0
  6232 ;;      Locals:         0       0       0       0       0
  6233 ;;      Temps:          0       0       0       0       0
  6234 ;;      Totals:         0       0       0       0       0
  6235 ;;Total ram usage:        0 bytes
  6236 ;; Hardware stack levels used: 1
  6237 ;; Hardware stack levels required when called: 1
  6238 ;; This function calls:
  6239 ;;		_LCD_PORT4
  6240 ;; This function is called by:
  6241 ;;		_main
  6242 ;; This function uses a non-reentrant model
  6243 ;;
  6244                           
  6245  095E                     _LCD_CLEAR4:	
  6246                           ;psect for function _LCD_CLEAR4
  6247                           
  6248  095E                     l1950:	
  6249                           ;incstack = 0
  6250                           ; Regs used in _LCD_CLEAR4: [wreg+status,2+status,0+pclath+cstack]
  6251                           
  6252                           
  6253                           ;LCD.c: 42:     LCD_PORT4(0);
  6254  095E  3000               	movlw	0
  6255  095F  120A  158A  2180  120A  158A  	fcall	_LCD_PORT4
  6256                           
  6257                           ;LCD.c: 43:     LCD_PORT4(1);
  6258  0964  3001               	movlw	1
  6259  0965  120A  158A  2180  120A  158A  	fcall	_LCD_PORT4
  6260  096A                     l72:
  6261  096A  0008               	return
  6262  096B                     __end_of_LCD_CLEAR4:
  6263                           
  6264                           	psect	text19
  6265  0980                     __ptext19:	
  6266 ;; *************** function _LCD_PORT4 *****************
  6267 ;; Defined at:
  6268 ;;		line 13 in file "LCD.c"
  6269 ;; Parameters:    Size  Location     Type
  6270 ;;  a               1    wreg     unsigned char 
  6271 ;; Auto vars:     Size  Location     Type
  6272 ;;  a               1    0[COMMON] unsigned char 
  6273 ;; Return value:  Size  Location     Type
  6274 ;;                  1    wreg      void 
  6275 ;; Registers used:
  6276 ;;		wreg
  6277 ;; Tracked objects:
  6278 ;;		On entry : 0/0
  6279 ;;		On exit  : 0/0
  6280 ;;		Unchanged: 0/0
  6281 ;; Data sizes:     COMMON   BANK0   BANK1   BANK3   BANK2
  6282 ;;      Params:         0       0       0       0       0
  6283 ;;      Locals:         1       0       0       0       0
  6284 ;;      Temps:          0       0       0       0       0
  6285 ;;      Totals:         1       0       0       0       0
  6286 ;;Total ram usage:        1 bytes
  6287 ;; Hardware stack levels used: 1
  6288 ;; This function calls:
  6289 ;;		Nothing
  6290 ;; This function is called by:
  6291 ;;		_LCD_COM4
  6292 ;;		_LCD_CLEAR4
  6293 ;;		_LCD_INIT4
  6294 ;;		_LCD_CHAR4
  6295 ;; This function uses a non-reentrant model
  6296 ;;
  6297                           
  6298  0980                     _LCD_PORT4:	
  6299                           ;psect for function _LCD_PORT4
  6300                           
  6301                           
  6302                           ;incstack = 0
  6303                           ; Regs used in _LCD_PORT4: [wreg]
  6304                           ;LCD_PORT4@a stored from wreg
  6305  0980  00F0               	movwf	LCD_PORT4@a
  6306  0981                     l1632:
  6307                           
  6308                           ;LCD.c: 14:     if (a & 1)
  6309  0981  1C70               	btfss	LCD_PORT4@a,0
  6310  0982  2984               	goto	u1701
  6311  0983  2985               	goto	u1700
  6312  0984                     u1701:
  6313  0984  2989               	goto	l58
  6314  0985                     u1700:
  6315  0985                     l1634:
  6316                           
  6317                           ;LCD.c: 15:         PORTDbits.RD4 = 1;
  6318  0985  1283               	bcf	3,5	;RP0=0, select bank0
  6319  0986  1303               	bcf	3,6	;RP1=0, select bank0
  6320  0987  1608               	bsf	8,4	;volatile
  6321  0988  298C               	goto	l59
  6322  0989                     l58:	
  6323                           ;LCD.c: 16:     else
  6324                           
  6325                           
  6326                           ;LCD.c: 17:         PORTDbits.RD4 = 0;
  6327  0989  1283               	bcf	3,5	;RP0=0, select bank0
  6328  098A  1303               	bcf	3,6	;RP1=0, select bank0
  6329  098B  1208               	bcf	8,4	;volatile
  6330  098C                     l59:
  6331                           
  6332                           ;LCD.c: 19:     if (a & 2)
  6333  098C  1CF0               	btfss	LCD_PORT4@a,1
  6334  098D  298F               	goto	u1711
  6335  098E  2990               	goto	u1710
  6336  098F                     u1711:
  6337  098F  2992               	goto	l60
  6338  0990                     u1710:
  6339  0990                     l1636:
  6340                           
  6341                           ;LCD.c: 20:         PORTDbits.RD5 = 1;
  6342  0990  1688               	bsf	8,5	;volatile
  6343  0991  2993               	goto	l61
  6344  0992                     l60:	
  6345                           ;LCD.c: 21:     else
  6346                           
  6347                           
  6348                           ;LCD.c: 22:         PORTDbits.RD5 = 0;
  6349  0992  1288               	bcf	8,5	;volatile
  6350  0993                     l61:
  6351                           
  6352                           ;LCD.c: 24:     if (a & 4)
  6353  0993  1D70               	btfss	LCD_PORT4@a,2
  6354  0994  2996               	goto	u1721
  6355  0995  2997               	goto	u1720
  6356  0996                     u1721:
  6357  0996  2999               	goto	l62
  6358  0997                     u1720:
  6359  0997                     l1638:
  6360                           
  6361                           ;LCD.c: 25:         PORTDbits.RD6 = 1;
  6362  0997  1708               	bsf	8,6	;volatile
  6363  0998  299A               	goto	l63
  6364  0999                     l62:	
  6365                           ;LCD.c: 26:     else
  6366                           
  6367                           
  6368                           ;LCD.c: 27:         PORTDbits.RD6 = 0;
  6369  0999  1308               	bcf	8,6	;volatile
  6370  099A                     l63:
  6371                           
  6372                           ;LCD.c: 29:     if (a & 8)
  6373  099A  1DF0               	btfss	LCD_PORT4@a,3
  6374  099B  299D               	goto	u1731
  6375  099C  299E               	goto	u1730
  6376  099D                     u1731:
  6377  099D  29A0               	goto	l64
  6378  099E                     u1730:
  6379  099E                     l1640:
  6380                           
  6381                           ;LCD.c: 30:         PORTDbits.RD7 = 1;
  6382  099E  1788               	bsf	8,7	;volatile
  6383  099F  29A1               	goto	l66
  6384  09A0                     l64:	
  6385                           ;LCD.c: 31:     else
  6386                           
  6387                           
  6388                           ;LCD.c: 32:         PORTDbits.RD7 = 0;
  6389  09A0  1388               	bcf	8,7	;volatile
  6390  09A1                     l66:
  6391  09A1  0008               	return
  6392  09A2                     __end_of_LCD_PORT4:
  6393                           
  6394                           	psect	text20
  6395  096B                     __ptext20:	
  6396 ;; *************** function _ADC_READ *****************
  6397 ;; Defined at:
  6398 ;;		line 194 in file "ADC.c"
  6399 ;; Parameters:    Size  Location     Type
  6400 ;;		None
  6401 ;; Auto vars:     Size  Location     Type
  6402 ;;		None
  6403 ;; Return value:  Size  Location     Type
  6404 ;;                  2    0[COMMON] int 
  6405 ;; Registers used:
  6406 ;;		wreg
  6407 ;; Tracked objects:
  6408 ;;		On entry : 0/0
  6409 ;;		On exit  : 0/0
  6410 ;;		Unchanged: 0/0
  6411 ;; Data sizes:     COMMON   BANK0   BANK1   BANK3   BANK2
  6412 ;;      Params:         2       0       0       0       0
  6413 ;;      Locals:         0       0       0       0       0
  6414 ;;      Temps:          2       0       0       0       0
  6415 ;;      Totals:         4       0       0       0       0
  6416 ;;Total ram usage:        4 bytes
  6417 ;; Hardware stack levels used: 1
  6418 ;; This function calls:
  6419 ;;		Nothing
  6420 ;; This function is called by:
  6421 ;;		_main
  6422 ;; This function uses a non-reentrant model
  6423 ;;
  6424                           
  6425  096B                     _ADC_READ:	
  6426                           ;psect for function _ADC_READ
  6427                           
  6428  096B                     l1942:	
  6429                           ;incstack = 0
  6430                           ; Regs used in _ADC_READ: [wreg]
  6431                           
  6432                           
  6433                           ;ADC.c: 195:     ADCON0bits.GO = 1;
  6434  096B  1283               	bcf	3,5	;RP0=0, select bank0
  6435  096C  1303               	bcf	3,6	;RP1=0, select bank0
  6436  096D  149F               	bsf	31,1	;volatile
  6437                           
  6438                           ;ADC.c: 196:     while(ADCON0bits.GO == 1){
  6439  096E  297B               	goto	l145
  6440  096F                     l146:
  6441                           
  6442                           ;ADC.c: 197:         if (ADCON0bits.GO == 0){
  6443  096F  189F               	btfsc	31,1	;volatile
  6444  0970  2972               	goto	u2241
  6445  0971  2973               	goto	u2240
  6446  0972                     u2241:
  6447  0972  297B               	goto	l145
  6448  0973                     u2240:
  6449  0973                     l1944:
  6450                           
  6451                           ;ADC.c: 198:             return ADRESH;
  6452  0973  081E               	movf	30,w	;volatile
  6453  0974  00F2               	movwf	??_ADC_READ
  6454  0975  01F3               	clrf	??_ADC_READ+1
  6455  0976  0872               	movf	??_ADC_READ,w
  6456  0977  00F0               	movwf	?_ADC_READ
  6457  0978  0873               	movf	??_ADC_READ+1,w
  6458  0979  00F1               	movwf	?_ADC_READ+1
  6459  097A  297F               	goto	l148
  6460  097B                     l145:	
  6461                           ;ADC.c: 201:     }
  6462                           
  6463                           
  6464                           ;ADC.c: 196:     while(ADCON0bits.GO == 1){
  6465  097B  189F               	btfsc	31,1	;volatile
  6466  097C  297E               	goto	u2251
  6467  097D  297F               	goto	u2250
  6468  097E                     u2251:
  6469  097E  296F               	goto	l146
  6470  097F                     u2250:
  6471  097F                     l148:
  6472  097F  0008               	return
  6473  0980                     __end_of_ADC_READ:
  6474  007E                     btemp	set	126	;btemp
  6475  007E                     wtemp0	set	126
  6476                           
  6477                           	psect	idloc
  6478                           
  6479                           ;Config register IDLOC0 @ 0x2000
  6480                           ;	unspecified, using default values
  6481  2000                     	org	8192
  6482  2000  3FFF               	dw	16383
  6483                           
  6484                           ;Config register IDLOC1 @ 0x2001
  6485                           ;	unspecified, using default values
  6486  2001                     	org	8193
  6487  2001  3FFF               	dw	16383
  6488                           
  6489                           ;Config register IDLOC2 @ 0x2002
  6490                           ;	unspecified, using default values
  6491  2002                     	org	8194
  6492  2002  3FFF               	dw	16383
  6493                           
  6494                           ;Config register IDLOC3 @ 0x2003
  6495                           ;	unspecified, using default values
  6496  2003                     	org	8195
  6497  2003  3FFF               	dw	16383
  6498                           
  6499                           	psect	config
  6500                           
  6501                           ;Config register CONFIG1 @ 0x2007
  6502                           ;	Oscillator Selection bits
  6503                           ;	FOSC = INTRC_NOCLKOUT, INTOSCIO oscillator: I/O function on RA6/OSC2/CLKOUT pin, I/O f
      +                          unction on RA7/OSC1/CLKIN
  6504                           ;	Watchdog Timer Enable bit
  6505                           ;	WDTE = OFF, WDT disabled and can be enabled by SWDTEN bit of the WDTCON register
  6506                           ;	Power-up Timer Enable bit
  6507                           ;	PWRTE = OFF, PWRT disabled
  6508                           ;	RE3/MCLR pin function select bit
  6509                           ;	MCLRE = OFF, RE3/MCLR pin function is digital input, MCLR internally tied to VDD
  6510                           ;	Code Protection bit
  6511                           ;	CP = OFF, Program memory code protection is disabled
  6512                           ;	Data Code Protection bit
  6513                           ;	CPD = OFF, Data memory code protection is disabled
  6514                           ;	Brown Out Reset Selection bits
  6515                           ;	BOREN = OFF, BOR disabled
  6516                           ;	Internal External Switchover bit
  6517                           ;	IESO = OFF, Internal/External Switchover mode is disabled
  6518                           ;	Fail-Safe Clock Monitor Enabled bit
  6519                           ;	FCMEN = OFF, Fail-Safe Clock Monitor is disabled
  6520                           ;	Low Voltage Programming Enable bit
  6521                           ;	LVP = OFF, RB3 pin has digital I/O, HV on MCLR must be used for programming
  6522                           ;	In-Circuit Debugger Mode bit
  6523                           ;	DEBUG = 0x1, unprogrammed default
  6524  2007                     	org	8199
  6525  2007  20D4               	dw	8404
  6526                           
  6527                           ;Config register CONFIG2 @ 0x2008
  6528                           ;	Brown-out Reset Selection bit
  6529                           ;	BOR4V = BOR40V, Brown-out Reset set to 4.0V
  6530                           ;	Flash Program Memory Self Write Enable bits
  6531                           ;	WRT = OFF, Write protection off
  6532  2008                     	org	8200
  6533  2008  3FFF               	dw	16383

Data Sizes:
    Strings     16
    Constant    0
    Data        0
    BSS         4
    Persistent  0
    Stack       0

Auto Spaces:
    Space          Size  Autos    Used
    COMMON           14     14      14
    BANK0            80     78      78
    BANK1            80     13      17
    BANK3            96      0       0
    BANK2            96      0       0

Pointer List with Targets:

    LCD_STRING4@a	PTR unsigned char  size(1) Largest target is 14
		 -> STR_2(CODE[2]), STR_1(CODE[14]), 


Critical Paths under _main in COMMON

    _main->___xxtofl
    _setup->_LCD_INIT4
    _LCD_INIT4->_LCD_COM4
    ___xxtofl->___wmul
    ___fltol->___xxtofl
    ___flsub->___xxtofl
    ___flmul->___xxtofl
    ___fldiv->___xxtofl
    ___awdiv->___xxtofl
    _LCD_XY4->_LCD_COM4
    _LCD_COM4->_LCD_PORT4
    _LCD_STRING4->_LCD_CHAR4
    _LCD_CHAR4->_LCD_PORT4
    _LCD_CLEAR4->_LCD_PORT4

Critical Paths under _main in BANK0

    _main->___awdiv
    ___fltol->___fldiv
    ___flsub->___flmul
    ___flmul->___xxtofl
    ___fldiv->___flmul
    ___awdiv->___fltol

Critical Paths under _main in BANK1

    None.

Critical Paths under _main in BANK3

    None.

Critical Paths under _main in BANK2

    None.

Call Graph Tables:

 ---------------------------------------------------------------------------------
 (Depth) Function   	        Calls       Base Space   Used Autos Params    Refs
 ---------------------------------------------------------------------------------
 (0) _main                                                13    13      0   10491
                                              0 BANK1     13    13      0
                           _ADC_READ
                          _LCD_CHAR4
                         _LCD_CLEAR4
                        _LCD_STRING4
                            _LCD_XY4
                            ___awdiv
                            ___fldiv
                            ___flmul
                            ___flsub
                            ___fltol
                             ___wmul
                           ___xxtofl
                              _setup
 ---------------------------------------------------------------------------------
 (1) _setup                                                1     1      0     318
                                              6 COMMON     1     1      0
                           _ADC_INIT
                          _LCD_INIT4
                         _OSCILLATOR
 ---------------------------------------------------------------------------------
 (2) _OSCILLATOR                                           3     3      0      22
                                              0 COMMON     3     3      0
 ---------------------------------------------------------------------------------
 (2) _LCD_INIT4                                            2     2      0     198
                                              4 COMMON     2     2      0
                           _LCD_COM4
                          _LCD_PORT4
 ---------------------------------------------------------------------------------
 (2) _ADC_INIT                                             2     0      2      98
                                              0 COMMON     2     0      2
 ---------------------------------------------------------------------------------
 (1) ___xxtofl                                            14    10      4     778
                                              6 COMMON     8     4      4
                                              0 BANK0      6     6      0
                             ___wmul (ARG)
 ---------------------------------------------------------------------------------
 (1) ___wmul                                               6     2      4     548
                                              0 COMMON     6     2      4
 ---------------------------------------------------------------------------------
 (1) ___fltol                                             11     7      4     457
                                             58 BANK0     11     7      4
                            ___fldiv (ARG)
                            ___flmul (ARG)
                            ___flsub (ARG)
                             ___wmul (ARG)
                           ___xxtofl (ARG)
 ---------------------------------------------------------------------------------
 (1) ___flsub                                              8     0      8    2637
                                             32 BANK0      8     0      8
                            ___fladd
                            ___flmul (ARG)
                             ___wmul (ARG)
                           ___xxtofl (ARG)
 ---------------------------------------------------------------------------------
 (2) ___fladd                                             20    12      8    2136
                                              0 COMMON    12     4      8
                                              0 BANK0      8     8      0
 ---------------------------------------------------------------------------------
 (1) ___flmul                                             26    18      8    2721
                                              6 BANK0     26    18      8
                          __Umul8_16
                           ___xxtofl (ARG)
 ---------------------------------------------------------------------------------
 (2) __Umul8_16                                            9     7      2     799
                                              0 COMMON     9     7      2
 ---------------------------------------------------------------------------------
 (1) ___fldiv                                             26    18      8    1273
                                             32 BANK0     26    18      8
                            ___flmul (ARG)
                           ___xxtofl (ARG)
 ---------------------------------------------------------------------------------
 (1) ___awdiv                                              9     5      4     604
                                             69 BANK0      9     5      4
                            ___flmul (ARG)
                            ___flsub (ARG)
                            ___fltol (ARG)
                             ___wmul (ARG)
                           ___xxtofl (ARG)
 ---------------------------------------------------------------------------------
 (1) _LCD_XY4                                              7     6      1     532
                                              4 COMMON     7     6      1
                           _LCD_COM4
 ---------------------------------------------------------------------------------
 (3) _LCD_COM4                                             3     3      0     110
                                              1 COMMON     3     3      0
                          _LCD_PORT4
 ---------------------------------------------------------------------------------
 (1) _LCD_STRING4                                          3     3      0     334
                                              5 COMMON     3     3      0
                          _LCD_CHAR4
 ---------------------------------------------------------------------------------
 (2) _LCD_CHAR4                                            4     4      0     178
                                              1 COMMON     4     4      0
                          _LCD_PORT4
 ---------------------------------------------------------------------------------
 (1) _LCD_CLEAR4                                           0     0      0      88
                          _LCD_PORT4
 ---------------------------------------------------------------------------------
 (3) _LCD_PORT4                                            1     1      0      88
                                              0 COMMON     1     1      0
 ---------------------------------------------------------------------------------
 (1) _ADC_READ                                             4     2      2       0
                                              0 COMMON     4     2      2
 ---------------------------------------------------------------------------------
 Estimated maximum stack depth 3
 ---------------------------------------------------------------------------------

 Call Graph Graphs:

 _main (ROOT)
   _ADC_READ
   _LCD_CHAR4
     _LCD_PORT4
   _LCD_CLEAR4
     _LCD_PORT4
   _LCD_STRING4
     _LCD_CHAR4
   _LCD_XY4
     _LCD_COM4
       _LCD_PORT4
   ___awdiv
     ___flmul (ARG)
       __Umul8_16
       ___xxtofl (ARG)
         ___wmul (ARG)
     ___flsub (ARG)
       ___fladd
       ___flmul (ARG)
       ___wmul (ARG)
       ___xxtofl (ARG)
     ___fltol (ARG)
       ___fldiv (ARG)
         ___flmul (ARG)
         ___xxtofl (ARG)
       ___flmul (ARG)
       ___flsub (ARG)
       ___wmul (ARG)
       ___xxtofl (ARG)
     ___wmul (ARG)
     ___xxtofl (ARG)
   ___fldiv
   ___flmul
   ___flsub
   ___fltol
   ___wmul
   ___xxtofl
   _setup
     _ADC_INIT
     _LCD_INIT4
       _LCD_COM4
       _LCD_PORT4
     _OSCILLATOR

 Address spaces:
Name               Size   Autos  Total    Cost      Usage
BITCOMMON            E      0       0       0        0.0%
EEDATA             100      0       0       0        0.0%
NULL                 0      0       0       0        0.0%
CODE                 0      0       0       0        0.0%
COMMON               E      E       E       1      100.0%
BITSFR0              0      0       0       1        0.0%
SFR0                 0      0       0       1        0.0%
BITSFR1              0      0       0       2        0.0%
SFR1                 0      0       0       2        0.0%
STACK                0      0       0       2        0.0%
ABS                  0      0      6D       3        0.0%
BITBANK0            50      0       0       4        0.0%
BITSFR3              0      0       0       4        0.0%
SFR3                 0      0       0       4        0.0%
BANK0               50     4E      4E       5       97.5%
BITSFR2              0      0       0       5        0.0%
SFR2                 0      0       0       5        0.0%
BITBANK1            50      0       0       6        0.0%
BANK1               50      D      11       7       21.2%
BITBANK3            60      0       0       8        0.0%
BANK3               60      0       0       9        0.0%
BITBANK2            60      0       0      10        0.0%
BANK2               60      0       0      11        0.0%
DATA                 0      0      6D      12        0.0%


Microchip Technology PIC Macro Assembler V2.35 build 20211206165544 
Symbol Table                                                                                   Thu Jul 20 14:34:07 2023

           ___fldiv@aexp 0059             ___fldiv@bexp 0058                        pc 0002  
           ___fldiv@sign 0051                       l51 0A6B                       l60 0992  
                     l61 0993                       l62 0999                       l63 099A  
                     l64 09A0                       l72 096A                       l81 0B9F  
                     l66 09A1                       l58 0989                       l90 09EA  
                     l59 098C                       l84 0AA4                       l69 001F  
                     l78 0B42             ___awdiv@sign 006B                       fsr 0004  
    ___wmul@multiplicand 0072      __Umul8_16@word_mpld 0076                      l120 0AC6  
                    l112 0AAA                      l121 0ACA                      l130 0C9B  
                    l114 0AAE                      l122 0AF0                      l131 0CA2  
                    l115 0AB2                      l140 0CE1                      l132 0CA9  
                    l116 0AB6                      l141 0CE8                      l133 0CB0  
                    l117 0ABA                      l134 0CB7                      l142 0D20  
                    l126 0C86                      l118 0ABE                      l135 0CBE  
                    l119 0AC2                      l136 0CC5                      l128 0C8D  
                    l145 097B                      l401 0C08                      l137 0CCC  
                    l129 0C94                      l146 096F                      l250 0A0F  
                    l138 0CD3                      l139 0CDA                      l148 097F  
                    l248 09F7                      l441 0C6F                      l434 0C84  
                    l444 0C84                      l621 01F0                      l613 016E  
                    l541 0260                      l545 0309                      l562 03DA  
                    l554 0494                      l619 01E0                      l643 0761  
                    l547 02DE                      l572 0422                      l637 07F5  
                    l566 0400                      l583 0486                      l575 0462  
                    l656 0A24                      l584 0494                      l649 07E9  
                    l681 0D45                      l658 0A36                      l587 09C5  
                    l683 0DDC                      l597 007C                      l694 0DA6  
                    l599 01FC                      l695 0DB2                      l687 0D8A  
                    _POT 00B0                      fsr0 0004             ___flmul@aexp 0038  
           ___flmul@bexp 0039             ___flmul@sign 0033             ___flmul@temp 003E  
           ___flmul@prod 003A              LCD_XY4@temp 007A          __end_of_LCD_XY4 0B43  
           ___fltol@exp1 0064                     l2000 0BAC                     l2010 0BBD  
                   l2002 0BAE                     l2020 0BD5                     l2012 0BC3  
                   l2004 0BB2                     l2100 004F                     l2022 0BE6  
                   l2014 0BC6                     l2030 0BFA                     l2006 0BB7  
                   l2110 0064                     l2102 0054                     l2032 0BFF  
                   l2024 0BEC                     l2016 0BCD                     l2008 0BBB  
                   l2200 01A9                     l2120 0084                     l2112 0069  
                   l2104 005A                     l2040 0C16                     l2034 0C04  
                   l2026 0BED                     l2018 0BD1                     l2210 01DF  
                   l2202 01B6                     l2130 00A2                     l2122 0090  
                   l2114 0071                     l2106 005E                     l2050 0C3D  
                   l2028 0BF4                     l2212 01E6                     l2204 01C4  
                   l2140 00CD                     l2124 0094                     l2116 0072  
                   l2108 005F                     l2300 06BF                     l2060 0C4B  
                   l2052 0C3F                     l2044 0C1F                     l2214 01EA  
                   l2206 01D3                     l2150 00F2                     l2142 00D5  
                   l2134 00AB                     l2118 0074                     l2310 072D  
                   l2302 06E5                     l2230 04A7                     l2222 0495  
                   l2070 0C74                     l2054 0C43                     l2062 0C5D  
                   l2046 0C34                     l2038 0C09                     l2216 01EC  
                   l2208 01D7                     l2160 011D                     l2152 00F3  
                   l2144 00D7                     l2136 00BD                     l2128 009D  
                   l2080 0020                     l2320 0745                     l2312 0731  
                   l2304 070D                     l2240 04C3                     l2232 04AC  
                   l2224 049C                     l2072 0C79                     l2048 0C35  
                   l2400 0DD3                     l2170 013A                     l2146 00DC  
                   l2154 00FC                     l2162 0121                     l2138 00C5  
                   l2090 0037                     l2082 0027                     l2330 0766  
                   l2322 0746                     l2314 0732                     l2306 0716  
                   l2250 04D8                     l2242 04C8                     l2234 04B1  
                   l2226 04A2                     l2074 09A2                     l2402 0DD4  
                   l2410 0DED                     l2180 0152                     l2172 013E  
                   l2164 0127                     l2156 010E                     l2148 00EE  
                   l2092 003C                     l2084 002D                     l2332 076B  
                   l2340 079C                     l2324 074A                     l2316 073B  
                   l2308 0724                     l2260 04F4                     l2252 04DD  
                   l2244 04CE                     l2236 04B9                     l2228 04A6  
                   l2076 09A6                     l2068 0C64                     l1700 0B67  
                   l2420 0FBB                     l2412 0E45                     l2190 0173  
                   l2182 0153                     l2174 013F                     l2166 012F  
                   l2158 010F                     l2094 0044                     l2086 0031  
                   l2350 07CF                     l2342 07A9                     l2334 0779  
                   l2326 075E                     l2318 0741                     l2270 051F  
                   l2262 04F9                     l2254 04E5                     l2246 04D2  
                   l2238 04BB                     l1710 020F                     l1702 01FD  
                   l2430 0FD6                     l2422 0FBF                     l2414 0EDE  
                   l2406 0DDD                     l1640 099E                     l1632 0981  
                   l2192 0178                     l2184 0157                     l2176 0148  
                   l2168 0131                     l2096 0045                     l2088 0032  
                   l2352 07DD                     l2344 07B4                     l2336 077D  
                   l2280 05BC                     l2272 053C                     l2256 04E7  
                   l2248 04D3                     l1800 030D                     l1712 0214  
                   l1720 0224                     l1704 0204                     l2432 0FDE  
                   l2424 0FC3                     l2416 0F5A                     l2408 0DE2  
                   l1634 0985                     l1650 001C                     l1642 0007  
                   l2194 0186                     l2186 016B                     l2178 014E  
                   l2098 0047                     l2354 07E1                     l2346 07C3  
                   l2338 0796                     l2290 061F                     l2282 05C5  
                   l2274 0558                     l2266 0502                     l2258 04EF  
                   l1810 0336                     l1802 0312                     l1730 023E  
                   l1722 022C                     l1714 0219                     l1706 020A  
                   l2370 0D4D                     l2362 0D24                     l2434 0FE6  
                   l2426 0FC8                     l2418 0FB7                     l1636 0990  
                   l1660 0A8B                     l1652 0A6D                     l1644 000A  
                   l2196 018A                     l1900 0A1A                     l2356 07E2  
                   l2348 07CD                     l2292 0638                     l2284 05D5  
                   l2276 0584                     l2268 0512                     l1820 034C  
                   l1812 033A                     l1740 0255                     l1732 0242  
                   l1724 0231                     l1716 0221                     l1708 020E  
                   l2380 0D6F                     l2364 0D29                     l2436 0FEC  
                   l2428 0FD0                     l1638 0997                     l1670 0AA1  
                   l1662 0A90                     l1654 0A77                     l1646 0010  
                   l2198 01A3                     l1902 0A1E                     l2358 07ED  
                   l2294 0655                     l2286 05F2                     l2278 05A0  
                   l1830 03B8                     l1822 0357                     l1814 0345  
                   l1806 031B                     l1750 026E                     l1742 0256  
                   l1734 0243                     l1726 0237                     l1718 0222  
                   l2390 0DA0                     l2382 0D73                     l2374 0D56  
                   l2366 0D2D                     l1910 0A37                     l2438 0FF4  
                   l1664 0A93                     l1656 0A7A                     l1648 0013  
                   l1904 0A2D                     l2296 0682                     l2288 0602  
                   l1832 03BD                     l1816 0347                     l1808 0332  
                   l1824 035C                     l1760 0282                     l1752 0272  
                   l1736 0248                     l1744 0258                     l1728 0238  
                   l2392 0DAA                     l2384 0D81                     l2376 0D5B  
                   l2368 0D3D                     l1672 0AA6                     l1920 0A48  
                   l1912 0A3B                     l1666 0A99                     l1658 0A88  
                   l1906 0A32                     l2298 0692                     l1850 0407  
                   l1842 03F0                     l1826 0372                     l1834 03CC  
                   l1818 034B                     l1770 0296                     l1762 0286  
                   l1754 0276                     l1746 0266                     l1738 024D  
                   l2394 0DB4                     l2386 0D91                     l2378 0D68  
                   l2490 0CF4                     l1682 0C85                     l1930 0A59  
                   l1922 0A51                     l1914 0A3C                     l1668 0A9C  
                   l1860 0415                     l1852 0409                     l1844 03FB  
                   l1836 03E2                     l1828 03B2                     l1772 029A  
                   l1764 028A                     l1756 027A                     l1748 026A  
                   l1780 02AA                     l2396 0DCA                     l2388 0D9C  
                   l1692 0B43                     l1676 0ACE                     l1932 0A5C  
                   l1924 0A54                     l1916 0A3F                     l1942 096B  
                   l1950 095E                     l1870 042C                     l1862 0419  
                   l1854 040E                     l1846 03FF                     l1838 03E7  
                   l1790 02EF                     l1782 02AB                     l1774 029E  
                   l1766 028E                     l1758 027E                     l2398 0DCF  
                   l1686 0CEF                     l1694 0B49                     l1934 0A5F  
                   l1926 0A55                     l1918 0A42                     l1944 0973  
                   l1960 0B13                     l1952 0AF2                     l1880 046C  
                   l1872 043A                     l1864 041F                     l1848 0404  
                   l1856 0410                     l1792 02F3                     l1784 02C2  
                   l1776 02A2                     l1768 0292                     l1696 0B52  
                   l2488 0AD6                     l1936 0A63                     l1928 0A58  
                   l1970 0B3C                     l1954 0AF7                     l1962 0B1A  
                   l1890 0480                     l1882 0474                     l1874 043E  
                   l1858 0414                     l1794 02F4                     l1786 02E2  
                   l1778 02A6                     l1698 0B61                     l1938 0A66  
                   l1972 09C7                     l1964 0B20                     l1956 0B08  
                   l1892 048F                     l1884 0479                     l1876 045E  
                   l1868 0427                     l1796 02FF                     l1788 02ED  
                   l1980 09EB                     l1974 09CA                     l1966 0B31  
                   l1958 0B0D                     l1894 0493                     l1886 047A  
                   l1878 0467                     l1798 0303                     l1990 0A0B  
                   l1982 09ED                     l1976 09D7                     l1968 0B36  
                   l1896 0A11                     l1888 047E                     l1984 09F1  
                   l1978 09DD                     l1994 0BA0                     l1898 0A13  
                   l1986 09FE                     l1996 0BA3                     l1988 0A05  
                   l1998 0BA7                     STR_1 0806                     STR_2 0814  
                   u2000 039F                     u2001 03A0                     u2010 03BD  
                   u2002 03A5                     u2011 03BC                     u2003 03A6  
                   u2100 041F                     u2020 03E2                     u2101 041E  
                   u2021 03E1                     u2110 0426                     u2030 03E7  
                   u2111 0425                     u2031 03E6                     u2200 0493  
                   u2120 042C                     u3001 0647                     u2201 0492  
                   u2121 042B                     u2210 0A1E                     u3002 064E  
                   u2130 043E                     u2050 03FF                     u2211 0A1D  
                   u3011 0674                     u3003 0655                     u2131 043D  
                   u2051 03FE                     u2300 09EA                     u3012 067B  
                   u2140 044F                     u2060 0404                     u2301 09E9  
                   u3021 06A1                     u3013 0682                     u2061 0403  
                   u2045 03F4                     u2230 0A32                     u3110 0745  
                   u3030 06CB                     u3022 06A8                     u2150 045E  
                   u2070 040E                     u2310 09F1                     u2231 0A31  
                   u3111 0744                     u3023 06AF                     u2151 045D  
                   u2071 040D                     u2311 09F0                     u2240 0973  
                   u3200 07E1                     u3120 074A                     u2160 0467  
                   u2080 0414                     u2241 0972                     u2225 0A25  
                   u3201 07E0                     u3121 0749                     u3105 0734  
                   u3041 06D7                     u2161 0466                     u2145 044A  
                   u2081 0413                     u2250 097F                     u2410 0BE6  
                   u3130 075E                     u3050 06F3                     u3042 06DE  
                   u2170 046C                     u2090 0419                     u3210 0D29  
                   u2251 097E                     u2411 0BE5                     u3131 075D  
                   u3043 06E5                     u3035 06C6                     u2171 046B  
                   u2091 0418                     u3211 0D28                     u1700 0985  
                   u2260 0AF7                     u3140 0765                     u2180 0479  
                   u2500 0C5C                     u2340 0A0B                     u3300 0DA6  
                   u3220 0D2D                     u1701 0984                     u2261 0AF6  
                   u2405 0BD6                     u3141 0764                     u3061 06FF  
                   u2181 0478                     u2501 0C5B                     u2341 0A0A  
                   u2325 09F8                     u3301 0DA5                     u3221 0D2C  
                   u1710 0990                     u2430 0BFA                     u2350 0BA7  
                   u3150 076B                     u3062 0706                     u2190 047E  
                   u2510 0C63                     u3310 0DAA                     u3230 0D4D  
                   u1711 098F                     u2431 0BF9                     u2415 0BE2  
                   u2351 0BA6                     u3151 076A                     u3063 070D  
                   u3055 06EE                     u2191 047D                     u2511 0C62  
                   u2335 09FF                     u3311 0DA9                     u3231 0D4C  
                   u1720 0997                     u2280 0B20                     u2440 0BFF  
                   u2360 0BB2                     u2600 0069                     u3160 077D  
                   u1800 0248                     u3320 0DBF                     u1721 0996  
                   u2281 0B1F                     u2441 0BFE                     u2425 0BEE  
                   u2361 0BB1                     u2601 0068                     u3161 077C  
                   u1801 0247                     u1730 099E                     u2370 0BC3  
                   u2610 0084                     u3170 078C                     u3090 0731  
                   u1810 024D                     u2530 0C74                     u2450 0C16  
                   u3330 0DCF                     u3250 0D6E                     u1731 099D  
                   u2275 0AFF                     u2371 0BC2                     u2611 0083  
                   u3091 0730                     u3075 070F                     u1811 024C  
                   u2531 0C73                     u2451 0C15                     u3331 0DCE  
                   u3251 0D6D                     u2700 012F                     u2620 00A2  
                   u3180 07A9                     u1900 0309                     u1820 0266  
                   u2540 0C79                     u2460 0C2D                     u3340 0DD3  
                   u2701 012E                     u2621 00A1                     u3181 07A8  
                   u3085 0726                     u1901 0308                     u1821 0265  
                   u2541 0C78                     u2525 0C66                     u3341 0DD2  
                   u3325 0DBA                     u3245 0D60                     u2390 0BD5  
                   u2630 00DC                     u2550 0031                     u3190 07C3  
                   u1910 030D                     u1830 026A                     u1750 020E  
                   u2470 0C43                     u3270 0D90                     u3407 0A8D  
                   u2295 0B28                     u2391 0BD4                     u2631 00DB  
                   u2551 0030                     u3191 07C2                     u3175 0787  
                   u1911 030C                     u1831 0269                     u1751 020D  
                   u2471 0C42                     u3271 0D8F                     u2800 0199  
                   u2720 013E                     u2560 0037                     u1920 0312  
                   u1840 02C2                     u1760 0214                     u2480 0C4A  
                   u3417 0A9E                     u1745 0A7D                     u2385 0BC7  
                   u2721 013D                     u2561 0036                     u3185 07A5  
                   u1921 0311                     u1841 02C1                     u1761 0213  
                   u2481 0C49                     u2465 0C28                     u3265 0D82  
                   u2810 01B6                     u2570 003C                     u1850 02CB  
                   u1770 0219                     u3290 0DA0                     u2811 01B5  
                   u2715 0133                     u2571 003B                     u3195 07BF  
                   u1931 0324                     u1851 02C9                     u1771 0218  
                   u3291 0D9F                     u2820 01D3                     u2740 0152  
                   u2660 00F2                     u2580 005E                     u2900 04F4  
                   u1940 0336                     u1932 032B                     u1860 02CC  
                   u1780 0237                     u2821 01D2                     u2805 0194  
                   u2741 0151                     u2661 00F1                     u2645 00DE  
                   u2581 005D                     u2901 04F3                     u1941 0335  
                   u1933 0332                     u1845 02BE                     u1781 0236  
                   u3285 0D95                     u3357 0A61                     u2830 01EA  
                   u2750 0157                     u2590 0064                     u2910 04F9  
                   u1950 033A                     u1870 02E2                     u1790 0242  
                   u2831 01E9                     u2815 01B2                     u2751 0156  
                   u2735 0141                     u2655 00E7                     u2591 0063  
                   u2911 04F8                     u1951 0339                     u1871 02E1  
                   u1791 0241                     u2495 0C4C                     u3367 0B4D  
                   u2760 016B                     u2680 010E                     u2840 04A6  
                   u1960 034B                     u1880 02F3                     u2825 01CF  
                   u2761 016A                     u2681 010D                     u2921 054A  
                   u2841 04A5                     u1961 034A                     u1881 02F2  
                   u3377 0B5C                     u2770 0172                     u2690 0127  
                   u2922 0551                     u2850 04AC                     u2771 0171  
                   u2691 0126                     u2675 00F5                     u2931 0566  
                   u2923 0558                     u2851 04AB                     u3387 0B6B  
                   u2780 0178                     u2932 056D                     u2860 04B1  
                   u1980 0372                     u3397 0017                     u2781 0177  
                   u2685 010A                     u2941 0592                     u2933 0574  
                   u2861 04B0                     u1981 0371                     u2790 018A  
                   u2942 0599                     u2870 04D2                     u2791 0189  
                   u2951 05AE                     u2943 05A0                     u2871 04D1  
                   u1991 038B                     u1983 036E                     u1975 0350  
                   u1895 02F8                     u2952 05B5                     u2880 04D8  
                   u1992 038C                     u2953 05BC                     u2881 04D7  
                   u1993 0391                     u2890 04DD                     u1994 0392  
                   u2971 05E4                     u2891 04DC                     u1995 0397  
                   u2972 05EB                     u1996 0398                     u2981 0611  
                   u2973 05F2                     u2965 05BE                     u2982 0618  
                   u2983 061F                     u2995 0621         __end_of_ADC_INIT 0D21  
       __end_of_ADC_READ 0980                     _main 0DDD                     btemp 007E  
                   start 0000              ?_OSCILLATOR 0070          ___fldiv@new_exp 0052  
           LCD_STRING4@a 0077             LCD_STRING4@i 0075         __end_of_LCD_COM4 0020  
          ___fltol@sign1 0063          __end_of___fladd 0495                    ?_main 0070  
        __end_of___fldiv 01FD          __end_of___awdiv 0C09          __end_of___flmul 07F6  
        __end_of___flsub 09C6          __end_of___fltol 0C85                    _ANSEL 0188  
        ___awdiv@divisor 0065          ___awdiv@counter 006A                    _PORTD 0008  
                  _TRISD 0088                    _setup 0A37                    pclath 000A  
                  status 0003                    wtemp0 007E          __initialization 07F6  
           __end_of_main 1000        __end_of_LCD_CHAR4 0AA5        __end_of_LCD_INIT4 0BA0  
      __end_of_LCD_PORT4 09A2                   ??_main 00A0                ??_LCD_XY4 0075  
              ADC_INIT@c 0070                   _ADRESH 001E         ___awdiv@dividend 0067  
                 ?_setup 0070                   _ANSELH 0189         __end_of___xxtofl 0DDD  
              ??___fladd 0020                   ___wmul 09EB                ??___fldiv 0048  
              ??___awdiv 0069                   _decena 00AE                ??___flmul 002E  
              ??___flsub 007E                ??___fltol 005E         ___awdiv@quotient 006C  
                 _unidad 00AF                ?_ADC_INIT 0070                ?_ADC_READ 0070  
              LCD_COM4@a 0073                ?_LCD_COM4 0070             ___xxtofl@arg 0022  
           ___xxtofl@exp 0021             ___xxtofl@val 0076  __end_of__initialization 07FC  
           ??_LCD_CLEAR4 0071               ___fltol@f1 005A           __pcstackCOMMON 0070  
            OSCILLATOR@f 0072            __end_of_setup 0A6C               ??_ADC_INIT 0072  
             ??_ADC_READ 0072       __end_of_LCD_CLEAR4 096B                  ??_setup 0076  
             __pbssBANK1 00AD               ??_LCD_COM4 0071             ??_OSCILLATOR 0070  
      __end_of__Umul8_16 0A37               __pmaintext 0DDD                  ?___wmul 0070  
                _LCD_XY4 0AF1                ?___xxtofl 0076       __end_of_OSCILLATOR 0AF1  
             __stringtab 0800                  ___fladd 01FD                  ___fldiv 0020  
                ___awdiv 0BA0                  ___flmul 0495                  ___flsub 09A2  
                ___fltol 0C09                  _centena 00AD                  __ptext1 0A37  
                __ptext2 0AA5                  __ptext3 0B43                  __ptext4 0C85  
                __ptext5 0D21                  __ptext6 09EB                  __ptext7 0C09  
                __ptext8 09A2                  __ptext9 01FD                _LCD_CHAR4 0A6C  
             ??___xxtofl 007A                _LCD_INIT4 0B43                _LCD_PORT4 0980  
   end_of_initialization 07FC                _PORTDbits 0008               LCD_CHAR4@a 0074  
             LCD_CHAR4@y 0073               ?_LCD_CHAR4 0070              ___fladd@grs 007B  
             ?_LCD_INIT4 0070            ___xxtofl@sign 0020               ?_LCD_PORT4 0070  
            ___fldiv@grs 0054              ___fldiv@rem 004D               LCD_PORT4@a 0070  
            ___flmul@grs 0034            ??_LCD_STRING4 0075           __end_of___wmul 0A10  
    start_initialization 07F6                 ??___wmul 0074                __Umul8_16 0A10  
    __end_of_LCD_STRING4 09EB                ___fladd@a 0074                ___fladd@b 0070  
               ?_LCD_XY4 0074                ___fldiv@a 0040                ___fldiv@b 0044  
            ??_LCD_CHAR4 0071              ??_LCD_INIT4 0074                ___flmul@a 002A  
              ___flmul@b 0026                 LCD_XY4@q 0079                 LCD_XY4@x 0077  
               LCD_XY4@y 0074                 LCD_XY4@z 0078                ___flsub@a 0040  
              ___flsub@b 0044                ___latbits 0002              ??_LCD_PORT4 0070  
          __pcstackBANK0 0020            __pcstackBANK1 00A0                 ?___fladd 0070  
               ?___fldiv 0040                 ?___awdiv 0065                 ?___flmul 0026  
               ?___flsub 0040                 ?___fltol 005A               ?__Umul8_16 0070  
              __pstrings 0800                 _ADC_INIT 0C85                 _ADC_READ 096B  
               _LCD_COM4 0006           ___wmul@product 0074              _LCD_STRING4 09C6  
             _ADCON0bits 001F              __stringbase 0805               _ADCON1bits 009F  
      ___wmul@multiplier 0070              ??__Umul8_16 0072       __end_of__stringtab 0806  
               ___xxtofl 0D21                 _main$915 00A9                 __ptext10 0495  
               __ptext11 0A10                 __ptext20 096B                 __ptext12 0020  
               __ptext13 0BA0                 __ptext14 0AF1                 __ptext15 0006  
               __ptext16 09C6                 __ptext17 0A6C                 __ptext18 095E  
               __ptext19 0980               _LCD_CLEAR4 095E            LCD_CHAR4@temp 0072  
             _OSCILLATOR 0AA5                stringcode 0800               _OSCCONbits 008F  
 __Umul8_16@multiplicand 0070                 stringdir 0800                 stringtab 0800  
          ___fladd@signs 0078             ___fladd@aexp 0079             ___fladd@bexp 007A  
            ?_LCD_CLEAR4 0070     __Umul8_16@multiplier 0078             ?_LCD_STRING4 0070  
      __Umul8_16@product 0074  
