

Microchip MPLAB XC8 Assembler V2.35 build 20211206165544 
                                                                                               Sun Jul 23 18:21:41 2023

Microchip MPLAB XC8 C Compiler v2.35 (Free license) build 20211206165544 Og1 
     1                           	processor	16F887
     2                           	pagewidth 120
     3                           	opt	flic
     4                           	psect	strings,global,class=STRING,delta=2,noexec
     5                           	psect	cinit,global,class=CODE,merge=1,delta=2
     6                           	psect	bssBANK1,global,class=BANK1,space=1,delta=1,noexec
     7                           	psect	cstackBANK1,global,class=BANK1,space=1,delta=1,noexec
     8                           	psect	cstackCOMMON,global,class=COMMON,space=1,delta=1,noexec
     9                           	psect	cstackBANK0,global,class=BANK0,space=1,delta=1,noexec
    10                           	psect	maintext,global,class=CODE,split=1,delta=2
    11                           	psect	text1,local,class=CODE,merge=1,delta=2
    12                           	psect	text2,local,class=CODE,merge=1,delta=2
    13                           	psect	text3,local,class=CODE,merge=1,delta=2,group=1
    14                           	psect	text4,local,class=CODE,merge=1,delta=2
    15                           	psect	text5,local,class=CODE,merge=1,delta=2
    16                           	psect	text6,local,class=CODE,merge=1,delta=2
    17                           	psect	text7,local,class=CODE,merge=1,delta=2
    18                           	psect	text8,local,class=CODE,merge=1,delta=2
    19                           	psect	text9,local,class=CODE,merge=1,delta=2
    20                           	psect	text10,local,class=CODE,merge=1,delta=2
    21                           	psect	text11,local,class=CODE,merge=1,delta=2
    22                           	psect	text12,local,class=CODE,merge=1,delta=2,group=1
    23                           	psect	text13,local,class=CODE,merge=1,delta=2,group=1
    24                           	psect	text14,local,class=CODE,merge=1,delta=2,group=1
    25                           	psect	text15,local,class=CODE,merge=1,delta=2,group=1
    26                           	psect	text16,local,class=CODE,merge=1,delta=2
    27                           	psect	text17,local,class=CODE,merge=1,delta=2,group=1
    28                           	psect	text18,local,class=CODE,merge=1,delta=2,group=1
    29                           	psect	text19,local,class=CODE,merge=1,delta=2,group=1
    30                           	psect	text20,local,class=CODE,merge=1,delta=2,group=1
    31                           	psect	text21,local,class=CODE,merge=1,delta=2,group=1
    32                           	psect	text22,local,class=CODE,merge=1,delta=2
    33                           	psect	text23,local,class=CODE,merge=1,delta=2
    34                           	psect	text24,local,class=CODE,merge=1,delta=2
    35                           	psect	text25,local,class=CODE,merge=1,delta=2
    36                           	psect	text26,local,class=CODE,merge=1,delta=2
    37                           	psect	text27,local,class=CODE,merge=1,delta=2
    38                           	psect	text28,local,class=CODE,merge=1,delta=2
    39                           	psect	idloc,global,abs,ovrld,class=IDLOC,space=5,delta=2,noexec
    40                           	psect	config,global,abs,ovrld,class=CONFIG,space=4,delta=2,noexec
    41                           	dabs	1,0x7E,2
    42  0000                     
    43                           ; Version 2.40
    44                           ; Generated 17/11/2021 GMT
    45                           ; 
    46                           ; Copyright © 2021, Microchip Technology Inc. and its subsidiaries ("Microchip")
    47                           ; All rights reserved.
    48                           ; 
    49                           ; This software is developed by Microchip Technology Inc. and its subsidiaries ("Microch
      +                          ip").
    50                           ; 
    51                           ; Redistribution and use in source and binary forms, with or without modification, are
    52                           ; permitted provided that the following conditions are met:
    53                           ; 
    54                           ;     1. Redistributions of source code must retain the above copyright notice, this lis
      +                          t of
    55                           ;        conditions and the following disclaimer.
    56                           ; 
    57                           ;     2. Redistributions in binary form must reproduce the above copyright notice, this 
      +                          list
    58                           ;        of conditions and the following disclaimer in the documentation and/or other
    59                           ;        materials provided with the distribution. Publication is not required when
    60                           ;        this file is used in an embedded application.
    61                           ; 
    62                           ;     3. Microchip's name may not be used to endorse or promote products derived from th
      +                          is
    63                           ;        software without specific prior written permission.
    64                           ; 
    65                           ; THIS SOFTWARE IS PROVIDED BY MICROCHIP "AS IS" AND ANY EXPRESS OR IMPLIED WARRANTIES,
    66                           ; INCLUDING, BUT NOT LIMITED TO, THE IMPLIED WARRANTIES OF MERCHANTABILITY AND FITNESS F
      +                          OR
    67                           ; PURPOSE ARE DISCLAIMED.  IN NO EVENT SHALL MICROCHIP BE LIABLE FOR ANY DIRECT, INDIREC
      +                          T,
    68                           ; INCIDENTAL, SPECIAL, EXEMPLARY, OR CONSEQUENTIAL DAMAGES (INCLUDING BUT NOT LIMITED TO
    69                           ; PROCUREMENT OF SUBSTITUTE GOODS OR SERVICES; LOSS OF USE, DATA OR PROFITS; OR BUSINESS
    70                           ; INTERRUPTION) HOWSOEVER CAUSED AND ON ANY THEORY OF LIABILITY, WHETHER IN CONTRACT, ST
      +                          RICT
    71                           ; LIABILITY, OR TORT (INCLUDING NEGLIGENCE OR OTHERWISE) ARISING IN ANY WAY OUT OF THE U
      +                          SE OF
    72                           ; THIS SOFTWARE, EVEN IF ADVISED OF THE POSSIBILITY OF SUCH DAMAGE.
    73                           ; 
    74                           ; 
    75                           ; Code-generator required, PIC16F887 Definitions
    76                           ; 
    77                           ; SFR Addresses
    78  0000                     	;# 
    79  0001                     	;# 
    80  0002                     	;# 
    81  0003                     	;# 
    82  0004                     	;# 
    83  0005                     	;# 
    84  0006                     	;# 
    85  0007                     	;# 
    86  0008                     	;# 
    87  0009                     	;# 
    88  000A                     	;# 
    89  000B                     	;# 
    90  000C                     	;# 
    91  000D                     	;# 
    92  000E                     	;# 
    93  000E                     	;# 
    94  000F                     	;# 
    95  0010                     	;# 
    96  0011                     	;# 
    97  0012                     	;# 
    98  0013                     	;# 
    99  0014                     	;# 
   100  0015                     	;# 
   101  0015                     	;# 
   102  0016                     	;# 
   103  0017                     	;# 
   104  0018                     	;# 
   105  0019                     	;# 
   106  001A                     	;# 
   107  001B                     	;# 
   108  001B                     	;# 
   109  001C                     	;# 
   110  001D                     	;# 
   111  001E                     	;# 
   112  001F                     	;# 
   113  0081                     	;# 
   114  0085                     	;# 
   115  0086                     	;# 
   116  0087                     	;# 
   117  0088                     	;# 
   118  0089                     	;# 
   119  008C                     	;# 
   120  008D                     	;# 
   121  008E                     	;# 
   122  008F                     	;# 
   123  0090                     	;# 
   124  0091                     	;# 
   125  0092                     	;# 
   126  0093                     	;# 
   127  0093                     	;# 
   128  0093                     	;# 
   129  0094                     	;# 
   130  0095                     	;# 
   131  0096                     	;# 
   132  0097                     	;# 
   133  0098                     	;# 
   134  0099                     	;# 
   135  009A                     	;# 
   136  009B                     	;# 
   137  009C                     	;# 
   138  009D                     	;# 
   139  009E                     	;# 
   140  009F                     	;# 
   141  0105                     	;# 
   142  0107                     	;# 
   143  0108                     	;# 
   144  0109                     	;# 
   145  010C                     	;# 
   146  010C                     	;# 
   147  010D                     	;# 
   148  010E                     	;# 
   149  010F                     	;# 
   150  0185                     	;# 
   151  0187                     	;# 
   152  0188                     	;# 
   153  0189                     	;# 
   154  018C                     	;# 
   155  018D                     	;# 
   156  0000                     	;# 
   157  0001                     	;# 
   158  0002                     	;# 
   159  0003                     	;# 
   160  0004                     	;# 
   161  0005                     	;# 
   162  0006                     	;# 
   163  0007                     	;# 
   164  0008                     	;# 
   165  0009                     	;# 
   166  000A                     	;# 
   167  000B                     	;# 
   168  000C                     	;# 
   169  000D                     	;# 
   170  000E                     	;# 
   171  000E                     	;# 
   172  000F                     	;# 
   173  0010                     	;# 
   174  0011                     	;# 
   175  0012                     	;# 
   176  0013                     	;# 
   177  0014                     	;# 
   178  0015                     	;# 
   179  0015                     	;# 
   180  0016                     	;# 
   181  0017                     	;# 
   182  0018                     	;# 
   183  0019                     	;# 
   184  001A                     	;# 
   185  001B                     	;# 
   186  001B                     	;# 
   187  001C                     	;# 
   188  001D                     	;# 
   189  001E                     	;# 
   190  001F                     	;# 
   191  0081                     	;# 
   192  0085                     	;# 
   193  0086                     	;# 
   194  0087                     	;# 
   195  0088                     	;# 
   196  0089                     	;# 
   197  008C                     	;# 
   198  008D                     	;# 
   199  008E                     	;# 
   200  008F                     	;# 
   201  0090                     	;# 
   202  0091                     	;# 
   203  0092                     	;# 
   204  0093                     	;# 
   205  0093                     	;# 
   206  0093                     	;# 
   207  0094                     	;# 
   208  0095                     	;# 
   209  0096                     	;# 
   210  0097                     	;# 
   211  0098                     	;# 
   212  0099                     	;# 
   213  009A                     	;# 
   214  009B                     	;# 
   215  009C                     	;# 
   216  009D                     	;# 
   217  009E                     	;# 
   218  009F                     	;# 
   219  0105                     	;# 
   220  0107                     	;# 
   221  0108                     	;# 
   222  0109                     	;# 
   223  010C                     	;# 
   224  010C                     	;# 
   225  010D                     	;# 
   226  010E                     	;# 
   227  010F                     	;# 
   228  0185                     	;# 
   229  0187                     	;# 
   230  0188                     	;# 
   231  0189                     	;# 
   232  018C                     	;# 
   233  018D                     	;# 
   234  0000                     	;# 
   235  0001                     	;# 
   236  0002                     	;# 
   237  0003                     	;# 
   238  0004                     	;# 
   239  0005                     	;# 
   240  0006                     	;# 
   241  0007                     	;# 
   242  0008                     	;# 
   243  0009                     	;# 
   244  000A                     	;# 
   245  000B                     	;# 
   246  000C                     	;# 
   247  000D                     	;# 
   248  000E                     	;# 
   249  000E                     	;# 
   250  000F                     	;# 
   251  0010                     	;# 
   252  0011                     	;# 
   253  0012                     	;# 
   254  0013                     	;# 
   255  0014                     	;# 
   256  0015                     	;# 
   257  0015                     	;# 
   258  0016                     	;# 
   259  0017                     	;# 
   260  0018                     	;# 
   261  0019                     	;# 
   262  001A                     	;# 
   263  001B                     	;# 
   264  001B                     	;# 
   265  001C                     	;# 
   266  001D                     	;# 
   267  001E                     	;# 
   268  001F                     	;# 
   269  0081                     	;# 
   270  0085                     	;# 
   271  0086                     	;# 
   272  0087                     	;# 
   273  0088                     	;# 
   274  0089                     	;# 
   275  008C                     	;# 
   276  008D                     	;# 
   277  008E                     	;# 
   278  008F                     	;# 
   279  0090                     	;# 
   280  0091                     	;# 
   281  0092                     	;# 
   282  0093                     	;# 
   283  0093                     	;# 
   284  0093                     	;# 
   285  0094                     	;# 
   286  0095                     	;# 
   287  0096                     	;# 
   288  0097                     	;# 
   289  0098                     	;# 
   290  0099                     	;# 
   291  009A                     	;# 
   292  009B                     	;# 
   293  009C                     	;# 
   294  009D                     	;# 
   295  009E                     	;# 
   296  009F                     	;# 
   297  0105                     	;# 
   298  0107                     	;# 
   299  0108                     	;# 
   300  0109                     	;# 
   301  010C                     	;# 
   302  010C                     	;# 
   303  010D                     	;# 
   304  010E                     	;# 
   305  010F                     	;# 
   306  0185                     	;# 
   307  0187                     	;# 
   308  0188                     	;# 
   309  0189                     	;# 
   310  018C                     	;# 
   311  018D                     	;# 
   312  0000                     	;# 
   313  0001                     	;# 
   314  0002                     	;# 
   315  0003                     	;# 
   316  0004                     	;# 
   317  0005                     	;# 
   318  0006                     	;# 
   319  0007                     	;# 
   320  0008                     	;# 
   321  0009                     	;# 
   322  000A                     	;# 
   323  000B                     	;# 
   324  000C                     	;# 
   325  000D                     	;# 
   326  000E                     	;# 
   327  000E                     	;# 
   328  000F                     	;# 
   329  0010                     	;# 
   330  0011                     	;# 
   331  0012                     	;# 
   332  0013                     	;# 
   333  0014                     	;# 
   334  0015                     	;# 
   335  0015                     	;# 
   336  0016                     	;# 
   337  0017                     	;# 
   338  0018                     	;# 
   339  0019                     	;# 
   340  001A                     	;# 
   341  001B                     	;# 
   342  001B                     	;# 
   343  001C                     	;# 
   344  001D                     	;# 
   345  001E                     	;# 
   346  001F                     	;# 
   347  0081                     	;# 
   348  0085                     	;# 
   349  0086                     	;# 
   350  0087                     	;# 
   351  0088                     	;# 
   352  0089                     	;# 
   353  008C                     	;# 
   354  008D                     	;# 
   355  008E                     	;# 
   356  008F                     	;# 
   357  0090                     	;# 
   358  0091                     	;# 
   359  0092                     	;# 
   360  0093                     	;# 
   361  0093                     	;# 
   362  0093                     	;# 
   363  0094                     	;# 
   364  0095                     	;# 
   365  0096                     	;# 
   366  0097                     	;# 
   367  0098                     	;# 
   368  0099                     	;# 
   369  009A                     	;# 
   370  009B                     	;# 
   371  009C                     	;# 
   372  009D                     	;# 
   373  009E                     	;# 
   374  009F                     	;# 
   375  0105                     	;# 
   376  0107                     	;# 
   377  0108                     	;# 
   378  0109                     	;# 
   379  010C                     	;# 
   380  010C                     	;# 
   381  010D                     	;# 
   382  010E                     	;# 
   383  010F                     	;# 
   384  0185                     	;# 
   385  0187                     	;# 
   386  0188                     	;# 
   387  0189                     	;# 
   388  018C                     	;# 
   389  018D                     	;# 
   390  0000                     	;# 
   391  0001                     	;# 
   392  0002                     	;# 
   393  0003                     	;# 
   394  0004                     	;# 
   395  0005                     	;# 
   396  0006                     	;# 
   397  0007                     	;# 
   398  0008                     	;# 
   399  0009                     	;# 
   400  000A                     	;# 
   401  000B                     	;# 
   402  000C                     	;# 
   403  000D                     	;# 
   404  000E                     	;# 
   405  000E                     	;# 
   406  000F                     	;# 
   407  0010                     	;# 
   408  0011                     	;# 
   409  0012                     	;# 
   410  0013                     	;# 
   411  0014                     	;# 
   412  0015                     	;# 
   413  0015                     	;# 
   414  0016                     	;# 
   415  0017                     	;# 
   416  0018                     	;# 
   417  0019                     	;# 
   418  001A                     	;# 
   419  001B                     	;# 
   420  001B                     	;# 
   421  001C                     	;# 
   422  001D                     	;# 
   423  001E                     	;# 
   424  001F                     	;# 
   425  0081                     	;# 
   426  0085                     	;# 
   427  0086                     	;# 
   428  0087                     	;# 
   429  0088                     	;# 
   430  0089                     	;# 
   431  008C                     	;# 
   432  008D                     	;# 
   433  008E                     	;# 
   434  008F                     	;# 
   435  0090                     	;# 
   436  0091                     	;# 
   437  0092                     	;# 
   438  0093                     	;# 
   439  0093                     	;# 
   440  0093                     	;# 
   441  0094                     	;# 
   442  0095                     	;# 
   443  0096                     	;# 
   444  0097                     	;# 
   445  0098                     	;# 
   446  0099                     	;# 
   447  009A                     	;# 
   448  009B                     	;# 
   449  009C                     	;# 
   450  009D                     	;# 
   451  009E                     	;# 
   452  009F                     	;# 
   453  0105                     	;# 
   454  0107                     	;# 
   455  0108                     	;# 
   456  0109                     	;# 
   457  010C                     	;# 
   458  010C                     	;# 
   459  010D                     	;# 
   460  010E                     	;# 
   461  010F                     	;# 
   462  0185                     	;# 
   463  0187                     	;# 
   464  0188                     	;# 
   465  0189                     	;# 
   466  018C                     	;# 
   467  018D                     	;# 
   468  0007                     _PORTC	set	7
   469  0005                     _PORTA	set	5
   470  001A                     _RCREG	set	26
   471  000C                     _PIR1bits	set	12
   472  0019                     _TXREG	set	25
   473  0018                     _RCSTAbits	set	24
   474  001E                     _ADRESH	set	30
   475  001F                     _ADCON0bits	set	31
   476  0008                     _PORTD	set	8
   477  0039                     _RC1	set	57
   478  0038                     _RC0	set	56
   479  009F                     _ADCON1bits	set	159
   480  0087                     _TRISC	set	135
   481  0088                     _TRISD	set	136
   482  0085                     _TRISA	set	133
   483  009A                     _SPBRGH	set	154
   484  0099                     _SPBRG	set	153
   485  0098                     _TXSTAbits	set	152
   486  008F                     _OSCCONbits	set	143
   487  0189                     _ANSELH	set	393
   488  0188                     _ANSEL	set	392
   489  0187                     _BAUDCTLbits	set	391
   490                           
   491                           	psect	strings
   492  0800                     __pstrings:
   493  0800                     stringtab:
   494  0800                     __stringtab:
   495  0800                     stringcode:	
   496                           ;	String table - string pointers are 1 byte each
   497                           
   498  0800                     stringdir:
   499  0800  3008               	movlw	high stringdir
   500  0801  008A               	movwf	10
   501  0802  0804               	movf	4,w
   502  0803  0A84               	incf	4,f
   503  0804  0782               	addwf	2,f
   504  0805                     __stringbase:
   505  0805  3400               	retlw	0
   506  0806                     __end_of__stringtab:
   507  0806                     STR_1:
   508  0806  340A               	retlw	10
   509  0807  340D               	retlw	13
   510  0808  342B               	retlw	43	;'+'
   511  0809  3420               	retlw	32	;' '
   512  080A  3441               	retlw	65	;'A'
   513  080B  3475               	retlw	117	;'u'
   514  080C  346D               	retlw	109	;'m'
   515  080D  3465               	retlw	101	;'e'
   516  080E  346E               	retlw	110	;'n'
   517  080F  3474               	retlw	116	;'t'
   518  0810  3461               	retlw	97	;'a'
   519  0811  3472               	retlw	114	;'r'
   520  0812  3420               	retlw	32	;' '
   521  0813  3463               	retlw	99	;'c'
   522  0814  346F               	retlw	111	;'o'
   523  0815  346E               	retlw	110	;'n'
   524  0816  3474               	retlw	116	;'t'
   525  0817  3461               	retlw	97	;'a'
   526  0818  3464               	retlw	100	;'d'
   527  0819  346F               	retlw	111	;'o'
   528  081A  3472               	retlw	114	;'r'
   529  081B  340A               	retlw	10
   530  081C  340D               	retlw	13
   531  081D  3400               	retlw	0
   532  081E                     STR_2:
   533  081E  342D               	retlw	45	;'-'
   534  081F  3420               	retlw	32	;' '
   535  0820  3444               	retlw	68	;'D'
   536  0821  3469               	retlw	105	;'i'
   537  0822  3473               	retlw	115	;'s'
   538  0823  346D               	retlw	109	;'m'
   539  0824  3469               	retlw	105	;'i'
   540  0825  346E               	retlw	110	;'n'
   541  0826  3475               	retlw	117	;'u'
   542  0827  3469               	retlw	105	;'i'
   543  0828  3472               	retlw	114	;'r'
   544  0829  3420               	retlw	32	;' '
   545  082A  3463               	retlw	99	;'c'
   546  082B  346F               	retlw	111	;'o'
   547  082C  346E               	retlw	110	;'n'
   548  082D  3474               	retlw	116	;'t'
   549  082E  3461               	retlw	97	;'a'
   550  082F  3464               	retlw	100	;'d'
   551  0830  346F               	retlw	111	;'o'
   552  0831  3472               	retlw	114	;'r'
   553  0832  340A               	retlw	10
   554  0833  340D               	retlw	13
   555  0834  3400               	retlw	0
   556  0835                     STR_3:
   557  0835  3456               	retlw	86	;'V'
   558  0836  346F               	retlw	111	;'o'
   559  0837  346C               	retlw	108	;'l'
   560  0838  3474               	retlw	116	;'t'
   561  0839  3461               	retlw	97	;'a'
   562  083A  346A               	retlw	106	;'j'
   563  083B  3465               	retlw	101	;'e'
   564  083C  3420               	retlw	32	;' '
   565  083D  3464               	retlw	100	;'d'
   566  083E  3465               	retlw	101	;'e'
   567  083F  3420               	retlw	32	;' '
   568  0840  3450               	retlw	80	;'P'
   569  0841  344F               	retlw	79	;'O'
   570  0842  3454               	retlw	84	;'T'
   571  0843  343A               	retlw	58	;':'
   572  0844  3420               	retlw	32	;' '
   573  0845  3400               	retlw	0
   574  0846                     STR_6:
   575  0846  340A               	retlw	10
   576  0847  340D               	retlw	13
   577  0848  340A               	retlw	10
   578  0849  340D               	retlw	13
   579  084A  3400               	retlw	0
   580  084B                     STR_10:
   581  084B  3443               	retlw	67	;'C'
   582  084C  3450               	retlw	80	;'P'
   583  084D  3455               	retlw	85	;'U'
   584  084E  343A               	retlw	58	;':'
   585  084F  3400               	retlw	0
   586  0850                     STR_7:
   587  0850  3450               	retlw	80	;'P'
   588  0851  344F               	retlw	79	;'O'
   589  0852  3454               	retlw	84	;'T'
   590  0853  3400               	retlw	0
   591  0854                     STR_4:
   592  0854  342E               	retlw	46	;'.'
   593  0855  3400               	retlw	0
   594  0856                     STR_5:
   595  0856  3456               	retlw	86	;'V'
   596  0857  3400               	retlw	0
   597  0854                     
   598                           	psect	cinit
   599  07F4                     start_initialization:	
   600                           ; #config settings
   601                           
   602  07F4                     __initialization:
   603                           
   604                           ; Clear objects allocated to BANK1
   605  07F4  1683               	bsf	3,5	;RP0=1, select bank1
   606  07F5  1303               	bcf	3,6	;RP1=0, select bank1
   607  07F6  01CA               	clrf	__pbssBANK1& (0+127)
   608  07F7  01CB               	clrf	(__pbssBANK1+1)& (0+127)
   609  07F8  01CC               	clrf	(__pbssBANK1+2)& (0+127)
   610  07F9  01CD               	clrf	(__pbssBANK1+3)& (0+127)
   611  07FA  01CE               	clrf	(__pbssBANK1+4)& (0+127)
   612  07FB  01CF               	clrf	(__pbssBANK1+5)& (0+127)
   613  07FC                     end_of_initialization:	
   614                           ;End of C runtime variable initialization code
   615                           
   616  07FC                     __end_of__initialization:
   617  07FC  0183               	clrf	3
   618  07FD  120A  158A  2E78   	ljmp	_main	;jump to C main() function
   619                           
   620                           	psect	bssBANK1
   621  00CA                     __pbssBANK1:
   622  00CA                     _centena:
   623  00CA                     	ds	1
   624  00CB                     _decena:
   625  00CB                     	ds	1
   626  00CC                     _unidad:
   627  00CC                     	ds	1
   628  00CD                     _cont:
   629  00CD                     	ds	1
   630  00CE                     _POT:
   631  00CE                     	ds	1
   632  00CF                     _old_pot:
   633  00CF                     	ds	1
   634                           
   635                           	psect	cstackBANK1
   636  00A0                     __pcstackBANK1:
   637  00A0                     ?___flsub:
   638  00A0                     ___flsub@a:	
   639                           ; 4 bytes @ 0x0
   640                           
   641                           
   642                           ; 4 bytes @ 0x0
   643  00A0                     	ds	4
   644  00A4                     ___flsub@b:
   645                           
   646                           ; 4 bytes @ 0x4
   647  00A4                     	ds	4
   648  00A8                     ___awdiv@counter:
   649                           
   650                           ; 1 bytes @ 0x8
   651  00A8                     	ds	1
   652  00A9                     ___awdiv@sign:
   653                           
   654                           ; 1 bytes @ 0x9
   655  00A9                     	ds	1
   656  00AA                     ___awdiv@quotient:
   657                           
   658                           ; 2 bytes @ 0xA
   659  00AA                     	ds	2
   660  00AC                     ??_DECENA:
   661                           
   662                           ; 1 bytes @ 0xC
   663  00AC                     	ds	7
   664  00B3                     _DECENA$1084:
   665                           
   666                           ; 4 bytes @ 0x13
   667  00B3                     	ds	4
   668  00B7                     DECENA@c:
   669                           
   670                           ; 1 bytes @ 0x17
   671  00B7                     	ds	1
   672  00B8                     ??_UNIDAD:
   673                           
   674                           ; 1 bytes @ 0x18
   675  00B8                     	ds	4
   676  00BC                     _UNIDAD$1085:
   677                           
   678                           ; 4 bytes @ 0x1C
   679  00BC                     	ds	4
   680  00C0                     _UNIDAD$1087:
   681                           
   682                           ; 4 bytes @ 0x20
   683  00C0                     	ds	4
   684  00C4                     _UNIDAD$1086:
   685                           
   686                           ; 2 bytes @ 0x24
   687  00C4                     	ds	2
   688  00C6                     UNIDAD@c:
   689                           
   690                           ; 1 bytes @ 0x26
   691  00C6                     	ds	1
   692  00C7                     ??_main:
   693                           
   694                           ; 1 bytes @ 0x27
   695  00C7                     	ds	3
   696                           
   697                           	psect	cstackCOMMON
   698  0070                     __pcstackCOMMON:
   699  0070                     ?_setup:
   700  0070                     ?_LCD_PORT8:	
   701                           ; 1 bytes @ 0x0
   702                           
   703  0070                     ??_LCD_PORT8:	
   704                           ; 1 bytes @ 0x0
   705                           
   706  0070                     ?_LCD_COM8:	
   707                           ; 1 bytes @ 0x0
   708                           
   709  0070                     ?_LCD_CLEAR8:	
   710                           ; 1 bytes @ 0x0
   711                           
   712  0070                     ?_LCD_INIT8:	
   713                           ; 1 bytes @ 0x0
   714                           
   715  0070                     ?_LCD_CHAR8:	
   716                           ; 1 bytes @ 0x0
   717                           
   718  0070                     ?_LCD_STRING8:	
   719                           ; 1 bytes @ 0x0
   720                           
   721  0070                     ?_CENTENA:	
   722                           ; 1 bytes @ 0x0
   723                           
   724  0070                     ?_DECENA:	
   725                           ; 1 bytes @ 0x0
   726                           
   727  0070                     ?_UNIDAD:	
   728                           ; 1 bytes @ 0x0
   729                           
   730  0070                     ?_OSCILLATOR:	
   731                           ; 1 bytes @ 0x0
   732                           
   733  0070                     ??_OSCILLATOR:	
   734                           ; 1 bytes @ 0x0
   735                           
   736  0070                     ?_ADC_INIT:	
   737                           ; 1 bytes @ 0x0
   738                           
   739  0070                     ?_USART_CHAR:	
   740                           ; 1 bytes @ 0x0
   741                           
   742  0070                     ??_USART_CHAR:	
   743                           ; 1 bytes @ 0x0
   744                           
   745  0070                     ?_USART_WRITE:	
   746                           ; 1 bytes @ 0x0
   747                           
   748  0070                     ?_USART_READ:	
   749                           ; 1 bytes @ 0x0
   750                           
   751  0070                     ??_USART_READ:	
   752                           ; 1 bytes @ 0x0
   753                           
   754  0070                     ?_main:	
   755                           ; 1 bytes @ 0x0
   756                           
   757  0070                     ?__Umul8_16:	
   758                           ; 1 bytes @ 0x0
   759                           
   760  0070                     ?_ADC_READ:	
   761                           ; 2 bytes @ 0x0
   762                           
   763  0070                     ?___aldiv:	
   764                           ; 2 bytes @ 0x0
   765                           
   766  0070                     ?___fladd:	
   767                           ; 4 bytes @ 0x0
   768                           
   769  0070                     ?___xxtofl:	
   770                           ; 4 bytes @ 0x0
   771                           
   772  0070                     LCD_PORT8@a:	
   773                           ; 4 bytes @ 0x0
   774                           
   775  0070                     USART_CHAR@d:	
   776                           ; 1 bytes @ 0x0
   777                           
   778  0070                     __Umul8_16@multiplicand:	
   779                           ; 1 bytes @ 0x0
   780                           
   781  0070                     ADC_INIT@c:	
   782                           ; 1 bytes @ 0x0
   783                           
   784  0070                     ___aldiv@divisor:	
   785                           ; 2 bytes @ 0x0
   786                           
   787  0070                     ___fladd@b:	
   788                           ; 4 bytes @ 0x0
   789                           
   790  0070                     ___xxtofl@val:	
   791                           ; 4 bytes @ 0x0
   792                           
   793                           
   794                           ; 4 bytes @ 0x0
   795  0070                     	ds	1
   796  0071                     ??_LCD_COM8:
   797  0071                     ??_LCD_CLEAR8:	
   798                           ; 1 bytes @ 0x1
   799                           
   800  0071                     ??_LCD_CHAR8:	
   801                           ; 1 bytes @ 0x1
   802                           
   803  0071                     ??_USART_WRITE:	
   804                           ; 1 bytes @ 0x1
   805                           
   806                           
   807                           ; 1 bytes @ 0x1
   808  0071                     	ds	1
   809  0072                     ??__Umul8_16:
   810  0072                     ??_ADC_INIT:	
   811                           ; 1 bytes @ 0x2
   812                           
   813  0072                     ??_ADC_READ:	
   814                           ; 1 bytes @ 0x2
   815                           
   816  0072                     OSCILLATOR@f:	
   817                           ; 1 bytes @ 0x2
   818                           
   819  0072                     USART_WRITE@c:	
   820                           ; 1 bytes @ 0x2
   821                           
   822                           
   823                           ; 1 bytes @ 0x2
   824  0072                     	ds	1
   825  0073                     LCD_COM8@a:
   826  0073                     LCD_CHAR8@a:	
   827                           ; 1 bytes @ 0x3
   828                           
   829                           
   830                           ; 1 bytes @ 0x3
   831  0073                     	ds	1
   832  0074                     ?_LCD_XY8:
   833  0074                     ??_LCD_INIT8:	
   834                           ; 1 bytes @ 0x4
   835                           
   836  0074                     ??_LCD_STRING8:	
   837                           ; 1 bytes @ 0x4
   838                           
   839  0074                     ??___xxtofl:	
   840                           ; 1 bytes @ 0x4
   841                           
   842  0074                     LCD_XY8@y:	
   843                           ; 1 bytes @ 0x4
   844                           
   845  0074                     LCD_STRING8@i:	
   846                           ; 1 bytes @ 0x4
   847                           
   848  0074                     __Umul8_16@product:	
   849                           ; 2 bytes @ 0x4
   850                           
   851  0074                     ___aldiv@dividend:	
   852                           ; 2 bytes @ 0x4
   853                           
   854  0074                     ___fladd@a:	
   855                           ; 4 bytes @ 0x4
   856                           
   857                           
   858                           ; 4 bytes @ 0x4
   859  0074                     	ds	1
   860  0075                     ??_LCD_XY8:
   861  0075                     LCD_XY8@x:	
   862                           ; 1 bytes @ 0x5
   863                           
   864                           
   865                           ; 1 bytes @ 0x5
   866  0075                     	ds	1
   867  0076                     LCD_STRING8@a:
   868  0076                     __Umul8_16@word_mpld:	
   869                           ; 1 bytes @ 0x6
   870                           
   871                           
   872                           ; 2 bytes @ 0x6
   873  0076                     	ds	2
   874  0078                     ??___aldiv:
   875  0078                     ___fladd@signs:	
   876                           ; 1 bytes @ 0x8
   877                           
   878  0078                     __Umul8_16@multiplier:	
   879                           ; 1 bytes @ 0x8
   880                           
   881  0078                     ___xxtofl@sign:	
   882                           ; 1 bytes @ 0x8
   883                           
   884                           
   885                           ; 1 bytes @ 0x8
   886  0078                     	ds	1
   887  0079                     ??_USART_INIT:
   888  0079                     ___fladd@aexp:	
   889                           ; 1 bytes @ 0x9
   890                           
   891  0079                     ___xxtofl@exp:	
   892                           ; 1 bytes @ 0x9
   893                           
   894                           
   895                           ; 1 bytes @ 0x9
   896  0079                     	ds	1
   897  007A                     ??_setup:
   898  007A                     ___fladd@bexp:	
   899                           ; 1 bytes @ 0xA
   900                           
   901  007A                     ___xxtofl@arg:	
   902                           ; 1 bytes @ 0xA
   903                           
   904                           
   905                           ; 4 bytes @ 0xA
   906  007A                     	ds	1
   907  007B                     ___fladd@grs:
   908                           
   909                           ; 1 bytes @ 0xB
   910  007B                     	ds	3
   911  007E                     ??___wmul:
   912  007E                     ??___flsub:	
   913                           ; 1 bytes @ 0xE
   914                           
   915                           
   916                           	psect	cstackBANK0
   917  0020                     __pcstackBANK0:	
   918                           ; 1 bytes @ 0xE
   919                           
   920  0020                     ??___fladd:
   921  0020                     ?___flmul:	
   922                           ; 1 bytes @ 0x0
   923                           
   924  0020                     ___aldiv@counter:	
   925                           ; 4 bytes @ 0x0
   926                           
   927  0020                     ___flmul@b:	
   928                           ; 1 bytes @ 0x0
   929                           
   930                           
   931                           ; 4 bytes @ 0x0
   932  0020                     	ds	1
   933  0021                     ___aldiv@sign:
   934                           
   935                           ; 1 bytes @ 0x1
   936  0021                     	ds	1
   937  0022                     ___aldiv@quotient:
   938                           
   939                           ; 4 bytes @ 0x2
   940  0022                     	ds	2
   941  0024                     ___flmul@a:
   942                           
   943                           ; 4 bytes @ 0x4
   944  0024                     	ds	2
   945  0026                     ?_USART_INIT:
   946  0026                     USART_INIT@BAUD:	
   947                           ; 1 bytes @ 0x6
   948                           
   949                           
   950                           ; 2 bytes @ 0x6
   951  0026                     	ds	2
   952  0028                     ??___flmul:
   953  0028                     _USART_INIT$1088:	
   954                           ; 1 bytes @ 0x8
   955                           
   956                           
   957                           ; 4 bytes @ 0x8
   958  0028                     	ds	4
   959  002C                     USART_INIT@n:
   960                           
   961                           ; 1 bytes @ 0xC
   962  002C                     	ds	1
   963  002D                     ___flmul@sign:
   964                           
   965                           ; 1 bytes @ 0xD
   966  002D                     	ds	1
   967  002E                     ___flmul@grs:
   968                           
   969                           ; 4 bytes @ 0xE
   970  002E                     	ds	4
   971  0032                     ___flmul@aexp:
   972                           
   973                           ; 1 bytes @ 0x12
   974  0032                     	ds	1
   975  0033                     ___flmul@bexp:
   976                           
   977                           ; 1 bytes @ 0x13
   978  0033                     	ds	1
   979  0034                     ___flmul@prod:
   980                           
   981                           ; 4 bytes @ 0x14
   982  0034                     	ds	4
   983  0038                     ___flmul@temp:
   984                           
   985                           ; 2 bytes @ 0x18
   986  0038                     	ds	2
   987  003A                     ?___fldiv:
   988  003A                     ___fldiv@a:	
   989                           ; 4 bytes @ 0x1A
   990                           
   991                           
   992                           ; 4 bytes @ 0x1A
   993  003A                     	ds	4
   994  003E                     ___fldiv@b:
   995                           
   996                           ; 4 bytes @ 0x1E
   997  003E                     	ds	4
   998  0042                     ??___fldiv:
   999                           
  1000                           ; 1 bytes @ 0x22
  1001  0042                     	ds	5
  1002  0047                     ___fldiv@rem:
  1003                           
  1004                           ; 4 bytes @ 0x27
  1005  0047                     	ds	4
  1006  004B                     ___fldiv@sign:
  1007                           
  1008                           ; 1 bytes @ 0x2B
  1009  004B                     	ds	1
  1010  004C                     ___fldiv@new_exp:
  1011                           
  1012                           ; 2 bytes @ 0x2C
  1013  004C                     	ds	2
  1014  004E                     ___fldiv@grs:
  1015                           
  1016                           ; 4 bytes @ 0x2E
  1017  004E                     	ds	4
  1018  0052                     ___fldiv@bexp:
  1019                           
  1020                           ; 1 bytes @ 0x32
  1021  0052                     	ds	1
  1022  0053                     ___fldiv@aexp:
  1023                           
  1024                           ; 1 bytes @ 0x33
  1025  0053                     	ds	1
  1026  0054                     ?___fltol:
  1027  0054                     ___fltol@f1:	
  1028                           ; 4 bytes @ 0x34
  1029                           
  1030                           
  1031                           ; 4 bytes @ 0x34
  1032  0054                     	ds	4
  1033  0058                     ??___fltol:
  1034                           
  1035                           ; 1 bytes @ 0x38
  1036  0058                     	ds	5
  1037  005D                     ___fltol@sign1:
  1038                           
  1039                           ; 1 bytes @ 0x3D
  1040  005D                     	ds	1
  1041  005E                     ___fltol@exp1:
  1042                           
  1043                           ; 1 bytes @ 0x3E
  1044  005E                     	ds	1
  1045  005F                     ??_CENTENA:
  1046                           
  1047                           ; 1 bytes @ 0x3F
  1048  005F                     	ds	5
  1049  0064                     CENTENA@c:
  1050                           
  1051                           ; 1 bytes @ 0x44
  1052  0064                     	ds	1
  1053  0065                     ?___wmul:
  1054  0065                     ___wmul@multiplier:	
  1055                           ; 2 bytes @ 0x45
  1056                           
  1057                           
  1058                           ; 2 bytes @ 0x45
  1059  0065                     	ds	2
  1060  0067                     ___wmul@multiplicand:
  1061                           
  1062                           ; 2 bytes @ 0x47
  1063  0067                     	ds	2
  1064  0069                     ___wmul@product:
  1065                           
  1066                           ; 2 bytes @ 0x49
  1067  0069                     	ds	2
  1068  006B                     ?___awdiv:
  1069  006B                     ___awdiv@divisor:	
  1070                           ; 2 bytes @ 0x4B
  1071                           
  1072                           
  1073                           ; 2 bytes @ 0x4B
  1074  006B                     	ds	2
  1075  006D                     ___awdiv@dividend:
  1076                           
  1077                           ; 2 bytes @ 0x4D
  1078  006D                     	ds	2
  1079  006F                     ??___awdiv:
  1080                           
  1081                           ; 1 bytes @ 0x4F
  1082  006F                     	ds	1
  1083                           
  1084                           	psect	maintext
  1085  0E78                     __pmaintext:	
  1086 ;;
  1087 ;;Main: autosize = 0, tempsize = 3, incstack = 0, save=0
  1088 ;;
  1089 ;; *************** function _main *****************
  1090 ;; Defined at:
  1091 ;;		line 53 in file "MAIN.c"
  1092 ;; Parameters:    Size  Location     Type
  1093 ;;		None
  1094 ;; Auto vars:     Size  Location     Type
  1095 ;;		None
  1096 ;; Return value:  Size  Location     Type
  1097 ;;                  1    wreg      void 
  1098 ;; Registers used:
  1099 ;;		wreg, fsr0l, fsr0h, status,2, status,0, btemp+1, pclath, cstack
  1100 ;; Tracked objects:
  1101 ;;		On entry : B00/0
  1102 ;;		On exit  : 0/0
  1103 ;;		Unchanged: 0/0
  1104 ;; Data sizes:     COMMON   BANK0   BANK1   BANK3   BANK2
  1105 ;;      Params:         0       0       0       0       0
  1106 ;;      Locals:         0       0       0       0       0
  1107 ;;      Temps:          0       0       3       0       0
  1108 ;;      Totals:         0       0       3       0       0
  1109 ;;Total ram usage:        3 bytes
  1110 ;; Hardware stack levels required when called: 5
  1111 ;; This function calls:
  1112 ;;		_ADC_READ
  1113 ;;		_CENTENA
  1114 ;;		_DECENA
  1115 ;;		_LCD_CHAR8
  1116 ;;		_LCD_CLEAR8
  1117 ;;		_LCD_STRING8
  1118 ;;		_LCD_XY8
  1119 ;;		_UNIDAD
  1120 ;;		_USART_CHAR
  1121 ;;		_USART_READ
  1122 ;;		_USART_WRITE
  1123 ;;		_setup
  1124 ;; This function is called by:
  1125 ;;		Startup code after reset
  1126 ;; This function uses a non-reentrant model
  1127 ;;
  1128                           
  1129  0E78                     _main:	
  1130                           ;psect for function _main
  1131                           
  1132  0E78                     l2695:	
  1133                           ;incstack = 0
  1134                           ; Regs used in _main: [wreg-fsr0h+status,2+status,0+btemp+1+pclath+cstack]
  1135                           
  1136                           
  1137                           ;MAIN.c: 55:     setup();
  1138  0E78  160A  118A  27B3  120A  158A  	fcall	_setup
  1139  0E7D                     l2697:
  1140                           
  1141                           ;MAIN.c: 57:         old_pot = POT;
  1142  0E7D  1683               	bsf	3,5	;RP0=1, select bank1
  1143  0E7E  1303               	bcf	3,6	;RP1=0, select bank1
  1144  0E7F  084E               	movf	_POT^(0+128),w
  1145  0E80  00C7               	movwf	??_main^(0+128)
  1146  0E81  0847               	movf	??_main^(0+128),w
  1147  0E82  00CF               	movwf	_old_pot^(0+128)
  1148  0E83                     l2699:
  1149                           
  1150                           ;MAIN.c: 60:         if (ADCON0bits.GO == 0){
  1151  0E83  1283               	bcf	3,5	;RP0=0, select bank0
  1152  0E84  1303               	bcf	3,6	;RP1=0, select bank0
  1153  0E85  189F               	btfsc	31,1	;volatile
  1154  0E86  2E88               	goto	u3471
  1155  0E87  2E89               	goto	u3470
  1156  0E88                     u3471:
  1157  0E88  2E97               	goto	l2705
  1158  0E89                     u3470:
  1159  0E89                     l2701:
  1160                           
  1161                           ;MAIN.c: 61:             POT= ADC_READ();
  1162  0E89  160A  118A  2676  120A  158A  	fcall	_ADC_READ
  1163  0E8E  0870               	movf	?_ADC_READ,w
  1164  0E8F  1683               	bsf	3,5	;RP0=1, select bank1
  1165  0E90  1303               	bcf	3,6	;RP1=0, select bank1
  1166  0E91  00C7               	movwf	??_main^(0+128)
  1167  0E92  0847               	movf	??_main^(0+128),w
  1168  0E93  00CE               	movwf	_POT^(0+128)
  1169  0E94                     l2703:
  1170                           
  1171                           ;MAIN.c: 62:             ADCON0bits.GO = 1;
  1172  0E94  1283               	bcf	3,5	;RP0=0, select bank0
  1173  0E95  1303               	bcf	3,6	;RP1=0, select bank0
  1174  0E96  149F               	bsf	31,1	;volatile
  1175  0E97                     l2705:
  1176                           
  1177                           ;MAIN.c: 65:         centena = CENTENA(POT);
  1178  0E97  1683               	bsf	3,5	;RP0=1, select bank1
  1179  0E98  1303               	bcf	3,6	;RP1=0, select bank1
  1180  0E99  084E               	movf	_POT^(0+128),w
  1181  0E9A  120A  158A  2138  120A  158A  	fcall	_CENTENA
  1182  0E9F  1683               	bsf	3,5	;RP0=1, select bank1
  1183  0EA0  1303               	bcf	3,6	;RP1=0, select bank1
  1184  0EA1  00C7               	movwf	??_main^(0+128)
  1185  0EA2  0847               	movf	??_main^(0+128),w
  1186  0EA3  00CA               	movwf	_centena^(0+128)
  1187  0EA4                     l2707:
  1188                           
  1189                           ;MAIN.c: 66:         decena = DECENA(POT);
  1190  0EA4  084E               	movf	_POT^(0+128),w
  1191  0EA5  120A  158A  248D  120A  158A  	fcall	_DECENA
  1192  0EAA  1683               	bsf	3,5	;RP0=1, select bank1
  1193  0EAB  1303               	bcf	3,6	;RP1=0, select bank1
  1194  0EAC  00C7               	movwf	??_main^(0+128)
  1195  0EAD  0847               	movf	??_main^(0+128),w
  1196  0EAE  00CB               	movwf	_decena^(0+128)
  1197  0EAF                     l2709:
  1198                           
  1199                           ;MAIN.c: 67:         unidad = UNIDAD(POT);
  1200  0EAF  084E               	movf	_POT^(0+128),w
  1201  0EB0  120A  158A  2566  120A  158A  	fcall	_UNIDAD
  1202  0EB5  1683               	bsf	3,5	;RP0=1, select bank1
  1203  0EB6  1303               	bcf	3,6	;RP1=0, select bank1
  1204  0EB7  00C7               	movwf	??_main^(0+128)
  1205  0EB8  0847               	movf	??_main^(0+128),w
  1206  0EB9  00CC               	movwf	_unidad^(0+128)
  1207  0EBA                     l2711:
  1208                           
  1209                           ;MAIN.c: 69:         centena += 48;
  1210  0EBA  3030               	movlw	48
  1211  0EBB  00C7               	movwf	??_main^(0+128)
  1212  0EBC  0847               	movf	??_main^(0+128),w
  1213  0EBD  07CA               	addwf	_centena^(0+128),f
  1214  0EBE                     l2713:
  1215                           
  1216                           ;MAIN.c: 70:         decena += 48;
  1217  0EBE  3030               	movlw	48
  1218  0EBF  00C7               	movwf	??_main^(0+128)
  1219  0EC0  0847               	movf	??_main^(0+128),w
  1220  0EC1  07CB               	addwf	_decena^(0+128),f
  1221  0EC2                     l2715:
  1222                           
  1223                           ;MAIN.c: 71:         unidad += 48;
  1224  0EC2  3030               	movlw	48
  1225  0EC3  00C7               	movwf	??_main^(0+128)
  1226  0EC4  0847               	movf	??_main^(0+128),w
  1227  0EC5  07CC               	addwf	_unidad^(0+128),f
  1228  0EC6                     l2717:
  1229                           
  1230                           ;MAIN.c: 73:         cont = USART_READ();
  1231  0EC6  160A  118A  268C  120A  158A  	fcall	_USART_READ
  1232  0ECB  1683               	bsf	3,5	;RP0=1, select bank1
  1233  0ECC  1303               	bcf	3,6	;RP1=0, select bank1
  1234  0ECD  00C7               	movwf	??_main^(0+128)
  1235  0ECE  0847               	movf	??_main^(0+128),w
  1236  0ECF  00CD               	movwf	_cont^(0+128)
  1237  0ED0                     l2719:
  1238                           
  1239                           ;MAIN.c: 75:         if(cont == '+'){
  1240  0ED0  302B               	movlw	43
  1241  0ED1  064D               	xorwf	_cont^(0+128),w
  1242  0ED2  1D03               	btfss	3,2
  1243  0ED3  2ED5               	goto	u3481
  1244  0ED4  2ED6               	goto	u3480
  1245  0ED5                     u3481:
  1246  0ED5  2EDD               	goto	l2723
  1247  0ED6                     u3480:
  1248  0ED6                     l2721:
  1249                           
  1250                           ;MAIN.c: 76:             PORTA++;
  1251  0ED6  3001               	movlw	1
  1252  0ED7  00C7               	movwf	??_main^(0+128)
  1253  0ED8  0847               	movf	??_main^(0+128),w
  1254  0ED9  1283               	bcf	3,5	;RP0=0, select bank0
  1255  0EDA  1303               	bcf	3,6	;RP1=0, select bank0
  1256  0EDB  0785               	addwf	5,f	;volatile
  1257                           
  1258                           ;MAIN.c: 77:         }else if(cont == '-'){
  1259  0EDC  2EE7               	goto	l2727
  1260  0EDD                     l2723:
  1261  0EDD  302D               	movlw	45
  1262  0EDE  064D               	xorwf	_cont^(0+128),w
  1263  0EDF  1D03               	btfss	3,2
  1264  0EE0  2EE2               	goto	u3491
  1265  0EE1  2EE3               	goto	u3490
  1266  0EE2                     u3491:
  1267  0EE2  2EE7               	goto	l2727
  1268  0EE3                     u3490:
  1269  0EE3                     l2725:
  1270                           
  1271                           ;MAIN.c: 78:             PORTA--;
  1272  0EE3  3001               	movlw	1
  1273  0EE4  1283               	bcf	3,5	;RP0=0, select bank0
  1274  0EE5  1303               	bcf	3,6	;RP1=0, select bank0
  1275  0EE6  0285               	subwf	5,f	;volatile
  1276  0EE7                     l2727:
  1277                           
  1278                           ;MAIN.c: 80:         cont = 0;
  1279  0EE7  1683               	bsf	3,5	;RP0=1, select bank1
  1280  0EE8  1303               	bcf	3,6	;RP1=0, select bank1
  1281  0EE9  01CD               	clrf	_cont^(0+128)
  1282  0EEA                     l2729:
  1283                           
  1284                           ;MAIN.c: 82:         if(old_pot != POT){
  1285  0EEA  084F               	movf	_old_pot^(0+128),w
  1286  0EEB  064E               	xorwf	_POT^(0+128),w
  1287  0EEC  1903               	skipnz
  1288  0EED  2EEF               	goto	u3501
  1289  0EEE  2EF0               	goto	u3500
  1290  0EEF                     u3501:
  1291  0EEF  2F4A               	goto	l219
  1292  0EF0                     u3500:
  1293  0EF0                     l2731:
  1294                           
  1295                           ;MAIN.c: 83:             _delay((unsigned long)((100)*(8000000/4000.0)));
  1296  0EF0  3002               	movlw	2
  1297  0EF1  1683               	bsf	3,5	;RP0=1, select bank1
  1298  0EF2  1303               	bcf	3,6	;RP1=0, select bank1
  1299  0EF3  00C9               	movwf	(??_main^(0+128)+2)
  1300  0EF4  3004               	movlw	4
  1301  0EF5  00C8               	movwf	(??_main^(0+128)+1)
  1302  0EF6  30B9               	movlw	185
  1303  0EF7  00C7               	movwf	??_main^(0+128)
  1304  0EF8                     u3517:
  1305  0EF8  0BC7               	decfsz	??_main^(0+128),f
  1306  0EF9  2EF8               	goto	u3517
  1307  0EFA  0BC8               	decfsz	(??_main^(0+128)+1),f
  1308  0EFB  2EF8               	goto	u3517
  1309  0EFC  0BC9               	decfsz	(??_main^(0+128)+2),f
  1310  0EFD  2EF8               	goto	u3517
  1311  0EFE  2EFF               	nop2
  1312  0EFF                     l2733:
  1313                           
  1314                           ;MAIN.c: 84:             USART_WRITE("\n\r+ Aumentar contador\n\r");
  1315  0EFF  3001               	movlw	(low ((STR_1-__stringbase)| (0+32768)))& (0+255)
  1316  0F00  160A  118A  26D8  120A  158A  	fcall	_USART_WRITE
  1317  0F05                     l2735:
  1318                           
  1319                           ;MAIN.c: 85:             USART_WRITE("- Disminuir contador\n\r");
  1320  0F05  3019               	movlw	(low ((STR_2-__stringbase)| (0+32768)))& (0+255)
  1321  0F06  160A  118A  26D8  120A  158A  	fcall	_USART_WRITE
  1322  0F0B                     l2737:
  1323                           
  1324                           ;MAIN.c: 86:             USART_WRITE("Voltaje de POT: ");
  1325  0F0B  3030               	movlw	(low ((STR_3-__stringbase)| (0+32768)))& (0+255)
  1326  0F0C  160A  118A  26D8  120A  158A  	fcall	_USART_WRITE
  1327  0F11                     l2739:
  1328                           
  1329                           ;MAIN.c: 87:             USART_CHAR(centena);
  1330  0F11  1683               	bsf	3,5	;RP0=1, select bank1
  1331  0F12  1303               	bcf	3,6	;RP1=0, select bank1
  1332  0F13  084A               	movf	_centena^(0+128),w
  1333  0F14  160A  118A  2680  120A  158A  	fcall	_USART_CHAR
  1334  0F19                     l2741:
  1335                           
  1336                           ;MAIN.c: 88:             USART_WRITE(".");
  1337  0F19  304F               	movlw	(low ((STR_4-__stringbase)| (0+32768)))& (0+255)
  1338  0F1A  160A  118A  26D8  120A  158A  	fcall	_USART_WRITE
  1339  0F1F                     l2743:
  1340                           
  1341                           ;MAIN.c: 89:             USART_CHAR(decena);
  1342  0F1F  1683               	bsf	3,5	;RP0=1, select bank1
  1343  0F20  1303               	bcf	3,6	;RP1=0, select bank1
  1344  0F21  084B               	movf	_decena^(0+128),w
  1345  0F22  160A  118A  2680  120A  158A  	fcall	_USART_CHAR
  1346  0F27                     l2745:
  1347                           
  1348                           ;MAIN.c: 90:             USART_CHAR(unidad);
  1349  0F27  1683               	bsf	3,5	;RP0=1, select bank1
  1350  0F28  1303               	bcf	3,6	;RP1=0, select bank1
  1351  0F29  084C               	movf	_unidad^(0+128),w
  1352  0F2A  160A  118A  2680  120A  158A  	fcall	_USART_CHAR
  1353  0F2F                     l2747:
  1354                           
  1355                           ;MAIN.c: 91:             USART_WRITE("V");
  1356  0F2F  3051               	movlw	(low ((STR_5-__stringbase)| (0+32768)))& (0+255)
  1357  0F30  160A  118A  26D8  120A  158A  	fcall	_USART_WRITE
  1358  0F35                     l2749:
  1359                           
  1360                           ;MAIN.c: 92:             USART_WRITE("\n\r\n\r");
  1361  0F35  3041               	movlw	(low ((STR_6-__stringbase)| (0+32768)))& (0+255)
  1362  0F36  160A  118A  26D8  120A  158A  	fcall	_USART_WRITE
  1363  0F3B                     l2751:
  1364                           
  1365                           ;MAIN.c: 93:             _delay((unsigned long)((100)*(8000000/4000.0)));
  1366  0F3B  3002               	movlw	2
  1367  0F3C  1683               	bsf	3,5	;RP0=1, select bank1
  1368  0F3D  1303               	bcf	3,6	;RP1=0, select bank1
  1369  0F3E  00C9               	movwf	(??_main^(0+128)+2)
  1370  0F3F  3004               	movlw	4
  1371  0F40  00C8               	movwf	(??_main^(0+128)+1)
  1372  0F41  30B9               	movlw	185
  1373  0F42  00C7               	movwf	??_main^(0+128)
  1374  0F43                     u3527:
  1375  0F43  0BC7               	decfsz	??_main^(0+128),f
  1376  0F44  2F43               	goto	u3527
  1377  0F45  0BC8               	decfsz	(??_main^(0+128)+1),f
  1378  0F46  2F43               	goto	u3527
  1379  0F47  0BC9               	decfsz	(??_main^(0+128)+2),f
  1380  0F48  2F43               	goto	u3527
  1381  0F49  2F4A               	nop2
  1382  0F4A                     l219:	
  1383                           ;MAIN.c: 94:         }
  1384                           
  1385                           
  1386                           ;MAIN.c: 96:         LCD_CLEAR8();
  1387  0F4A  120A  158A  205D  120A  158A  	fcall	_LCD_CLEAR8
  1388                           
  1389                           ;MAIN.c: 97:         LCD_XY8(1,1);
  1390  0F4F  01F4               	clrf	LCD_XY8@y
  1391  0F50  0AF4               	incf	LCD_XY8@y,f
  1392  0F51  3001               	movlw	1
  1393  0F52  160A  118A  26BC  120A  158A  	fcall	_LCD_XY8
  1394  0F57                     l2753:
  1395                           
  1396                           ;MAIN.c: 98:         LCD_STRING8("POT");
  1397  0F57  304B               	movlw	(low ((STR_7-__stringbase)| (0+32768)))& (0+255)
  1398  0F58  160A  118A  271B  120A  158A  	fcall	_LCD_STRING8
  1399  0F5D                     l2755:
  1400                           
  1401                           ;MAIN.c: 99:         LCD_XY8(2,1);
  1402  0F5D  01F4               	clrf	LCD_XY8@y
  1403  0F5E  0AF4               	incf	LCD_XY8@y,f
  1404  0F5F  3002               	movlw	2
  1405  0F60  160A  118A  26BC  120A  158A  	fcall	_LCD_XY8
  1406  0F65                     l2757:
  1407                           
  1408                           ;MAIN.c: 100:         LCD_CHAR8(centena);
  1409  0F65  1683               	bsf	3,5	;RP0=1, select bank1
  1410  0F66  1303               	bcf	3,6	;RP1=0, select bank1
  1411  0F67  084A               	movf	_centena^(0+128),w
  1412  0F68  160A  118A  26A2  120A  158A  	fcall	_LCD_CHAR8
  1413  0F6D                     l2759:
  1414                           
  1415                           ;MAIN.c: 101:         LCD_STRING8(".");
  1416  0F6D  304F               	movlw	(low ((STR_4-__stringbase)| (0+32768)))& (0+255)
  1417  0F6E  160A  118A  271B  120A  158A  	fcall	_LCD_STRING8
  1418                           
  1419                           ;MAIN.c: 102:         LCD_CHAR8(decena);
  1420  0F73  1683               	bsf	3,5	;RP0=1, select bank1
  1421  0F74  1303               	bcf	3,6	;RP1=0, select bank1
  1422  0F75  084B               	movf	_decena^(0+128),w
  1423  0F76  160A  118A  26A2  120A  158A  	fcall	_LCD_CHAR8
  1424                           
  1425                           ;MAIN.c: 103:         LCD_CHAR8(unidad);
  1426  0F7B  1683               	bsf	3,5	;RP0=1, select bank1
  1427  0F7C  1303               	bcf	3,6	;RP1=0, select bank1
  1428  0F7D  084C               	movf	_unidad^(0+128),w
  1429  0F7E  160A  118A  26A2  120A  158A  	fcall	_LCD_CHAR8
  1430  0F83                     l2761:
  1431                           
  1432                           ;MAIN.c: 104:         LCD_STRING8("V");
  1433  0F83  3051               	movlw	(low ((STR_5-__stringbase)| (0+32768)))& (0+255)
  1434  0F84  160A  118A  271B  120A  158A  	fcall	_LCD_STRING8
  1435  0F89                     l2763:
  1436                           
  1437                           ;MAIN.c: 106:         centena = CENTENA(PORTA);
  1438  0F89  1283               	bcf	3,5	;RP0=0, select bank0
  1439  0F8A  1303               	bcf	3,6	;RP1=0, select bank0
  1440  0F8B  0805               	movf	5,w	;volatile
  1441  0F8C  120A  158A  2138  120A  158A  	fcall	_CENTENA
  1442  0F91  1683               	bsf	3,5	;RP0=1, select bank1
  1443  0F92  1303               	bcf	3,6	;RP1=0, select bank1
  1444  0F93  00C7               	movwf	??_main^(0+128)
  1445  0F94  0847               	movf	??_main^(0+128),w
  1446  0F95  00CA               	movwf	_centena^(0+128)
  1447  0F96                     l2765:
  1448                           
  1449                           ;MAIN.c: 107:         decena = DECENA(PORTA);
  1450  0F96  1283               	bcf	3,5	;RP0=0, select bank0
  1451  0F97  1303               	bcf	3,6	;RP1=0, select bank0
  1452  0F98  0805               	movf	5,w	;volatile
  1453  0F99  120A  158A  248D  120A  158A  	fcall	_DECENA
  1454  0F9E  1683               	bsf	3,5	;RP0=1, select bank1
  1455  0F9F  1303               	bcf	3,6	;RP1=0, select bank1
  1456  0FA0  00C7               	movwf	??_main^(0+128)
  1457  0FA1  0847               	movf	??_main^(0+128),w
  1458  0FA2  00CB               	movwf	_decena^(0+128)
  1459  0FA3                     l2767:
  1460                           
  1461                           ;MAIN.c: 108:         unidad = UNIDAD(PORTA);
  1462  0FA3  1283               	bcf	3,5	;RP0=0, select bank0
  1463  0FA4  1303               	bcf	3,6	;RP1=0, select bank0
  1464  0FA5  0805               	movf	5,w	;volatile
  1465  0FA6  120A  158A  2566  120A  158A  	fcall	_UNIDAD
  1466  0FAB  1683               	bsf	3,5	;RP0=1, select bank1
  1467  0FAC  1303               	bcf	3,6	;RP1=0, select bank1
  1468  0FAD  00C7               	movwf	??_main^(0+128)
  1469  0FAE  0847               	movf	??_main^(0+128),w
  1470  0FAF  00CC               	movwf	_unidad^(0+128)
  1471  0FB0                     l2769:
  1472                           
  1473                           ;MAIN.c: 110:         centena += 48;
  1474  0FB0  3030               	movlw	48
  1475  0FB1  00C7               	movwf	??_main^(0+128)
  1476  0FB2  0847               	movf	??_main^(0+128),w
  1477  0FB3  07CA               	addwf	_centena^(0+128),f
  1478  0FB4                     l2771:
  1479                           
  1480                           ;MAIN.c: 111:         decena += 48;
  1481  0FB4  3030               	movlw	48
  1482  0FB5  00C7               	movwf	??_main^(0+128)
  1483  0FB6  0847               	movf	??_main^(0+128),w
  1484  0FB7  07CB               	addwf	_decena^(0+128),f
  1485  0FB8                     l2773:
  1486                           
  1487                           ;MAIN.c: 112:         unidad += 48;
  1488  0FB8  3030               	movlw	48
  1489  0FB9  00C7               	movwf	??_main^(0+128)
  1490  0FBA  0847               	movf	??_main^(0+128),w
  1491  0FBB  07CC               	addwf	_unidad^(0+128),f
  1492  0FBC                     l2775:
  1493                           
  1494                           ;MAIN.c: 114:         LCD_XY8(1,10);
  1495  0FBC  300A               	movlw	10
  1496  0FBD  00C7               	movwf	??_main^(0+128)
  1497  0FBE  0847               	movf	??_main^(0+128),w
  1498  0FBF  00F4               	movwf	LCD_XY8@y
  1499  0FC0  3001               	movlw	1
  1500  0FC1  160A  118A  26BC  120A  158A  	fcall	_LCD_XY8
  1501  0FC6                     l2777:
  1502                           
  1503                           ;MAIN.c: 115:         LCD_STRING8("CPU:");
  1504  0FC6  3046               	movlw	(low ((STR_10-__stringbase)| (0+32768)))& (0+255)
  1505  0FC7  160A  118A  271B  120A  158A  	fcall	_LCD_STRING8
  1506  0FCC                     l2779:
  1507                           
  1508                           ;MAIN.c: 116:         LCD_XY8(2,10);
  1509  0FCC  300A               	movlw	10
  1510  0FCD  1683               	bsf	3,5	;RP0=1, select bank1
  1511  0FCE  1303               	bcf	3,6	;RP1=0, select bank1
  1512  0FCF  00C7               	movwf	??_main^(0+128)
  1513  0FD0  0847               	movf	??_main^(0+128),w
  1514  0FD1  00F4               	movwf	LCD_XY8@y
  1515  0FD2  3002               	movlw	2
  1516  0FD3  160A  118A  26BC  120A  158A  	fcall	_LCD_XY8
  1517  0FD8                     l2781:
  1518                           
  1519                           ;MAIN.c: 117:         LCD_CHAR8(centena);
  1520  0FD8  1683               	bsf	3,5	;RP0=1, select bank1
  1521  0FD9  1303               	bcf	3,6	;RP1=0, select bank1
  1522  0FDA  084A               	movf	_centena^(0+128),w
  1523  0FDB  160A  118A  26A2  120A  158A  	fcall	_LCD_CHAR8
  1524  0FE0                     l2783:
  1525                           
  1526                           ;MAIN.c: 118:         LCD_STRING8(".");
  1527  0FE0  304F               	movlw	(low ((STR_4-__stringbase)| (0+32768)))& (0+255)
  1528  0FE1  160A  118A  271B  120A  158A  	fcall	_LCD_STRING8
  1529  0FE6                     l2785:
  1530                           
  1531                           ;MAIN.c: 119:         LCD_CHAR8(decena);
  1532  0FE6  1683               	bsf	3,5	;RP0=1, select bank1
  1533  0FE7  1303               	bcf	3,6	;RP1=0, select bank1
  1534  0FE8  084B               	movf	_decena^(0+128),w
  1535  0FE9  160A  118A  26A2  120A  158A  	fcall	_LCD_CHAR8
  1536  0FEE                     l2787:
  1537                           
  1538                           ;MAIN.c: 120:         LCD_CHAR8(unidad);
  1539  0FEE  1683               	bsf	3,5	;RP0=1, select bank1
  1540  0FEF  1303               	bcf	3,6	;RP1=0, select bank1
  1541  0FF0  084C               	movf	_unidad^(0+128),w
  1542  0FF1  160A  118A  26A2  120A  158A  	fcall	_LCD_CHAR8
  1543  0FF6                     l2789:
  1544                           
  1545                           ;MAIN.c: 121:         LCD_STRING8("V");
  1546  0FF6  3051               	movlw	(low ((STR_5-__stringbase)| (0+32768)))& (0+255)
  1547  0FF7  160A  118A  271B  120A  158A  	fcall	_LCD_STRING8
  1548  0FFC  2E7D               	goto	l2697
  1549  0FFD  120A  118A  2800   	ljmp	start
  1550  1000                     __end_of_main:
  1551                           
  1552                           	psect	text1
  1553  17B3                     __ptext1:	
  1554 ;; *************** function _setup *****************
  1555 ;; Defined at:
  1556 ;;		line 127 in file "MAIN.c"
  1557 ;; Parameters:    Size  Location     Type
  1558 ;;		None
  1559 ;; Auto vars:     Size  Location     Type
  1560 ;;		None
  1561 ;; Return value:  Size  Location     Type
  1562 ;;                  1    wreg      void 
  1563 ;; Registers used:
  1564 ;;		wreg, fsr0l, fsr0h, status,2, status,0, pclath, cstack
  1565 ;; Tracked objects:
  1566 ;;		On entry : 0/0
  1567 ;;		On exit  : 0/0
  1568 ;;		Unchanged: 0/0
  1569 ;; Data sizes:     COMMON   BANK0   BANK1   BANK3   BANK2
  1570 ;;      Params:         0       0       0       0       0
  1571 ;;      Locals:         0       0       0       0       0
  1572 ;;      Temps:          1       0       0       0       0
  1573 ;;      Totals:         1       0       0       0       0
  1574 ;;Total ram usage:        1 bytes
  1575 ;; Hardware stack levels used: 1
  1576 ;; Hardware stack levels required when called: 3
  1577 ;; This function calls:
  1578 ;;		_ADC_INIT
  1579 ;;		_LCD_INIT8
  1580 ;;		_OSCILLATOR
  1581 ;;		_USART_INIT
  1582 ;; This function is called by:
  1583 ;;		_main
  1584 ;; This function uses a non-reentrant model
  1585 ;;
  1586                           
  1587  17B3                     _setup:	
  1588                           ;psect for function _setup
  1589                           
  1590  17B3                     l2643:	
  1591                           ;incstack = 0
  1592                           ; Regs used in _setup: [wreg-fsr0h+status,2+status,0+pclath+cstack]
  1593                           
  1594                           
  1595                           ;MAIN.c: 129:     ANSEL = 0b00100000;
  1596  17B3  3020               	movlw	32
  1597  17B4  1683               	bsf	3,5	;RP0=1, select bank3
  1598  17B5  1703               	bsf	3,6	;RP1=1, select bank3
  1599  17B6  0088               	movwf	8	;volatile
  1600  17B7                     l2645:
  1601                           
  1602                           ;MAIN.c: 130:     ANSELH = 0x00;
  1603  17B7  0189               	clrf	9	;volatile
  1604  17B8                     l2647:
  1605                           
  1606                           ;MAIN.c: 132:     TRISA = 0x00;
  1607  17B8  1683               	bsf	3,5	;RP0=1, select bank1
  1608  17B9  1303               	bcf	3,6	;RP1=0, select bank1
  1609  17BA  0185               	clrf	5	;volatile
  1610  17BB                     l2649:
  1611                           
  1612                           ;MAIN.c: 133:     TRISD = 0x00;
  1613  17BB  0188               	clrf	8	;volatile
  1614  17BC                     l2651:
  1615                           
  1616                           ;MAIN.c: 134:     TRISC = 0b10000000;
  1617  17BC  3080               	movlw	128
  1618  17BD  0087               	movwf	7	;volatile
  1619                           
  1620                           ;MAIN.c: 136:     PORTA = 0x00;
  1621  17BE  1283               	bcf	3,5	;RP0=0, select bank0
  1622  17BF  1303               	bcf	3,6	;RP1=0, select bank0
  1623  17C0  0185               	clrf	5	;volatile
  1624                           
  1625                           ;MAIN.c: 137:     PORTD = 0x00;
  1626  17C1  0188               	clrf	8	;volatile
  1627                           
  1628                           ;MAIN.c: 138:     PORTC = 0X00;
  1629  17C2  0187               	clrf	7	;volatile
  1630  17C3                     l2653:
  1631                           
  1632                           ;MAIN.c: 140:     OSCILLATOR(1);
  1633  17C3  3001               	movlw	1
  1634  17C4  160A  118A  2767  160A  118A  	fcall	_OSCILLATOR
  1635  17C9                     l2655:
  1636                           
  1637                           ;MAIN.c: 143:     ADC_INIT(5);
  1638  17C9  3005               	movlw	5
  1639  17CA  00F0               	movwf	ADC_INIT@c
  1640  17CB  3000               	movlw	0
  1641  17CC  00F1               	movwf	ADC_INIT@c+1
  1642  17CD  120A  158A  229A  160A  118A  	fcall	_ADC_INIT
  1643  17D2                     l2657:
  1644                           
  1645                           ;MAIN.c: 145:     ADCON1bits.VCFG0 = 0;
  1646  17D2  1683               	bsf	3,5	;RP0=1, select bank1
  1647  17D3  1303               	bcf	3,6	;RP1=0, select bank1
  1648  17D4  121F               	bcf	31,4	;volatile
  1649  17D5                     l2659:
  1650                           
  1651                           ;MAIN.c: 146:     ADCON1bits.VCFG1 = 0;
  1652  17D5  129F               	bcf	31,5	;volatile
  1653  17D6                     l2661:
  1654                           
  1655                           ;MAIN.c: 148:     ADCON0bits.ADCS0 = 0;
  1656  17D6  1283               	bcf	3,5	;RP0=0, select bank0
  1657  17D7  1303               	bcf	3,6	;RP1=0, select bank0
  1658  17D8  131F               	bcf	31,6	;volatile
  1659  17D9                     l2663:
  1660                           
  1661                           ;MAIN.c: 149:     ADCON0bits.ADCS1 = 1;
  1662  17D9  179F               	bsf	31,7	;volatile
  1663  17DA                     l2665:
  1664                           
  1665                           ;MAIN.c: 151:     ADCON1bits.ADFM =0;
  1666  17DA  1683               	bsf	3,5	;RP0=1, select bank1
  1667  17DB  1303               	bcf	3,6	;RP1=0, select bank1
  1668  17DC  139F               	bcf	31,7	;volatile
  1669  17DD                     l2667:
  1670                           
  1671                           ;MAIN.c: 153:     ADCON0bits.ADON = 1;
  1672  17DD  1283               	bcf	3,5	;RP0=0, select bank0
  1673  17DE  1303               	bcf	3,6	;RP1=0, select bank0
  1674  17DF  141F               	bsf	31,0	;volatile
  1675  17E0                     l2669:
  1676                           
  1677                           ;MAIN.c: 154:     _delay((unsigned long)((50)*(8000000/4000000.0)));
  1678  17E0  3021               	movlw	33
  1679  17E1  00FA               	movwf	??_setup
  1680  17E2                     u3537:
  1681  17E2  0BFA               	decfsz	??_setup,f
  1682  17E3  2FE2               	goto	u3537
  1683  17E4                     l2671:
  1684                           
  1685                           ;MAIN.c: 155:     ADCON0bits.GO_nDONE = 1;
  1686  17E4  1283               	bcf	3,5	;RP0=0, select bank0
  1687  17E5  1303               	bcf	3,6	;RP1=0, select bank0
  1688  17E6  149F               	bsf	31,1	;volatile
  1689  17E7                     l2673:
  1690                           
  1691                           ;MAIN.c: 157:     POT = 0;
  1692  17E7  1683               	bsf	3,5	;RP0=1, select bank1
  1693  17E8  1303               	bcf	3,6	;RP1=0, select bank1
  1694  17E9  01CE               	clrf	_POT^(0+128)
  1695  17EA                     l2675:
  1696                           
  1697                           ;MAIN.c: 158:     cont = 0;
  1698  17EA  01CD               	clrf	_cont^(0+128)
  1699  17EB                     l2677:
  1700                           
  1701                           ;MAIN.c: 159:     unidad = 0;
  1702  17EB  01CC               	clrf	_unidad^(0+128)
  1703  17EC                     l2679:
  1704                           
  1705                           ;MAIN.c: 160:     decena = 0;
  1706  17EC  01CB               	clrf	_decena^(0+128)
  1707  17ED                     l2681:
  1708                           
  1709                           ;MAIN.c: 161:     centena = 0;
  1710  17ED  01CA               	clrf	_centena^(0+128)
  1711  17EE                     l2683:
  1712                           
  1713                           ;MAIN.c: 162:     old_pot = 0;
  1714  17EE  01CF               	clrf	_old_pot^(0+128)
  1715  17EF                     l2685:
  1716                           
  1717                           ;MAIN.c: 164:     LCD_INIT8();
  1718  17EF  120A  158A  2091  160A  118A  	fcall	_LCD_INIT8
  1719  17F4                     l2687:
  1720                           
  1721                           ;MAIN.c: 165:     USART_INIT(9600);
  1722  17F4  3080               	movlw	128
  1723  17F5  1283               	bcf	3,5	;RP0=0, select bank0
  1724  17F6  1303               	bcf	3,6	;RP1=0, select bank0
  1725  17F7  00A6               	movwf	USART_INIT@BAUD
  1726  17F8  3025               	movlw	37
  1727  17F9  00A7               	movwf	USART_INIT@BAUD+1
  1728  17FA  120A  158A  20DF  160A  118A  	fcall	_USART_INIT
  1729  17FF                     l225:
  1730  17FF  0008               	return
  1731  1800                     __end_of_setup:
  1732                           
  1733                           	psect	text2
  1734  08DF                     __ptext2:	
  1735 ;; *************** function _USART_INIT *****************
  1736 ;; Defined at:
  1737 ;;		line 14 in file "USART.c"
  1738 ;; Parameters:    Size  Location     Type
  1739 ;;  BAUD            2    6[BANK0 ] unsigned int 
  1740 ;; Auto vars:     Size  Location     Type
  1741 ;;  n               1   12[BANK0 ] unsigned char 
  1742 ;; Return value:  Size  Location     Type
  1743 ;;                  1    wreg      void 
  1744 ;; Registers used:
  1745 ;;		wreg, status,2, status,0, pclath, cstack
  1746 ;; Tracked objects:
  1747 ;;		On entry : 0/0
  1748 ;;		On exit  : 0/0
  1749 ;;		Unchanged: 0/0
  1750 ;; Data sizes:     COMMON   BANK0   BANK1   BANK3   BANK2
  1751 ;;      Params:         0       2       0       0       0
  1752 ;;      Locals:         0       5       0       0       0
  1753 ;;      Temps:          1       0       0       0       0
  1754 ;;      Totals:         1       7       0       0       0
  1755 ;;Total ram usage:        8 bytes
  1756 ;; Hardware stack levels used: 1
  1757 ;; Hardware stack levels required when called: 1
  1758 ;; This function calls:
  1759 ;;		___aldiv
  1760 ;; This function is called by:
  1761 ;;		_setup
  1762 ;; This function uses a non-reentrant model
  1763 ;;
  1764                           
  1765  08DF                     _USART_INIT:	
  1766                           ;psect for function _USART_INIT
  1767                           
  1768  08DF                     l2573:	
  1769                           ;incstack = 0
  1770                           ; Regs used in _USART_INIT: [wreg+status,2+status,0+pclath+cstack]
  1771                           
  1772                           
  1773                           ;USART.c: 15:     unsigned char n;;USART.c: 16:     n = ((8000000/BAUD)/4) -1;
  1774  08DF  1283               	bcf	3,5	;RP0=0, select bank0
  1775  08E0  1303               	bcf	3,6	;RP1=0, select bank0
  1776  08E1  0826               	movf	USART_INIT@BAUD,w
  1777  08E2  00F0               	movwf	___aldiv@divisor
  1778  08E3  0827               	movf	USART_INIT@BAUD+1,w
  1779  08E4  00F1               	movwf	___aldiv@divisor+1
  1780  08E5  01F2               	clrf	___aldiv@divisor+2
  1781  08E6  01F3               	clrf	___aldiv@divisor+3
  1782  08E7  3000               	movlw	0
  1783  08E8  00F7               	movwf	___aldiv@dividend+3
  1784  08E9  307A               	movlw	122
  1785  08EA  00F6               	movwf	___aldiv@dividend+2
  1786  08EB  3012               	movlw	18
  1787  08EC  00F5               	movwf	___aldiv@dividend+1
  1788  08ED  3000               	movlw	0
  1789  08EE  00F4               	movwf	___aldiv@dividend
  1790  08EF  120A  158A  2336  120A  158A  	fcall	___aldiv
  1791  08F4  0873               	movf	?___aldiv+3,w
  1792  08F5  1283               	bcf	3,5	;RP0=0, select bank0
  1793  08F6  1303               	bcf	3,6	;RP1=0, select bank0
  1794  08F7  00AB               	movwf	_USART_INIT$1088+3
  1795  08F8  0872               	movf	?___aldiv+2,w
  1796  08F9  00AA               	movwf	_USART_INIT$1088+2
  1797  08FA  0871               	movf	?___aldiv+1,w
  1798  08FB  00A9               	movwf	_USART_INIT$1088+1
  1799  08FC  0870               	movf	?___aldiv,w
  1800  08FD  00A8               	movwf	_USART_INIT$1088
  1801                           
  1802                           ;USART.c: 15:     unsigned char n;;USART.c: 16:     n = ((8000000/BAUD)/4) -1;
  1803  08FE  3000               	movlw	0
  1804  08FF  00F3               	movwf	___aldiv@divisor+3
  1805  0900  3000               	movlw	0
  1806  0901  00F2               	movwf	___aldiv@divisor+2
  1807  0902  3000               	movlw	0
  1808  0903  00F1               	movwf	___aldiv@divisor+1
  1809  0904  3004               	movlw	4
  1810  0905  00F0               	movwf	___aldiv@divisor
  1811  0906  082B               	movf	_USART_INIT$1088+3,w
  1812  0907  00F7               	movwf	___aldiv@dividend+3
  1813  0908  082A               	movf	_USART_INIT$1088+2,w
  1814  0909  00F6               	movwf	___aldiv@dividend+2
  1815  090A  0829               	movf	_USART_INIT$1088+1,w
  1816  090B  00F5               	movwf	___aldiv@dividend+1
  1817  090C  0828               	movf	_USART_INIT$1088,w
  1818  090D  00F4               	movwf	___aldiv@dividend
  1819  090E  120A  158A  2336  120A  158A  	fcall	___aldiv
  1820  0913  0870               	movf	?___aldiv,w
  1821  0914  3EFF               	addlw	255
  1822  0915  00F9               	movwf	??_USART_INIT
  1823  0916  0879               	movf	??_USART_INIT,w
  1824  0917  1283               	bcf	3,5	;RP0=0, select bank0
  1825  0918  1303               	bcf	3,6	;RP1=0, select bank0
  1826  0919  00AC               	movwf	USART_INIT@n
  1827  091A                     l2575:
  1828                           
  1829                           ;USART.c: 18:     TXSTAbits.SYNC = 0;
  1830  091A  1683               	bsf	3,5	;RP0=1, select bank1
  1831  091B  1303               	bcf	3,6	;RP1=0, select bank1
  1832  091C  1218               	bcf	24,4	;volatile
  1833  091D                     l2577:
  1834                           
  1835                           ;USART.c: 19:     TXSTAbits.BRGH = 1;
  1836  091D  1518               	bsf	24,2	;volatile
  1837  091E                     l2579:
  1838                           
  1839                           ;USART.c: 20:     BAUDCTLbits.BRG16 = 1;
  1840  091E  1683               	bsf	3,5	;RP0=1, select bank3
  1841  091F  1703               	bsf	3,6	;RP1=1, select bank3
  1842  0920  1587               	bsf	7,3	;volatile
  1843  0921                     l2581:
  1844                           
  1845                           ;USART.c: 22:     SPBRG = n;
  1846  0921  1283               	bcf	3,5	;RP0=0, select bank0
  1847  0922  1303               	bcf	3,6	;RP1=0, select bank0
  1848  0923  082C               	movf	USART_INIT@n,w
  1849  0924  1683               	bsf	3,5	;RP0=1, select bank1
  1850  0925  1303               	bcf	3,6	;RP1=0, select bank1
  1851  0926  0099               	movwf	25	;volatile
  1852  0927                     l2583:
  1853                           
  1854                           ;USART.c: 23:     SPBRGH = 0;
  1855  0927  019A               	clrf	26	;volatile
  1856  0928                     l2585:
  1857                           
  1858                           ;USART.c: 25:     RCSTAbits.SPEN = 1;
  1859  0928  1283               	bcf	3,5	;RP0=0, select bank0
  1860  0929  1303               	bcf	3,6	;RP1=0, select bank0
  1861  092A  1798               	bsf	24,7	;volatile
  1862  092B                     l2587:
  1863                           
  1864                           ;USART.c: 26:     TXSTAbits.TX9 = 0;
  1865  092B  1683               	bsf	3,5	;RP0=1, select bank1
  1866  092C  1303               	bcf	3,6	;RP1=0, select bank1
  1867  092D  1318               	bcf	24,6	;volatile
  1868  092E                     l2589:
  1869                           
  1870                           ;USART.c: 27:     RCSTAbits.RX9 = 0;
  1871  092E  1283               	bcf	3,5	;RP0=0, select bank0
  1872  092F  1303               	bcf	3,6	;RP1=0, select bank0
  1873  0930  1318               	bcf	24,6	;volatile
  1874  0931                     l2591:
  1875                           
  1876                           ;USART.c: 28:     TXSTAbits.TXEN = 1;
  1877  0931  1683               	bsf	3,5	;RP0=1, select bank1
  1878  0932  1303               	bcf	3,6	;RP1=0, select bank1
  1879  0933  1698               	bsf	24,5	;volatile
  1880  0934                     l2593:
  1881                           
  1882                           ;USART.c: 29:     RCSTAbits.CREN = 1;
  1883  0934  1283               	bcf	3,5	;RP0=0, select bank0
  1884  0935  1303               	bcf	3,6	;RP1=0, select bank0
  1885  0936  1618               	bsf	24,4	;volatile
  1886  0937                     l127:
  1887  0937  0008               	return
  1888  0938                     __end_of_USART_INIT:
  1889                           
  1890                           	psect	text3
  1891  0B36                     __ptext3:	
  1892 ;; *************** function ___aldiv *****************
  1893 ;; Defined at:
  1894 ;;		line 5 in file "C:\Program Files\Microchip\xc8\v2.35\pic\sources\c90\common\aldiv.c"
  1895 ;; Parameters:    Size  Location     Type
  1896 ;;  divisor         4    0[COMMON] long 
  1897 ;;  dividend        4    4[COMMON] long 
  1898 ;; Auto vars:     Size  Location     Type
  1899 ;;  quotient        4    2[BANK0 ] long 
  1900 ;;  sign            1    1[BANK0 ] unsigned char 
  1901 ;;  counter         1    0[BANK0 ] unsigned char 
  1902 ;; Return value:  Size  Location     Type
  1903 ;;                  4    0[COMMON] long 
  1904 ;; Registers used:
  1905 ;;		wreg, status,2, status,0
  1906 ;; Tracked objects:
  1907 ;;		On entry : 0/0
  1908 ;;		On exit  : 0/0
  1909 ;;		Unchanged: 0/0
  1910 ;; Data sizes:     COMMON   BANK0   BANK1   BANK3   BANK2
  1911 ;;      Params:         8       0       0       0       0
  1912 ;;      Locals:         0       6       0       0       0
  1913 ;;      Temps:          1       0       0       0       0
  1914 ;;      Totals:         9       6       0       0       0
  1915 ;;Total ram usage:       15 bytes
  1916 ;; Hardware stack levels used: 1
  1917 ;; This function calls:
  1918 ;;		Nothing
  1919 ;; This function is called by:
  1920 ;;		_USART_INIT
  1921 ;; This function uses a non-reentrant model
  1922 ;;
  1923                           
  1924  0B36                     ___aldiv:	
  1925                           ;psect for function ___aldiv
  1926                           
  1927  0B36                     l2435:	
  1928                           ;incstack = 0
  1929                           ; Regs used in ___aldiv: [wreg+status,2+status,0]
  1930                           
  1931  0B36  1283               	bcf	3,5	;RP0=0, select bank0
  1932  0B37  1303               	bcf	3,6	;RP1=0, select bank0
  1933  0B38  01A1               	clrf	___aldiv@sign
  1934  0B39                     l2437:
  1935  0B39  1FF3               	btfss	___aldiv@divisor+3,7
  1936  0B3A  2B3C               	goto	u3211
  1937  0B3B  2B3D               	goto	u3210
  1938  0B3C                     u3211:
  1939  0B3C  2B4A               	goto	l376
  1940  0B3D                     u3210:
  1941  0B3D                     l2439:
  1942  0B3D  09F0               	comf	___aldiv@divisor,f
  1943  0B3E  09F1               	comf	___aldiv@divisor+1,f
  1944  0B3F  09F2               	comf	___aldiv@divisor+2,f
  1945  0B40  09F3               	comf	___aldiv@divisor+3,f
  1946  0B41  0AF0               	incf	___aldiv@divisor,f
  1947  0B42  1903               	skipnz
  1948  0B43  0AF1               	incf	___aldiv@divisor+1,f
  1949  0B44  1903               	skipnz
  1950  0B45  0AF2               	incf	___aldiv@divisor+2,f
  1951  0B46  1903               	skipnz
  1952  0B47  0AF3               	incf	___aldiv@divisor+3,f
  1953  0B48  01A1               	clrf	___aldiv@sign
  1954  0B49  0AA1               	incf	___aldiv@sign,f
  1955  0B4A                     l376:
  1956  0B4A  1FF7               	btfss	___aldiv@dividend+3,7
  1957  0B4B  2B4D               	goto	u3221
  1958  0B4C  2B4E               	goto	u3220
  1959  0B4D                     u3221:
  1960  0B4D  2B5D               	goto	l2445
  1961  0B4E                     u3220:
  1962  0B4E                     l2441:
  1963  0B4E  09F4               	comf	___aldiv@dividend,f
  1964  0B4F  09F5               	comf	___aldiv@dividend+1,f
  1965  0B50  09F6               	comf	___aldiv@dividend+2,f
  1966  0B51  09F7               	comf	___aldiv@dividend+3,f
  1967  0B52  0AF4               	incf	___aldiv@dividend,f
  1968  0B53  1903               	skipnz
  1969  0B54  0AF5               	incf	___aldiv@dividend+1,f
  1970  0B55  1903               	skipnz
  1971  0B56  0AF6               	incf	___aldiv@dividend+2,f
  1972  0B57  1903               	skipnz
  1973  0B58  0AF7               	incf	___aldiv@dividend+3,f
  1974  0B59                     l2443:
  1975  0B59  3001               	movlw	1
  1976  0B5A  00F8               	movwf	??___aldiv
  1977  0B5B  0878               	movf	??___aldiv,w
  1978  0B5C  06A1               	xorwf	___aldiv@sign,f
  1979  0B5D                     l2445:
  1980  0B5D  3000               	movlw	0
  1981  0B5E  00A5               	movwf	___aldiv@quotient+3
  1982  0B5F  3000               	movlw	0
  1983  0B60  00A4               	movwf	___aldiv@quotient+2
  1984  0B61  3000               	movlw	0
  1985  0B62  00A3               	movwf	___aldiv@quotient+1
  1986  0B63  3000               	movlw	0
  1987  0B64  00A2               	movwf	___aldiv@quotient
  1988  0B65                     l2447:
  1989  0B65  0873               	movf	___aldiv@divisor+3,w
  1990  0B66  0472               	iorwf	___aldiv@divisor+2,w
  1991  0B67  0471               	iorwf	___aldiv@divisor+1,w
  1992  0B68  0470               	iorwf	___aldiv@divisor,w
  1993  0B69  1903               	skipnz
  1994  0B6A  2B6C               	goto	u3231
  1995  0B6B  2B6D               	goto	u3230
  1996  0B6C                     u3231:
  1997  0B6C  2BBA               	goto	l2467
  1998  0B6D                     u3230:
  1999  0B6D                     l2449:
  2000  0B6D  01A0               	clrf	___aldiv@counter
  2001  0B6E  0AA0               	incf	___aldiv@counter,f
  2002  0B6F  2B7D               	goto	l2453
  2003  0B70                     l2451:
  2004  0B70  3001               	movlw	1
  2005  0B71  00F8               	movwf	??___aldiv
  2006  0B72                     u3245:
  2007  0B72  1003               	clrc
  2008  0B73  0DF0               	rlf	___aldiv@divisor,f
  2009  0B74  0DF1               	rlf	___aldiv@divisor+1,f
  2010  0B75  0DF2               	rlf	___aldiv@divisor+2,f
  2011  0B76  0DF3               	rlf	___aldiv@divisor+3,f
  2012  0B77  0BF8               	decfsz	??___aldiv,f
  2013  0B78  2B72               	goto	u3245
  2014  0B79  3001               	movlw	1
  2015  0B7A  00F8               	movwf	??___aldiv
  2016  0B7B  0878               	movf	??___aldiv,w
  2017  0B7C  07A0               	addwf	___aldiv@counter,f
  2018  0B7D                     l2453:
  2019  0B7D  1FF3               	btfss	___aldiv@divisor+3,7
  2020  0B7E  2B80               	goto	u3251
  2021  0B7F  2B81               	goto	u3250
  2022  0B80                     u3251:
  2023  0B80  2B70               	goto	l2451
  2024  0B81                     u3250:
  2025  0B81                     l2455:
  2026  0B81  3001               	movlw	1
  2027  0B82  00F8               	movwf	??___aldiv
  2028  0B83                     u3265:
  2029  0B83  1003               	clrc
  2030  0B84  0DA2               	rlf	___aldiv@quotient,f
  2031  0B85  0DA3               	rlf	___aldiv@quotient+1,f
  2032  0B86  0DA4               	rlf	___aldiv@quotient+2,f
  2033  0B87  0DA5               	rlf	___aldiv@quotient+3,f
  2034  0B88  0BF8               	decfsz	??___aldiv,f
  2035  0B89  2B83               	goto	u3265
  2036  0B8A                     l2457:
  2037  0B8A  0873               	movf	___aldiv@divisor+3,w
  2038  0B8B  0277               	subwf	___aldiv@dividend+3,w
  2039  0B8C  1D03               	skipz
  2040  0B8D  2B98               	goto	u3275
  2041  0B8E  0872               	movf	___aldiv@divisor+2,w
  2042  0B8F  0276               	subwf	___aldiv@dividend+2,w
  2043  0B90  1D03               	skipz
  2044  0B91  2B98               	goto	u3275
  2045  0B92  0871               	movf	___aldiv@divisor+1,w
  2046  0B93  0275               	subwf	___aldiv@dividend+1,w
  2047  0B94  1D03               	skipz
  2048  0B95  2B98               	goto	u3275
  2049  0B96  0870               	movf	___aldiv@divisor,w
  2050  0B97  0274               	subwf	___aldiv@dividend,w
  2051  0B98                     u3275:
  2052  0B98  1C03               	skipc
  2053  0B99  2B9B               	goto	u3271
  2054  0B9A  2B9C               	goto	u3270
  2055  0B9B                     u3271:
  2056  0B9B  2BAB               	goto	l2463
  2057  0B9C                     u3270:
  2058  0B9C                     l2459:
  2059  0B9C  0870               	movf	___aldiv@divisor,w
  2060  0B9D  02F4               	subwf	___aldiv@dividend,f
  2061  0B9E  0871               	movf	___aldiv@divisor+1,w
  2062  0B9F  1C03               	skipc
  2063  0BA0  0F71               	incfsz	___aldiv@divisor+1,w
  2064  0BA1  02F5               	subwf	___aldiv@dividend+1,f
  2065  0BA2  0872               	movf	___aldiv@divisor+2,w
  2066  0BA3  1C03               	skipc
  2067  0BA4  0F72               	incfsz	___aldiv@divisor+2,w
  2068  0BA5  02F6               	subwf	___aldiv@dividend+2,f
  2069  0BA6  0873               	movf	___aldiv@divisor+3,w
  2070  0BA7  1C03               	skipc
  2071  0BA8  0F73               	incfsz	___aldiv@divisor+3,w
  2072  0BA9  02F7               	subwf	___aldiv@dividend+3,f
  2073  0BAA                     l2461:
  2074  0BAA  1422               	bsf	___aldiv@quotient,0
  2075  0BAB                     l2463:
  2076  0BAB  3001               	movlw	1
  2077  0BAC                     u3285:
  2078  0BAC  1003               	clrc
  2079  0BAD  0CF3               	rrf	___aldiv@divisor+3,f
  2080  0BAE  0CF2               	rrf	___aldiv@divisor+2,f
  2081  0BAF  0CF1               	rrf	___aldiv@divisor+1,f
  2082  0BB0  0CF0               	rrf	___aldiv@divisor,f
  2083  0BB1  3EFF               	addlw	-1
  2084  0BB2  1D03               	skipz
  2085  0BB3  2BAC               	goto	u3285
  2086  0BB4                     l2465:
  2087  0BB4  3001               	movlw	1
  2088  0BB5  02A0               	subwf	___aldiv@counter,f
  2089  0BB6  1D03               	btfss	3,2
  2090  0BB7  2BB9               	goto	u3291
  2091  0BB8  2BBA               	goto	u3290
  2092  0BB9                     u3291:
  2093  0BB9  2B81               	goto	l2455
  2094  0BBA                     u3290:
  2095  0BBA                     l2467:
  2096  0BBA  0821               	movf	___aldiv@sign,w
  2097  0BBB  1903               	btfsc	3,2
  2098  0BBC  2BBE               	goto	u3301
  2099  0BBD  2BBF               	goto	u3300
  2100  0BBE                     u3301:
  2101  0BBE  2BCA               	goto	l2471
  2102  0BBF                     u3300:
  2103  0BBF                     l2469:
  2104  0BBF  09A2               	comf	___aldiv@quotient,f
  2105  0BC0  09A3               	comf	___aldiv@quotient+1,f
  2106  0BC1  09A4               	comf	___aldiv@quotient+2,f
  2107  0BC2  09A5               	comf	___aldiv@quotient+3,f
  2108  0BC3  0AA2               	incf	___aldiv@quotient,f
  2109  0BC4  1903               	skipnz
  2110  0BC5  0AA3               	incf	___aldiv@quotient+1,f
  2111  0BC6  1903               	skipnz
  2112  0BC7  0AA4               	incf	___aldiv@quotient+2,f
  2113  0BC8  1903               	skipnz
  2114  0BC9  0AA5               	incf	___aldiv@quotient+3,f
  2115  0BCA                     l2471:
  2116  0BCA  0825               	movf	___aldiv@quotient+3,w
  2117  0BCB  00F3               	movwf	?___aldiv+3
  2118  0BCC  0824               	movf	___aldiv@quotient+2,w
  2119  0BCD  00F2               	movwf	?___aldiv+2
  2120  0BCE  0823               	movf	___aldiv@quotient+1,w
  2121  0BCF  00F1               	movwf	?___aldiv+1
  2122  0BD0  0822               	movf	___aldiv@quotient,w
  2123  0BD1  00F0               	movwf	?___aldiv
  2124  0BD2                     l386:
  2125  0BD2  0008               	return
  2126  0BD3                     __end_of___aldiv:
  2127                           
  2128                           	psect	text4
  2129  1767                     __ptext4:	
  2130 ;; *************** function _OSCILLATOR *****************
  2131 ;; Defined at:
  2132 ;;		line 27 in file "ADC.c"
  2133 ;; Parameters:    Size  Location     Type
  2134 ;;  f               1    wreg     unsigned char 
  2135 ;; Auto vars:     Size  Location     Type
  2136 ;;  f               1    2[COMMON] unsigned char 
  2137 ;; Return value:  Size  Location     Type
  2138 ;;                  1    wreg      void 
  2139 ;; Registers used:
  2140 ;;		wreg, fsr0l, fsr0h, status,2, status,0
  2141 ;; Tracked objects:
  2142 ;;		On entry : 0/0
  2143 ;;		On exit  : 0/0
  2144 ;;		Unchanged: 0/0
  2145 ;; Data sizes:     COMMON   BANK0   BANK1   BANK3   BANK2
  2146 ;;      Params:         0       0       0       0       0
  2147 ;;      Locals:         1       0       0       0       0
  2148 ;;      Temps:          2       0       0       0       0
  2149 ;;      Totals:         3       0       0       0       0
  2150 ;;Total ram usage:        3 bytes
  2151 ;; Hardware stack levels used: 1
  2152 ;; This function calls:
  2153 ;;		Nothing
  2154 ;; This function is called by:
  2155 ;;		_setup
  2156 ;; This function uses a non-reentrant model
  2157 ;;
  2158                           
  2159  1767                     _OSCILLATOR:	
  2160                           ;psect for function _OSCILLATOR
  2161                           
  2162                           
  2163                           ;incstack = 0
  2164                           ; Regs used in _OSCILLATOR: [wreg-fsr0h+status,2+status,0]
  2165                           ;OSCILLATOR@f stored from wreg
  2166  1767  00F2               	movwf	OSCILLATOR@f
  2167  1768                     l2553:
  2168                           
  2169                           ;ADC.c: 28:     OSCCONbits.SCS = 1;
  2170  1768  1683               	bsf	3,5	;RP0=1, select bank1
  2171  1769  1303               	bcf	3,6	;RP1=0, select bank1
  2172  176A  140F               	bsf	15,0	;volatile
  2173                           
  2174                           ;ADC.c: 30:     switch(f){
  2175  176B  2F90               	goto	l2557
  2176  176C                     l60:	
  2177                           ;ADC.c: 31:         case(1):
  2178                           
  2179                           
  2180                           ;ADC.c: 32:             OSCCONbits.IRCF2 =1;
  2181  176C  170F               	bsf	15,6	;volatile
  2182                           
  2183                           ;ADC.c: 33:             OSCCONbits.IRCF1 =1;
  2184  176D  168F               	bsf	15,5	;volatile
  2185                           
  2186                           ;ADC.c: 34:             OSCCONbits.IRCF0 =1;
  2187  176E  160F               	bsf	15,4	;volatile
  2188                           
  2189                           ;ADC.c: 35:             break;
  2190  176F  2FB2               	goto	l70
  2191  1770                     l62:	
  2192                           ;ADC.c: 37:         case(2):
  2193                           
  2194                           
  2195                           ;ADC.c: 38:             OSCCONbits.IRCF2 =1;
  2196  1770  170F               	bsf	15,6	;volatile
  2197                           
  2198                           ;ADC.c: 39:             OSCCONbits.IRCF1 =1;
  2199  1771  168F               	bsf	15,5	;volatile
  2200                           
  2201                           ;ADC.c: 40:             OSCCONbits.IRCF0 =0;
  2202  1772  120F               	bcf	15,4	;volatile
  2203                           
  2204                           ;ADC.c: 41:             break;
  2205  1773  2FB2               	goto	l70
  2206  1774                     l63:	
  2207                           ;ADC.c: 43:         case(3):
  2208                           
  2209                           
  2210                           ;ADC.c: 44:             OSCCONbits.IRCF2 =1;
  2211  1774  170F               	bsf	15,6	;volatile
  2212                           
  2213                           ;ADC.c: 45:             OSCCONbits.IRCF1 =0;
  2214  1775  128F               	bcf	15,5	;volatile
  2215                           
  2216                           ;ADC.c: 46:             OSCCONbits.IRCF0 =1;
  2217  1776  160F               	bsf	15,4	;volatile
  2218                           
  2219                           ;ADC.c: 47:             break;
  2220  1777  2FB2               	goto	l70
  2221  1778                     l64:	
  2222                           ;ADC.c: 49:         case(4):
  2223                           
  2224                           
  2225                           ;ADC.c: 50:             OSCCONbits.IRCF2 =1;
  2226  1778  170F               	bsf	15,6	;volatile
  2227                           
  2228                           ;ADC.c: 51:             OSCCONbits.IRCF1 =0;
  2229  1779  128F               	bcf	15,5	;volatile
  2230                           
  2231                           ;ADC.c: 52:             OSCCONbits.IRCF0 =0;
  2232  177A  120F               	bcf	15,4	;volatile
  2233                           
  2234                           ;ADC.c: 53:             break;
  2235  177B  2FB2               	goto	l70
  2236  177C                     l65:	
  2237                           ;ADC.c: 55:         case(5):
  2238                           
  2239                           
  2240                           ;ADC.c: 56:             OSCCONbits.IRCF2 =0;
  2241  177C  130F               	bcf	15,6	;volatile
  2242                           
  2243                           ;ADC.c: 57:             OSCCONbits.IRCF1 =1;
  2244  177D  168F               	bsf	15,5	;volatile
  2245                           
  2246                           ;ADC.c: 58:             OSCCONbits.IRCF0 =1;
  2247  177E  160F               	bsf	15,4	;volatile
  2248                           
  2249                           ;ADC.c: 59:             break;
  2250  177F  2FB2               	goto	l70
  2251  1780                     l66:	
  2252                           ;ADC.c: 61:         case(6):
  2253                           
  2254                           
  2255                           ;ADC.c: 62:             OSCCONbits.IRCF2 =0;
  2256  1780  130F               	bcf	15,6	;volatile
  2257                           
  2258                           ;ADC.c: 63:             OSCCONbits.IRCF1 =1;
  2259  1781  168F               	bsf	15,5	;volatile
  2260                           
  2261                           ;ADC.c: 64:             OSCCONbits.IRCF0 =0;
  2262  1782  120F               	bcf	15,4	;volatile
  2263                           
  2264                           ;ADC.c: 65:             break;
  2265  1783  2FB2               	goto	l70
  2266  1784                     l67:	
  2267                           ;ADC.c: 67:         case(7):
  2268                           
  2269                           
  2270                           ;ADC.c: 68:             OSCCONbits.IRCF2 =0;
  2271  1784  130F               	bcf	15,6	;volatile
  2272                           
  2273                           ;ADC.c: 69:             OSCCONbits.IRCF1 =0;
  2274  1785  128F               	bcf	15,5	;volatile
  2275                           
  2276                           ;ADC.c: 70:             OSCCONbits.IRCF0 =1;
  2277  1786  160F               	bsf	15,4	;volatile
  2278                           
  2279                           ;ADC.c: 71:             break;
  2280  1787  2FB2               	goto	l70
  2281  1788                     l68:	
  2282                           ;ADC.c: 73:         case(8):
  2283                           
  2284                           
  2285                           ;ADC.c: 74:             OSCCONbits.IRCF2 =0;
  2286  1788  130F               	bcf	15,6	;volatile
  2287                           
  2288                           ;ADC.c: 75:             OSCCONbits.IRCF1 =0;
  2289  1789  128F               	bcf	15,5	;volatile
  2290                           
  2291                           ;ADC.c: 76:             OSCCONbits.IRCF0 =0;
  2292  178A  120F               	bcf	15,4	;volatile
  2293                           
  2294                           ;ADC.c: 77:             break;
  2295  178B  2FB2               	goto	l70
  2296  178C                     l69:	
  2297                           ;ADC.c: 79:         default:
  2298                           
  2299                           
  2300                           ;ADC.c: 80:             OSCCONbits.IRCF2 =1;
  2301  178C  170F               	bsf	15,6	;volatile
  2302                           
  2303                           ;ADC.c: 81:             OSCCONbits.IRCF1 =1;
  2304  178D  168F               	bsf	15,5	;volatile
  2305                           
  2306                           ;ADC.c: 82:             OSCCONbits.IRCF0 =0;
  2307  178E  120F               	bcf	15,4	;volatile
  2308                           
  2309                           ;ADC.c: 83:             break;
  2310  178F  2FB2               	goto	l70
  2311  1790                     l2557:
  2312  1790  0872               	movf	OSCILLATOR@f,w
  2313  1791  00F0               	movwf	??_OSCILLATOR
  2314  1792  01F1               	clrf	??_OSCILLATOR+1
  2315                           
  2316                           ; Switch on 2 bytes has been partitioned into a top level switch of size 1, and 1 sub-sw
      +                          itches
  2317                           ; Switch size 1, requested type "simple"
  2318                           ; Number of cases is 1, Range of values is 0 to 0
  2319                           ; switch strategies available:
  2320                           ; Name         Instructions Cycles
  2321                           ; simple_byte            4     3 (average)
  2322                           ; direct_byte           11     8 (fixed)
  2323                           ; jumptable            260     6 (fixed)
  2324                           ;	Chosen strategy is simple_byte
  2325  1793  0871               	movf	??_OSCILLATOR+1,w
  2326  1794  3A00               	xorlw	0	; case 0
  2327  1795  1903               	skipnz
  2328  1796  2F98               	goto	l2831
  2329  1797  2F8C               	goto	l69
  2330  1798                     l2831:
  2331                           
  2332                           ; Switch size 1, requested type "simple"
  2333                           ; Number of cases is 8, Range of values is 1 to 8
  2334                           ; switch strategies available:
  2335                           ; Name         Instructions Cycles
  2336                           ; simple_byte           25    13 (average)
  2337                           ; direct_byte           35    11 (fixed)
  2338                           ; jumptable            263     9 (fixed)
  2339                           ;	Chosen strategy is simple_byte
  2340  1798  0870               	movf	??_OSCILLATOR,w
  2341  1799  3A01               	xorlw	1	; case 1
  2342  179A  1903               	skipnz
  2343  179B  2F6C               	goto	l60
  2344  179C  3A03               	xorlw	3	; case 2
  2345  179D  1903               	skipnz
  2346  179E  2F70               	goto	l62
  2347  179F  3A01               	xorlw	1	; case 3
  2348  17A0  1903               	skipnz
  2349  17A1  2F74               	goto	l63
  2350  17A2  3A07               	xorlw	7	; case 4
  2351  17A3  1903               	skipnz
  2352  17A4  2F78               	goto	l64
  2353  17A5  3A01               	xorlw	1	; case 5
  2354  17A6  1903               	skipnz
  2355  17A7  2F7C               	goto	l65
  2356  17A8  3A03               	xorlw	3	; case 6
  2357  17A9  1903               	skipnz
  2358  17AA  2F80               	goto	l66
  2359  17AB  3A01               	xorlw	1	; case 7
  2360  17AC  1903               	skipnz
  2361  17AD  2F84               	goto	l67
  2362  17AE  3A0F               	xorlw	15	; case 8
  2363  17AF  1903               	skipnz
  2364  17B0  2F88               	goto	l68
  2365  17B1  2F8C               	goto	l69
  2366  17B2                     l70:
  2367  17B2  0008               	return
  2368  17B3                     __end_of_OSCILLATOR:
  2369                           
  2370                           	psect	text5
  2371  0891                     __ptext5:	
  2372 ;; *************** function _LCD_INIT8 *****************
  2373 ;; Defined at:
  2374 ;;		line 33 in file "LCD.c"
  2375 ;; Parameters:    Size  Location     Type
  2376 ;;		None
  2377 ;; Auto vars:     Size  Location     Type
  2378 ;;		None
  2379 ;; Return value:  Size  Location     Type
  2380 ;;                  1    wreg      void 
  2381 ;; Registers used:
  2382 ;;		wreg, status,2, status,0, pclath, cstack
  2383 ;; Tracked objects:
  2384 ;;		On entry : 0/0
  2385 ;;		On exit  : 0/0
  2386 ;;		Unchanged: 0/0
  2387 ;; Data sizes:     COMMON   BANK0   BANK1   BANK3   BANK2
  2388 ;;      Params:         0       0       0       0       0
  2389 ;;      Locals:         0       0       0       0       0
  2390 ;;      Temps:          2       0       0       0       0
  2391 ;;      Totals:         2       0       0       0       0
  2392 ;;Total ram usage:        2 bytes
  2393 ;; Hardware stack levels used: 1
  2394 ;; Hardware stack levels required when called: 2
  2395 ;; This function calls:
  2396 ;;		_LCD_COM8
  2397 ;;		_LCD_PORT8
  2398 ;; This function is called by:
  2399 ;;		_setup
  2400 ;; This function uses a non-reentrant model
  2401 ;;
  2402                           
  2403  0891                     _LCD_INIT8:	
  2404                           ;psect for function _LCD_INIT8
  2405                           
  2406  0891                     l2525:	
  2407                           ;incstack = 0
  2408                           ; Regs used in _LCD_INIT8: [wreg+status,2+status,0+pclath+cstack]
  2409                           
  2410                           
  2411                           ;LCD.c: 34:     LCD_PORT8(0x00);
  2412  0891  3000               	movlw	0
  2413  0892  160A  118A  2670  120A  158A  	fcall	_LCD_PORT8
  2414  0897                     l2527:
  2415                           
  2416                           ;LCD.c: 35:  RC0 = 0;
  2417  0897  1283               	bcf	3,5	;RP0=0, select bank0
  2418  0898  1303               	bcf	3,6	;RP1=0, select bank0
  2419  0899  1007               	bcf	7,0	;volatile
  2420  089A                     l2529:
  2421                           
  2422                           ;LCD.c: 36:  _delay((unsigned long)((25)*(8000000/4000.0)));
  2423  089A  3041               	movlw	65
  2424  089B  00F5               	movwf	??_LCD_INIT8+1
  2425  089C  30EE               	movlw	238
  2426  089D  00F4               	movwf	??_LCD_INIT8
  2427  089E                     u3547:
  2428  089E  0BF4               	decfsz	??_LCD_INIT8,f
  2429  089F  289E               	goto	u3547
  2430  08A0  0BF5               	decfsz	??_LCD_INIT8+1,f
  2431  08A1  289E               	goto	u3547
  2432  08A2  0000               	nop
  2433  08A3                     l2531:
  2434                           
  2435                           ;LCD.c: 38:     LCD_COM8(0x30);
  2436  08A3  3030               	movlw	48
  2437  08A4  120A  118A  2004  120A  158A  	fcall	_LCD_COM8
  2438                           
  2439                           ;LCD.c: 39:   _delay((unsigned long)((5)*(8000000/4000.0)));
  2440  08A9  300D               	movlw	13
  2441  08AA  00F5               	movwf	??_LCD_INIT8+1
  2442  08AB  30FB               	movlw	251
  2443  08AC  00F4               	movwf	??_LCD_INIT8
  2444  08AD                     u3557:
  2445  08AD  0BF4               	decfsz	??_LCD_INIT8,f
  2446  08AE  28AD               	goto	u3557
  2447  08AF  0BF5               	decfsz	??_LCD_INIT8+1,f
  2448  08B0  28AD               	goto	u3557
  2449  08B1  28B2               	nop2
  2450  08B2                     l2533:
  2451                           
  2452                           ;LCD.c: 40:     LCD_COM8(0x30);
  2453  08B2  3030               	movlw	48
  2454  08B3  120A  118A  2004  120A  158A  	fcall	_LCD_COM8
  2455  08B8                     l2535:
  2456                           
  2457                           ;LCD.c: 41:       _delay((unsigned long)((15)*(8000000/4000.0)));
  2458  08B8  3027               	movlw	39
  2459  08B9  00F5               	movwf	??_LCD_INIT8+1
  2460  08BA  30F5               	movlw	245
  2461  08BB  00F4               	movwf	??_LCD_INIT8
  2462  08BC                     u3567:
  2463  08BC  0BF4               	decfsz	??_LCD_INIT8,f
  2464  08BD  28BC               	goto	u3567
  2465  08BE  0BF5               	decfsz	??_LCD_INIT8+1,f
  2466  08BF  28BC               	goto	u3567
  2467                           
  2468                           ;LCD.c: 42:     LCD_COM8(0x30);
  2469  08C0  3030               	movlw	48
  2470  08C1  120A  118A  2004  120A  158A  	fcall	_LCD_COM8
  2471                           
  2472                           ;LCD.c: 44:     LCD_COM8(0x38);
  2473  08C6  3038               	movlw	56
  2474  08C7  120A  118A  2004  120A  158A  	fcall	_LCD_COM8
  2475                           
  2476                           ;LCD.c: 45:     LCD_COM8(0x0C);
  2477  08CC  300C               	movlw	12
  2478  08CD  120A  118A  2004  120A  158A  	fcall	_LCD_COM8
  2479                           
  2480                           ;LCD.c: 46:     LCD_COM8(0x01);
  2481  08D2  3001               	movlw	1
  2482  08D3  120A  118A  2004  120A  158A  	fcall	_LCD_COM8
  2483                           
  2484                           ;LCD.c: 47:     LCD_COM8(0x06);
  2485  08D8  3006               	movlw	6
  2486  08D9  120A  118A  2004  120A  158A  	fcall	_LCD_COM8
  2487  08DE                     l26:
  2488  08DE  0008               	return
  2489  08DF                     __end_of_LCD_INIT8:
  2490                           
  2491                           	psect	text6
  2492  0A9A                     __ptext6:	
  2493 ;; *************** function _ADC_INIT *****************
  2494 ;; Defined at:
  2495 ;;		line 89 in file "ADC.c"
  2496 ;; Parameters:    Size  Location     Type
  2497 ;;  c               2    0[COMMON] int 
  2498 ;; Auto vars:     Size  Location     Type
  2499 ;;		None
  2500 ;; Return value:  Size  Location     Type
  2501 ;;                  1    wreg      void 
  2502 ;; Registers used:
  2503 ;;		wreg, fsr0l, fsr0h, status,2, status,0
  2504 ;; Tracked objects:
  2505 ;;		On entry : 0/0
  2506 ;;		On exit  : 0/0
  2507 ;;		Unchanged: 0/0
  2508 ;; Data sizes:     COMMON   BANK0   BANK1   BANK3   BANK2
  2509 ;;      Params:         2       0       0       0       0
  2510 ;;      Locals:         0       0       0       0       0
  2511 ;;      Temps:          0       0       0       0       0
  2512 ;;      Totals:         2       0       0       0       0
  2513 ;;Total ram usage:        2 bytes
  2514 ;; Hardware stack levels used: 1
  2515 ;; This function calls:
  2516 ;;		Nothing
  2517 ;; This function is called by:
  2518 ;;		_setup
  2519 ;; This function uses a non-reentrant model
  2520 ;;
  2521                           
  2522  0A9A                     _ADC_INIT:	
  2523                           ;psect for function _ADC_INIT
  2524                           
  2525  0A9A                     l2563:	
  2526                           ;incstack = 0
  2527                           ; Regs used in _ADC_INIT: [wreg-fsr0h+status,2+status,0]
  2528                           
  2529                           
  2530                           ;ADC.c: 90:     switch(c){
  2531  0A9A  2B04               	goto	l2567
  2532  0A9B                     l74:	
  2533                           ;ADC.c: 91:         case 0:
  2534                           
  2535                           
  2536                           ;ADC.c: 92:             ADCON0bits.CHS3 = 0;
  2537  0A9B  1283               	bcf	3,5	;RP0=0, select bank0
  2538  0A9C  1303               	bcf	3,6	;RP1=0, select bank0
  2539  0A9D  129F               	bcf	31,5	;volatile
  2540                           
  2541                           ;ADC.c: 93:             ADCON0bits.CHS2 = 0;
  2542  0A9E  121F               	bcf	31,4	;volatile
  2543                           
  2544                           ;ADC.c: 94:             ADCON0bits.CHS1 = 0;
  2545  0A9F  119F               	bcf	31,3	;volatile
  2546                           
  2547                           ;ADC.c: 95:             ADCON0bits.CHS0 = 0;
  2548  0AA0  111F               	bcf	31,2	;volatile
  2549                           
  2550                           ;ADC.c: 96:             break;
  2551  0AA1  2B35               	goto	l90
  2552  0AA2                     l76:	
  2553                           ;ADC.c: 98:         case 1:
  2554                           
  2555                           
  2556                           ;ADC.c: 99:             ADCON0bits.CHS3 = 0;
  2557  0AA2  1283               	bcf	3,5	;RP0=0, select bank0
  2558  0AA3  1303               	bcf	3,6	;RP1=0, select bank0
  2559  0AA4  129F               	bcf	31,5	;volatile
  2560                           
  2561                           ;ADC.c: 100:             ADCON0bits.CHS2 = 0;
  2562  0AA5  121F               	bcf	31,4	;volatile
  2563                           
  2564                           ;ADC.c: 101:             ADCON0bits.CHS1 = 0;
  2565  0AA6  119F               	bcf	31,3	;volatile
  2566                           
  2567                           ;ADC.c: 102:             ADCON0bits.CHS0 = 1;
  2568  0AA7  151F               	bsf	31,2	;volatile
  2569                           
  2570                           ;ADC.c: 103:             break;
  2571  0AA8  2B35               	goto	l90
  2572  0AA9                     l77:	
  2573                           ;ADC.c: 105:         case 2:
  2574                           
  2575                           
  2576                           ;ADC.c: 106:             ADCON0bits.CHS3 = 0;
  2577  0AA9  1283               	bcf	3,5	;RP0=0, select bank0
  2578  0AAA  1303               	bcf	3,6	;RP1=0, select bank0
  2579  0AAB  129F               	bcf	31,5	;volatile
  2580                           
  2581                           ;ADC.c: 107:             ADCON0bits.CHS2 = 0;
  2582  0AAC  121F               	bcf	31,4	;volatile
  2583                           
  2584                           ;ADC.c: 108:             ADCON0bits.CHS1 = 1;
  2585  0AAD  159F               	bsf	31,3	;volatile
  2586                           
  2587                           ;ADC.c: 109:             ADCON0bits.CHS0 = 0;
  2588  0AAE  111F               	bcf	31,2	;volatile
  2589                           
  2590                           ;ADC.c: 110:             break;
  2591  0AAF  2B35               	goto	l90
  2592  0AB0                     l78:	
  2593                           ;ADC.c: 112:         case 3:
  2594                           
  2595                           
  2596                           ;ADC.c: 113:             ADCON0bits.CHS3 = 0;
  2597  0AB0  1283               	bcf	3,5	;RP0=0, select bank0
  2598  0AB1  1303               	bcf	3,6	;RP1=0, select bank0
  2599  0AB2  129F               	bcf	31,5	;volatile
  2600                           
  2601                           ;ADC.c: 114:             ADCON0bits.CHS2 = 0;
  2602  0AB3  121F               	bcf	31,4	;volatile
  2603                           
  2604                           ;ADC.c: 115:             ADCON0bits.CHS1 = 1;
  2605  0AB4  159F               	bsf	31,3	;volatile
  2606                           
  2607                           ;ADC.c: 116:             ADCON0bits.CHS0 = 1;
  2608  0AB5  151F               	bsf	31,2	;volatile
  2609                           
  2610                           ;ADC.c: 117:             break;
  2611  0AB6  2B35               	goto	l90
  2612  0AB7                     l79:	
  2613                           ;ADC.c: 119:         case 4:
  2614                           
  2615                           
  2616                           ;ADC.c: 120:             ADCON0bits.CHS3 = 0;
  2617  0AB7  1283               	bcf	3,5	;RP0=0, select bank0
  2618  0AB8  1303               	bcf	3,6	;RP1=0, select bank0
  2619  0AB9  129F               	bcf	31,5	;volatile
  2620                           
  2621                           ;ADC.c: 121:             ADCON0bits.CHS2 = 1;
  2622  0ABA  161F               	bsf	31,4	;volatile
  2623                           
  2624                           ;ADC.c: 122:             ADCON0bits.CHS1 = 0;
  2625  0ABB  119F               	bcf	31,3	;volatile
  2626                           
  2627                           ;ADC.c: 123:             ADCON0bits.CHS0 = 0;
  2628  0ABC  111F               	bcf	31,2	;volatile
  2629                           
  2630                           ;ADC.c: 124:             break;
  2631  0ABD  2B35               	goto	l90
  2632  0ABE                     l80:	
  2633                           ;ADC.c: 126:         case 5:
  2634                           
  2635                           
  2636                           ;ADC.c: 127:             ADCON0bits.CHS3 = 0;
  2637  0ABE  1283               	bcf	3,5	;RP0=0, select bank0
  2638  0ABF  1303               	bcf	3,6	;RP1=0, select bank0
  2639  0AC0  129F               	bcf	31,5	;volatile
  2640                           
  2641                           ;ADC.c: 128:             ADCON0bits.CHS2 = 1;
  2642  0AC1  161F               	bsf	31,4	;volatile
  2643                           
  2644                           ;ADC.c: 129:             ADCON0bits.CHS1 = 0;
  2645  0AC2  119F               	bcf	31,3	;volatile
  2646                           
  2647                           ;ADC.c: 130:             ADCON0bits.CHS0 = 1;
  2648  0AC3  151F               	bsf	31,2	;volatile
  2649                           
  2650                           ;ADC.c: 131:             break;
  2651  0AC4  2B35               	goto	l90
  2652  0AC5                     l81:	
  2653                           ;ADC.c: 133:         case 6:
  2654                           
  2655                           
  2656                           ;ADC.c: 134:             ADCON0bits.CHS3 = 0;
  2657  0AC5  1283               	bcf	3,5	;RP0=0, select bank0
  2658  0AC6  1303               	bcf	3,6	;RP1=0, select bank0
  2659  0AC7  129F               	bcf	31,5	;volatile
  2660                           
  2661                           ;ADC.c: 135:             ADCON0bits.CHS2 = 1;
  2662  0AC8  161F               	bsf	31,4	;volatile
  2663                           
  2664                           ;ADC.c: 136:             ADCON0bits.CHS1 = 1;
  2665  0AC9  159F               	bsf	31,3	;volatile
  2666                           
  2667                           ;ADC.c: 137:             ADCON0bits.CHS0 = 0;
  2668  0ACA  111F               	bcf	31,2	;volatile
  2669                           
  2670                           ;ADC.c: 138:             break;
  2671  0ACB  2B35               	goto	l90
  2672  0ACC                     l82:	
  2673                           ;ADC.c: 140:         case 7:
  2674                           
  2675                           
  2676                           ;ADC.c: 141:             ADCON0bits.CHS3 = 0;
  2677  0ACC  1283               	bcf	3,5	;RP0=0, select bank0
  2678  0ACD  1303               	bcf	3,6	;RP1=0, select bank0
  2679  0ACE  129F               	bcf	31,5	;volatile
  2680                           
  2681                           ;ADC.c: 142:             ADCON0bits.CHS2 = 1;
  2682  0ACF  161F               	bsf	31,4	;volatile
  2683                           
  2684                           ;ADC.c: 143:             ADCON0bits.CHS1 = 1;
  2685  0AD0  159F               	bsf	31,3	;volatile
  2686                           
  2687                           ;ADC.c: 144:             ADCON0bits.CHS0 = 1;
  2688  0AD1  151F               	bsf	31,2	;volatile
  2689                           
  2690                           ;ADC.c: 145:             break;
  2691  0AD2  2B35               	goto	l90
  2692  0AD3                     l83:	
  2693                           ;ADC.c: 147:         case 8:
  2694                           
  2695                           
  2696                           ;ADC.c: 148:             ADCON0bits.CHS3 = 1;
  2697  0AD3  1283               	bcf	3,5	;RP0=0, select bank0
  2698  0AD4  1303               	bcf	3,6	;RP1=0, select bank0
  2699  0AD5  169F               	bsf	31,5	;volatile
  2700                           
  2701                           ;ADC.c: 149:             ADCON0bits.CHS2 = 0;
  2702  0AD6  121F               	bcf	31,4	;volatile
  2703                           
  2704                           ;ADC.c: 150:             ADCON0bits.CHS1 = 0;
  2705  0AD7  119F               	bcf	31,3	;volatile
  2706                           
  2707                           ;ADC.c: 151:             ADCON0bits.CHS0 = 0;
  2708  0AD8  111F               	bcf	31,2	;volatile
  2709                           
  2710                           ;ADC.c: 152:             break;
  2711  0AD9  2B35               	goto	l90
  2712  0ADA                     l84:	
  2713                           ;ADC.c: 154:         case 9:
  2714                           
  2715                           
  2716                           ;ADC.c: 155:             ADCON0bits.CHS3 = 1;
  2717  0ADA  1283               	bcf	3,5	;RP0=0, select bank0
  2718  0ADB  1303               	bcf	3,6	;RP1=0, select bank0
  2719  0ADC  169F               	bsf	31,5	;volatile
  2720                           
  2721                           ;ADC.c: 156:             ADCON0bits.CHS2 = 0;
  2722  0ADD  121F               	bcf	31,4	;volatile
  2723                           
  2724                           ;ADC.c: 157:             ADCON0bits.CHS1 = 0;
  2725  0ADE  119F               	bcf	31,3	;volatile
  2726                           
  2727                           ;ADC.c: 158:             ADCON0bits.CHS0 = 1;
  2728  0ADF  151F               	bsf	31,2	;volatile
  2729                           
  2730                           ;ADC.c: 159:             break;
  2731  0AE0  2B35               	goto	l90
  2732  0AE1                     l85:	
  2733                           ;ADC.c: 161:         case 10:
  2734                           
  2735                           
  2736                           ;ADC.c: 162:             ADCON0bits.CHS3 = 1;
  2737  0AE1  1283               	bcf	3,5	;RP0=0, select bank0
  2738  0AE2  1303               	bcf	3,6	;RP1=0, select bank0
  2739  0AE3  169F               	bsf	31,5	;volatile
  2740                           
  2741                           ;ADC.c: 163:             ADCON0bits.CHS2 = 0;
  2742  0AE4  121F               	bcf	31,4	;volatile
  2743                           
  2744                           ;ADC.c: 164:             ADCON0bits.CHS1 = 1;
  2745  0AE5  159F               	bsf	31,3	;volatile
  2746                           
  2747                           ;ADC.c: 165:             ADCON0bits.CHS0 = 0;
  2748  0AE6  111F               	bcf	31,2	;volatile
  2749                           
  2750                           ;ADC.c: 166:             break;
  2751  0AE7  2B35               	goto	l90
  2752  0AE8                     l86:	
  2753                           ;ADC.c: 168:         case 11:
  2754                           
  2755                           
  2756                           ;ADC.c: 169:             ADCON0bits.CHS3 = 1;
  2757  0AE8  1283               	bcf	3,5	;RP0=0, select bank0
  2758  0AE9  1303               	bcf	3,6	;RP1=0, select bank0
  2759  0AEA  169F               	bsf	31,5	;volatile
  2760                           
  2761                           ;ADC.c: 170:             ADCON0bits.CHS2 = 0;
  2762  0AEB  121F               	bcf	31,4	;volatile
  2763                           
  2764                           ;ADC.c: 171:             ADCON0bits.CHS1 = 1;
  2765  0AEC  159F               	bsf	31,3	;volatile
  2766                           
  2767                           ;ADC.c: 172:             ADCON0bits.CHS0 = 1;
  2768  0AED  151F               	bsf	31,2	;volatile
  2769                           
  2770                           ;ADC.c: 173:             break;
  2771  0AEE  2B35               	goto	l90
  2772  0AEF                     l87:	
  2773                           ;ADC.c: 175:         case 12:
  2774                           
  2775                           
  2776                           ;ADC.c: 176:             ADCON0bits.CHS3 = 1;
  2777  0AEF  1283               	bcf	3,5	;RP0=0, select bank0
  2778  0AF0  1303               	bcf	3,6	;RP1=0, select bank0
  2779  0AF1  169F               	bsf	31,5	;volatile
  2780                           
  2781                           ;ADC.c: 177:             ADCON0bits.CHS2 = 1;
  2782  0AF2  161F               	bsf	31,4	;volatile
  2783                           
  2784                           ;ADC.c: 178:             ADCON0bits.CHS1 = 0;
  2785  0AF3  119F               	bcf	31,3	;volatile
  2786                           
  2787                           ;ADC.c: 179:             ADCON0bits.CHS0 = 0;
  2788  0AF4  111F               	bcf	31,2	;volatile
  2789                           
  2790                           ;ADC.c: 180:             break;
  2791  0AF5  2B35               	goto	l90
  2792  0AF6                     l88:	
  2793                           ;ADC.c: 182:         case 13:
  2794                           
  2795                           
  2796                           ;ADC.c: 183:             ADCON0bits.CHS3 = 1;
  2797  0AF6  1283               	bcf	3,5	;RP0=0, select bank0
  2798  0AF7  1303               	bcf	3,6	;RP1=0, select bank0
  2799  0AF8  169F               	bsf	31,5	;volatile
  2800                           
  2801                           ;ADC.c: 184:             ADCON0bits.CHS2 = 1;
  2802  0AF9  161F               	bsf	31,4	;volatile
  2803                           
  2804                           ;ADC.c: 185:             ADCON0bits.CHS1 = 0;
  2805  0AFA  119F               	bcf	31,3	;volatile
  2806                           
  2807                           ;ADC.c: 186:             ADCON0bits.CHS0 = 1;
  2808  0AFB  151F               	bsf	31,2	;volatile
  2809                           
  2810                           ;ADC.c: 187:             break;
  2811  0AFC  2B35               	goto	l90
  2812  0AFD                     l89:	
  2813                           ;ADC.c: 189:         default:
  2814                           
  2815                           
  2816                           ;ADC.c: 190:             ADCON0bits.CHS3 = 0;
  2817  0AFD  1283               	bcf	3,5	;RP0=0, select bank0
  2818  0AFE  1303               	bcf	3,6	;RP1=0, select bank0
  2819  0AFF  129F               	bcf	31,5	;volatile
  2820                           
  2821                           ;ADC.c: 191:             ADCON0bits.CHS2 = 0;
  2822  0B00  121F               	bcf	31,4	;volatile
  2823                           
  2824                           ;ADC.c: 192:             ADCON0bits.CHS1 = 0;
  2825  0B01  119F               	bcf	31,3	;volatile
  2826                           
  2827                           ;ADC.c: 193:             ADCON0bits.CHS0 = 0;
  2828  0B02  111F               	bcf	31,2	;volatile
  2829                           
  2830                           ;ADC.c: 194:             break;
  2831  0B03  2B35               	goto	l90
  2832  0B04                     l2567:
  2833                           
  2834                           ; Switch on 2 bytes has been partitioned into a top level switch of size 1, and 1 sub-sw
      +                          itches
  2835                           ; Switch size 1, requested type "simple"
  2836                           ; Number of cases is 1, Range of values is 0 to 0
  2837                           ; switch strategies available:
  2838                           ; Name         Instructions Cycles
  2839                           ; simple_byte            4     3 (average)
  2840                           ; direct_byte           11     8 (fixed)
  2841                           ; jumptable            260     6 (fixed)
  2842                           ;	Chosen strategy is simple_byte
  2843  0B04  0871               	movf	ADC_INIT@c+1,w
  2844  0B05  3A00               	xorlw	0	; case 0
  2845  0B06  1903               	skipnz
  2846  0B07  2B09               	goto	l2833
  2847  0B08  2AFD               	goto	l89
  2848  0B09                     l2833:
  2849                           
  2850                           ; Switch size 1, requested type "simple"
  2851                           ; Number of cases is 14, Range of values is 0 to 13
  2852                           ; switch strategies available:
  2853                           ; Name         Instructions Cycles
  2854                           ; simple_byte           43    22 (average)
  2855                           ; direct_byte           50     8 (fixed)
  2856                           ; jumptable            260     6 (fixed)
  2857                           ;	Chosen strategy is simple_byte
  2858  0B09  0870               	movf	ADC_INIT@c,w
  2859  0B0A  3A00               	xorlw	0	; case 0
  2860  0B0B  1903               	skipnz
  2861  0B0C  2A9B               	goto	l74
  2862  0B0D  3A01               	xorlw	1	; case 1
  2863  0B0E  1903               	skipnz
  2864  0B0F  2AA2               	goto	l76
  2865  0B10  3A03               	xorlw	3	; case 2
  2866  0B11  1903               	skipnz
  2867  0B12  2AA9               	goto	l77
  2868  0B13  3A01               	xorlw	1	; case 3
  2869  0B14  1903               	skipnz
  2870  0B15  2AB0               	goto	l78
  2871  0B16  3A07               	xorlw	7	; case 4
  2872  0B17  1903               	skipnz
  2873  0B18  2AB7               	goto	l79
  2874  0B19  3A01               	xorlw	1	; case 5
  2875  0B1A  1903               	skipnz
  2876  0B1B  2ABE               	goto	l80
  2877  0B1C  3A03               	xorlw	3	; case 6
  2878  0B1D  1903               	skipnz
  2879  0B1E  2AC5               	goto	l81
  2880  0B1F  3A01               	xorlw	1	; case 7
  2881  0B20  1903               	skipnz
  2882  0B21  2ACC               	goto	l82
  2883  0B22  3A0F               	xorlw	15	; case 8
  2884  0B23  1903               	skipnz
  2885  0B24  2AD3               	goto	l83
  2886  0B25  3A01               	xorlw	1	; case 9
  2887  0B26  1903               	skipnz
  2888  0B27  2ADA               	goto	l84
  2889  0B28  3A03               	xorlw	3	; case 10
  2890  0B29  1903               	skipnz
  2891  0B2A  2AE1               	goto	l85
  2892  0B2B  3A01               	xorlw	1	; case 11
  2893  0B2C  1903               	skipnz
  2894  0B2D  2AE8               	goto	l86
  2895  0B2E  3A07               	xorlw	7	; case 12
  2896  0B2F  1903               	skipnz
  2897  0B30  2AEF               	goto	l87
  2898  0B31  3A01               	xorlw	1	; case 13
  2899  0B32  1903               	skipnz
  2900  0B33  2AF6               	goto	l88
  2901  0B34  2AFD               	goto	l89
  2902  0B35                     l90:
  2903  0B35  0008               	return
  2904  0B36                     __end_of_ADC_INIT:
  2905                           
  2906                           	psect	text7
  2907  16D8                     __ptext7:	
  2908 ;; *************** function _USART_WRITE *****************
  2909 ;; Defined at:
  2910 ;;		line 35 in file "USART.c"
  2911 ;; Parameters:    Size  Location     Type
  2912 ;;  c               1    wreg     PTR unsigned char 
  2913 ;;		 -> STR_6(5), STR_5(2), STR_4(2), STR_3(17), 
  2914 ;;		 -> STR_2(23), STR_1(24), 
  2915 ;; Auto vars:     Size  Location     Type
  2916 ;;  c               1    2[COMMON] PTR unsigned char 
  2917 ;;		 -> STR_6(5), STR_5(2), STR_4(2), STR_3(17), 
  2918 ;;		 -> STR_2(23), STR_1(24), 
  2919 ;; Return value:  Size  Location     Type
  2920 ;;                  1    wreg      void 
  2921 ;; Registers used:
  2922 ;;		wreg, fsr0l, fsr0h, status,2, status,0, pclath, cstack
  2923 ;; Tracked objects:
  2924 ;;		On entry : 0/0
  2925 ;;		On exit  : 0/0
  2926 ;;		Unchanged: 0/0
  2927 ;; Data sizes:     COMMON   BANK0   BANK1   BANK3   BANK2
  2928 ;;      Params:         0       0       0       0       0
  2929 ;;      Locals:         1       0       0       0       0
  2930 ;;      Temps:          1       0       0       0       0
  2931 ;;      Totals:         2       0       0       0       0
  2932 ;;Total ram usage:        2 bytes
  2933 ;; Hardware stack levels used: 1
  2934 ;; Hardware stack levels required when called: 1
  2935 ;; This function calls:
  2936 ;;		_USART_CHAR
  2937 ;; This function is called by:
  2938 ;;		_main
  2939 ;; This function uses a non-reentrant model
  2940 ;;
  2941                           
  2942  16D8                     _USART_WRITE:	
  2943                           ;psect for function _USART_WRITE
  2944                           
  2945                           
  2946                           ;incstack = 0
  2947                           ; Regs used in _USART_WRITE: [wreg-fsr0h+status,2+status,0+pclath+cstack]
  2948                           ;USART_WRITE@c stored from wreg
  2949  16D8  00F2               	movwf	USART_WRITE@c
  2950  16D9                     l2627:
  2951                           
  2952                           ;USART.c: 36:     while(*c != '\0'){
  2953  16D9  2EEA               	goto	l2633
  2954  16DA                     l2629:
  2955                           
  2956                           ;USART.c: 37:         USART_CHAR(*c);
  2957  16DA  0872               	movf	USART_WRITE@c,w
  2958  16DB  0084               	movwf	4
  2959  16DC  120A  158A  2000  160A  118A  	fcall	stringdir
  2960  16E1  160A  118A  2680  160A  118A  	fcall	_USART_CHAR
  2961  16E6                     l2631:
  2962                           
  2963                           ;USART.c: 38:         c++;
  2964  16E6  3001               	movlw	1
  2965  16E7  00F1               	movwf	??_USART_WRITE
  2966  16E8  0871               	movf	??_USART_WRITE,w
  2967  16E9  07F2               	addwf	USART_WRITE@c,f
  2968  16EA                     l2633:
  2969                           
  2970                           ;USART.c: 36:     while(*c != '\0'){
  2971  16EA  0872               	movf	USART_WRITE@c,w
  2972  16EB  0084               	movwf	4
  2973  16EC  120A  158A  2000  160A  118A  	fcall	stringdir
  2974  16F1  3A00               	xorlw	0
  2975  16F2  1D03               	skipz
  2976  16F3  2EF5               	goto	u3451
  2977  16F4  2EF6               	goto	u3450
  2978  16F5                     u3451:
  2979  16F5  2EDA               	goto	l2629
  2980  16F6                     u3450:
  2981  16F6                     l139:
  2982  16F6  0008               	return
  2983  16F7                     __end_of_USART_WRITE:
  2984                           
  2985                           	psect	text8
  2986  1680                     __ptext8:	
  2987 ;; *************** function _USART_CHAR *****************
  2988 ;; Defined at:
  2989 ;;		line 31 in file "USART.c"
  2990 ;; Parameters:    Size  Location     Type
  2991 ;;  d               1    wreg     unsigned char 
  2992 ;; Auto vars:     Size  Location     Type
  2993 ;;  d               1    0[COMMON] unsigned char 
  2994 ;; Return value:  Size  Location     Type
  2995 ;;                  1    wreg      void 
  2996 ;; Registers used:
  2997 ;;		wreg
  2998 ;; Tracked objects:
  2999 ;;		On entry : 0/0
  3000 ;;		On exit  : 0/0
  3001 ;;		Unchanged: 0/0
  3002 ;; Data sizes:     COMMON   BANK0   BANK1   BANK3   BANK2
  3003 ;;      Params:         0       0       0       0       0
  3004 ;;      Locals:         1       0       0       0       0
  3005 ;;      Temps:          0       0       0       0       0
  3006 ;;      Totals:         1       0       0       0       0
  3007 ;;Total ram usage:        1 bytes
  3008 ;; Hardware stack levels used: 1
  3009 ;; This function calls:
  3010 ;;		Nothing
  3011 ;; This function is called by:
  3012 ;;		_USART_WRITE
  3013 ;;		_main
  3014 ;; This function uses a non-reentrant model
  3015 ;;
  3016                           
  3017  1680                     _USART_CHAR:	
  3018                           ;psect for function _USART_CHAR
  3019                           
  3020                           
  3021                           ;incstack = 0
  3022                           ; Regs used in _USART_CHAR: [wreg]
  3023                           ;USART_CHAR@d stored from wreg
  3024  1680  00F0               	movwf	USART_CHAR@d
  3025  1681                     l2595:
  3026  1681                     l130:	
  3027                           ;USART.c: 32:     while(TXSTAbits.TRMT == 0);
  3028                           
  3029  1681  1683               	bsf	3,5	;RP0=1, select bank1
  3030  1682  1303               	bcf	3,6	;RP1=0, select bank1
  3031  1683  1C98               	btfss	24,1	;volatile
  3032  1684  2E86               	goto	u3411
  3033  1685  2E87               	goto	u3410
  3034  1686                     u3411:
  3035  1686  2E81               	goto	l130
  3036  1687                     u3410:
  3037  1687                     l2597:
  3038                           
  3039                           ;USART.c: 33:         TXREG = d;
  3040  1687  0870               	movf	USART_CHAR@d,w
  3041  1688  1283               	bcf	3,5	;RP0=0, select bank0
  3042  1689  1303               	bcf	3,6	;RP1=0, select bank0
  3043  168A  0099               	movwf	25	;volatile
  3044  168B                     l133:
  3045  168B  0008               	return
  3046  168C                     __end_of_USART_CHAR:
  3047                           
  3048                           	psect	text9
  3049  168C                     __ptext9:	
  3050 ;; *************** function _USART_READ *****************
  3051 ;; Defined at:
  3052 ;;		line 41 in file "USART.c"
  3053 ;; Parameters:    Size  Location     Type
  3054 ;;		None
  3055 ;; Auto vars:     Size  Location     Type
  3056 ;;		None
  3057 ;; Return value:  Size  Location     Type
  3058 ;;                  1    wreg      unsigned char 
  3059 ;; Registers used:
  3060 ;;		wreg
  3061 ;; Tracked objects:
  3062 ;;		On entry : 0/0
  3063 ;;		On exit  : 0/0
  3064 ;;		Unchanged: 0/0
  3065 ;; Data sizes:     COMMON   BANK0   BANK1   BANK3   BANK2
  3066 ;;      Params:         0       0       0       0       0
  3067 ;;      Locals:         0       0       0       0       0
  3068 ;;      Temps:          3       0       0       0       0
  3069 ;;      Totals:         3       0       0       0       0
  3070 ;;Total ram usage:        3 bytes
  3071 ;; Hardware stack levels used: 1
  3072 ;; This function calls:
  3073 ;;		Nothing
  3074 ;; This function is called by:
  3075 ;;		_main
  3076 ;; This function uses a non-reentrant model
  3077 ;;
  3078                           
  3079  168C                     _USART_READ:	
  3080                           ;psect for function _USART_READ
  3081                           
  3082  168C                     l2635:	
  3083                           ;incstack = 0
  3084                           ; Regs used in _USART_READ: [wreg]
  3085                           
  3086                           
  3087                           ;USART.c: 43:     if(PIR1bits.RCIF == 1){
  3088  168C  1283               	bcf	3,5	;RP0=0, select bank0
  3089  168D  1303               	bcf	3,6	;RP1=0, select bank0
  3090  168E  1E8C               	btfss	12,5	;volatile
  3091  168F  2E91               	goto	u3461
  3092  1690  2E92               	goto	u3460
  3093  1691                     u3461:
  3094  1691  2E94               	goto	l2641
  3095  1692                     u3460:
  3096  1692                     l2637:
  3097                           
  3098                           ;USART.c: 44:         return RCREG;
  3099  1692  081A               	movf	26,w	;volatile
  3100  1693  2EA1               	goto	l143
  3101  1694                     l2641:
  3102                           
  3103                           ;USART.c: 46:     _delay((unsigned long)((100)*(8000000/4000.0)));
  3104  1694  3002               	movlw	2
  3105  1695  00F2               	movwf	??_USART_READ+2
  3106  1696  3004               	movlw	4
  3107  1697  00F1               	movwf	??_USART_READ+1
  3108  1698  30BA               	movlw	186
  3109  1699  00F0               	movwf	??_USART_READ
  3110  169A                     u3577:
  3111  169A  0BF0               	decfsz	??_USART_READ,f
  3112  169B  2E9A               	goto	u3577
  3113  169C  0BF1               	decfsz	??_USART_READ+1,f
  3114  169D  2E9A               	goto	u3577
  3115  169E  0BF2               	decfsz	??_USART_READ+2,f
  3116  169F  2E9A               	goto	u3577
  3117  16A0  0000               	nop
  3118  16A1                     l143:
  3119  16A1  0008               	return
  3120  16A2                     __end_of_USART_READ:
  3121                           
  3122                           	psect	text10
  3123  0D66                     __ptext10:	
  3124 ;; *************** function _UNIDAD *****************
  3125 ;; Defined at:
  3126 ;;		line 22 in file "ADC.c"
  3127 ;; Parameters:    Size  Location     Type
  3128 ;;  c               1    wreg     unsigned char 
  3129 ;; Auto vars:     Size  Location     Type
  3130 ;;  c               1   38[BANK1 ] unsigned char 
  3131 ;; Return value:  Size  Location     Type
  3132 ;;                  1    wreg      unsigned char 
  3133 ;; Registers used:
  3134 ;;		wreg, status,2, status,0, btemp+1, pclath, cstack
  3135 ;; Tracked objects:
  3136 ;;		On entry : 0/0
  3137 ;;		On exit  : 0/0
  3138 ;;		Unchanged: 0/0
  3139 ;; Data sizes:     COMMON   BANK0   BANK1   BANK3   BANK2
  3140 ;;      Params:         0       0       0       0       0
  3141 ;;      Locals:         0       0      11       0       0
  3142 ;;      Temps:          0       0       4       0       0
  3143 ;;      Totals:         0       0      15       0       0
  3144 ;;Total ram usage:       15 bytes
  3145 ;; Hardware stack levels used: 1
  3146 ;; Hardware stack levels required when called: 4
  3147 ;; This function calls:
  3148 ;;		_CENTENA
  3149 ;;		_DECENA
  3150 ;;		___flmul
  3151 ;;		___flsub
  3152 ;;		___fltol
  3153 ;;		___wmul
  3154 ;;		___xxtofl
  3155 ;; This function is called by:
  3156 ;;		_main
  3157 ;; This function uses a non-reentrant model
  3158 ;;
  3159                           
  3160  0D66                     _UNIDAD:	
  3161                           ;psect for function _UNIDAD
  3162                           
  3163                           
  3164                           ;incstack = 0
  3165                           ; Regs used in _UNIDAD: [wreg+status,2+status,0+btemp+1+pclath+cstack]
  3166                           ;UNIDAD@c stored from wreg
  3167  0D66  1683               	bsf	3,5	;RP0=1, select bank1
  3168  0D67  1303               	bcf	3,6	;RP1=0, select bank1
  3169  0D68  00C6               	movwf	UNIDAD@c^(0+128)
  3170  0D69                     l2617:
  3171                           
  3172                           ;ADC.c: 23:     c = (uint8_t)((c*1.9607) - CENTENA(c)*100 - DECENA(c)*10);
  3173  0D69  3064               	movlw	100
  3174  0D6A  1283               	bcf	3,5	;RP0=0, select bank0
  3175  0D6B  1303               	bcf	3,6	;RP1=0, select bank0
  3176  0D6C  00E7               	movwf	___wmul@multiplicand
  3177  0D6D  3000               	movlw	0
  3178  0D6E  00E8               	movwf	___wmul@multiplicand+1
  3179  0D6F  1683               	bsf	3,5	;RP0=1, select bank1
  3180  0D70  1303               	bcf	3,6	;RP1=0, select bank1
  3181  0D71  0846               	movf	UNIDAD@c^(0+128),w
  3182  0D72  120A  158A  2138  120A  158A  	fcall	_CENTENA
  3183  0D77  1683               	bsf	3,5	;RP0=1, select bank1
  3184  0D78  1303               	bcf	3,6	;RP1=0, select bank1
  3185  0D79  00B8               	movwf	??_UNIDAD^(0+128)
  3186  0D7A  01B9               	clrf	(??_UNIDAD^(0+128)+1)
  3187  0D7B  0838               	movf	??_UNIDAD^(0+128),w
  3188  0D7C  1283               	bcf	3,5	;RP0=0, select bank0
  3189  0D7D  1303               	bcf	3,6	;RP1=0, select bank0
  3190  0D7E  00E5               	movwf	___wmul@multiplier
  3191  0D7F  1683               	bsf	3,5	;RP0=1, select bank1
  3192  0D80  1303               	bcf	3,6	;RP1=0, select bank1
  3193  0D81  0839               	movf	(??_UNIDAD+1)^(0+128),w
  3194  0D82  1283               	bcf	3,5	;RP0=0, select bank0
  3195  0D83  1303               	bcf	3,6	;RP1=0, select bank0
  3196  0D84  00E6               	movwf	___wmul@multiplier+1
  3197  0D85  120A  158A  206A  120A  158A  	fcall	___wmul
  3198  0D8A  1283               	bcf	3,5	;RP0=0, select bank0
  3199  0D8B  1303               	bcf	3,6	;RP1=0, select bank0
  3200  0D8C  0865               	movf	?___wmul,w
  3201  0D8D  1683               	bsf	3,5	;RP0=1, select bank1
  3202  0D8E  1303               	bcf	3,6	;RP1=0, select bank1
  3203  0D8F  00BC               	movwf	_UNIDAD$1085^(0+128)
  3204  0D90  1283               	bcf	3,5	;RP0=0, select bank0
  3205  0D91  1303               	bcf	3,6	;RP1=0, select bank0
  3206  0D92  0866               	movf	?___wmul+1,w
  3207  0D93  1683               	bsf	3,5	;RP0=1, select bank1
  3208  0D94  1303               	bcf	3,6	;RP1=0, select bank1
  3209  0D95  00BD               	movwf	(_UNIDAD$1085+1)^(0+128)
  3210  0D96  3000               	movlw	0
  3211  0D97  1BBD               	btfsc	(_UNIDAD$1085+1)^(0+128),7
  3212  0D98  30FF               	movlw	255
  3213  0D99  00BE               	movwf	(_UNIDAD$1085+2)^(0+128)
  3214  0D9A  00BF               	movwf	(_UNIDAD$1085+3)^(0+128)
  3215                           
  3216                           ;ADC.c: 23:     c = (uint8_t)((c*1.9607) - CENTENA(c)*100 - DECENA(c)*10);
  3217  0D9B  0846               	movf	UNIDAD@c^(0+128),w
  3218  0D9C  120A  158A  248D  120A  158A  	fcall	_DECENA
  3219  0DA1  1683               	bsf	3,5	;RP0=1, select bank1
  3220  0DA2  1303               	bcf	3,6	;RP1=0, select bank1
  3221  0DA3  00B8               	movwf	??_UNIDAD^(0+128)
  3222  0DA4  01B9               	clrf	(??_UNIDAD^(0+128)+1)
  3223  0DA5  0838               	movf	??_UNIDAD^(0+128),w
  3224  0DA6  00C4               	movwf	_UNIDAD$1086^(0+128)
  3225  0DA7  0839               	movf	(??_UNIDAD+1)^(0+128),w
  3226  0DA8  00C5               	movwf	(_UNIDAD$1086+1)^(0+128)
  3227                           
  3228                           ;ADC.c: 23:     c = (uint8_t)((c*1.9607) - CENTENA(c)*100 - DECENA(c)*10);
  3229  0DA9  0846               	movf	UNIDAD@c^(0+128),w
  3230  0DAA  00B8               	movwf	??_UNIDAD^(0+128)
  3231  0DAB  01B9               	clrf	(??_UNIDAD^(0+128)+1)
  3232  0DAC  01BA               	clrf	(??_UNIDAD^(0+128)+2)
  3233  0DAD  01BB               	clrf	(??_UNIDAD^(0+128)+3)
  3234  0DAE  083B               	movf	(??_UNIDAD+3)^(0+128),w
  3235  0DAF  00F3               	movwf	___xxtofl@val+3
  3236  0DB0  083A               	movf	(??_UNIDAD+2)^(0+128),w
  3237  0DB1  00F2               	movwf	___xxtofl@val+2
  3238  0DB2  0839               	movf	(??_UNIDAD+1)^(0+128),w
  3239  0DB3  00F1               	movwf	___xxtofl@val+1
  3240  0DB4  0838               	movf	??_UNIDAD^(0+128),w
  3241  0DB5  00F0               	movwf	___xxtofl@val
  3242  0DB6  3001               	movlw	1
  3243  0DB7  120A  158A  23D3  120A  158A  	fcall	___xxtofl
  3244  0DBC  0873               	movf	?___xxtofl+3,w
  3245  0DBD  1283               	bcf	3,5	;RP0=0, select bank0
  3246  0DBE  1303               	bcf	3,6	;RP1=0, select bank0
  3247  0DBF  00A7               	movwf	___flmul@a+3
  3248  0DC0  0872               	movf	?___xxtofl+2,w
  3249  0DC1  00A6               	movwf	___flmul@a+2
  3250  0DC2  0871               	movf	?___xxtofl+1,w
  3251  0DC3  00A5               	movwf	___flmul@a+1
  3252  0DC4  0870               	movf	?___xxtofl,w
  3253  0DC5  00A4               	movwf	___flmul@a
  3254  0DC6  303F               	movlw	63
  3255  0DC7  00A3               	movwf	___flmul@b+3
  3256  0DC8  30FA               	movlw	250
  3257  0DC9  00A2               	movwf	___flmul@b+2
  3258  0DCA  30F8               	movlw	248
  3259  0DCB  00A1               	movwf	___flmul@b+1
  3260  0DCC  3038               	movlw	56
  3261  0DCD  00A0               	movwf	___flmul@b
  3262  0DCE  120A  118A  2493  120A  158A  	fcall	___flmul
  3263  0DD3  1283               	bcf	3,5	;RP0=0, select bank0
  3264  0DD4  1303               	bcf	3,6	;RP1=0, select bank0
  3265  0DD5  0823               	movf	?___flmul+3,w
  3266  0DD6  1683               	bsf	3,5	;RP0=1, select bank1
  3267  0DD7  1303               	bcf	3,6	;RP1=0, select bank1
  3268  0DD8  00A7               	movwf	(___flsub@b+3)^(0+128)
  3269  0DD9  1283               	bcf	3,5	;RP0=0, select bank0
  3270  0DDA  1303               	bcf	3,6	;RP1=0, select bank0
  3271  0DDB  0822               	movf	?___flmul+2,w
  3272  0DDC  1683               	bsf	3,5	;RP0=1, select bank1
  3273  0DDD  1303               	bcf	3,6	;RP1=0, select bank1
  3274  0DDE  00A6               	movwf	(___flsub@b+2)^(0+128)
  3275  0DDF  1283               	bcf	3,5	;RP0=0, select bank0
  3276  0DE0  1303               	bcf	3,6	;RP1=0, select bank0
  3277  0DE1  0821               	movf	?___flmul+1,w
  3278  0DE2  1683               	bsf	3,5	;RP0=1, select bank1
  3279  0DE3  1303               	bcf	3,6	;RP1=0, select bank1
  3280  0DE4  00A5               	movwf	(___flsub@b+1)^(0+128)
  3281  0DE5  1283               	bcf	3,5	;RP0=0, select bank0
  3282  0DE6  1303               	bcf	3,6	;RP1=0, select bank0
  3283  0DE7  0820               	movf	?___flmul,w
  3284  0DE8  1683               	bsf	3,5	;RP0=1, select bank1
  3285  0DE9  1303               	bcf	3,6	;RP1=0, select bank1
  3286  0DEA  00A4               	movwf	___flsub@b^(0+128)
  3287  0DEB  083F               	movf	(_UNIDAD$1085+3)^(0+128),w
  3288  0DEC  00F3               	movwf	___xxtofl@val+3
  3289  0DED  083E               	movf	(_UNIDAD$1085+2)^(0+128),w
  3290  0DEE  00F2               	movwf	___xxtofl@val+2
  3291  0DEF  083D               	movf	(_UNIDAD$1085+1)^(0+128),w
  3292  0DF0  00F1               	movwf	___xxtofl@val+1
  3293  0DF1  083C               	movf	_UNIDAD$1085^(0+128),w
  3294  0DF2  00F0               	movwf	___xxtofl@val
  3295  0DF3  3001               	movlw	1
  3296  0DF4  120A  158A  23D3  120A  158A  	fcall	___xxtofl
  3297  0DF9  0873               	movf	?___xxtofl+3,w
  3298  0DFA  1683               	bsf	3,5	;RP0=1, select bank1
  3299  0DFB  1303               	bcf	3,6	;RP1=0, select bank1
  3300  0DFC  00A3               	movwf	(___flsub@a+3)^(0+128)
  3301  0DFD  0872               	movf	?___xxtofl+2,w
  3302  0DFE  00A2               	movwf	(___flsub@a+2)^(0+128)
  3303  0DFF  0871               	movf	?___xxtofl+1,w
  3304  0E00  00A1               	movwf	(___flsub@a+1)^(0+128)
  3305  0E01  0870               	movf	?___xxtofl,w
  3306  0E02  00A0               	movwf	___flsub@a^(0+128)
  3307  0E03  160A  118A  26F7  120A  158A  	fcall	___flsub
  3308  0E08  1683               	bsf	3,5	;RP0=1, select bank1
  3309  0E09  1303               	bcf	3,6	;RP1=0, select bank1
  3310  0E0A  0823               	movf	(?___flsub+3)^(0+128),w
  3311  0E0B  00C3               	movwf	(_UNIDAD$1087+3)^(0+128)
  3312  0E0C  0822               	movf	(?___flsub+2)^(0+128),w
  3313  0E0D  00C2               	movwf	(_UNIDAD$1087+2)^(0+128)
  3314  0E0E  0821               	movf	(?___flsub+1)^(0+128),w
  3315  0E0F  00C1               	movwf	(_UNIDAD$1087+1)^(0+128)
  3316  0E10  0820               	movf	?___flsub^(0+128),w
  3317  0E11  00C0               	movwf	_UNIDAD$1087^(0+128)
  3318                           
  3319                           ;ADC.c: 23:     c = (uint8_t)((c*1.9607) - CENTENA(c)*100 - DECENA(c)*10);
  3320  0E12  0843               	movf	(_UNIDAD$1087+3)^(0+128),w
  3321  0E13  00A7               	movwf	(___flsub@b+3)^(0+128)
  3322  0E14  0842               	movf	(_UNIDAD$1087+2)^(0+128),w
  3323  0E15  00A6               	movwf	(___flsub@b+2)^(0+128)
  3324  0E16  0841               	movf	(_UNIDAD$1087+1)^(0+128),w
  3325  0E17  00A5               	movwf	(___flsub@b+1)^(0+128)
  3326  0E18  0840               	movf	_UNIDAD$1087^(0+128),w
  3327  0E19  00A4               	movwf	___flsub@b^(0+128)
  3328  0E1A  300A               	movlw	10
  3329  0E1B  1283               	bcf	3,5	;RP0=0, select bank0
  3330  0E1C  1303               	bcf	3,6	;RP1=0, select bank0
  3331  0E1D  00E7               	movwf	___wmul@multiplicand
  3332  0E1E  3000               	movlw	0
  3333  0E1F  00E8               	movwf	___wmul@multiplicand+1
  3334  0E20  1683               	bsf	3,5	;RP0=1, select bank1
  3335  0E21  1303               	bcf	3,6	;RP1=0, select bank1
  3336  0E22  0845               	movf	(_UNIDAD$1086+1)^(0+128),w
  3337  0E23  1283               	bcf	3,5	;RP0=0, select bank0
  3338  0E24  1303               	bcf	3,6	;RP1=0, select bank0
  3339  0E25  00E6               	movwf	___wmul@multiplier+1
  3340  0E26  1683               	bsf	3,5	;RP0=1, select bank1
  3341  0E27  1303               	bcf	3,6	;RP1=0, select bank1
  3342  0E28  0844               	movf	_UNIDAD$1086^(0+128),w
  3343  0E29  1283               	bcf	3,5	;RP0=0, select bank0
  3344  0E2A  1303               	bcf	3,6	;RP1=0, select bank0
  3345  0E2B  00E5               	movwf	___wmul@multiplier
  3346  0E2C  120A  158A  206A  120A  158A  	fcall	___wmul
  3347  0E31  1283               	bcf	3,5	;RP0=0, select bank0
  3348  0E32  1303               	bcf	3,6	;RP1=0, select bank0
  3349  0E33  0865               	movf	?___wmul,w
  3350  0E34  00F0               	movwf	___xxtofl@val
  3351  0E35  0866               	movf	?___wmul+1,w
  3352  0E36  00F1               	movwf	___xxtofl@val+1
  3353  0E37  3000               	movlw	0
  3354  0E38  1BF1               	btfsc	___xxtofl@val+1,7
  3355  0E39  30FF               	movlw	255
  3356  0E3A  00F2               	movwf	___xxtofl@val+2
  3357  0E3B  00F3               	movwf	___xxtofl@val+3
  3358  0E3C  3001               	movlw	1
  3359  0E3D  120A  158A  23D3  120A  158A  	fcall	___xxtofl
  3360  0E42  0873               	movf	?___xxtofl+3,w
  3361  0E43  1683               	bsf	3,5	;RP0=1, select bank1
  3362  0E44  1303               	bcf	3,6	;RP1=0, select bank1
  3363  0E45  00A3               	movwf	(___flsub@a+3)^(0+128)
  3364  0E46  0872               	movf	?___xxtofl+2,w
  3365  0E47  00A2               	movwf	(___flsub@a+2)^(0+128)
  3366  0E48  0871               	movf	?___xxtofl+1,w
  3367  0E49  00A1               	movwf	(___flsub@a+1)^(0+128)
  3368  0E4A  0870               	movf	?___xxtofl,w
  3369  0E4B  00A0               	movwf	___flsub@a^(0+128)
  3370  0E4C  160A  118A  26F7  120A  158A  	fcall	___flsub
  3371  0E51  1683               	bsf	3,5	;RP0=1, select bank1
  3372  0E52  1303               	bcf	3,6	;RP1=0, select bank1
  3373  0E53  0823               	movf	(?___flsub+3)^(0+128),w
  3374  0E54  1283               	bcf	3,5	;RP0=0, select bank0
  3375  0E55  1303               	bcf	3,6	;RP1=0, select bank0
  3376  0E56  00D7               	movwf	___fltol@f1+3
  3377  0E57  1683               	bsf	3,5	;RP0=1, select bank1
  3378  0E58  1303               	bcf	3,6	;RP1=0, select bank1
  3379  0E59  0822               	movf	(?___flsub+2)^(0+128),w
  3380  0E5A  1283               	bcf	3,5	;RP0=0, select bank0
  3381  0E5B  1303               	bcf	3,6	;RP1=0, select bank0
  3382  0E5C  00D6               	movwf	___fltol@f1+2
  3383  0E5D  1683               	bsf	3,5	;RP0=1, select bank1
  3384  0E5E  1303               	bcf	3,6	;RP1=0, select bank1
  3385  0E5F  0821               	movf	(?___flsub+1)^(0+128),w
  3386  0E60  1283               	bcf	3,5	;RP0=0, select bank0
  3387  0E61  1303               	bcf	3,6	;RP1=0, select bank0
  3388  0E62  00D5               	movwf	___fltol@f1+1
  3389  0E63  1683               	bsf	3,5	;RP0=1, select bank1
  3390  0E64  1303               	bcf	3,6	;RP1=0, select bank1
  3391  0E65  0820               	movf	?___flsub^(0+128),w
  3392  0E66  1283               	bcf	3,5	;RP0=0, select bank0
  3393  0E67  1303               	bcf	3,6	;RP1=0, select bank0
  3394  0E68  00D4               	movwf	___fltol@f1
  3395  0E69  120A  158A  2193  120A  158A  	fcall	___fltol
  3396  0E6E  1283               	bcf	3,5	;RP0=0, select bank0
  3397  0E6F  1303               	bcf	3,6	;RP1=0, select bank0
  3398  0E70  0854               	movf	?___fltol,w
  3399  0E71  1683               	bsf	3,5	;RP0=1, select bank1
  3400  0E72  1303               	bcf	3,6	;RP1=0, select bank1
  3401  0E73  00B8               	movwf	??_UNIDAD^(0+128)
  3402  0E74  0838               	movf	??_UNIDAD^(0+128),w
  3403  0E75  00C6               	movwf	UNIDAD@c^(0+128)
  3404  0E76                     l2619:
  3405                           
  3406                           ;ADC.c: 24:     return c;
  3407  0E76  0846               	movf	UNIDAD@c^(0+128),w
  3408  0E77                     l56:
  3409  0E77  0008               	return
  3410  0E78                     __end_of_UNIDAD:
  3411                           
  3412                           	psect	text11
  3413  0C8D                     __ptext11:	
  3414 ;; *************** function _DECENA *****************
  3415 ;; Defined at:
  3416 ;;		line 17 in file "ADC.c"
  3417 ;; Parameters:    Size  Location     Type
  3418 ;;  c               1    wreg     unsigned char 
  3419 ;; Auto vars:     Size  Location     Type
  3420 ;;  c               1   23[BANK1 ] unsigned char 
  3421 ;; Return value:  Size  Location     Type
  3422 ;;                  1    wreg      unsigned char 
  3423 ;; Registers used:
  3424 ;;		wreg, status,2, status,0, btemp+1, pclath, cstack
  3425 ;; Tracked objects:
  3426 ;;		On entry : 0/0
  3427 ;;		On exit  : 0/0
  3428 ;;		Unchanged: 0/0
  3429 ;; Data sizes:     COMMON   BANK0   BANK1   BANK3   BANK2
  3430 ;;      Params:         0       0       0       0       0
  3431 ;;      Locals:         0       0       5       0       0
  3432 ;;      Temps:          0       0       7       0       0
  3433 ;;      Totals:         0       0      12       0       0
  3434 ;;Total ram usage:       12 bytes
  3435 ;; Hardware stack levels used: 1
  3436 ;; Hardware stack levels required when called: 3
  3437 ;; This function calls:
  3438 ;;		_CENTENA
  3439 ;;		___awdiv
  3440 ;;		___flmul
  3441 ;;		___flsub
  3442 ;;		___fltol
  3443 ;;		___wmul
  3444 ;;		___xxtofl
  3445 ;; This function is called by:
  3446 ;;		_UNIDAD
  3447 ;;		_main
  3448 ;; This function uses a non-reentrant model
  3449 ;;
  3450                           
  3451  0C8D                     _DECENA:	
  3452                           ;psect for function _DECENA
  3453                           
  3454                           
  3455                           ;incstack = 0
  3456                           ; Regs used in _DECENA: [wreg+status,2+status,0+btemp+1+pclath+cstack]
  3457                           ;DECENA@c stored from wreg
  3458  0C8D  1683               	bsf	3,5	;RP0=1, select bank1
  3459  0C8E  1303               	bcf	3,6	;RP1=0, select bank1
  3460  0C8F  00B7               	movwf	DECENA@c^(0+128)
  3461  0C90                     l2547:
  3462                           
  3463                           ;ADC.c: 18:     c = (uint8_t)((c*1.9607) - CENTENA(c)*100)/10;
  3464  0C90  3064               	movlw	100
  3465  0C91  1283               	bcf	3,5	;RP0=0, select bank0
  3466  0C92  1303               	bcf	3,6	;RP1=0, select bank0
  3467  0C93  00E7               	movwf	___wmul@multiplicand
  3468  0C94  3000               	movlw	0
  3469  0C95  00E8               	movwf	___wmul@multiplicand+1
  3470  0C96  1683               	bsf	3,5	;RP0=1, select bank1
  3471  0C97  1303               	bcf	3,6	;RP1=0, select bank1
  3472  0C98  0837               	movf	DECENA@c^(0+128),w
  3473  0C99  120A  158A  2138  120A  158A  	fcall	_CENTENA
  3474  0C9E  1683               	bsf	3,5	;RP0=1, select bank1
  3475  0C9F  1303               	bcf	3,6	;RP1=0, select bank1
  3476  0CA0  00AC               	movwf	??_DECENA^(0+128)
  3477  0CA1  01AD               	clrf	(??_DECENA^(0+128)+1)
  3478  0CA2  082C               	movf	??_DECENA^(0+128),w
  3479  0CA3  1283               	bcf	3,5	;RP0=0, select bank0
  3480  0CA4  1303               	bcf	3,6	;RP1=0, select bank0
  3481  0CA5  00E5               	movwf	___wmul@multiplier
  3482  0CA6  1683               	bsf	3,5	;RP0=1, select bank1
  3483  0CA7  1303               	bcf	3,6	;RP1=0, select bank1
  3484  0CA8  082D               	movf	(??_DECENA+1)^(0+128),w
  3485  0CA9  1283               	bcf	3,5	;RP0=0, select bank0
  3486  0CAA  1303               	bcf	3,6	;RP1=0, select bank0
  3487  0CAB  00E6               	movwf	___wmul@multiplier+1
  3488  0CAC  120A  158A  206A  120A  158A  	fcall	___wmul
  3489  0CB1  1283               	bcf	3,5	;RP0=0, select bank0
  3490  0CB2  1303               	bcf	3,6	;RP1=0, select bank0
  3491  0CB3  0865               	movf	?___wmul,w
  3492  0CB4  1683               	bsf	3,5	;RP0=1, select bank1
  3493  0CB5  1303               	bcf	3,6	;RP1=0, select bank1
  3494  0CB6  00B3               	movwf	_DECENA$1084^(0+128)
  3495  0CB7  1283               	bcf	3,5	;RP0=0, select bank0
  3496  0CB8  1303               	bcf	3,6	;RP1=0, select bank0
  3497  0CB9  0866               	movf	?___wmul+1,w
  3498  0CBA  1683               	bsf	3,5	;RP0=1, select bank1
  3499  0CBB  1303               	bcf	3,6	;RP1=0, select bank1
  3500  0CBC  00B4               	movwf	(_DECENA$1084+1)^(0+128)
  3501  0CBD  3000               	movlw	0
  3502  0CBE  1BB4               	btfsc	(_DECENA$1084+1)^(0+128),7
  3503  0CBF  30FF               	movlw	255
  3504  0CC0  00B5               	movwf	(_DECENA$1084+2)^(0+128)
  3505  0CC1  00B6               	movwf	(_DECENA$1084+3)^(0+128)
  3506                           
  3507                           ;ADC.c: 18:     c = (uint8_t)((c*1.9607) - CENTENA(c)*100)/10;
  3508  0CC2  300A               	movlw	10
  3509  0CC3  1283               	bcf	3,5	;RP0=0, select bank0
  3510  0CC4  1303               	bcf	3,6	;RP1=0, select bank0
  3511  0CC5  00EB               	movwf	___awdiv@divisor
  3512  0CC6  3000               	movlw	0
  3513  0CC7  00EC               	movwf	___awdiv@divisor+1
  3514  0CC8  1683               	bsf	3,5	;RP0=1, select bank1
  3515  0CC9  1303               	bcf	3,6	;RP1=0, select bank1
  3516  0CCA  0837               	movf	DECENA@c^(0+128),w
  3517  0CCB  00AC               	movwf	??_DECENA^(0+128)
  3518  0CCC  01AD               	clrf	(??_DECENA^(0+128)+1)
  3519  0CCD  01AE               	clrf	(??_DECENA^(0+128)+2)
  3520  0CCE  01AF               	clrf	(??_DECENA^(0+128)+3)
  3521  0CCF  082F               	movf	(??_DECENA+3)^(0+128),w
  3522  0CD0  00F3               	movwf	___xxtofl@val+3
  3523  0CD1  082E               	movf	(??_DECENA+2)^(0+128),w
  3524  0CD2  00F2               	movwf	___xxtofl@val+2
  3525  0CD3  082D               	movf	(??_DECENA+1)^(0+128),w
  3526  0CD4  00F1               	movwf	___xxtofl@val+1
  3527  0CD5  082C               	movf	??_DECENA^(0+128),w
  3528  0CD6  00F0               	movwf	___xxtofl@val
  3529  0CD7  3001               	movlw	1
  3530  0CD8  120A  158A  23D3  120A  158A  	fcall	___xxtofl
  3531  0CDD  0873               	movf	?___xxtofl+3,w
  3532  0CDE  1283               	bcf	3,5	;RP0=0, select bank0
  3533  0CDF  1303               	bcf	3,6	;RP1=0, select bank0
  3534  0CE0  00A7               	movwf	___flmul@a+3
  3535  0CE1  0872               	movf	?___xxtofl+2,w
  3536  0CE2  00A6               	movwf	___flmul@a+2
  3537  0CE3  0871               	movf	?___xxtofl+1,w
  3538  0CE4  00A5               	movwf	___flmul@a+1
  3539  0CE5  0870               	movf	?___xxtofl,w
  3540  0CE6  00A4               	movwf	___flmul@a
  3541  0CE7  303F               	movlw	63
  3542  0CE8  00A3               	movwf	___flmul@b+3
  3543  0CE9  30FA               	movlw	250
  3544  0CEA  00A2               	movwf	___flmul@b+2
  3545  0CEB  30F8               	movlw	248
  3546  0CEC  00A1               	movwf	___flmul@b+1
  3547  0CED  3038               	movlw	56
  3548  0CEE  00A0               	movwf	___flmul@b
  3549  0CEF  120A  118A  2493  120A  158A  	fcall	___flmul
  3550  0CF4  1283               	bcf	3,5	;RP0=0, select bank0
  3551  0CF5  1303               	bcf	3,6	;RP1=0, select bank0
  3552  0CF6  0823               	movf	?___flmul+3,w
  3553  0CF7  1683               	bsf	3,5	;RP0=1, select bank1
  3554  0CF8  1303               	bcf	3,6	;RP1=0, select bank1
  3555  0CF9  00A7               	movwf	(___flsub@b+3)^(0+128)
  3556  0CFA  1283               	bcf	3,5	;RP0=0, select bank0
  3557  0CFB  1303               	bcf	3,6	;RP1=0, select bank0
  3558  0CFC  0822               	movf	?___flmul+2,w
  3559  0CFD  1683               	bsf	3,5	;RP0=1, select bank1
  3560  0CFE  1303               	bcf	3,6	;RP1=0, select bank1
  3561  0CFF  00A6               	movwf	(___flsub@b+2)^(0+128)
  3562  0D00  1283               	bcf	3,5	;RP0=0, select bank0
  3563  0D01  1303               	bcf	3,6	;RP1=0, select bank0
  3564  0D02  0821               	movf	?___flmul+1,w
  3565  0D03  1683               	bsf	3,5	;RP0=1, select bank1
  3566  0D04  1303               	bcf	3,6	;RP1=0, select bank1
  3567  0D05  00A5               	movwf	(___flsub@b+1)^(0+128)
  3568  0D06  1283               	bcf	3,5	;RP0=0, select bank0
  3569  0D07  1303               	bcf	3,6	;RP1=0, select bank0
  3570  0D08  0820               	movf	?___flmul,w
  3571  0D09  1683               	bsf	3,5	;RP0=1, select bank1
  3572  0D0A  1303               	bcf	3,6	;RP1=0, select bank1
  3573  0D0B  00A4               	movwf	___flsub@b^(0+128)
  3574  0D0C  0836               	movf	(_DECENA$1084+3)^(0+128),w
  3575  0D0D  00F3               	movwf	___xxtofl@val+3
  3576  0D0E  0835               	movf	(_DECENA$1084+2)^(0+128),w
  3577  0D0F  00F2               	movwf	___xxtofl@val+2
  3578  0D10  0834               	movf	(_DECENA$1084+1)^(0+128),w
  3579  0D11  00F1               	movwf	___xxtofl@val+1
  3580  0D12  0833               	movf	_DECENA$1084^(0+128),w
  3581  0D13  00F0               	movwf	___xxtofl@val
  3582  0D14  3001               	movlw	1
  3583  0D15  120A  158A  23D3  120A  158A  	fcall	___xxtofl
  3584  0D1A  0873               	movf	?___xxtofl+3,w
  3585  0D1B  1683               	bsf	3,5	;RP0=1, select bank1
  3586  0D1C  1303               	bcf	3,6	;RP1=0, select bank1
  3587  0D1D  00A3               	movwf	(___flsub@a+3)^(0+128)
  3588  0D1E  0872               	movf	?___xxtofl+2,w
  3589  0D1F  00A2               	movwf	(___flsub@a+2)^(0+128)
  3590  0D20  0871               	movf	?___xxtofl+1,w
  3591  0D21  00A1               	movwf	(___flsub@a+1)^(0+128)
  3592  0D22  0870               	movf	?___xxtofl,w
  3593  0D23  00A0               	movwf	___flsub@a^(0+128)
  3594  0D24  160A  118A  26F7  120A  158A  	fcall	___flsub
  3595  0D29  1683               	bsf	3,5	;RP0=1, select bank1
  3596  0D2A  1303               	bcf	3,6	;RP1=0, select bank1
  3597  0D2B  0823               	movf	(?___flsub+3)^(0+128),w
  3598  0D2C  1283               	bcf	3,5	;RP0=0, select bank0
  3599  0D2D  1303               	bcf	3,6	;RP1=0, select bank0
  3600  0D2E  00D7               	movwf	___fltol@f1+3
  3601  0D2F  1683               	bsf	3,5	;RP0=1, select bank1
  3602  0D30  1303               	bcf	3,6	;RP1=0, select bank1
  3603  0D31  0822               	movf	(?___flsub+2)^(0+128),w
  3604  0D32  1283               	bcf	3,5	;RP0=0, select bank0
  3605  0D33  1303               	bcf	3,6	;RP1=0, select bank0
  3606  0D34  00D6               	movwf	___fltol@f1+2
  3607  0D35  1683               	bsf	3,5	;RP0=1, select bank1
  3608  0D36  1303               	bcf	3,6	;RP1=0, select bank1
  3609  0D37  0821               	movf	(?___flsub+1)^(0+128),w
  3610  0D38  1283               	bcf	3,5	;RP0=0, select bank0
  3611  0D39  1303               	bcf	3,6	;RP1=0, select bank0
  3612  0D3A  00D5               	movwf	___fltol@f1+1
  3613  0D3B  1683               	bsf	3,5	;RP0=1, select bank1
  3614  0D3C  1303               	bcf	3,6	;RP1=0, select bank1
  3615  0D3D  0820               	movf	?___flsub^(0+128),w
  3616  0D3E  1283               	bcf	3,5	;RP0=0, select bank0
  3617  0D3F  1303               	bcf	3,6	;RP1=0, select bank0
  3618  0D40  00D4               	movwf	___fltol@f1
  3619  0D41  120A  158A  2193  120A  158A  	fcall	___fltol
  3620  0D46  1283               	bcf	3,5	;RP0=0, select bank0
  3621  0D47  1303               	bcf	3,6	;RP1=0, select bank0
  3622  0D48  0854               	movf	?___fltol,w
  3623  0D49  1683               	bsf	3,5	;RP0=1, select bank1
  3624  0D4A  1303               	bcf	3,6	;RP1=0, select bank1
  3625  0D4B  00B0               	movwf	(??_DECENA+4)^(0+128)
  3626  0D4C  01B1               	clrf	((??_DECENA+4)^(0+128)+1)
  3627  0D4D  0830               	movf	(??_DECENA+4)^(0+128),w
  3628  0D4E  1283               	bcf	3,5	;RP0=0, select bank0
  3629  0D4F  1303               	bcf	3,6	;RP1=0, select bank0
  3630  0D50  00ED               	movwf	___awdiv@dividend
  3631  0D51  1683               	bsf	3,5	;RP0=1, select bank1
  3632  0D52  1303               	bcf	3,6	;RP1=0, select bank1
  3633  0D53  0831               	movf	(??_DECENA+5)^(0+128),w
  3634  0D54  1283               	bcf	3,5	;RP0=0, select bank0
  3635  0D55  1303               	bcf	3,6	;RP1=0, select bank0
  3636  0D56  00EE               	movwf	___awdiv@dividend+1
  3637  0D57  120A  158A  220F  120A  158A  	fcall	___awdiv
  3638  0D5C  1283               	bcf	3,5	;RP0=0, select bank0
  3639  0D5D  1303               	bcf	3,6	;RP1=0, select bank0
  3640  0D5E  086B               	movf	?___awdiv,w
  3641  0D5F  1683               	bsf	3,5	;RP0=1, select bank1
  3642  0D60  1303               	bcf	3,6	;RP1=0, select bank1
  3643  0D61  00B2               	movwf	(??_DECENA+6)^(0+128)
  3644  0D62  0832               	movf	(??_DECENA+6)^(0+128),w
  3645  0D63  00B7               	movwf	DECENA@c^(0+128)
  3646  0D64                     l2549:
  3647                           
  3648                           ;ADC.c: 19:     return c;
  3649  0D64  0837               	movf	DECENA@c^(0+128),w
  3650  0D65                     l53:
  3651  0D65  0008               	return
  3652  0D66                     __end_of_DECENA:
  3653                           
  3654                           	psect	text12
  3655  086A                     __ptext12:	
  3656 ;; *************** function ___wmul *****************
  3657 ;; Defined at:
  3658 ;;		line 15 in file "C:\Program Files\Microchip\xc8\v2.35\pic\sources\c90\common\Umul16.c"
  3659 ;; Parameters:    Size  Location     Type
  3660 ;;  multiplier      2   69[BANK0 ] unsigned int 
  3661 ;;  multiplicand    2   71[BANK0 ] unsigned int 
  3662 ;; Auto vars:     Size  Location     Type
  3663 ;;  product         2   73[BANK0 ] unsigned int 
  3664 ;; Return value:  Size  Location     Type
  3665 ;;                  2   69[BANK0 ] unsigned int 
  3666 ;; Registers used:
  3667 ;;		wreg, status,2, status,0
  3668 ;; Tracked objects:
  3669 ;;		On entry : 0/0
  3670 ;;		On exit  : 0/0
  3671 ;;		Unchanged: 0/0
  3672 ;; Data sizes:     COMMON   BANK0   BANK1   BANK3   BANK2
  3673 ;;      Params:         0       4       0       0       0
  3674 ;;      Locals:         0       2       0       0       0
  3675 ;;      Temps:          0       0       0       0       0
  3676 ;;      Totals:         0       6       0       0       0
  3677 ;;Total ram usage:        6 bytes
  3678 ;; Hardware stack levels used: 1
  3679 ;; This function calls:
  3680 ;;		Nothing
  3681 ;; This function is called by:
  3682 ;;		_DECENA
  3683 ;;		_UNIDAD
  3684 ;; This function uses a non-reentrant model
  3685 ;;
  3686                           
  3687  086A                     ___wmul:	
  3688                           ;psect for function ___wmul
  3689                           
  3690  086A                     l2421:	
  3691                           ;incstack = 0
  3692                           ; Regs used in ___wmul: [wreg+status,2+status,0]
  3693                           
  3694  086A  1283               	bcf	3,5	;RP0=0, select bank0
  3695  086B  1303               	bcf	3,6	;RP1=0, select bank0
  3696  086C  01E9               	clrf	___wmul@product
  3697  086D  01EA               	clrf	___wmul@product+1
  3698  086E                     l2423:
  3699  086E  1C65               	btfss	___wmul@multiplier,0
  3700  086F  2871               	goto	u3171
  3701  0870  2872               	goto	u3170
  3702  0871                     u3171:
  3703  0871  2878               	goto	l311
  3704  0872                     u3170:
  3705  0872                     l2425:
  3706  0872  0867               	movf	___wmul@multiplicand,w
  3707  0873  07E9               	addwf	___wmul@product,f
  3708  0874  1803               	skipnc
  3709  0875  0AEA               	incf	___wmul@product+1,f
  3710  0876  0868               	movf	___wmul@multiplicand+1,w
  3711  0877  07EA               	addwf	___wmul@product+1,f
  3712  0878                     l311:
  3713  0878  3001               	movlw	1
  3714  0879                     u3185:
  3715  0879  1003               	clrc
  3716  087A  0DE7               	rlf	___wmul@multiplicand,f
  3717  087B  0DE8               	rlf	___wmul@multiplicand+1,f
  3718  087C  3EFF               	addlw	-1
  3719  087D  1D03               	skipz
  3720  087E  2879               	goto	u3185
  3721  087F                     l2427:
  3722  087F  3001               	movlw	1
  3723  0880                     u3195:
  3724  0880  1003               	clrc
  3725  0881  0CE6               	rrf	___wmul@multiplier+1,f
  3726  0882  0CE5               	rrf	___wmul@multiplier,f
  3727  0883  3EFF               	addlw	-1
  3728  0884  1D03               	skipz
  3729  0885  2880               	goto	u3195
  3730  0886                     l2429:
  3731  0886  0865               	movf	___wmul@multiplier,w
  3732  0887  0466               	iorwf	___wmul@multiplier+1,w
  3733  0888  1D03               	btfss	3,2
  3734  0889  288B               	goto	u3201
  3735  088A  288C               	goto	u3200
  3736  088B                     u3201:
  3737  088B  286E               	goto	l2423
  3738  088C                     u3200:
  3739  088C                     l2431:
  3740  088C  086A               	movf	___wmul@product+1,w
  3741  088D  00E6               	movwf	?___wmul+1
  3742  088E  0869               	movf	___wmul@product,w
  3743  088F  00E5               	movwf	?___wmul
  3744  0890                     l313:
  3745  0890  0008               	return
  3746  0891                     __end_of___wmul:
  3747                           
  3748                           	psect	text13
  3749  16F7                     __ptext13:	
  3750 ;; *************** function ___flsub *****************
  3751 ;; Defined at:
  3752 ;;		line 242 in file "C:\Program Files\Microchip\xc8\v2.35\pic\sources\c90\common\sprcadd.c"
  3753 ;; Parameters:    Size  Location     Type
  3754 ;;  a               4    0[BANK1 ] unsigned int 
  3755 ;;  b               4    4[BANK1 ] unsigned int 
  3756 ;; Auto vars:     Size  Location     Type
  3757 ;;		None
  3758 ;; Return value:  Size  Location     Type
  3759 ;;                  4    0[BANK1 ] unsigned int 
  3760 ;; Registers used:
  3761 ;;		wreg, status,2, status,0, btemp+1, pclath, cstack
  3762 ;; Tracked objects:
  3763 ;;		On entry : 0/0
  3764 ;;		On exit  : 0/0
  3765 ;;		Unchanged: 0/0
  3766 ;; Data sizes:     COMMON   BANK0   BANK1   BANK3   BANK2
  3767 ;;      Params:         0       0       8       0       0
  3768 ;;      Locals:         0       0       0       0       0
  3769 ;;      Temps:          0       0       0       0       0
  3770 ;;      Totals:         0       0       8       0       0
  3771 ;;Total ram usage:        8 bytes
  3772 ;; Hardware stack levels used: 1
  3773 ;; Hardware stack levels required when called: 1
  3774 ;; This function calls:
  3775 ;;		___fladd
  3776 ;; This function is called by:
  3777 ;;		_DECENA
  3778 ;;		_UNIDAD
  3779 ;; This function uses a non-reentrant model
  3780 ;;
  3781                           
  3782  16F7                     ___flsub:	
  3783                           ;psect for function ___flsub
  3784                           
  3785  16F7                     l2519:	
  3786                           ;incstack = 0
  3787                           ; Regs used in ___flsub: [wreg+status,2+status,0+btemp+1+pclath+cstack]
  3788                           
  3789  16F7  3080               	movlw	128
  3790  16F8  1683               	bsf	3,5	;RP0=1, select bank1
  3791  16F9  1303               	bcf	3,6	;RP1=0, select bank1
  3792  16FA  06A3               	xorwf	(___flsub@a+3)^(0+128),f
  3793  16FB                     l2521:
  3794  16FB  0827               	movf	(___flsub@b+3)^(0+128),w
  3795  16FC  00F3               	movwf	___fladd@b+3
  3796  16FD  0826               	movf	(___flsub@b+2)^(0+128),w
  3797  16FE  00F2               	movwf	___fladd@b+2
  3798  16FF  0825               	movf	(___flsub@b+1)^(0+128),w
  3799  1700  00F1               	movwf	___fladd@b+1
  3800  1701  0824               	movf	___flsub@b^(0+128),w
  3801  1702  00F0               	movwf	___fladd@b
  3802  1703  0823               	movf	(___flsub@a+3)^(0+128),w
  3803  1704  00F7               	movwf	___fladd@a+3
  3804  1705  0822               	movf	(___flsub@a+2)^(0+128),w
  3805  1706  00F6               	movwf	___fladd@a+2
  3806  1707  0821               	movf	(___flsub@a+1)^(0+128),w
  3807  1708  00F5               	movwf	___fladd@a+1
  3808  1709  0820               	movf	___flsub@a^(0+128),w
  3809  170A  00F4               	movwf	___fladd@a
  3810  170B  120A  118A  21FB  160A  118A  	fcall	___fladd
  3811  1710  0873               	movf	?___fladd+3,w
  3812  1711  1683               	bsf	3,5	;RP0=1, select bank1
  3813  1712  1303               	bcf	3,6	;RP1=0, select bank1
  3814  1713  00A3               	movwf	(?___flsub+3)^(0+128)
  3815  1714  0872               	movf	?___fladd+2,w
  3816  1715  00A2               	movwf	(?___flsub+2)^(0+128)
  3817  1716  0871               	movf	?___fladd+1,w
  3818  1717  00A1               	movwf	(?___flsub+1)^(0+128)
  3819  1718  0870               	movf	?___fladd,w
  3820  1719  00A0               	movwf	?___flsub^(0+128)
  3821  171A                     l650:
  3822  171A  0008               	return
  3823  171B                     __end_of___flsub:
  3824                           
  3825                           	psect	text14
  3826  01FB                     __ptext14:	
  3827 ;; *************** function ___fladd *****************
  3828 ;; Defined at:
  3829 ;;		line 10 in file "C:\Program Files\Microchip\xc8\v2.35\pic\sources\c90\common\sprcadd.c"
  3830 ;; Parameters:    Size  Location     Type
  3831 ;;  b               4    0[COMMON] unsigned int 
  3832 ;;  a               4    4[COMMON] unsigned int 
  3833 ;; Auto vars:     Size  Location     Type
  3834 ;;  grs             1   11[COMMON] unsigned char 
  3835 ;;  bexp            1   10[COMMON] unsigned char 
  3836 ;;  aexp            1    9[COMMON] unsigned char 
  3837 ;;  signs           1    8[COMMON] unsigned char 
  3838 ;; Return value:  Size  Location     Type
  3839 ;;                  4    0[COMMON] unsigned char 
  3840 ;; Registers used:
  3841 ;;		wreg, status,2, status,0, btemp+1
  3842 ;; Tracked objects:
  3843 ;;		On entry : 0/0
  3844 ;;		On exit  : 0/0
  3845 ;;		Unchanged: 0/0
  3846 ;; Data sizes:     COMMON   BANK0   BANK1   BANK3   BANK2
  3847 ;;      Params:         8       0       0       0       0
  3848 ;;      Locals:         4       0       0       0       0
  3849 ;;      Temps:          0       8       0       0       0
  3850 ;;      Totals:        12       8       0       0       0
  3851 ;;Total ram usage:       20 bytes
  3852 ;; Hardware stack levels used: 1
  3853 ;; This function calls:
  3854 ;;		Nothing
  3855 ;; This function is called by:
  3856 ;;		___flsub
  3857 ;; This function uses a non-reentrant model
  3858 ;;
  3859                           
  3860  01FB                     ___fladd:	
  3861                           ;psect for function ___fladd
  3862                           
  3863  01FB                     l1885:	
  3864                           ;incstack = 0
  3865                           ; Regs used in ___fladd: [wreg+status,2+status,0+btemp+1]
  3866                           
  3867  01FB  0873               	movf	___fladd@b+3,w
  3868  01FC  3980               	andlw	128
  3869  01FD  1283               	bcf	3,5	;RP0=0, select bank0
  3870  01FE  1303               	bcf	3,6	;RP1=0, select bank0
  3871  01FF  00A0               	movwf	??___fladd
  3872  0200  0820               	movf	??___fladd,w
  3873  0201  00F8               	movwf	___fladd@signs
  3874  0202                     l1887:
  3875  0202  0873               	movf	___fladd@b+3,w
  3876  0203  00A0               	movwf	??___fladd
  3877  0204  0720               	addwf	??___fladd,w
  3878  0205  00A1               	movwf	??___fladd+1
  3879  0206  0821               	movf	??___fladd+1,w
  3880  0207  00FA               	movwf	___fladd@bexp
  3881  0208                     l1889:
  3882  0208  1FF2               	btfss	___fladd@b+2,7
  3883  0209  2A0B               	goto	u1911
  3884  020A  2A0C               	goto	u1910
  3885  020B                     u1911:
  3886  020B  2A0D               	goto	l1893
  3887  020C                     u1910:
  3888  020C                     l1891:
  3889  020C  147A               	bsf	___fladd@bexp,0
  3890  020D                     l1893:
  3891  020D  087A               	movf	___fladd@bexp,w
  3892  020E  1903               	btfsc	3,2
  3893  020F  2A11               	goto	u1921
  3894  0210  2A12               	goto	u1920
  3895  0211                     u1921:
  3896  0211  2A22               	goto	l1903
  3897  0212                     u1920:
  3898  0212                     l1895:
  3899  0212  0A7A               	incf	___fladd@bexp,w
  3900  0213  1D03               	btfss	3,2
  3901  0214  2A16               	goto	u1931
  3902  0215  2A17               	goto	u1930
  3903  0216                     u1931:
  3904  0216  2A1F               	goto	l1899
  3905  0217                     u1930:
  3906  0217                     l1897:
  3907  0217  3000               	movlw	0
  3908  0218  00F3               	movwf	___fladd@b+3
  3909  0219  3000               	movlw	0
  3910  021A  00F2               	movwf	___fladd@b+2
  3911  021B  3000               	movlw	0
  3912  021C  00F1               	movwf	___fladd@b+1
  3913  021D  3000               	movlw	0
  3914  021E  00F0               	movwf	___fladd@b
  3915  021F                     l1899:
  3916  021F  17F2               	bsf	___fladd@b+2,7
  3917  0220                     l1901:
  3918  0220  01F3               	clrf	___fladd@b+3
  3919  0221  2A2A               	goto	l1905
  3920  0222                     l1903:
  3921  0222  3000               	movlw	0
  3922  0223  00F3               	movwf	___fladd@b+3
  3923  0224  3000               	movlw	0
  3924  0225  00F2               	movwf	___fladd@b+2
  3925  0226  3000               	movlw	0
  3926  0227  00F1               	movwf	___fladd@b+1
  3927  0228  3000               	movlw	0
  3928  0229  00F0               	movwf	___fladd@b
  3929  022A                     l1905:
  3930  022A  0877               	movf	___fladd@a+3,w
  3931  022B  3980               	andlw	128
  3932  022C  00A0               	movwf	??___fladd
  3933  022D  0820               	movf	??___fladd,w
  3934  022E  00F9               	movwf	___fladd@aexp
  3935  022F                     l1907:
  3936  022F  0879               	movf	___fladd@aexp,w
  3937  0230  0678               	xorwf	___fladd@signs,w
  3938  0231  1903               	skipnz
  3939  0232  2A34               	goto	u1941
  3940  0233  2A35               	goto	u1940
  3941  0234                     u1941:
  3942  0234  2A36               	goto	l1911
  3943  0235                     u1940:
  3944  0235                     l1909:
  3945  0235  1778               	bsf	___fladd@signs,6
  3946  0236                     l1911:
  3947  0236  0877               	movf	___fladd@a+3,w
  3948  0237  00A0               	movwf	??___fladd
  3949  0238  0720               	addwf	??___fladd,w
  3950  0239  00A1               	movwf	??___fladd+1
  3951  023A  0821               	movf	??___fladd+1,w
  3952  023B  00F9               	movwf	___fladd@aexp
  3953  023C                     l1913:
  3954  023C  1FF6               	btfss	___fladd@a+2,7
  3955  023D  2A3F               	goto	u1951
  3956  023E  2A40               	goto	u1950
  3957  023F                     u1951:
  3958  023F  2A41               	goto	l1917
  3959  0240                     u1950:
  3960  0240                     l1915:
  3961  0240  1479               	bsf	___fladd@aexp,0
  3962  0241                     l1917:
  3963  0241  0879               	movf	___fladd@aexp,w
  3964  0242  1903               	btfsc	3,2
  3965  0243  2A45               	goto	u1961
  3966  0244  2A46               	goto	u1960
  3967  0245                     u1961:
  3968  0245  2A56               	goto	l1927
  3969  0246                     u1960:
  3970  0246                     l1919:
  3971  0246  0A79               	incf	___fladd@aexp,w
  3972  0247  1D03               	btfss	3,2
  3973  0248  2A4A               	goto	u1971
  3974  0249  2A4B               	goto	u1970
  3975  024A                     u1971:
  3976  024A  2A53               	goto	l1923
  3977  024B                     u1970:
  3978  024B                     l1921:
  3979  024B  3000               	movlw	0
  3980  024C  00F7               	movwf	___fladd@a+3
  3981  024D  3000               	movlw	0
  3982  024E  00F6               	movwf	___fladd@a+2
  3983  024F  3000               	movlw	0
  3984  0250  00F5               	movwf	___fladd@a+1
  3985  0251  3000               	movlw	0
  3986  0252  00F4               	movwf	___fladd@a
  3987  0253                     l1923:
  3988  0253  17F6               	bsf	___fladd@a+2,7
  3989  0254                     l1925:
  3990  0254  01F7               	clrf	___fladd@a+3
  3991  0255  2A5E               	goto	l604
  3992  0256                     l1927:
  3993  0256  3000               	movlw	0
  3994  0257  00F7               	movwf	___fladd@a+3
  3995  0258  3000               	movlw	0
  3996  0259  00F6               	movwf	___fladd@a+2
  3997  025A  3000               	movlw	0
  3998  025B  00F5               	movwf	___fladd@a+1
  3999  025C  3000               	movlw	0
  4000  025D  00F4               	movwf	___fladd@a
  4001  025E                     l604:
  4002  025E  087A               	movf	___fladd@bexp,w
  4003  025F  0279               	subwf	___fladd@aexp,w
  4004  0260  1803               	skipnc
  4005  0261  2A63               	goto	u1981
  4006  0262  2A64               	goto	u1980
  4007  0263                     u1981:
  4008  0263  2AA8               	goto	l1963
  4009  0264                     u1980:
  4010  0264                     l1929:
  4011  0264  1F78               	btfss	___fladd@signs,6
  4012  0265  2A67               	goto	u1991
  4013  0266  2A68               	goto	u1990
  4014  0267                     u1991:
  4015  0267  2A6C               	goto	l1933
  4016  0268                     u1990:
  4017  0268                     l1931:
  4018  0268  3080               	movlw	128
  4019  0269  00A0               	movwf	??___fladd
  4020  026A  0820               	movf	??___fladd,w
  4021  026B  06F8               	xorwf	___fladd@signs,f
  4022  026C                     l1933:
  4023  026C  087A               	movf	___fladd@bexp,w
  4024  026D  00A0               	movwf	??___fladd
  4025  026E  0820               	movf	??___fladd,w
  4026  026F  00FB               	movwf	___fladd@grs
  4027  0270                     l1935:
  4028  0270  0879               	movf	___fladd@aexp,w
  4029  0271  00A0               	movwf	??___fladd
  4030  0272  0820               	movf	??___fladd,w
  4031  0273  00FA               	movwf	___fladd@bexp
  4032  0274                     l1937:
  4033  0274  087B               	movf	___fladd@grs,w
  4034  0275  00A0               	movwf	??___fladd
  4035  0276  0820               	movf	??___fladd,w
  4036  0277  00F9               	movwf	___fladd@aexp
  4037  0278                     l1939:
  4038  0278  0870               	movf	___fladd@b,w
  4039  0279  00A0               	movwf	??___fladd
  4040  027A  0820               	movf	??___fladd,w
  4041  027B  00FB               	movwf	___fladd@grs
  4042  027C                     l1941:
  4043  027C  0874               	movf	___fladd@a,w
  4044  027D  00A0               	movwf	??___fladd
  4045  027E  0820               	movf	??___fladd,w
  4046  027F  00F0               	movwf	___fladd@b
  4047  0280                     l1943:
  4048  0280  087B               	movf	___fladd@grs,w
  4049  0281  00A0               	movwf	??___fladd
  4050  0282  0820               	movf	??___fladd,w
  4051  0283  00F4               	movwf	___fladd@a
  4052  0284                     l1945:
  4053  0284  0871               	movf	___fladd@b+1,w
  4054  0285  00A0               	movwf	??___fladd
  4055  0286  0820               	movf	??___fladd,w
  4056  0287  00FB               	movwf	___fladd@grs
  4057  0288                     l1947:
  4058  0288  0875               	movf	___fladd@a+1,w
  4059  0289  00A0               	movwf	??___fladd
  4060  028A  0820               	movf	??___fladd,w
  4061  028B  00F1               	movwf	___fladd@b+1
  4062  028C                     l1949:
  4063  028C  087B               	movf	___fladd@grs,w
  4064  028D  00A0               	movwf	??___fladd
  4065  028E  0820               	movf	??___fladd,w
  4066  028F  00F5               	movwf	___fladd@a+1
  4067  0290                     l1951:
  4068  0290  0872               	movf	___fladd@b+2,w
  4069  0291  00A0               	movwf	??___fladd
  4070  0292  0820               	movf	??___fladd,w
  4071  0293  00FB               	movwf	___fladd@grs
  4072  0294                     l1953:
  4073  0294  0876               	movf	___fladd@a+2,w
  4074  0295  00A0               	movwf	??___fladd
  4075  0296  0820               	movf	??___fladd,w
  4076  0297  00F2               	movwf	___fladd@b+2
  4077  0298                     l1955:
  4078  0298  087B               	movf	___fladd@grs,w
  4079  0299  00A0               	movwf	??___fladd
  4080  029A  0820               	movf	??___fladd,w
  4081  029B  00F6               	movwf	___fladd@a+2
  4082  029C                     l1957:
  4083  029C  0873               	movf	___fladd@b+3,w
  4084  029D  00A0               	movwf	??___fladd
  4085  029E  0820               	movf	??___fladd,w
  4086  029F  00FB               	movwf	___fladd@grs
  4087  02A0                     l1959:
  4088  02A0  0877               	movf	___fladd@a+3,w
  4089  02A1  00A0               	movwf	??___fladd
  4090  02A2  0820               	movf	??___fladd,w
  4091  02A3  00F3               	movwf	___fladd@b+3
  4092  02A4                     l1961:
  4093  02A4  087B               	movf	___fladd@grs,w
  4094  02A5  00A0               	movwf	??___fladd
  4095  02A6  0820               	movf	??___fladd,w
  4096  02A7  00F7               	movwf	___fladd@a+3
  4097  02A8                     l1963:
  4098  02A8  01FB               	clrf	___fladd@grs
  4099  02A9                     l1965:
  4100  02A9  0879               	movf	___fladd@aexp,w
  4101  02AA  00A0               	movwf	??___fladd
  4102  02AB  01A1               	clrf	??___fladd+1
  4103  02AC  0821               	movf	??___fladd+1,w
  4104  02AD  00A3               	movwf	??___fladd+3
  4105  02AE  087A               	movf	___fladd@bexp,w
  4106  02AF  0220               	subwf	??___fladd,w
  4107  02B0  00A2               	movwf	??___fladd+2
  4108  02B1  1C03               	skipc
  4109  02B2  03A3               	decf	??___fladd+3,f
  4110  02B3  0823               	movf	??___fladd+3,w
  4111  02B4  3A80               	xorlw	128
  4112  02B5  00FF               	movwf	btemp+1
  4113  02B6  3080               	movlw	128
  4114  02B7  027F               	subwf	btemp+1,w
  4115  02B8  1D03               	skipz
  4116  02B9  2ABC               	goto	u2005
  4117  02BA  301A               	movlw	26
  4118  02BB  0222               	subwf	??___fladd+2,w
  4119  02BC                     u2005:
  4120  02BC  1C03               	skipc
  4121  02BD  2ABF               	goto	u2001
  4122  02BE  2AC0               	goto	u2000
  4123  02BF                     u2001:
  4124  02BF  2B01               	goto	l1981
  4125  02C0                     u2000:
  4126  02C0                     l1967:
  4127  02C0  0873               	movf	___fladd@b+3,w
  4128  02C1  0472               	iorwf	___fladd@b+2,w
  4129  02C2  0471               	iorwf	___fladd@b+1,w
  4130  02C3  0470               	iorwf	___fladd@b,w
  4131  02C4  1D03               	skipz
  4132  02C5  2AC7               	goto	u2011
  4133  02C6  2AC9               	goto	u2010
  4134  02C7                     u2011:
  4135  02C7  3001               	movlw	1
  4136  02C8  2ACA               	goto	u2020
  4137  02C9                     u2010:
  4138  02C9  3000               	movlw	0
  4139  02CA                     u2020:
  4140  02CA  1283               	bcf	3,5	;RP0=0, select bank0
  4141  02CB  1303               	bcf	3,6	;RP1=0, select bank0
  4142  02CC  00A0               	movwf	??___fladd
  4143  02CD  0820               	movf	??___fladd,w
  4144  02CE  00FB               	movwf	___fladd@grs
  4145  02CF  3000               	movlw	0
  4146  02D0  00F3               	movwf	___fladd@b+3
  4147  02D1  3000               	movlw	0
  4148  02D2  00F2               	movwf	___fladd@b+2
  4149  02D3  3000               	movlw	0
  4150  02D4  00F1               	movwf	___fladd@b+1
  4151  02D5  3000               	movlw	0
  4152  02D6  00F0               	movwf	___fladd@b
  4153  02D7  0879               	movf	___fladd@aexp,w
  4154  02D8  00A0               	movwf	??___fladd
  4155  02D9  0820               	movf	??___fladd,w
  4156  02DA  00FA               	movwf	___fladd@bexp
  4157  02DB  2B07               	goto	l608
  4158  02DC                     l610:
  4159  02DC  1C7B               	btfss	___fladd@grs,0
  4160  02DD  2ADF               	goto	u2031
  4161  02DE  2AE0               	goto	u2030
  4162  02DF                     u2031:
  4163  02DF  2AEB               	goto	l1971
  4164  02E0                     u2030:
  4165  02E0                     l1969:
  4166  02E0  087B               	movf	___fladd@grs,w
  4167  02E1  1283               	bcf	3,5	;RP0=0, select bank0
  4168  02E2  1303               	bcf	3,6	;RP1=0, select bank0
  4169  02E3  00A0               	movwf	??___fladd
  4170  02E4  1003               	clrc
  4171  02E5  0C20               	rrf	??___fladd,w
  4172  02E6  3801               	iorlw	1
  4173  02E7  00A1               	movwf	??___fladd+1
  4174  02E8  0821               	movf	??___fladd+1,w
  4175  02E9  00FB               	movwf	___fladd@grs
  4176  02EA  2AED               	goto	l1973
  4177  02EB                     l1971:
  4178  02EB  1003               	clrc
  4179  02EC  0CFB               	rrf	___fladd@grs,f
  4180  02ED                     l1973:
  4181  02ED  1C70               	btfss	___fladd@b,0
  4182  02EE  2AF0               	goto	u2041
  4183  02EF  2AF1               	goto	u2040
  4184  02F0                     u2041:
  4185  02F0  2AF2               	goto	l1977
  4186  02F1                     u2040:
  4187  02F1                     l1975:
  4188  02F1  17FB               	bsf	___fladd@grs,7
  4189  02F2                     l1977:
  4190  02F2  3001               	movlw	1
  4191  02F3  1283               	bcf	3,5	;RP0=0, select bank0
  4192  02F4  1303               	bcf	3,6	;RP1=0, select bank0
  4193  02F5  00A0               	movwf	??___fladd
  4194  02F6                     u2055:
  4195  02F6  0D73               	rlf	___fladd@b+3,w
  4196  02F7  0CF3               	rrf	___fladd@b+3,f
  4197  02F8  0CF2               	rrf	___fladd@b+2,f
  4198  02F9  0CF1               	rrf	___fladd@b+1,f
  4199  02FA  0CF0               	rrf	___fladd@b,f
  4200  02FB  0BA0               	decfsz	??___fladd& (0+127),f
  4201  02FC  2AF6               	goto	u2055
  4202  02FD                     l1979:
  4203  02FD  3001               	movlw	1
  4204  02FE  00A0               	movwf	??___fladd
  4205  02FF  0820               	movf	??___fladd,w
  4206  0300  07FA               	addwf	___fladd@bexp,f
  4207  0301                     l1981:
  4208  0301  0879               	movf	___fladd@aexp,w
  4209  0302  027A               	subwf	___fladd@bexp,w
  4210  0303  1C03               	skipc
  4211  0304  2B06               	goto	u2061
  4212  0305  2B07               	goto	u2060
  4213  0306                     u2061:
  4214  0306  2ADC               	goto	l610
  4215  0307                     u2060:
  4216  0307                     l608:
  4217  0307  1B78               	btfsc	___fladd@signs,6
  4218  0308  2B0A               	goto	u2071
  4219  0309  2B0B               	goto	u2070
  4220  030A                     u2071:
  4221  030A  2B5A               	goto	l2007
  4222  030B                     u2070:
  4223  030B                     l1983:
  4224  030B  087A               	movf	___fladd@bexp,w
  4225  030C  1D03               	btfss	3,2
  4226  030D  2B0F               	goto	u2081
  4227  030E  2B10               	goto	u2080
  4228  030F                     u2081:
  4229  030F  2B19               	goto	l1989
  4230  0310                     u2080:
  4231  0310                     l1985:
  4232  0310  3000               	movlw	0
  4233  0311  00F3               	movwf	?___fladd+3
  4234  0312  3000               	movlw	0
  4235  0313  00F2               	movwf	?___fladd+2
  4236  0314  3000               	movlw	0
  4237  0315  00F1               	movwf	?___fladd+1
  4238  0316  3000               	movlw	0
  4239  0317  00F0               	movwf	?___fladd
  4240  0318  2C92               	goto	l617
  4241  0319                     l1989:
  4242  0319  0874               	movf	___fladd@a,w
  4243  031A  07F0               	addwf	___fladd@b,f
  4244  031B  0875               	movf	___fladd@a+1,w
  4245  031C  1103               	clrz
  4246  031D  1803               	skipnc
  4247  031E  3E01               	addlw	1
  4248  031F  1903               	skipnz
  4249  0320  2B22               	goto	u2091
  4250  0321  07F1               	addwf	___fladd@b+1,f
  4251  0322                     u2091:
  4252  0322  0876               	movf	___fladd@a+2,w
  4253  0323  1103               	clrz
  4254  0324  1803               	skipnc
  4255  0325  3E01               	addlw	1
  4256  0326  1903               	skipnz
  4257  0327  2B29               	goto	u2092
  4258  0328  07F2               	addwf	___fladd@b+2,f
  4259  0329                     u2092:
  4260  0329  0877               	movf	___fladd@a+3,w
  4261  032A  1103               	clrz
  4262  032B  1803               	skipnc
  4263  032C  3E01               	addlw	1
  4264  032D  1903               	skipnz
  4265  032E  2B30               	goto	u2093
  4266  032F  07F3               	addwf	___fladd@b+3,f
  4267  0330                     u2093:
  4268  0330                     l1991:
  4269  0330  1C73               	btfss	___fladd@b+3,0
  4270  0331  2B33               	goto	u2101
  4271  0332  2B34               	goto	u2100
  4272  0333                     u2101:
  4273  0333  2C12               	goto	l2041
  4274  0334                     u2100:
  4275  0334                     l1993:
  4276  0334  1C7B               	btfss	___fladd@grs,0
  4277  0335  2B37               	goto	u2111
  4278  0336  2B38               	goto	u2110
  4279  0337                     u2111:
  4280  0337  2B43               	goto	l1997
  4281  0338                     u2110:
  4282  0338                     l1995:
  4283  0338  087B               	movf	___fladd@grs,w
  4284  0339  1283               	bcf	3,5	;RP0=0, select bank0
  4285  033A  1303               	bcf	3,6	;RP1=0, select bank0
  4286  033B  00A0               	movwf	??___fladd
  4287  033C  1003               	clrc
  4288  033D  0C20               	rrf	??___fladd,w
  4289  033E  3801               	iorlw	1
  4290  033F  00A1               	movwf	??___fladd+1
  4291  0340  0821               	movf	??___fladd+1,w
  4292  0341  00FB               	movwf	___fladd@grs
  4293  0342  2B45               	goto	l1999
  4294  0343                     l1997:
  4295  0343  1003               	clrc
  4296  0344  0CFB               	rrf	___fladd@grs,f
  4297  0345                     l1999:
  4298  0345  1C70               	btfss	___fladd@b,0
  4299  0346  2B48               	goto	u2121
  4300  0347  2B49               	goto	u2120
  4301  0348                     u2121:
  4302  0348  2B4A               	goto	l2003
  4303  0349                     u2120:
  4304  0349                     l2001:
  4305  0349  17FB               	bsf	___fladd@grs,7
  4306  034A                     l2003:
  4307  034A  3001               	movlw	1
  4308  034B  1283               	bcf	3,5	;RP0=0, select bank0
  4309  034C  1303               	bcf	3,6	;RP1=0, select bank0
  4310  034D  00A0               	movwf	??___fladd
  4311  034E                     u2135:
  4312  034E  0D73               	rlf	___fladd@b+3,w
  4313  034F  0CF3               	rrf	___fladd@b+3,f
  4314  0350  0CF2               	rrf	___fladd@b+2,f
  4315  0351  0CF1               	rrf	___fladd@b+1,f
  4316  0352  0CF0               	rrf	___fladd@b,f
  4317  0353  0BA0               	decfsz	??___fladd& (0+127),f
  4318  0354  2B4E               	goto	u2135
  4319  0355                     l2005:
  4320  0355  3001               	movlw	1
  4321  0356  00A0               	movwf	??___fladd
  4322  0357  0820               	movf	??___fladd,w
  4323  0358  07FA               	addwf	___fladd@bexp,f
  4324  0359  2C12               	goto	l2041
  4325  035A                     l2007:
  4326  035A  0873               	movf	___fladd@b+3,w
  4327  035B  3A80               	xorlw	128
  4328  035C  00FF               	movwf	btemp+1
  4329  035D  0877               	movf	___fladd@a+3,w
  4330  035E  3A80               	xorlw	128
  4331  035F  027F               	subwf	btemp+1,w
  4332  0360  1D03               	skipz
  4333  0361  2B6C               	goto	u2143
  4334  0362  0876               	movf	___fladd@a+2,w
  4335  0363  0272               	subwf	___fladd@b+2,w
  4336  0364  1D03               	skipz
  4337  0365  2B6C               	goto	u2143
  4338  0366  0875               	movf	___fladd@a+1,w
  4339  0367  0271               	subwf	___fladd@b+1,w
  4340  0368  1D03               	skipz
  4341  0369  2B6C               	goto	u2143
  4342  036A  0874               	movf	___fladd@a,w
  4343  036B  0270               	subwf	___fladd@b,w
  4344  036C                     u2143:
  4345  036C  1803               	skipnc
  4346  036D  2B6F               	goto	u2141
  4347  036E  2B70               	goto	u2140
  4348  036F                     u2141:
  4349  036F  2BCA               	goto	l2017
  4350  0370                     u2140:
  4351  0370                     l2009:
  4352  0370  30FF               	movlw	255
  4353  0371  1283               	bcf	3,5	;RP0=0, select bank0
  4354  0372  1303               	bcf	3,6	;RP1=0, select bank0
  4355  0373  00A0               	movwf	??___fladd
  4356  0374  30FF               	movlw	255
  4357  0375  00A1               	movwf	??___fladd+1
  4358  0376  30FF               	movlw	255
  4359  0377  00A2               	movwf	??___fladd+2
  4360  0378  30FF               	movlw	255
  4361  0379  00A3               	movwf	??___fladd+3
  4362  037A  0874               	movf	___fladd@a,w
  4363  037B  00A4               	movwf	??___fladd+4
  4364  037C  0875               	movf	___fladd@a+1,w
  4365  037D  00A5               	movwf	??___fladd+5
  4366  037E  0876               	movf	___fladd@a+2,w
  4367  037F  00A6               	movwf	??___fladd+6
  4368  0380  0877               	movf	___fladd@a+3,w
  4369  0381  00A7               	movwf	??___fladd+7
  4370  0382  0870               	movf	___fladd@b,w
  4371  0383  02A4               	subwf	??___fladd+4,f
  4372  0384  0871               	movf	___fladd@b+1,w
  4373  0385  1C03               	skipc
  4374  0386  0F71               	incfsz	___fladd@b+1,w
  4375  0387  2B89               	goto	u2151
  4376  0388  2B8A               	goto	u2152
  4377  0389                     u2151:
  4378  0389  02A5               	subwf	??___fladd+5,f
  4379  038A                     u2152:
  4380  038A  0872               	movf	___fladd@b+2,w
  4381  038B  1C03               	skipc
  4382  038C  0F72               	incfsz	___fladd@b+2,w
  4383  038D  2B8F               	goto	u2153
  4384  038E  2B90               	goto	u2154
  4385  038F                     u2153:
  4386  038F  02A6               	subwf	??___fladd+6,f
  4387  0390                     u2154:
  4388  0390  0873               	movf	___fladd@b+3,w
  4389  0391  1C03               	skipc
  4390  0392  0F73               	incfsz	___fladd@b+3,w
  4391  0393  2B95               	goto	u2155
  4392  0394  2B96               	goto	u2156
  4393  0395                     u2155:
  4394  0395  02A7               	subwf	??___fladd+7,f
  4395  0396                     u2156:
  4396  0396  0824               	movf	??___fladd+4,w
  4397  0397  07A0               	addwf	??___fladd,f
  4398  0398  0825               	movf	??___fladd+5,w
  4399  0399  1803               	skipnc
  4400  039A  0F25               	incfsz	??___fladd+5,w
  4401  039B  2B9D               	goto	u2160
  4402  039C  2B9E               	goto	u2161
  4403  039D                     u2160:
  4404  039D  07A1               	addwf	??___fladd+1,f
  4405  039E                     u2161:
  4406  039E  0826               	movf	??___fladd+6,w
  4407  039F  1803               	skipnc
  4408  03A0  0F26               	incfsz	??___fladd+6,w
  4409  03A1  2BA3               	goto	u2162
  4410  03A2  2BA4               	goto	u2163
  4411  03A3                     u2162:
  4412  03A3  07A2               	addwf	??___fladd+2,f
  4413  03A4                     u2163:
  4414  03A4  0827               	movf	??___fladd+7,w
  4415  03A5  1803               	skipnc
  4416  03A6  0A27               	incf	??___fladd+7,w
  4417  03A7  07A3               	addwf	??___fladd+3,f
  4418  03A8  0823               	movf	??___fladd+3,w
  4419  03A9  00F3               	movwf	___fladd@b+3
  4420  03AA  0822               	movf	??___fladd+2,w
  4421  03AB  00F2               	movwf	___fladd@b+2
  4422  03AC  0821               	movf	??___fladd+1,w
  4423  03AD  00F1               	movwf	___fladd@b+1
  4424  03AE  0820               	movf	??___fladd,w
  4425  03AF  00F0               	movwf	___fladd@b
  4426  03B0                     l2011:
  4427  03B0  3080               	movlw	128
  4428  03B1  00A0               	movwf	??___fladd
  4429  03B2  0820               	movf	??___fladd,w
  4430  03B3  06F8               	xorwf	___fladd@signs,f
  4431  03B4  09FB               	comf	___fladd@grs,f
  4432  03B5  0AFB               	incf	___fladd@grs,f
  4433  03B6                     l2013:
  4434  03B6  087B               	movf	___fladd@grs,w
  4435  03B7  1D03               	btfss	3,2
  4436  03B8  2BBA               	goto	u2171
  4437  03B9  2BBB               	goto	u2170
  4438  03BA                     u2171:
  4439  03BA  2BD8               	goto	l625
  4440  03BB                     u2170:
  4441  03BB                     l2015:
  4442  03BB  3001               	movlw	1
  4443  03BC  07F0               	addwf	___fladd@b,f
  4444  03BD  3000               	movlw	0
  4445  03BE  1803               	skipnc
  4446  03BF  3001               	movlw	1
  4447  03C0  07F1               	addwf	___fladd@b+1,f
  4448  03C1  3000               	movlw	0
  4449  03C2  1803               	skipnc
  4450  03C3  3001               	movlw	1
  4451  03C4  07F2               	addwf	___fladd@b+2,f
  4452  03C5  3000               	movlw	0
  4453  03C6  1803               	skipnc
  4454  03C7  3001               	movlw	1
  4455  03C8  07F3               	addwf	___fladd@b+3,f
  4456  03C9  2BD8               	goto	l625
  4457  03CA                     l2017:
  4458  03CA  0874               	movf	___fladd@a,w
  4459  03CB  02F0               	subwf	___fladd@b,f
  4460  03CC  0875               	movf	___fladd@a+1,w
  4461  03CD  1C03               	skipc
  4462  03CE  0F75               	incfsz	___fladd@a+1,w
  4463  03CF  02F1               	subwf	___fladd@b+1,f
  4464  03D0  0876               	movf	___fladd@a+2,w
  4465  03D1  1C03               	skipc
  4466  03D2  0F76               	incfsz	___fladd@a+2,w
  4467  03D3  02F2               	subwf	___fladd@b+2,f
  4468  03D4  0877               	movf	___fladd@a+3,w
  4469  03D5  1C03               	skipc
  4470  03D6  0F77               	incfsz	___fladd@a+3,w
  4471  03D7  02F3               	subwf	___fladd@b+3,f
  4472  03D8                     l625:
  4473  03D8  0873               	movf	___fladd@b+3,w
  4474  03D9  0472               	iorwf	___fladd@b+2,w
  4475  03DA  0471               	iorwf	___fladd@b+1,w
  4476  03DB  0470               	iorwf	___fladd@b,w
  4477  03DC  1D03               	skipz
  4478  03DD  2BDF               	goto	u2181
  4479  03DE  2BE0               	goto	u2180
  4480  03DF                     u2181:
  4481  03DF  2C0E               	goto	l2039
  4482  03E0                     u2180:
  4483  03E0                     l2019:
  4484  03E0  087B               	movf	___fladd@grs,w
  4485  03E1  1D03               	btfss	3,2
  4486  03E2  2BE4               	goto	u2191
  4487  03E3  2BE5               	goto	u2190
  4488  03E4                     u2191:
  4489  03E4  2C0E               	goto	l2039
  4490  03E5                     u2190:
  4491  03E5                     l2021:
  4492  03E5  3000               	movlw	0
  4493  03E6  00F3               	movwf	?___fladd+3
  4494  03E7  3000               	movlw	0
  4495  03E8  00F2               	movwf	?___fladd+2
  4496  03E9  3000               	movlw	0
  4497  03EA  00F1               	movwf	?___fladd+1
  4498  03EB  3000               	movlw	0
  4499  03EC  00F0               	movwf	?___fladd
  4500  03ED  2C92               	goto	l617
  4501  03EE                     l2025:
  4502  03EE  3001               	movlw	1
  4503  03EF  1283               	bcf	3,5	;RP0=0, select bank0
  4504  03F0  1303               	bcf	3,6	;RP1=0, select bank0
  4505  03F1  00A0               	movwf	??___fladd
  4506  03F2                     u2205:
  4507  03F2  1003               	clrc
  4508  03F3  0DF0               	rlf	___fladd@b,f
  4509  03F4  0DF1               	rlf	___fladd@b+1,f
  4510  03F5  0DF2               	rlf	___fladd@b+2,f
  4511  03F6  0DF3               	rlf	___fladd@b+3,f
  4512  03F7  0BA0               	decfsz	??___fladd,f
  4513  03F8  2BF2               	goto	u2205
  4514  03F9                     l2027:
  4515  03F9  1FFB               	btfss	___fladd@grs,7
  4516  03FA  2BFC               	goto	u2211
  4517  03FB  2BFD               	goto	u2210
  4518  03FC                     u2211:
  4519  03FC  2BFE               	goto	l629
  4520  03FD                     u2210:
  4521  03FD                     l2029:
  4522  03FD  1470               	bsf	___fladd@b,0
  4523  03FE                     l629:
  4524  03FE  1C7B               	btfss	___fladd@grs,0
  4525  03FF  2C01               	goto	u2221
  4526  0400  2C02               	goto	u2220
  4527  0401                     u2221:
  4528  0401  2C05               	goto	l2033
  4529  0402                     u2220:
  4530  0402                     l2031:
  4531  0402  1403               	setc
  4532  0403  0DFB               	rlf	___fladd@grs,f
  4533  0404  2C07               	goto	l2035
  4534  0405                     l2033:
  4535  0405  1003               	clrc
  4536  0406  0DFB               	rlf	___fladd@grs,f
  4537  0407                     l2035:
  4538  0407  087A               	movf	___fladd@bexp,w
  4539  0408  1903               	btfsc	3,2
  4540  0409  2C0B               	goto	u2231
  4541  040A  2C0C               	goto	u2230
  4542  040B                     u2231:
  4543  040B  2C0E               	goto	l2039
  4544  040C                     u2230:
  4545  040C                     l2037:
  4546  040C  3001               	movlw	1
  4547  040D  02FA               	subwf	___fladd@bexp,f
  4548  040E                     l2039:
  4549  040E  1FF2               	btfss	___fladd@b+2,7
  4550  040F  2C11               	goto	u2241
  4551  0410  2C12               	goto	u2240
  4552  0411                     u2241:
  4553  0411  2BEE               	goto	l2025
  4554  0412                     u2240:
  4555  0412                     l2041:
  4556  0412  01F9               	clrf	___fladd@aexp
  4557  0413                     l2043:
  4558  0413  1FFB               	btfss	___fladd@grs,7
  4559  0414  2C16               	goto	u2251
  4560  0415  2C17               	goto	u2250
  4561  0416                     u2251:
  4562  0416  2C25               	goto	l2051
  4563  0417                     u2250:
  4564  0417                     l2045:
  4565  0417  087B               	movf	___fladd@grs,w
  4566  0418  397F               	andlw	127
  4567  0419  1903               	btfsc	3,2
  4568  041A  2C1C               	goto	u2261
  4569  041B  2C1D               	goto	u2260
  4570  041C                     u2261:
  4571  041C  2C20               	goto	l635
  4572  041D                     u2260:
  4573  041D                     l2047:
  4574  041D  01F9               	clrf	___fladd@aexp
  4575  041E  0AF9               	incf	___fladd@aexp,f
  4576  041F  2C25               	goto	l2051
  4577  0420                     l635:
  4578  0420  1C70               	btfss	___fladd@b,0
  4579  0421  2C23               	goto	u2271
  4580  0422  2C24               	goto	u2270
  4581  0423                     u2271:
  4582  0423  2C25               	goto	l2051
  4583  0424                     u2270:
  4584  0424  2C1D               	goto	l2047
  4585  0425                     l2051:
  4586  0425  0879               	movf	___fladd@aexp,w
  4587  0426  1903               	btfsc	3,2
  4588  0427  2C29               	goto	u2281
  4589  0428  2C2A               	goto	u2280
  4590  0429                     u2281:
  4591  0429  2C60               	goto	l638
  4592  042A                     u2280:
  4593  042A                     l2053:
  4594  042A  3001               	movlw	1
  4595  042B  07F0               	addwf	___fladd@b,f
  4596  042C  3000               	movlw	0
  4597  042D  1803               	skipnc
  4598  042E  3001               	movlw	1
  4599  042F  07F1               	addwf	___fladd@b+1,f
  4600  0430  3000               	movlw	0
  4601  0431  1803               	skipnc
  4602  0432  3001               	movlw	1
  4603  0433  07F2               	addwf	___fladd@b+2,f
  4604  0434  3000               	movlw	0
  4605  0435  1803               	skipnc
  4606  0436  3001               	movlw	1
  4607  0437  07F3               	addwf	___fladd@b+3,f
  4608  0438                     l2055:
  4609  0438  1C73               	btfss	___fladd@b+3,0
  4610  0439  2C3B               	goto	u2291
  4611  043A  2C3C               	goto	u2290
  4612  043B                     u2291:
  4613  043B  2C60               	goto	l638
  4614  043C                     u2290:
  4615  043C                     l2057:
  4616  043C  0870               	movf	___fladd@b,w
  4617  043D  1283               	bcf	3,5	;RP0=0, select bank0
  4618  043E  1303               	bcf	3,6	;RP1=0, select bank0
  4619  043F  00A0               	movwf	??___fladd
  4620  0440  0871               	movf	___fladd@b+1,w
  4621  0441  00A1               	movwf	??___fladd+1
  4622  0442  0872               	movf	___fladd@b+2,w
  4623  0443  00A2               	movwf	??___fladd+2
  4624  0444  0873               	movf	___fladd@b+3,w
  4625  0445  00A3               	movwf	??___fladd+3
  4626  0446  3001               	movlw	1
  4627  0447  00A4               	movwf	??___fladd+4
  4628  0448                     u2305:
  4629  0448  0D23               	rlf	??___fladd+3,w
  4630  0449  0CA3               	rrf	??___fladd+3,f
  4631  044A  0CA2               	rrf	??___fladd+2,f
  4632  044B  0CA1               	rrf	??___fladd+1,f
  4633  044C  0CA0               	rrf	??___fladd,f
  4634  044D                     u2300:
  4635  044D  0BA4               	decfsz	??___fladd+4,f
  4636  044E  2C48               	goto	u2305
  4637  044F  0823               	movf	??___fladd+3,w
  4638  0450  00F3               	movwf	___fladd@b+3
  4639  0451  0822               	movf	??___fladd+2,w
  4640  0452  00F2               	movwf	___fladd@b+2
  4641  0453  0821               	movf	??___fladd+1,w
  4642  0454  00F1               	movwf	___fladd@b+1
  4643  0455  0820               	movf	??___fladd,w
  4644  0456  00F0               	movwf	___fladd@b
  4645  0457  0A7A               	incf	___fladd@bexp,w
  4646  0458  1903               	btfsc	3,2
  4647  0459  2C5B               	goto	u2311
  4648  045A  2C5C               	goto	u2310
  4649  045B                     u2311:
  4650  045B  2C60               	goto	l638
  4651  045C                     u2310:
  4652  045C                     l2059:
  4653  045C  3001               	movlw	1
  4654  045D  00A0               	movwf	??___fladd
  4655  045E  0820               	movf	??___fladd,w
  4656  045F  07FA               	addwf	___fladd@bexp,f
  4657  0460                     l638:
  4658  0460  0A7A               	incf	___fladd@bexp,w
  4659  0461  1903               	btfsc	3,2
  4660  0462  2C64               	goto	u2321
  4661  0463  2C65               	goto	u2320
  4662  0464                     u2321:
  4663  0464  2C6A               	goto	l2063
  4664  0465                     u2320:
  4665  0465                     l2061:
  4666  0465  087A               	movf	___fladd@bexp,w
  4667  0466  1D03               	btfss	3,2
  4668  0467  2C69               	goto	u2331
  4669  0468  2C6A               	goto	u2330
  4670  0469                     u2331:
  4671  0469  2C78               	goto	l2069
  4672  046A                     u2330:
  4673  046A                     l2063:
  4674  046A  3000               	movlw	0
  4675  046B  00F3               	movwf	___fladd@b+3
  4676  046C  3000               	movlw	0
  4677  046D  00F2               	movwf	___fladd@b+2
  4678  046E  3000               	movlw	0
  4679  046F  00F1               	movwf	___fladd@b+1
  4680  0470  3000               	movlw	0
  4681  0471  00F0               	movwf	___fladd@b
  4682  0472                     l2065:
  4683  0472  087A               	movf	___fladd@bexp,w
  4684  0473  1D03               	btfss	3,2
  4685  0474  2C76               	goto	u2341
  4686  0475  2C77               	goto	u2340
  4687  0476                     u2341:
  4688  0476  2C78               	goto	l2069
  4689  0477                     u2340:
  4690  0477                     l2067:
  4691  0477  01F8               	clrf	___fladd@signs
  4692  0478                     l2069:
  4693  0478  1C7A               	btfss	___fladd@bexp,0
  4694  0479  2C7B               	goto	u2351
  4695  047A  2C7C               	goto	u2350
  4696  047B                     u2351:
  4697  047B  2C7E               	goto	l2073
  4698  047C                     u2350:
  4699  047C                     l2071:
  4700  047C  17F2               	bsf	___fladd@b+2,7
  4701  047D  2C84               	goto	l646
  4702  047E                     l2073:
  4703  047E  307F               	movlw	127
  4704  047F  1283               	bcf	3,5	;RP0=0, select bank0
  4705  0480  1303               	bcf	3,6	;RP1=0, select bank0
  4706  0481  00A0               	movwf	??___fladd
  4707  0482  0820               	movf	??___fladd,w
  4708  0483  05F2               	andwf	___fladd@b+2,f
  4709  0484                     l646:
  4710  0484  087A               	movf	___fladd@bexp,w
  4711  0485  1283               	bcf	3,5	;RP0=0, select bank0
  4712  0486  1303               	bcf	3,6	;RP1=0, select bank0
  4713  0487  00A0               	movwf	??___fladd
  4714  0488  1003               	clrc
  4715  0489  0C20               	rrf	??___fladd,w
  4716  048A  00A1               	movwf	??___fladd+1
  4717  048B  0821               	movf	??___fladd+1,w
  4718  048C  00F3               	movwf	___fladd@b+3
  4719  048D                     l2075:
  4720  048D  1FF8               	btfss	___fladd@signs,7
  4721  048E  2C90               	goto	u2361
  4722  048F  2C91               	goto	u2360
  4723  0490                     u2361:
  4724  0490  2C92               	goto	l647
  4725  0491                     u2360:
  4726  0491                     l2077:
  4727  0491  17F3               	bsf	___fladd@b+3,7
  4728  0492                     l647:
  4729  0492                     l617:
  4730  0492  0008               	return
  4731  0493                     __end_of___fladd:
  4732                           
  4733                           	psect	text15
  4734  0A0F                     __ptext15:	
  4735 ;; *************** function ___awdiv *****************
  4736 ;; Defined at:
  4737 ;;		line 5 in file "C:\Program Files\Microchip\xc8\v2.35\pic\sources\c90\common\awdiv.c"
  4738 ;; Parameters:    Size  Location     Type
  4739 ;;  divisor         2   75[BANK0 ] int 
  4740 ;;  dividend        2   77[BANK0 ] int 
  4741 ;; Auto vars:     Size  Location     Type
  4742 ;;  quotient        2   10[BANK1 ] int 
  4743 ;;  sign            1    9[BANK1 ] unsigned char 
  4744 ;;  counter         1    8[BANK1 ] unsigned char 
  4745 ;; Return value:  Size  Location     Type
  4746 ;;                  2   75[BANK0 ] int 
  4747 ;; Registers used:
  4748 ;;		wreg, status,2, status,0
  4749 ;; Tracked objects:
  4750 ;;		On entry : 0/0
  4751 ;;		On exit  : 0/0
  4752 ;;		Unchanged: 0/0
  4753 ;; Data sizes:     COMMON   BANK0   BANK1   BANK3   BANK2
  4754 ;;      Params:         0       4       0       0       0
  4755 ;;      Locals:         0       0       4       0       0
  4756 ;;      Temps:          0       1       0       0       0
  4757 ;;      Totals:         0       5       4       0       0
  4758 ;;Total ram usage:        9 bytes
  4759 ;; Hardware stack levels used: 1
  4760 ;; This function calls:
  4761 ;;		Nothing
  4762 ;; This function is called by:
  4763 ;;		_DECENA
  4764 ;; This function uses a non-reentrant model
  4765 ;;
  4766                           
  4767  0A0F                     ___awdiv:	
  4768                           ;psect for function ___awdiv
  4769                           
  4770  0A0F                     l2475:	
  4771                           ;incstack = 0
  4772                           ; Regs used in ___awdiv: [wreg+status,2+status,0]
  4773                           
  4774  0A0F  1683               	bsf	3,5	;RP0=1, select bank1
  4775  0A10  1303               	bcf	3,6	;RP1=0, select bank1
  4776  0A11  01A9               	clrf	___awdiv@sign^(0+128)
  4777  0A12                     l2477:
  4778  0A12  1283               	bcf	3,5	;RP0=0, select bank0
  4779  0A13  1303               	bcf	3,6	;RP1=0, select bank0
  4780  0A14  1FEC               	btfss	___awdiv@divisor+1,7
  4781  0A15  2A17               	goto	u3311
  4782  0A16  2A18               	goto	u3310
  4783  0A17                     u3311:
  4784  0A17  2A21               	goto	l2483
  4785  0A18                     u3310:
  4786  0A18                     l2479:
  4787  0A18  09EB               	comf	___awdiv@divisor,f
  4788  0A19  09EC               	comf	___awdiv@divisor+1,f
  4789  0A1A  0AEB               	incf	___awdiv@divisor,f
  4790  0A1B  1903               	skipnz
  4791  0A1C  0AEC               	incf	___awdiv@divisor+1,f
  4792  0A1D                     l2481:
  4793  0A1D  1683               	bsf	3,5	;RP0=1, select bank1
  4794  0A1E  1303               	bcf	3,6	;RP1=0, select bank1
  4795  0A1F  01A9               	clrf	___awdiv@sign^(0+128)
  4796  0A20  0AA9               	incf	___awdiv@sign^(0+128),f
  4797  0A21                     l2483:
  4798  0A21  1283               	bcf	3,5	;RP0=0, select bank0
  4799  0A22  1FEE               	btfss	___awdiv@dividend+1,7
  4800  0A23  2A25               	goto	u3321
  4801  0A24  2A26               	goto	u3320
  4802  0A25                     u3321:
  4803  0A25  2A31               	goto	l2489
  4804  0A26                     u3320:
  4805  0A26                     l2485:
  4806  0A26  09ED               	comf	___awdiv@dividend,f
  4807  0A27  09EE               	comf	___awdiv@dividend+1,f
  4808  0A28  0AED               	incf	___awdiv@dividend,f
  4809  0A29  1903               	skipnz
  4810  0A2A  0AEE               	incf	___awdiv@dividend+1,f
  4811  0A2B                     l2487:
  4812  0A2B  3001               	movlw	1
  4813  0A2C  00EF               	movwf	??___awdiv
  4814  0A2D  086F               	movf	??___awdiv,w
  4815  0A2E  1683               	bsf	3,5	;RP0=1, select bank1
  4816  0A2F  1303               	bcf	3,6	;RP1=0, select bank1
  4817  0A30  06A9               	xorwf	___awdiv@sign^(0+128),f
  4818  0A31                     l2489:
  4819  0A31  1683               	bsf	3,5	;RP0=1, select bank1
  4820  0A32  1303               	bcf	3,6	;RP1=0, select bank1
  4821  0A33  01AA               	clrf	___awdiv@quotient^(0+128)
  4822  0A34  01AB               	clrf	(___awdiv@quotient+1)^(0+128)
  4823  0A35                     l2491:
  4824  0A35  1283               	bcf	3,5	;RP0=0, select bank0
  4825  0A36  1303               	bcf	3,6	;RP1=0, select bank0
  4826  0A37  086B               	movf	___awdiv@divisor,w
  4827  0A38  046C               	iorwf	___awdiv@divisor+1,w
  4828  0A39  1903               	btfsc	3,2
  4829  0A3A  2A3C               	goto	u3331
  4830  0A3B  2A3D               	goto	u3330
  4831  0A3C                     u3331:
  4832  0A3C  2A83               	goto	l2511
  4833  0A3D                     u3330:
  4834  0A3D                     l2493:
  4835  0A3D  1683               	bsf	3,5	;RP0=1, select bank1
  4836  0A3E  1303               	bcf	3,6	;RP1=0, select bank1
  4837  0A3F  01A8               	clrf	___awdiv@counter^(0+128)
  4838  0A40  0AA8               	incf	___awdiv@counter^(0+128),f
  4839  0A41  2A4F               	goto	l2499
  4840  0A42                     l2495:
  4841  0A42  3001               	movlw	1
  4842  0A43                     u3345:
  4843  0A43  1003               	clrc
  4844  0A44  0DEB               	rlf	___awdiv@divisor,f
  4845  0A45  0DEC               	rlf	___awdiv@divisor+1,f
  4846  0A46  3EFF               	addlw	-1
  4847  0A47  1D03               	skipz
  4848  0A48  2A43               	goto	u3345
  4849  0A49                     l2497:
  4850  0A49  3001               	movlw	1
  4851  0A4A  00EF               	movwf	??___awdiv
  4852  0A4B  086F               	movf	??___awdiv,w
  4853  0A4C  1683               	bsf	3,5	;RP0=1, select bank1
  4854  0A4D  1303               	bcf	3,6	;RP1=0, select bank1
  4855  0A4E  07A8               	addwf	___awdiv@counter^(0+128),f
  4856  0A4F                     l2499:
  4857  0A4F  1283               	bcf	3,5	;RP0=0, select bank0
  4858  0A50  1303               	bcf	3,6	;RP1=0, select bank0
  4859  0A51  1FEC               	btfss	___awdiv@divisor+1,7
  4860  0A52  2A54               	goto	u3351
  4861  0A53  2A55               	goto	u3350
  4862  0A54                     u3351:
  4863  0A54  2A42               	goto	l2495
  4864  0A55                     u3350:
  4865  0A55                     l2501:
  4866  0A55  3001               	movlw	1
  4867  0A56  1683               	bsf	3,5	;RP0=1, select bank1
  4868  0A57  1303               	bcf	3,6	;RP1=0, select bank1
  4869  0A58                     u3365:
  4870  0A58  1003               	clrc
  4871  0A59  0DAA               	rlf	___awdiv@quotient^(0+128),f
  4872  0A5A  0DAB               	rlf	(___awdiv@quotient+1)^(0+128),f
  4873  0A5B  3EFF               	addlw	-1
  4874  0A5C  1D03               	skipz
  4875  0A5D  2A58               	goto	u3365
  4876  0A5E  1283               	bcf	3,5	;RP0=0, select bank0
  4877  0A5F  1303               	bcf	3,6	;RP1=0, select bank0
  4878  0A60  086C               	movf	___awdiv@divisor+1,w
  4879  0A61  026E               	subwf	___awdiv@dividend+1,w
  4880  0A62  1D03               	skipz
  4881  0A63  2A66               	goto	u3375
  4882  0A64  086B               	movf	___awdiv@divisor,w
  4883  0A65  026D               	subwf	___awdiv@dividend,w
  4884  0A66                     u3375:
  4885  0A66  1C03               	skipc
  4886  0A67  2A69               	goto	u3371
  4887  0A68  2A6A               	goto	u3370
  4888  0A69                     u3371:
  4889  0A69  2A73               	goto	l2507
  4890  0A6A                     u3370:
  4891  0A6A                     l2503:
  4892  0A6A  086B               	movf	___awdiv@divisor,w
  4893  0A6B  02ED               	subwf	___awdiv@dividend,f
  4894  0A6C  086C               	movf	___awdiv@divisor+1,w
  4895  0A6D  1C03               	skipc
  4896  0A6E  03EE               	decf	___awdiv@dividend+1,f
  4897  0A6F  02EE               	subwf	___awdiv@dividend+1,f
  4898  0A70                     l2505:
  4899  0A70  1683               	bsf	3,5	;RP0=1, select bank1
  4900  0A71  1303               	bcf	3,6	;RP1=0, select bank1
  4901  0A72  142A               	bsf	___awdiv@quotient^(0+128),0
  4902  0A73                     l2507:
  4903  0A73  3001               	movlw	1
  4904  0A74  1283               	bcf	3,5	;RP0=0, select bank0
  4905  0A75                     u3385:
  4906  0A75  1003               	clrc
  4907  0A76  0CEC               	rrf	___awdiv@divisor+1,f
  4908  0A77  0CEB               	rrf	___awdiv@divisor,f
  4909  0A78  3EFF               	addlw	-1
  4910  0A79  1D03               	skipz
  4911  0A7A  2A75               	goto	u3385
  4912  0A7B                     l2509:
  4913  0A7B  3001               	movlw	1
  4914  0A7C  1683               	bsf	3,5	;RP0=1, select bank1
  4915  0A7D  1303               	bcf	3,6	;RP1=0, select bank1
  4916  0A7E  02A8               	subwf	___awdiv@counter^(0+128),f
  4917  0A7F  1D03               	btfss	3,2
  4918  0A80  2A82               	goto	u3391
  4919  0A81  2A83               	goto	u3390
  4920  0A82                     u3391:
  4921  0A82  2A55               	goto	l2501
  4922  0A83                     u3390:
  4923  0A83                     l2511:
  4924  0A83  1683               	bsf	3,5	;RP0=1, select bank1
  4925  0A84  1303               	bcf	3,6	;RP1=0, select bank1
  4926  0A85  0829               	movf	___awdiv@sign^(0+128),w
  4927  0A86  1903               	btfsc	3,2
  4928  0A87  2A89               	goto	u3401
  4929  0A88  2A8A               	goto	u3400
  4930  0A89                     u3401:
  4931  0A89  2A8F               	goto	l2515
  4932  0A8A                     u3400:
  4933  0A8A                     l2513:
  4934  0A8A  09AA               	comf	___awdiv@quotient^(0+128),f
  4935  0A8B  09AB               	comf	(___awdiv@quotient+1)^(0+128),f
  4936  0A8C  0AAA               	incf	___awdiv@quotient^(0+128),f
  4937  0A8D  1903               	skipnz
  4938  0A8E  0AAB               	incf	(___awdiv@quotient+1)^(0+128),f
  4939  0A8F                     l2515:
  4940  0A8F  082B               	movf	(___awdiv@quotient+1)^(0+128),w
  4941  0A90  1283               	bcf	3,5	;RP0=0, select bank0
  4942  0A91  1303               	bcf	3,6	;RP1=0, select bank0
  4943  0A92  00EC               	movwf	?___awdiv+1
  4944  0A93  1683               	bsf	3,5	;RP0=1, select bank1
  4945  0A94  1303               	bcf	3,6	;RP1=0, select bank1
  4946  0A95  082A               	movf	___awdiv@quotient^(0+128),w
  4947  0A96  1283               	bcf	3,5	;RP0=0, select bank0
  4948  0A97  1303               	bcf	3,6	;RP1=0, select bank0
  4949  0A98  00EB               	movwf	?___awdiv
  4950  0A99                     l464:
  4951  0A99  0008               	return
  4952  0A9A                     __end_of___awdiv:
  4953                           
  4954                           	psect	text16
  4955  0938                     __ptext16:	
  4956 ;; *************** function _CENTENA *****************
  4957 ;; Defined at:
  4958 ;;		line 13 in file "ADC.c"
  4959 ;; Parameters:    Size  Location     Type
  4960 ;;  c               1    wreg     unsigned char 
  4961 ;; Auto vars:     Size  Location     Type
  4962 ;;  c               1   68[BANK0 ] unsigned char 
  4963 ;; Return value:  Size  Location     Type
  4964 ;;                  1    wreg      unsigned char 
  4965 ;; Registers used:
  4966 ;;		wreg, status,2, status,0, btemp+1, pclath, cstack
  4967 ;; Tracked objects:
  4968 ;;		On entry : 0/0
  4969 ;;		On exit  : 0/0
  4970 ;;		Unchanged: 0/0
  4971 ;; Data sizes:     COMMON   BANK0   BANK1   BANK3   BANK2
  4972 ;;      Params:         0       0       0       0       0
  4973 ;;      Locals:         0       1       0       0       0
  4974 ;;      Temps:          0       5       0       0       0
  4975 ;;      Totals:         0       6       0       0       0
  4976 ;;Total ram usage:        6 bytes
  4977 ;; Hardware stack levels used: 1
  4978 ;; Hardware stack levels required when called: 2
  4979 ;; This function calls:
  4980 ;;		___fldiv
  4981 ;;		___flmul
  4982 ;;		___fltol
  4983 ;;		___xxtofl
  4984 ;; This function is called by:
  4985 ;;		_DECENA
  4986 ;;		_UNIDAD
  4987 ;;		_main
  4988 ;; This function uses a non-reentrant model
  4989 ;;
  4990                           
  4991  0938                     _CENTENA:	
  4992                           ;psect for function _CENTENA
  4993                           
  4994                           
  4995                           ;incstack = 0
  4996                           ; Regs used in _CENTENA: [wreg+status,2+status,0+btemp+1+pclath+cstack]
  4997                           ;CENTENA@c stored from wreg
  4998  0938  1283               	bcf	3,5	;RP0=0, select bank0
  4999  0939  1303               	bcf	3,6	;RP1=0, select bank0
  5000  093A  00E4               	movwf	CENTENA@c
  5001  093B                     l2415:
  5002                           
  5003                           ;ADC.c: 14:     c = (uint8_t)((c*1.9607)/100);
  5004  093B  0864               	movf	CENTENA@c,w
  5005  093C  00DF               	movwf	??_CENTENA
  5006  093D  01E0               	clrf	??_CENTENA+1
  5007  093E  01E1               	clrf	??_CENTENA+2
  5008  093F  01E2               	clrf	??_CENTENA+3
  5009  0940  0862               	movf	??_CENTENA+3,w
  5010  0941  00F3               	movwf	___xxtofl@val+3
  5011  0942  0861               	movf	??_CENTENA+2,w
  5012  0943  00F2               	movwf	___xxtofl@val+2
  5013  0944  0860               	movf	??_CENTENA+1,w
  5014  0945  00F1               	movwf	___xxtofl@val+1
  5015  0946  085F               	movf	??_CENTENA,w
  5016  0947  00F0               	movwf	___xxtofl@val
  5017  0948  3001               	movlw	1
  5018  0949  120A  158A  23D3  120A  158A  	fcall	___xxtofl
  5019  094E  0873               	movf	?___xxtofl+3,w
  5020  094F  1283               	bcf	3,5	;RP0=0, select bank0
  5021  0950  1303               	bcf	3,6	;RP1=0, select bank0
  5022  0951  00A7               	movwf	___flmul@a+3
  5023  0952  0872               	movf	?___xxtofl+2,w
  5024  0953  00A6               	movwf	___flmul@a+2
  5025  0954  0871               	movf	?___xxtofl+1,w
  5026  0955  00A5               	movwf	___flmul@a+1
  5027  0956  0870               	movf	?___xxtofl,w
  5028  0957  00A4               	movwf	___flmul@a
  5029  0958  303F               	movlw	63
  5030  0959  00A3               	movwf	___flmul@b+3
  5031  095A  30FA               	movlw	250
  5032  095B  00A2               	movwf	___flmul@b+2
  5033  095C  30F8               	movlw	248
  5034  095D  00A1               	movwf	___flmul@b+1
  5035  095E  3038               	movlw	56
  5036  095F  00A0               	movwf	___flmul@b
  5037  0960  120A  118A  2493  120A  158A  	fcall	___flmul
  5038  0965  1283               	bcf	3,5	;RP0=0, select bank0
  5039  0966  1303               	bcf	3,6	;RP1=0, select bank0
  5040  0967  0823               	movf	?___flmul+3,w
  5041  0968  00C1               	movwf	___fldiv@b+3
  5042  0969  0822               	movf	?___flmul+2,w
  5043  096A  00C0               	movwf	___fldiv@b+2
  5044  096B  0821               	movf	?___flmul+1,w
  5045  096C  00BF               	movwf	___fldiv@b+1
  5046  096D  0820               	movf	?___flmul,w
  5047  096E  00BE               	movwf	___fldiv@b
  5048  096F  3042               	movlw	66
  5049  0970  00BD               	movwf	___fldiv@a+3
  5050  0971  30C8               	movlw	200
  5051  0972  00BC               	movwf	___fldiv@a+2
  5052  0973  3000               	movlw	0
  5053  0974  00BB               	movwf	___fldiv@a+1
  5054  0975  3000               	movlw	0
  5055  0976  00BA               	movwf	___fldiv@a
  5056  0977  120A  118A  201E  120A  158A  	fcall	___fldiv
  5057  097C  1283               	bcf	3,5	;RP0=0, select bank0
  5058  097D  1303               	bcf	3,6	;RP1=0, select bank0
  5059  097E  083D               	movf	?___fldiv+3,w
  5060  097F  00D7               	movwf	___fltol@f1+3
  5061  0980  083C               	movf	?___fldiv+2,w
  5062  0981  00D6               	movwf	___fltol@f1+2
  5063  0982  083B               	movf	?___fldiv+1,w
  5064  0983  00D5               	movwf	___fltol@f1+1
  5065  0984  083A               	movf	?___fldiv,w
  5066  0985  00D4               	movwf	___fltol@f1
  5067  0986  120A  158A  2193  120A  158A  	fcall	___fltol
  5068  098B  1283               	bcf	3,5	;RP0=0, select bank0
  5069  098C  1303               	bcf	3,6	;RP1=0, select bank0
  5070  098D  0854               	movf	?___fltol,w
  5071  098E  00E3               	movwf	??_CENTENA+4
  5072  098F  0863               	movf	??_CENTENA+4,w
  5073  0990  00E4               	movwf	CENTENA@c
  5074  0991                     l2417:
  5075                           
  5076                           ;ADC.c: 15:     return c;
  5077  0991  0864               	movf	CENTENA@c,w
  5078  0992                     l50:
  5079  0992  0008               	return
  5080  0993                     __end_of_CENTENA:
  5081                           
  5082                           	psect	text17
  5083  0BD3                     __ptext17:	
  5084 ;; *************** function ___xxtofl *****************
  5085 ;; Defined at:
  5086 ;;		line 10 in file "C:\Program Files\Microchip\xc8\v2.35\pic\sources\c90\common\xxtofl.c"
  5087 ;; Parameters:    Size  Location     Type
  5088 ;;  sign            1    wreg     unsigned char 
  5089 ;;  val             4    0[COMMON] long 
  5090 ;; Auto vars:     Size  Location     Type
  5091 ;;  sign            1    8[COMMON] unsigned char 
  5092 ;;  arg             4   10[COMMON] unsigned long 
  5093 ;;  exp             1    9[COMMON] unsigned char 
  5094 ;; Return value:  Size  Location     Type
  5095 ;;                  4    0[COMMON] unsigned char 
  5096 ;; Registers used:
  5097 ;;		wreg, status,2, status,0
  5098 ;; Tracked objects:
  5099 ;;		On entry : 0/0
  5100 ;;		On exit  : 0/0
  5101 ;;		Unchanged: 0/0
  5102 ;; Data sizes:     COMMON   BANK0   BANK1   BANK3   BANK2
  5103 ;;      Params:         4       0       0       0       0
  5104 ;;      Locals:         6       0       0       0       0
  5105 ;;      Temps:          4       0       0       0       0
  5106 ;;      Totals:        14       0       0       0       0
  5107 ;;Total ram usage:       14 bytes
  5108 ;; Hardware stack levels used: 1
  5109 ;; This function calls:
  5110 ;;		Nothing
  5111 ;; This function is called by:
  5112 ;;		_CENTENA
  5113 ;;		_DECENA
  5114 ;;		_UNIDAD
  5115 ;; This function uses a non-reentrant model
  5116 ;;
  5117                           
  5118  0BD3                     ___xxtofl:	
  5119                           ;psect for function ___xxtofl
  5120                           
  5121                           
  5122                           ;incstack = 0
  5123                           ; Regs used in ___xxtofl: [wreg+status,2+status,0]
  5124                           ;___xxtofl@sign stored from wreg
  5125  0BD3  00F8               	movwf	___xxtofl@sign
  5126  0BD4                     l2361:
  5127  0BD4  0878               	movf	___xxtofl@sign,w
  5128  0BD5  1903               	btfsc	3,2
  5129  0BD6  2BD8               	goto	u3031
  5130  0BD7  2BD9               	goto	u3030
  5131  0BD8                     u3031:
  5132  0BD8  2BED               	goto	l2367
  5133  0BD9                     u3030:
  5134  0BD9                     l2363:
  5135  0BD9  1FF3               	btfss	___xxtofl@val+3,7
  5136  0BDA  2BDC               	goto	u3041
  5137  0BDB  2BDD               	goto	u3040
  5138  0BDC                     u3041:
  5139  0BDC  2BED               	goto	l2367
  5140  0BDD                     u3040:
  5141  0BDD                     l2365:
  5142  0BDD  0970               	comf	___xxtofl@val,w
  5143  0BDE  00FA               	movwf	___xxtofl@arg
  5144  0BDF  0971               	comf	___xxtofl@val+1,w
  5145  0BE0  00FB               	movwf	___xxtofl@arg+1
  5146  0BE1  0972               	comf	___xxtofl@val+2,w
  5147  0BE2  00FC               	movwf	___xxtofl@arg+2
  5148  0BE3  0973               	comf	___xxtofl@val+3,w
  5149  0BE4  00FD               	movwf	___xxtofl@arg+3
  5150  0BE5  0AFA               	incf	___xxtofl@arg,f
  5151  0BE6  1903               	skipnz
  5152  0BE7  0AFB               	incf	___xxtofl@arg+1,f
  5153  0BE8  1903               	skipnz
  5154  0BE9  0AFC               	incf	___xxtofl@arg+2,f
  5155  0BEA  1903               	skipnz
  5156  0BEB  0AFD               	incf	___xxtofl@arg+3,f
  5157  0BEC  2BF5               	goto	l744
  5158  0BED                     l2367:
  5159  0BED  0873               	movf	___xxtofl@val+3,w
  5160  0BEE  00FD               	movwf	___xxtofl@arg+3
  5161  0BEF  0872               	movf	___xxtofl@val+2,w
  5162  0BF0  00FC               	movwf	___xxtofl@arg+2
  5163  0BF1  0871               	movf	___xxtofl@val+1,w
  5164  0BF2  00FB               	movwf	___xxtofl@arg+1
  5165  0BF3  0870               	movf	___xxtofl@val,w
  5166  0BF4  00FA               	movwf	___xxtofl@arg
  5167  0BF5                     l744:
  5168  0BF5  0873               	movf	___xxtofl@val+3,w
  5169  0BF6  0472               	iorwf	___xxtofl@val+2,w
  5170  0BF7  0471               	iorwf	___xxtofl@val+1,w
  5171  0BF8  0470               	iorwf	___xxtofl@val,w
  5172  0BF9  1D03               	skipz
  5173  0BFA  2BFC               	goto	u3051
  5174  0BFB  2BFD               	goto	u3050
  5175  0BFC                     u3051:
  5176  0BFC  2C06               	goto	l2373
  5177  0BFD                     u3050:
  5178  0BFD                     l2369:
  5179  0BFD  3000               	movlw	0
  5180  0BFE  00F3               	movwf	?___xxtofl+3
  5181  0BFF  3000               	movlw	0
  5182  0C00  00F2               	movwf	?___xxtofl+2
  5183  0C01  3000               	movlw	0
  5184  0C02  00F1               	movwf	?___xxtofl+1
  5185  0C03  3000               	movlw	0
  5186  0C04  00F0               	movwf	?___xxtofl
  5187  0C05  2C8C               	goto	l746
  5188  0C06                     l2373:
  5189  0C06  3096               	movlw	150
  5190  0C07  00F4               	movwf	??___xxtofl
  5191  0C08  0874               	movf	??___xxtofl,w
  5192  0C09  00F9               	movwf	___xxtofl@exp
  5193  0C0A  2C18               	goto	l2377
  5194  0C0B                     l2375:
  5195  0C0B  3001               	movlw	1
  5196  0C0C  00F4               	movwf	??___xxtofl
  5197  0C0D  0874               	movf	??___xxtofl,w
  5198  0C0E  07F9               	addwf	___xxtofl@exp,f
  5199  0C0F  3001               	movlw	1
  5200  0C10                     u3065:
  5201  0C10  1003               	clrc
  5202  0C11  0CFD               	rrf	___xxtofl@arg+3,f
  5203  0C12  0CFC               	rrf	___xxtofl@arg+2,f
  5204  0C13  0CFB               	rrf	___xxtofl@arg+1,f
  5205  0C14  0CFA               	rrf	___xxtofl@arg,f
  5206  0C15  3EFF               	addlw	-1
  5207  0C16  1D03               	skipz
  5208  0C17  2C10               	goto	u3065
  5209  0C18                     l2377:
  5210  0C18  30FE               	movlw	254
  5211  0C19  057D               	andwf	___xxtofl@arg+3,w
  5212  0C1A  1D03               	btfss	3,2
  5213  0C1B  2C1D               	goto	u3071
  5214  0C1C  2C1E               	goto	u3070
  5215  0C1D                     u3071:
  5216  0C1D  2C0B               	goto	l2375
  5217  0C1E                     u3070:
  5218  0C1E  2C3A               	goto	l750
  5219  0C1F                     l2379:
  5220  0C1F  3001               	movlw	1
  5221  0C20  00F4               	movwf	??___xxtofl
  5222  0C21  0874               	movf	??___xxtofl,w
  5223  0C22  07F9               	addwf	___xxtofl@exp,f
  5224  0C23                     l2381:
  5225  0C23  3001               	movlw	1
  5226  0C24  07FA               	addwf	___xxtofl@arg,f
  5227  0C25  3000               	movlw	0
  5228  0C26  1803               	skipnc
  5229  0C27  3001               	movlw	1
  5230  0C28  07FB               	addwf	___xxtofl@arg+1,f
  5231  0C29  3000               	movlw	0
  5232  0C2A  1803               	skipnc
  5233  0C2B  3001               	movlw	1
  5234  0C2C  07FC               	addwf	___xxtofl@arg+2,f
  5235  0C2D  3000               	movlw	0
  5236  0C2E  1803               	skipnc
  5237  0C2F  3001               	movlw	1
  5238  0C30  07FD               	addwf	___xxtofl@arg+3,f
  5239  0C31                     l2383:
  5240  0C31  3001               	movlw	1
  5241  0C32                     u3085:
  5242  0C32  1003               	clrc
  5243  0C33  0CFD               	rrf	___xxtofl@arg+3,f
  5244  0C34  0CFC               	rrf	___xxtofl@arg+2,f
  5245  0C35  0CFB               	rrf	___xxtofl@arg+1,f
  5246  0C36  0CFA               	rrf	___xxtofl@arg,f
  5247  0C37  3EFF               	addlw	-1
  5248  0C38  1D03               	skipz
  5249  0C39  2C32               	goto	u3085
  5250  0C3A                     l750:
  5251  0C3A  30FF               	movlw	255
  5252  0C3B  057D               	andwf	___xxtofl@arg+3,w
  5253  0C3C  1D03               	btfss	3,2
  5254  0C3D  2C3F               	goto	u3091
  5255  0C3E  2C40               	goto	u3090
  5256  0C3F                     u3091:
  5257  0C3F  2C1F               	goto	l2379
  5258  0C40                     u3090:
  5259  0C40  2C4C               	goto	l2387
  5260  0C41                     l2385:
  5261  0C41  3001               	movlw	1
  5262  0C42  02F9               	subwf	___xxtofl@exp,f
  5263  0C43  3001               	movlw	1
  5264  0C44  00F4               	movwf	??___xxtofl
  5265  0C45                     u3105:
  5266  0C45  1003               	clrc
  5267  0C46  0DFA               	rlf	___xxtofl@arg,f
  5268  0C47  0DFB               	rlf	___xxtofl@arg+1,f
  5269  0C48  0DFC               	rlf	___xxtofl@arg+2,f
  5270  0C49  0DFD               	rlf	___xxtofl@arg+3,f
  5271  0C4A  0BF4               	decfsz	??___xxtofl,f
  5272  0C4B  2C45               	goto	u3105
  5273  0C4C                     l2387:
  5274  0C4C  1BFC               	btfsc	___xxtofl@arg+2,7
  5275  0C4D  2C4F               	goto	u3111
  5276  0C4E  2C50               	goto	u3110
  5277  0C4F                     u3111:
  5278  0C4F  2C56               	goto	l757
  5279  0C50                     u3110:
  5280  0C50                     l2389:
  5281  0C50  3002               	movlw	2
  5282  0C51  0279               	subwf	___xxtofl@exp,w
  5283  0C52  1803               	skipnc
  5284  0C53  2C55               	goto	u3121
  5285  0C54  2C56               	goto	u3120
  5286  0C55                     u3121:
  5287  0C55  2C41               	goto	l2385
  5288  0C56                     u3120:
  5289  0C56                     l757:
  5290  0C56  1879               	btfsc	___xxtofl@exp,0
  5291  0C57  2C59               	goto	u3131
  5292  0C58  2C5A               	goto	u3130
  5293  0C59                     u3131:
  5294  0C59  2C62               	goto	l758
  5295  0C5A                     u3130:
  5296  0C5A                     l2391:
  5297  0C5A  30FF               	movlw	255
  5298  0C5B  05FA               	andwf	___xxtofl@arg,f
  5299  0C5C  30FF               	movlw	255
  5300  0C5D  05FB               	andwf	___xxtofl@arg+1,f
  5301  0C5E  307F               	movlw	127
  5302  0C5F  05FC               	andwf	___xxtofl@arg+2,f
  5303  0C60  30FF               	movlw	255
  5304  0C61  05FD               	andwf	___xxtofl@arg+3,f
  5305  0C62                     l758:
  5306  0C62  1003               	clrc
  5307  0C63  0CF9               	rrf	___xxtofl@exp,f
  5308  0C64                     l2393:
  5309  0C64  0879               	movf	___xxtofl@exp,w
  5310  0C65  00F4               	movwf	??___xxtofl
  5311  0C66  01F5               	clrf	??___xxtofl+1
  5312  0C67  01F6               	clrf	??___xxtofl+2
  5313  0C68  01F7               	clrf	??___xxtofl+3
  5314  0C69  3018               	movlw	24
  5315  0C6A                     u3145:
  5316  0C6A  1003               	clrc
  5317  0C6B  0DF4               	rlf	??___xxtofl,f
  5318  0C6C  0DF5               	rlf	??___xxtofl+1,f
  5319  0C6D  0DF6               	rlf	??___xxtofl+2,f
  5320  0C6E  0DF7               	rlf	??___xxtofl+3,f
  5321  0C6F                     u3140:
  5322  0C6F  3EFF               	addlw	-1
  5323  0C70  1D03               	skipz
  5324  0C71  2C6A               	goto	u3145
  5325  0C72  0874               	movf	??___xxtofl,w
  5326  0C73  04FA               	iorwf	___xxtofl@arg,f
  5327  0C74  0875               	movf	??___xxtofl+1,w
  5328  0C75  04FB               	iorwf	___xxtofl@arg+1,f
  5329  0C76  0876               	movf	??___xxtofl+2,w
  5330  0C77  04FC               	iorwf	___xxtofl@arg+2,f
  5331  0C78  0877               	movf	??___xxtofl+3,w
  5332  0C79  04FD               	iorwf	___xxtofl@arg+3,f
  5333  0C7A                     l2395:
  5334  0C7A  0878               	movf	___xxtofl@sign,w
  5335  0C7B  1903               	btfsc	3,2
  5336  0C7C  2C7E               	goto	u3151
  5337  0C7D  2C7F               	goto	u3150
  5338  0C7E                     u3151:
  5339  0C7E  2C84               	goto	l2401
  5340  0C7F                     u3150:
  5341  0C7F                     l2397:
  5342  0C7F  1FF3               	btfss	___xxtofl@val+3,7
  5343  0C80  2C82               	goto	u3161
  5344  0C81  2C83               	goto	u3160
  5345  0C82                     u3161:
  5346  0C82  2C84               	goto	l2401
  5347  0C83                     u3160:
  5348  0C83                     l2399:
  5349  0C83  17FD               	bsf	___xxtofl@arg+3,7
  5350  0C84                     l2401:
  5351  0C84  087D               	movf	___xxtofl@arg+3,w
  5352  0C85  00F3               	movwf	?___xxtofl+3
  5353  0C86  087C               	movf	___xxtofl@arg+2,w
  5354  0C87  00F2               	movwf	?___xxtofl+2
  5355  0C88  087B               	movf	___xxtofl@arg+1,w
  5356  0C89  00F1               	movwf	?___xxtofl+1
  5357  0C8A  087A               	movf	___xxtofl@arg,w
  5358  0C8B  00F0               	movwf	?___xxtofl
  5359  0C8C                     l746:
  5360  0C8C  0008               	return
  5361  0C8D                     __end_of___xxtofl:
  5362                           
  5363                           	psect	text18
  5364  0993                     __ptext18:	
  5365 ;; *************** function ___fltol *****************
  5366 ;; Defined at:
  5367 ;;		line 43 in file "C:\Program Files\Microchip\xc8\v2.35\pic\sources\c90\common\fltol.c"
  5368 ;; Parameters:    Size  Location     Type
  5369 ;;  f1              4   52[BANK0 ] unsigned char 
  5370 ;; Auto vars:     Size  Location     Type
  5371 ;;  exp1            1   62[BANK0 ] unsigned char 
  5372 ;;  sign1           1   61[BANK0 ] unsigned char 
  5373 ;; Return value:  Size  Location     Type
  5374 ;;                  4   52[BANK0 ] long 
  5375 ;; Registers used:
  5376 ;;		wreg, status,2, status,0
  5377 ;; Tracked objects:
  5378 ;;		On entry : 0/0
  5379 ;;		On exit  : 0/0
  5380 ;;		Unchanged: 0/0
  5381 ;; Data sizes:     COMMON   BANK0   BANK1   BANK3   BANK2
  5382 ;;      Params:         0       4       0       0       0
  5383 ;;      Locals:         0       2       0       0       0
  5384 ;;      Temps:          0       5       0       0       0
  5385 ;;      Totals:         0      11       0       0       0
  5386 ;;Total ram usage:       11 bytes
  5387 ;; Hardware stack levels used: 1
  5388 ;; This function calls:
  5389 ;;		Nothing
  5390 ;; This function is called by:
  5391 ;;		_CENTENA
  5392 ;;		_DECENA
  5393 ;;		_UNIDAD
  5394 ;; This function uses a non-reentrant model
  5395 ;;
  5396                           
  5397  0993                     ___fltol:	
  5398                           ;psect for function ___fltol
  5399                           
  5400  0993                     l1849:	
  5401                           ;incstack = 0
  5402                           ; Regs used in ___fltol: [wreg+status,2+status,0]
  5403                           
  5404  0993  1003               	clrc
  5405  0994  1283               	bcf	3,5	;RP0=0, select bank0
  5406  0995  1303               	bcf	3,6	;RP1=0, select bank0
  5407  0996  0D56               	rlf	___fltol@f1+2,w
  5408  0997  0D57               	rlf	___fltol@f1+3,w
  5409  0998  00D8               	movwf	??___fltol
  5410  0999  0858               	movf	??___fltol,w
  5411  099A  00DE               	movwf	___fltol@exp1
  5412  099B  085E               	movf	___fltol@exp1,w
  5413  099C  1D03               	btfss	3,2
  5414  099D  299F               	goto	u1811
  5415  099E  29A0               	goto	u1810
  5416  099F                     u1811:
  5417  099F  29A9               	goto	l1855
  5418  09A0                     u1810:
  5419  09A0                     l1851:
  5420  09A0  3000               	movlw	0
  5421  09A1  00D7               	movwf	?___fltol+3
  5422  09A2  3000               	movlw	0
  5423  09A3  00D6               	movwf	?___fltol+2
  5424  09A4  3000               	movlw	0
  5425  09A5  00D5               	movwf	?___fltol+1
  5426  09A6  3000               	movlw	0
  5427  09A7  00D4               	movwf	?___fltol
  5428  09A8  2A0E               	goto	l497
  5429  09A9                     l1855:
  5430  09A9  0854               	movf	___fltol@f1,w
  5431  09AA  00D8               	movwf	??___fltol
  5432  09AB  0855               	movf	___fltol@f1+1,w
  5433  09AC  00D9               	movwf	??___fltol+1
  5434  09AD  0856               	movf	___fltol@f1+2,w
  5435  09AE  00DA               	movwf	??___fltol+2
  5436  09AF  0857               	movf	___fltol@f1+3,w
  5437  09B0  00DB               	movwf	??___fltol+3
  5438  09B1  301F               	movlw	31
  5439  09B2                     u1825:
  5440  09B2  1003               	clrc
  5441  09B3  0CDB               	rrf	??___fltol+3,f
  5442  09B4  0CDA               	rrf	??___fltol+2,f
  5443  09B5  0CD9               	rrf	??___fltol+1,f
  5444  09B6  0CD8               	rrf	??___fltol,f
  5445  09B7                     u1820:
  5446  09B7  3EFF               	addlw	-1
  5447  09B8  1D03               	skipz
  5448  09B9  29B2               	goto	u1825
  5449  09BA  0858               	movf	??___fltol,w
  5450  09BB  00DC               	movwf	??___fltol+4
  5451  09BC  085C               	movf	??___fltol+4,w
  5452  09BD  00DD               	movwf	___fltol@sign1
  5453  09BE                     l1857:
  5454  09BE  17D6               	bsf	___fltol@f1+2,7
  5455  09BF                     l1859:
  5456  09BF  30FF               	movlw	255
  5457  09C0  05D4               	andwf	___fltol@f1,f
  5458  09C1  30FF               	movlw	255
  5459  09C2  05D5               	andwf	___fltol@f1+1,f
  5460  09C3  30FF               	movlw	255
  5461  09C4  05D6               	andwf	___fltol@f1+2,f
  5462  09C5  3000               	movlw	0
  5463  09C6  05D7               	andwf	___fltol@f1+3,f
  5464  09C7                     l1861:
  5465  09C7  3096               	movlw	150
  5466  09C8  02DE               	subwf	___fltol@exp1,f
  5467  09C9                     l1863:
  5468  09C9  1FDE               	btfss	___fltol@exp1,7
  5469  09CA  29CC               	goto	u1831
  5470  09CB  29CD               	goto	u1830
  5471  09CC                     u1831:
  5472  09CC  29E7               	goto	l1873
  5473  09CD                     u1830:
  5474  09CD                     l1865:
  5475  09CD  085E               	movf	___fltol@exp1,w
  5476  09CE  3A80               	xorlw	128
  5477  09CF  3E97               	addlw	151
  5478  09D0  1803               	skipnc
  5479  09D1  29D3               	goto	u1841
  5480  09D2  29D4               	goto	u1840
  5481  09D3                     u1841:
  5482  09D3  29D5               	goto	l1871
  5483  09D4                     u1840:
  5484  09D4  29A0               	goto	l1851
  5485  09D5                     l1871:
  5486  09D5  3001               	movlw	1
  5487  09D6                     u1855:
  5488  09D6  1003               	clrc
  5489  09D7  0CD7               	rrf	___fltol@f1+3,f
  5490  09D8  0CD6               	rrf	___fltol@f1+2,f
  5491  09D9  0CD5               	rrf	___fltol@f1+1,f
  5492  09DA  0CD4               	rrf	___fltol@f1,f
  5493  09DB  3EFF               	addlw	-1
  5494  09DC  1D03               	skipz
  5495  09DD  29D6               	goto	u1855
  5496  09DE  3001               	movlw	1
  5497  09DF  00D8               	movwf	??___fltol
  5498  09E0  0858               	movf	??___fltol,w
  5499  09E1  07DE               	addwf	___fltol@exp1,f
  5500  09E2  1D03               	btfss	3,2
  5501  09E3  29E5               	goto	u1861
  5502  09E4  29E6               	goto	u1860
  5503  09E5                     u1861:
  5504  09E5  29D5               	goto	l1871
  5505  09E6                     u1860:
  5506  09E6  29FE               	goto	l1881
  5507  09E7                     l1873:
  5508  09E7  3020               	movlw	32
  5509  09E8  025E               	subwf	___fltol@exp1,w
  5510  09E9  1C03               	skipc
  5511  09EA  29EC               	goto	u1871
  5512  09EB  29ED               	goto	u1870
  5513  09EC                     u1871:
  5514  09EC  29F9               	goto	l504
  5515  09ED                     u1870:
  5516  09ED  29A0               	goto	l1851
  5517  09EE                     l1879:
  5518  09EE  3001               	movlw	1
  5519  09EF  00D8               	movwf	??___fltol
  5520  09F0                     u1885:
  5521  09F0  1003               	clrc
  5522  09F1  0DD4               	rlf	___fltol@f1,f
  5523  09F2  0DD5               	rlf	___fltol@f1+1,f
  5524  09F3  0DD6               	rlf	___fltol@f1+2,f
  5525  09F4  0DD7               	rlf	___fltol@f1+3,f
  5526  09F5  0BD8               	decfsz	??___fltol,f
  5527  09F6  29F0               	goto	u1885
  5528  09F7  3001               	movlw	1
  5529  09F8  02DE               	subwf	___fltol@exp1,f
  5530  09F9                     l504:
  5531  09F9  085E               	movf	___fltol@exp1,w
  5532  09FA  1D03               	btfss	3,2
  5533  09FB  29FD               	goto	u1891
  5534  09FC  29FE               	goto	u1890
  5535  09FD                     u1891:
  5536  09FD  29EE               	goto	l1879
  5537  09FE                     u1890:
  5538  09FE                     l1881:
  5539  09FE  085D               	movf	___fltol@sign1,w
  5540  09FF  1903               	btfsc	3,2
  5541  0A00  2A02               	goto	u1901
  5542  0A01  2A03               	goto	u1900
  5543  0A02                     u1901:
  5544  0A02  2A0E               	goto	l507
  5545  0A03                     u1900:
  5546  0A03                     l1883:
  5547  0A03  09D4               	comf	___fltol@f1,f
  5548  0A04  09D5               	comf	___fltol@f1+1,f
  5549  0A05  09D6               	comf	___fltol@f1+2,f
  5550  0A06  09D7               	comf	___fltol@f1+3,f
  5551  0A07  0AD4               	incf	___fltol@f1,f
  5552  0A08  1903               	skipnz
  5553  0A09  0AD5               	incf	___fltol@f1+1,f
  5554  0A0A  1903               	skipnz
  5555  0A0B  0AD6               	incf	___fltol@f1+2,f
  5556  0A0C  1903               	skipnz
  5557  0A0D  0AD7               	incf	___fltol@f1+3,f
  5558  0A0E                     l507:
  5559  0A0E                     l497:
  5560  0A0E  0008               	return
  5561  0A0F                     __end_of___fltol:
  5562                           
  5563                           	psect	text19
  5564  0493                     __ptext19:	
  5565 ;; *************** function ___flmul *****************
  5566 ;; Defined at:
  5567 ;;		line 8 in file "C:\Program Files\Microchip\xc8\v2.35\pic\sources\c90\common\sprcmul.c"
  5568 ;; Parameters:    Size  Location     Type
  5569 ;;  b               4    0[BANK0 ] long 
  5570 ;;  a               4    4[BANK0 ] long 
  5571 ;; Auto vars:     Size  Location     Type
  5572 ;;  prod            4   20[BANK0 ] struct .
  5573 ;;  grs             4   14[BANK0 ] unsigned long 
  5574 ;;  temp            2   24[BANK0 ] struct .
  5575 ;;  bexp            1   19[BANK0 ] unsigned char 
  5576 ;;  aexp            1   18[BANK0 ] unsigned char 
  5577 ;;  sign            1   13[BANK0 ] unsigned char 
  5578 ;; Return value:  Size  Location     Type
  5579 ;;                  4    0[BANK0 ] unsigned char 
  5580 ;; Registers used:
  5581 ;;		wreg, status,2, status,0, btemp+1, pclath, cstack
  5582 ;; Tracked objects:
  5583 ;;		On entry : 0/0
  5584 ;;		On exit  : 0/0
  5585 ;;		Unchanged: 0/0
  5586 ;; Data sizes:     COMMON   BANK0   BANK1   BANK3   BANK2
  5587 ;;      Params:         0       8       0       0       0
  5588 ;;      Locals:         0      13       0       0       0
  5589 ;;      Temps:          0       5       0       0       0
  5590 ;;      Totals:         0      26       0       0       0
  5591 ;;Total ram usage:       26 bytes
  5592 ;; Hardware stack levels used: 1
  5593 ;; Hardware stack levels required when called: 1
  5594 ;; This function calls:
  5595 ;;		__Umul8_16
  5596 ;; This function is called by:
  5597 ;;		_CENTENA
  5598 ;;		_DECENA
  5599 ;;		_UNIDAD
  5600 ;; This function uses a non-reentrant model
  5601 ;;
  5602                           
  5603  0493                     ___flmul:	
  5604                           ;psect for function ___flmul
  5605                           
  5606  0493                     l2221:	
  5607                           ;incstack = 0
  5608                           ; Regs used in ___flmul: [wreg+status,2+status,0+btemp+1+pclath+cstack]
  5609                           
  5610  0493  1283               	bcf	3,5	;RP0=0, select bank0
  5611  0494  1303               	bcf	3,6	;RP1=0, select bank0
  5612  0495  0823               	movf	___flmul@b+3,w
  5613  0496  3980               	andlw	128
  5614  0497  00A8               	movwf	??___flmul
  5615  0498  0828               	movf	??___flmul,w
  5616  0499  00AD               	movwf	___flmul@sign
  5617  049A                     l2223:
  5618  049A  0823               	movf	___flmul@b+3,w
  5619  049B  00A8               	movwf	??___flmul
  5620  049C  0728               	addwf	??___flmul,w
  5621  049D  00A9               	movwf	??___flmul+1
  5622  049E  0829               	movf	??___flmul+1,w
  5623  049F  00B3               	movwf	___flmul@bexp
  5624  04A0                     l2225:
  5625  04A0  1FA2               	btfss	___flmul@b+2,7
  5626  04A1  2CA3               	goto	u2661
  5627  04A2  2CA4               	goto	u2660
  5628  04A3                     u2661:
  5629  04A3  2CA5               	goto	l2229
  5630  04A4                     u2660:
  5631  04A4                     l2227:
  5632  04A4  1433               	bsf	___flmul@bexp,0
  5633  04A5                     l2229:
  5634  04A5  0833               	movf	___flmul@bexp,w
  5635  04A6  1903               	btfsc	3,2
  5636  04A7  2CA9               	goto	u2671
  5637  04A8  2CAA               	goto	u2670
  5638  04A9                     u2671:
  5639  04A9  2CB9               	goto	l2237
  5640  04AA                     u2670:
  5641  04AA                     l2231:
  5642  04AA  0A33               	incf	___flmul@bexp,w
  5643  04AB  1D03               	btfss	3,2
  5644  04AC  2CAE               	goto	u2681
  5645  04AD  2CAF               	goto	u2680
  5646  04AE                     u2681:
  5647  04AE  2CB7               	goto	l2235
  5648  04AF                     u2680:
  5649  04AF                     l2233:
  5650  04AF  3000               	movlw	0
  5651  04B0  00A3               	movwf	___flmul@b+3
  5652  04B1  3000               	movlw	0
  5653  04B2  00A2               	movwf	___flmul@b+2
  5654  04B3  3000               	movlw	0
  5655  04B4  00A1               	movwf	___flmul@b+1
  5656  04B5  3000               	movlw	0
  5657  04B6  00A0               	movwf	___flmul@b
  5658  04B7                     l2235:
  5659  04B7  17A2               	bsf	___flmul@b+2,7
  5660  04B8  2CC1               	goto	l2239
  5661  04B9                     l2237:
  5662  04B9  3000               	movlw	0
  5663  04BA  00A3               	movwf	___flmul@b+3
  5664  04BB  3000               	movlw	0
  5665  04BC  00A2               	movwf	___flmul@b+2
  5666  04BD  3000               	movlw	0
  5667  04BE  00A1               	movwf	___flmul@b+1
  5668  04BF  3000               	movlw	0
  5669  04C0  00A0               	movwf	___flmul@b
  5670  04C1                     l2239:
  5671  04C1  0827               	movf	___flmul@a+3,w
  5672  04C2  3980               	andlw	128
  5673  04C3  00A8               	movwf	??___flmul
  5674  04C4  0828               	movf	??___flmul,w
  5675  04C5  06AD               	xorwf	___flmul@sign,f
  5676  04C6                     l2241:
  5677  04C6  0827               	movf	___flmul@a+3,w
  5678  04C7  00A8               	movwf	??___flmul
  5679  04C8  0728               	addwf	??___flmul,w
  5680  04C9  00A9               	movwf	??___flmul+1
  5681  04CA  0829               	movf	??___flmul+1,w
  5682  04CB  00B2               	movwf	___flmul@aexp
  5683  04CC                     l2243:
  5684  04CC  1FA6               	btfss	___flmul@a+2,7
  5685  04CD  2CCF               	goto	u2691
  5686  04CE  2CD0               	goto	u2690
  5687  04CF                     u2691:
  5688  04CF  2CD1               	goto	l2247
  5689  04D0                     u2690:
  5690  04D0                     l2245:
  5691  04D0  1432               	bsf	___flmul@aexp,0
  5692  04D1                     l2247:
  5693  04D1  0832               	movf	___flmul@aexp,w
  5694  04D2  1903               	btfsc	3,2
  5695  04D3  2CD5               	goto	u2701
  5696  04D4  2CD6               	goto	u2700
  5697  04D5                     u2701:
  5698  04D5  2CE5               	goto	l2255
  5699  04D6                     u2700:
  5700  04D6                     l2249:
  5701  04D6  0A32               	incf	___flmul@aexp,w
  5702  04D7  1D03               	btfss	3,2
  5703  04D8  2CDA               	goto	u2711
  5704  04D9  2CDB               	goto	u2710
  5705  04DA                     u2711:
  5706  04DA  2CE3               	goto	l2253
  5707  04DB                     u2710:
  5708  04DB                     l2251:
  5709  04DB  3000               	movlw	0
  5710  04DC  00A7               	movwf	___flmul@a+3
  5711  04DD  3000               	movlw	0
  5712  04DE  00A6               	movwf	___flmul@a+2
  5713  04DF  3000               	movlw	0
  5714  04E0  00A5               	movwf	___flmul@a+1
  5715  04E1  3000               	movlw	0
  5716  04E2  00A4               	movwf	___flmul@a
  5717  04E3                     l2253:
  5718  04E3  17A6               	bsf	___flmul@a+2,7
  5719  04E4  2CED               	goto	l2257
  5720  04E5                     l2255:
  5721  04E5  3000               	movlw	0
  5722  04E6  00A7               	movwf	___flmul@a+3
  5723  04E7  3000               	movlw	0
  5724  04E8  00A6               	movwf	___flmul@a+2
  5725  04E9  3000               	movlw	0
  5726  04EA  00A5               	movwf	___flmul@a+1
  5727  04EB  3000               	movlw	0
  5728  04EC  00A4               	movwf	___flmul@a
  5729  04ED                     l2257:
  5730  04ED  0832               	movf	___flmul@aexp,w
  5731  04EE  1903               	btfsc	3,2
  5732  04EF  2CF1               	goto	u2721
  5733  04F0  2CF2               	goto	u2720
  5734  04F1                     u2721:
  5735  04F1  2CF7               	goto	l2261
  5736  04F2                     u2720:
  5737  04F2                     l2259:
  5738  04F2  0833               	movf	___flmul@bexp,w
  5739  04F3  1D03               	btfss	3,2
  5740  04F4  2CF6               	goto	u2731
  5741  04F5  2CF7               	goto	u2730
  5742  04F6                     u2731:
  5743  04F6  2D00               	goto	l2265
  5744  04F7                     u2730:
  5745  04F7                     l2261:
  5746  04F7  3000               	movlw	0
  5747  04F8  00A3               	movwf	?___flmul+3
  5748  04F9  3000               	movlw	0
  5749  04FA  00A2               	movwf	?___flmul+2
  5750  04FB  3000               	movlw	0
  5751  04FC  00A1               	movwf	?___flmul+1
  5752  04FD  3000               	movlw	0
  5753  04FE  00A0               	movwf	?___flmul
  5754  04FF  2FF3               	goto	l700
  5755  0500                     l2265:
  5756  0500  0820               	movf	___flmul@b,w
  5757  0501  00A8               	movwf	??___flmul
  5758  0502  0828               	movf	??___flmul,w
  5759  0503  00F0               	movwf	__Umul8_16@multiplicand
  5760  0504  0826               	movf	___flmul@a+2,w
  5761  0505  160A  118A  2740  120A  118A  	fcall	__Umul8_16
  5762  050A  0871               	movf	?__Umul8_16+1,w
  5763  050B  1283               	bcf	3,5	;RP0=0, select bank0
  5764  050C  1303               	bcf	3,6	;RP1=0, select bank0
  5765  050D  00B9               	movwf	___flmul@temp+1
  5766  050E  0870               	movf	?__Umul8_16,w
  5767  050F  00B8               	movwf	___flmul@temp
  5768  0510                     l2267:
  5769  0510  0838               	movf	___flmul@temp,w
  5770  0511  00A8               	movwf	??___flmul
  5771  0512  01A9               	clrf	??___flmul+1
  5772  0513  01AA               	clrf	??___flmul+2
  5773  0514  01AB               	clrf	??___flmul+3
  5774  0515  082B               	movf	??___flmul+3,w
  5775  0516  00B1               	movwf	___flmul@grs+3
  5776  0517  082A               	movf	??___flmul+2,w
  5777  0518  00B0               	movwf	___flmul@grs+2
  5778  0519  0829               	movf	??___flmul+1,w
  5779  051A  00AF               	movwf	___flmul@grs+1
  5780  051B  0828               	movf	??___flmul,w
  5781  051C  00AE               	movwf	___flmul@grs
  5782  051D                     l2269:
  5783  051D  0839               	movf	___flmul@temp+1,w
  5784  051E  00A8               	movwf	??___flmul
  5785  051F  01A9               	clrf	??___flmul+1
  5786  0520  01AA               	clrf	??___flmul+2
  5787  0521  01AB               	clrf	??___flmul+3
  5788  0522  082B               	movf	??___flmul+3,w
  5789  0523  00B7               	movwf	___flmul@prod+3
  5790  0524  082A               	movf	??___flmul+2,w
  5791  0525  00B6               	movwf	___flmul@prod+2
  5792  0526  0829               	movf	??___flmul+1,w
  5793  0527  00B5               	movwf	___flmul@prod+1
  5794  0528  0828               	movf	??___flmul,w
  5795  0529  00B4               	movwf	___flmul@prod
  5796  052A  0821               	movf	___flmul@b+1,w
  5797  052B  00A8               	movwf	??___flmul
  5798  052C  0828               	movf	??___flmul,w
  5799  052D  00F0               	movwf	__Umul8_16@multiplicand
  5800  052E  0825               	movf	___flmul@a+1,w
  5801  052F  160A  118A  2740  120A  118A  	fcall	__Umul8_16
  5802  0534  0871               	movf	?__Umul8_16+1,w
  5803  0535  1283               	bcf	3,5	;RP0=0, select bank0
  5804  0536  1303               	bcf	3,6	;RP1=0, select bank0
  5805  0537  00B9               	movwf	___flmul@temp+1
  5806  0538  0870               	movf	?__Umul8_16,w
  5807  0539  00B8               	movwf	___flmul@temp
  5808  053A                     l2271:
  5809  053A  0838               	movf	___flmul@temp,w
  5810  053B  00A8               	movwf	??___flmul
  5811  053C  01A9               	clrf	??___flmul+1
  5812  053D  01AA               	clrf	??___flmul+2
  5813  053E  01AB               	clrf	??___flmul+3
  5814  053F  0828               	movf	??___flmul,w
  5815  0540  07AE               	addwf	___flmul@grs,f
  5816  0541  0829               	movf	??___flmul+1,w
  5817  0542  1103               	clrz
  5818  0543  1803               	skipnc
  5819  0544  3E01               	addlw	1
  5820  0545  1903               	skipnz
  5821  0546  2D48               	goto	u2741
  5822  0547  07AF               	addwf	___flmul@grs+1,f
  5823  0548                     u2741:
  5824  0548  082A               	movf	??___flmul+2,w
  5825  0549  1103               	clrz
  5826  054A  1803               	skipnc
  5827  054B  3E01               	addlw	1
  5828  054C  1903               	skipnz
  5829  054D  2D4F               	goto	u2742
  5830  054E  07B0               	addwf	___flmul@grs+2,f
  5831  054F                     u2742:
  5832  054F  082B               	movf	??___flmul+3,w
  5833  0550  1103               	clrz
  5834  0551  1803               	skipnc
  5835  0552  3E01               	addlw	1
  5836  0553  1903               	skipnz
  5837  0554  2D56               	goto	u2743
  5838  0555  07B1               	addwf	___flmul@grs+3,f
  5839  0556                     u2743:
  5840  0556                     l2273:
  5841  0556  0839               	movf	___flmul@temp+1,w
  5842  0557  00A8               	movwf	??___flmul
  5843  0558  01A9               	clrf	??___flmul+1
  5844  0559  01AA               	clrf	??___flmul+2
  5845  055A  01AB               	clrf	??___flmul+3
  5846  055B  0828               	movf	??___flmul,w
  5847  055C  07B4               	addwf	___flmul@prod,f
  5848  055D  0829               	movf	??___flmul+1,w
  5849  055E  1103               	clrz
  5850  055F  1803               	skipnc
  5851  0560  3E01               	addlw	1
  5852  0561  1903               	skipnz
  5853  0562  2D64               	goto	u2751
  5854  0563  07B5               	addwf	___flmul@prod+1,f
  5855  0564                     u2751:
  5856  0564  082A               	movf	??___flmul+2,w
  5857  0565  1103               	clrz
  5858  0566  1803               	skipnc
  5859  0567  3E01               	addlw	1
  5860  0568  1903               	skipnz
  5861  0569  2D6B               	goto	u2752
  5862  056A  07B6               	addwf	___flmul@prod+2,f
  5863  056B                     u2752:
  5864  056B  082B               	movf	??___flmul+3,w
  5865  056C  1103               	clrz
  5866  056D  1803               	skipnc
  5867  056E  3E01               	addlw	1
  5868  056F  1903               	skipnz
  5869  0570  2D72               	goto	u2753
  5870  0571  07B7               	addwf	___flmul@prod+3,f
  5871  0572                     u2753:
  5872  0572  0822               	movf	___flmul@b+2,w
  5873  0573  00A8               	movwf	??___flmul
  5874  0574  0828               	movf	??___flmul,w
  5875  0575  00F0               	movwf	__Umul8_16@multiplicand
  5876  0576  0824               	movf	___flmul@a,w
  5877  0577  160A  118A  2740  120A  118A  	fcall	__Umul8_16
  5878  057C  0871               	movf	?__Umul8_16+1,w
  5879  057D  1283               	bcf	3,5	;RP0=0, select bank0
  5880  057E  1303               	bcf	3,6	;RP1=0, select bank0
  5881  057F  00B9               	movwf	___flmul@temp+1
  5882  0580  0870               	movf	?__Umul8_16,w
  5883  0581  00B8               	movwf	___flmul@temp
  5884  0582                     l2275:
  5885  0582  0838               	movf	___flmul@temp,w
  5886  0583  00A8               	movwf	??___flmul
  5887  0584  01A9               	clrf	??___flmul+1
  5888  0585  01AA               	clrf	??___flmul+2
  5889  0586  01AB               	clrf	??___flmul+3
  5890  0587  0828               	movf	??___flmul,w
  5891  0588  07AE               	addwf	___flmul@grs,f
  5892  0589  0829               	movf	??___flmul+1,w
  5893  058A  1103               	clrz
  5894  058B  1803               	skipnc
  5895  058C  3E01               	addlw	1
  5896  058D  1903               	skipnz
  5897  058E  2D90               	goto	u2761
  5898  058F  07AF               	addwf	___flmul@grs+1,f
  5899  0590                     u2761:
  5900  0590  082A               	movf	??___flmul+2,w
  5901  0591  1103               	clrz
  5902  0592  1803               	skipnc
  5903  0593  3E01               	addlw	1
  5904  0594  1903               	skipnz
  5905  0595  2D97               	goto	u2762
  5906  0596  07B0               	addwf	___flmul@grs+2,f
  5907  0597                     u2762:
  5908  0597  082B               	movf	??___flmul+3,w
  5909  0598  1103               	clrz
  5910  0599  1803               	skipnc
  5911  059A  3E01               	addlw	1
  5912  059B  1903               	skipnz
  5913  059C  2D9E               	goto	u2763
  5914  059D  07B1               	addwf	___flmul@grs+3,f
  5915  059E                     u2763:
  5916  059E                     l2277:
  5917  059E  0839               	movf	___flmul@temp+1,w
  5918  059F  00A8               	movwf	??___flmul
  5919  05A0  01A9               	clrf	??___flmul+1
  5920  05A1  01AA               	clrf	??___flmul+2
  5921  05A2  01AB               	clrf	??___flmul+3
  5922  05A3  0828               	movf	??___flmul,w
  5923  05A4  07B4               	addwf	___flmul@prod,f
  5924  05A5  0829               	movf	??___flmul+1,w
  5925  05A6  1103               	clrz
  5926  05A7  1803               	skipnc
  5927  05A8  3E01               	addlw	1
  5928  05A9  1903               	skipnz
  5929  05AA  2DAC               	goto	u2771
  5930  05AB  07B5               	addwf	___flmul@prod+1,f
  5931  05AC                     u2771:
  5932  05AC  082A               	movf	??___flmul+2,w
  5933  05AD  1103               	clrz
  5934  05AE  1803               	skipnc
  5935  05AF  3E01               	addlw	1
  5936  05B0  1903               	skipnz
  5937  05B1  2DB3               	goto	u2772
  5938  05B2  07B6               	addwf	___flmul@prod+2,f
  5939  05B3                     u2772:
  5940  05B3  082B               	movf	??___flmul+3,w
  5941  05B4  1103               	clrz
  5942  05B5  1803               	skipnc
  5943  05B6  3E01               	addlw	1
  5944  05B7  1903               	skipnz
  5945  05B8  2DBA               	goto	u2773
  5946  05B9  07B7               	addwf	___flmul@prod+3,f
  5947  05BA                     u2773:
  5948  05BA                     l2279:
  5949  05BA  3008               	movlw	8
  5950  05BB  00A8               	movwf	??___flmul
  5951  05BC                     u2785:
  5952  05BC  1003               	clrc
  5953  05BD  0DAE               	rlf	___flmul@grs,f
  5954  05BE  0DAF               	rlf	___flmul@grs+1,f
  5955  05BF  0DB0               	rlf	___flmul@grs+2,f
  5956  05C0  0DB1               	rlf	___flmul@grs+3,f
  5957  05C1  0BA8               	decfsz	??___flmul,f
  5958  05C2  2DBC               	goto	u2785
  5959  05C3                     l2281:
  5960  05C3  0821               	movf	___flmul@b+1,w
  5961  05C4  00A8               	movwf	??___flmul
  5962  05C5  0828               	movf	??___flmul,w
  5963  05C6  00F0               	movwf	__Umul8_16@multiplicand
  5964  05C7  0824               	movf	___flmul@a,w
  5965  05C8  160A  118A  2740  120A  118A  	fcall	__Umul8_16
  5966  05CD  0871               	movf	?__Umul8_16+1,w
  5967  05CE  1283               	bcf	3,5	;RP0=0, select bank0
  5968  05CF  1303               	bcf	3,6	;RP1=0, select bank0
  5969  05D0  00B9               	movwf	___flmul@temp+1
  5970  05D1  0870               	movf	?__Umul8_16,w
  5971  05D2  00B8               	movwf	___flmul@temp
  5972  05D3                     l2283:
  5973  05D3  0838               	movf	___flmul@temp,w
  5974  05D4  00A8               	movwf	??___flmul
  5975  05D5  0839               	movf	___flmul@temp+1,w
  5976  05D6  00A9               	movwf	??___flmul+1
  5977  05D7  01AA               	clrf	??___flmul+2
  5978  05D8  01AB               	clrf	??___flmul+3
  5979  05D9  0828               	movf	??___flmul,w
  5980  05DA  07AE               	addwf	___flmul@grs,f
  5981  05DB  0829               	movf	??___flmul+1,w
  5982  05DC  1103               	clrz
  5983  05DD  1803               	skipnc
  5984  05DE  3E01               	addlw	1
  5985  05DF  1903               	skipnz
  5986  05E0  2DE2               	goto	u2791
  5987  05E1  07AF               	addwf	___flmul@grs+1,f
  5988  05E2                     u2791:
  5989  05E2  082A               	movf	??___flmul+2,w
  5990  05E3  1103               	clrz
  5991  05E4  1803               	skipnc
  5992  05E5  3E01               	addlw	1
  5993  05E6  1903               	skipnz
  5994  05E7  2DE9               	goto	u2792
  5995  05E8  07B0               	addwf	___flmul@grs+2,f
  5996  05E9                     u2792:
  5997  05E9  082B               	movf	??___flmul+3,w
  5998  05EA  1103               	clrz
  5999  05EB  1803               	skipnc
  6000  05EC  3E01               	addlw	1
  6001  05ED  1903               	skipnz
  6002  05EE  2DF0               	goto	u2793
  6003  05EF  07B1               	addwf	___flmul@grs+3,f
  6004  05F0                     u2793:
  6005  05F0                     l2285:
  6006  05F0  0820               	movf	___flmul@b,w
  6007  05F1  00A8               	movwf	??___flmul
  6008  05F2  0828               	movf	??___flmul,w
  6009  05F3  00F0               	movwf	__Umul8_16@multiplicand
  6010  05F4  0825               	movf	___flmul@a+1,w
  6011  05F5  160A  118A  2740  120A  118A  	fcall	__Umul8_16
  6012  05FA  0871               	movf	?__Umul8_16+1,w
  6013  05FB  1283               	bcf	3,5	;RP0=0, select bank0
  6014  05FC  1303               	bcf	3,6	;RP1=0, select bank0
  6015  05FD  00B9               	movwf	___flmul@temp+1
  6016  05FE  0870               	movf	?__Umul8_16,w
  6017  05FF  00B8               	movwf	___flmul@temp
  6018  0600                     l2287:
  6019  0600  0838               	movf	___flmul@temp,w
  6020  0601  00A8               	movwf	??___flmul
  6021  0602  0839               	movf	___flmul@temp+1,w
  6022  0603  00A9               	movwf	??___flmul+1
  6023  0604  01AA               	clrf	??___flmul+2
  6024  0605  01AB               	clrf	??___flmul+3
  6025  0606  0828               	movf	??___flmul,w
  6026  0607  07AE               	addwf	___flmul@grs,f
  6027  0608  0829               	movf	??___flmul+1,w
  6028  0609  1103               	clrz
  6029  060A  1803               	skipnc
  6030  060B  3E01               	addlw	1
  6031  060C  1903               	skipnz
  6032  060D  2E0F               	goto	u2801
  6033  060E  07AF               	addwf	___flmul@grs+1,f
  6034  060F                     u2801:
  6035  060F  082A               	movf	??___flmul+2,w
  6036  0610  1103               	clrz
  6037  0611  1803               	skipnc
  6038  0612  3E01               	addlw	1
  6039  0613  1903               	skipnz
  6040  0614  2E16               	goto	u2802
  6041  0615  07B0               	addwf	___flmul@grs+2,f
  6042  0616                     u2802:
  6043  0616  082B               	movf	??___flmul+3,w
  6044  0617  1103               	clrz
  6045  0618  1803               	skipnc
  6046  0619  3E01               	addlw	1
  6047  061A  1903               	skipnz
  6048  061B  2E1D               	goto	u2803
  6049  061C  07B1               	addwf	___flmul@grs+3,f
  6050  061D                     u2803:
  6051  061D                     l2289:
  6052  061D  3008               	movlw	8
  6053  061E  00A8               	movwf	??___flmul
  6054  061F                     u2815:
  6055  061F  1003               	clrc
  6056  0620  0DAE               	rlf	___flmul@grs,f
  6057  0621  0DAF               	rlf	___flmul@grs+1,f
  6058  0622  0DB0               	rlf	___flmul@grs+2,f
  6059  0623  0DB1               	rlf	___flmul@grs+3,f
  6060  0624  0BA8               	decfsz	??___flmul,f
  6061  0625  2E1F               	goto	u2815
  6062  0626  0820               	movf	___flmul@b,w
  6063  0627  00A8               	movwf	??___flmul
  6064  0628  0828               	movf	??___flmul,w
  6065  0629  00F0               	movwf	__Umul8_16@multiplicand
  6066  062A  0824               	movf	___flmul@a,w
  6067  062B  160A  118A  2740  120A  118A  	fcall	__Umul8_16
  6068  0630  0871               	movf	?__Umul8_16+1,w
  6069  0631  1283               	bcf	3,5	;RP0=0, select bank0
  6070  0632  1303               	bcf	3,6	;RP1=0, select bank0
  6071  0633  00B9               	movwf	___flmul@temp+1
  6072  0634  0870               	movf	?__Umul8_16,w
  6073  0635  00B8               	movwf	___flmul@temp
  6074  0636                     l2291:
  6075  0636  0838               	movf	___flmul@temp,w
  6076  0637  00A8               	movwf	??___flmul
  6077  0638  0839               	movf	___flmul@temp+1,w
  6078  0639  00A9               	movwf	??___flmul+1
  6079  063A  01AA               	clrf	??___flmul+2
  6080  063B  01AB               	clrf	??___flmul+3
  6081  063C  0828               	movf	??___flmul,w
  6082  063D  07AE               	addwf	___flmul@grs,f
  6083  063E  0829               	movf	??___flmul+1,w
  6084  063F  1103               	clrz
  6085  0640  1803               	skipnc
  6086  0641  3E01               	addlw	1
  6087  0642  1903               	skipnz
  6088  0643  2E45               	goto	u2821
  6089  0644  07AF               	addwf	___flmul@grs+1,f
  6090  0645                     u2821:
  6091  0645  082A               	movf	??___flmul+2,w
  6092  0646  1103               	clrz
  6093  0647  1803               	skipnc
  6094  0648  3E01               	addlw	1
  6095  0649  1903               	skipnz
  6096  064A  2E4C               	goto	u2822
  6097  064B  07B0               	addwf	___flmul@grs+2,f
  6098  064C                     u2822:
  6099  064C  082B               	movf	??___flmul+3,w
  6100  064D  1103               	clrz
  6101  064E  1803               	skipnc
  6102  064F  3E01               	addlw	1
  6103  0650  1903               	skipnz
  6104  0651  2E53               	goto	u2823
  6105  0652  07B1               	addwf	___flmul@grs+3,f
  6106  0653                     u2823:
  6107  0653                     l2293:
  6108  0653  0821               	movf	___flmul@b+1,w
  6109  0654  00A8               	movwf	??___flmul
  6110  0655  0828               	movf	??___flmul,w
  6111  0656  00F0               	movwf	__Umul8_16@multiplicand
  6112  0657  0826               	movf	___flmul@a+2,w
  6113  0658  160A  118A  2740  120A  118A  	fcall	__Umul8_16
  6114  065D  0871               	movf	?__Umul8_16+1,w
  6115  065E  1283               	bcf	3,5	;RP0=0, select bank0
  6116  065F  1303               	bcf	3,6	;RP1=0, select bank0
  6117  0660  00B9               	movwf	___flmul@temp+1
  6118  0661  0870               	movf	?__Umul8_16,w
  6119  0662  00B8               	movwf	___flmul@temp
  6120  0663  0838               	movf	___flmul@temp,w
  6121  0664  00A8               	movwf	??___flmul
  6122  0665  0839               	movf	___flmul@temp+1,w
  6123  0666  00A9               	movwf	??___flmul+1
  6124  0667  01AA               	clrf	??___flmul+2
  6125  0668  01AB               	clrf	??___flmul+3
  6126  0669  0828               	movf	??___flmul,w
  6127  066A  07B4               	addwf	___flmul@prod,f
  6128  066B  0829               	movf	??___flmul+1,w
  6129  066C  1103               	clrz
  6130  066D  1803               	skipnc
  6131  066E  3E01               	addlw	1
  6132  066F  1903               	skipnz
  6133  0670  2E72               	goto	u2831
  6134  0671  07B5               	addwf	___flmul@prod+1,f
  6135  0672                     u2831:
  6136  0672  082A               	movf	??___flmul+2,w
  6137  0673  1103               	clrz
  6138  0674  1803               	skipnc
  6139  0675  3E01               	addlw	1
  6140  0676  1903               	skipnz
  6141  0677  2E79               	goto	u2832
  6142  0678  07B6               	addwf	___flmul@prod+2,f
  6143  0679                     u2832:
  6144  0679  082B               	movf	??___flmul+3,w
  6145  067A  1103               	clrz
  6146  067B  1803               	skipnc
  6147  067C  3E01               	addlw	1
  6148  067D  1903               	skipnz
  6149  067E  2E80               	goto	u2833
  6150  067F  07B7               	addwf	___flmul@prod+3,f
  6151  0680                     u2833:
  6152  0680                     l2295:
  6153  0680  0822               	movf	___flmul@b+2,w
  6154  0681  00A8               	movwf	??___flmul
  6155  0682  0828               	movf	??___flmul,w
  6156  0683  00F0               	movwf	__Umul8_16@multiplicand
  6157  0684  0825               	movf	___flmul@a+1,w
  6158  0685  160A  118A  2740  120A  118A  	fcall	__Umul8_16
  6159  068A  0871               	movf	?__Umul8_16+1,w
  6160  068B  1283               	bcf	3,5	;RP0=0, select bank0
  6161  068C  1303               	bcf	3,6	;RP1=0, select bank0
  6162  068D  00B9               	movwf	___flmul@temp+1
  6163  068E  0870               	movf	?__Umul8_16,w
  6164  068F  00B8               	movwf	___flmul@temp
  6165  0690                     l2297:
  6166  0690  0838               	movf	___flmul@temp,w
  6167  0691  00A8               	movwf	??___flmul
  6168  0692  0839               	movf	___flmul@temp+1,w
  6169  0693  00A9               	movwf	??___flmul+1
  6170  0694  01AA               	clrf	??___flmul+2
  6171  0695  01AB               	clrf	??___flmul+3
  6172  0696  0828               	movf	??___flmul,w
  6173  0697  07B4               	addwf	___flmul@prod,f
  6174  0698  0829               	movf	??___flmul+1,w
  6175  0699  1103               	clrz
  6176  069A  1803               	skipnc
  6177  069B  3E01               	addlw	1
  6178  069C  1903               	skipnz
  6179  069D  2E9F               	goto	u2841
  6180  069E  07B5               	addwf	___flmul@prod+1,f
  6181  069F                     u2841:
  6182  069F  082A               	movf	??___flmul+2,w
  6183  06A0  1103               	clrz
  6184  06A1  1803               	skipnc
  6185  06A2  3E01               	addlw	1
  6186  06A3  1903               	skipnz
  6187  06A4  2EA6               	goto	u2842
  6188  06A5  07B6               	addwf	___flmul@prod+2,f
  6189  06A6                     u2842:
  6190  06A6  082B               	movf	??___flmul+3,w
  6191  06A7  1103               	clrz
  6192  06A8  1803               	skipnc
  6193  06A9  3E01               	addlw	1
  6194  06AA  1903               	skipnz
  6195  06AB  2EAD               	goto	u2843
  6196  06AC  07B7               	addwf	___flmul@prod+3,f
  6197  06AD                     u2843:
  6198  06AD  0822               	movf	___flmul@b+2,w
  6199  06AE  00A8               	movwf	??___flmul
  6200  06AF  0828               	movf	??___flmul,w
  6201  06B0  00F0               	movwf	__Umul8_16@multiplicand
  6202  06B1  0826               	movf	___flmul@a+2,w
  6203  06B2  160A  118A  2740  120A  118A  	fcall	__Umul8_16
  6204  06B7  0871               	movf	?__Umul8_16+1,w
  6205  06B8  1283               	bcf	3,5	;RP0=0, select bank0
  6206  06B9  1303               	bcf	3,6	;RP1=0, select bank0
  6207  06BA  00B9               	movwf	___flmul@temp+1
  6208  06BB  0870               	movf	?__Umul8_16,w
  6209  06BC  00B8               	movwf	___flmul@temp
  6210  06BD                     l2299:
  6211  06BD  0838               	movf	___flmul@temp,w
  6212  06BE  00A8               	movwf	??___flmul
  6213  06BF  0839               	movf	___flmul@temp+1,w
  6214  06C0  00A9               	movwf	??___flmul+1
  6215  06C1  01AA               	clrf	??___flmul+2
  6216  06C2  01AB               	clrf	??___flmul+3
  6217  06C3  3008               	movlw	8
  6218  06C4                     u2855:
  6219  06C4  1003               	clrc
  6220  06C5  0DA8               	rlf	??___flmul,f
  6221  06C6  0DA9               	rlf	??___flmul+1,f
  6222  06C7  0DAA               	rlf	??___flmul+2,f
  6223  06C8  0DAB               	rlf	??___flmul+3,f
  6224  06C9                     u2850:
  6225  06C9  3EFF               	addlw	-1
  6226  06CA  1D03               	skipz
  6227  06CB  2EC4               	goto	u2855
  6228  06CC  0828               	movf	??___flmul,w
  6229  06CD  07B4               	addwf	___flmul@prod,f
  6230  06CE  0829               	movf	??___flmul+1,w
  6231  06CF  1103               	clrz
  6232  06D0  1803               	skipnc
  6233  06D1  3E01               	addlw	1
  6234  06D2  1903               	skipnz
  6235  06D3  2ED5               	goto	u2861
  6236  06D4  07B5               	addwf	___flmul@prod+1,f
  6237  06D5                     u2861:
  6238  06D5  082A               	movf	??___flmul+2,w
  6239  06D6  1103               	clrz
  6240  06D7  1803               	skipnc
  6241  06D8  3E01               	addlw	1
  6242  06D9  1903               	skipnz
  6243  06DA  2EDC               	goto	u2862
  6244  06DB  07B6               	addwf	___flmul@prod+2,f
  6245  06DC                     u2862:
  6246  06DC  082B               	movf	??___flmul+3,w
  6247  06DD  1103               	clrz
  6248  06DE  1803               	skipnc
  6249  06DF  3E01               	addlw	1
  6250  06E0  1903               	skipnz
  6251  06E1  2EE3               	goto	u2863
  6252  06E2  07B7               	addwf	___flmul@prod+3,f
  6253  06E3                     u2863:
  6254  06E3                     l2301:
  6255  06E3  082E               	movf	___flmul@grs,w
  6256  06E4  00A8               	movwf	??___flmul
  6257  06E5  082F               	movf	___flmul@grs+1,w
  6258  06E6  00A9               	movwf	??___flmul+1
  6259  06E7  0830               	movf	___flmul@grs+2,w
  6260  06E8  00AA               	movwf	??___flmul+2
  6261  06E9  0831               	movf	___flmul@grs+3,w
  6262  06EA  00AB               	movwf	??___flmul+3
  6263  06EB  3018               	movlw	24
  6264  06EC                     u2875:
  6265  06EC  1003               	clrc
  6266  06ED  0CAB               	rrf	??___flmul+3,f
  6267  06EE  0CAA               	rrf	??___flmul+2,f
  6268  06EF  0CA9               	rrf	??___flmul+1,f
  6269  06F0  0CA8               	rrf	??___flmul,f
  6270  06F1                     u2870:
  6271  06F1  3EFF               	addlw	-1
  6272  06F2  1D03               	skipz
  6273  06F3  2EEC               	goto	u2875
  6274  06F4  0828               	movf	??___flmul,w
  6275  06F5  07B4               	addwf	___flmul@prod,f
  6276  06F6  0829               	movf	??___flmul+1,w
  6277  06F7  1103               	clrz
  6278  06F8  1803               	skipnc
  6279  06F9  3E01               	addlw	1
  6280  06FA  1903               	skipnz
  6281  06FB  2EFD               	goto	u2881
  6282  06FC  07B5               	addwf	___flmul@prod+1,f
  6283  06FD                     u2881:
  6284  06FD  082A               	movf	??___flmul+2,w
  6285  06FE  1103               	clrz
  6286  06FF  1803               	skipnc
  6287  0700  3E01               	addlw	1
  6288  0701  1903               	skipnz
  6289  0702  2F04               	goto	u2882
  6290  0703  07B6               	addwf	___flmul@prod+2,f
  6291  0704                     u2882:
  6292  0704  082B               	movf	??___flmul+3,w
  6293  0705  1103               	clrz
  6294  0706  1803               	skipnc
  6295  0707  3E01               	addlw	1
  6296  0708  1903               	skipnz
  6297  0709  2F0B               	goto	u2883
  6298  070A  07B7               	addwf	___flmul@prod+3,f
  6299  070B                     u2883:
  6300  070B                     l2303:
  6301  070B  3008               	movlw	8
  6302  070C  00A8               	movwf	??___flmul
  6303  070D                     u2895:
  6304  070D  1003               	clrc
  6305  070E  0DAE               	rlf	___flmul@grs,f
  6306  070F  0DAF               	rlf	___flmul@grs+1,f
  6307  0710  0DB0               	rlf	___flmul@grs+2,f
  6308  0711  0DB1               	rlf	___flmul@grs+3,f
  6309  0712  0BA8               	decfsz	??___flmul,f
  6310  0713  2F0D               	goto	u2895
  6311  0714                     l2305:
  6312  0714  0833               	movf	___flmul@bexp,w
  6313  0715  0732               	addwf	___flmul@aexp,w
  6314  0716  00A8               	movwf	??___flmul
  6315  0717  01A9               	clrf	??___flmul+1
  6316  0718  0DA9               	rlf	??___flmul+1,f
  6317  0719  0828               	movf	??___flmul,w
  6318  071A  3E82               	addlw	130
  6319  071B  00B8               	movwf	___flmul@temp
  6320  071C  0829               	movf	??___flmul+1,w
  6321  071D  1803               	skipnc
  6322  071E  3E01               	addlw	1
  6323  071F  3EFF               	addlw	255
  6324  0720  00B9               	movwf	___flmul@temp+1
  6325  0721  2F3F               	goto	l2317
  6326  0722                     l2307:
  6327  0722  3001               	movlw	1
  6328  0723  00A8               	movwf	??___flmul
  6329  0724                     u2905:
  6330  0724  1003               	clrc
  6331  0725  0DB4               	rlf	___flmul@prod,f
  6332  0726  0DB5               	rlf	___flmul@prod+1,f
  6333  0727  0DB6               	rlf	___flmul@prod+2,f
  6334  0728  0DB7               	rlf	___flmul@prod+3,f
  6335  0729  0BA8               	decfsz	??___flmul,f
  6336  072A  2F24               	goto	u2905
  6337  072B                     l2309:
  6338  072B  1FB1               	btfss	___flmul@grs+3,7
  6339  072C  2F2E               	goto	u2911
  6340  072D  2F2F               	goto	u2910
  6341  072E                     u2911:
  6342  072E  2F30               	goto	l2313
  6343  072F                     u2910:
  6344  072F                     l2311:
  6345  072F  1434               	bsf	___flmul@prod,0
  6346  0730                     l2313:
  6347  0730  3001               	movlw	1
  6348  0731  00A8               	movwf	??___flmul
  6349  0732                     u2925:
  6350  0732  1003               	clrc
  6351  0733  0DAE               	rlf	___flmul@grs,f
  6352  0734  0DAF               	rlf	___flmul@grs+1,f
  6353  0735  0DB0               	rlf	___flmul@grs+2,f
  6354  0736  0DB1               	rlf	___flmul@grs+3,f
  6355  0737  0BA8               	decfsz	??___flmul,f
  6356  0738  2F32               	goto	u2925
  6357  0739                     l2315:
  6358  0739  30FF               	movlw	255
  6359  073A  07B8               	addwf	___flmul@temp,f
  6360  073B  1803               	skipnc
  6361  073C  0AB9               	incf	___flmul@temp+1,f
  6362  073D  30FF               	movlw	255
  6363  073E  07B9               	addwf	___flmul@temp+1,f
  6364  073F                     l2317:
  6365  073F  1FB6               	btfss	___flmul@prod+2,7
  6366  0740  2F42               	goto	u2931
  6367  0741  2F43               	goto	u2930
  6368  0742                     u2931:
  6369  0742  2F22               	goto	l2307
  6370  0743                     u2930:
  6371  0743                     l2319:
  6372  0743  01B2               	clrf	___flmul@aexp
  6373  0744                     l2321:
  6374  0744  1FB1               	btfss	___flmul@grs+3,7
  6375  0745  2F47               	goto	u2941
  6376  0746  2F48               	goto	u2940
  6377  0747                     u2941:
  6378  0747  2F64               	goto	l2329
  6379  0748                     u2940:
  6380  0748                     l2323:
  6381  0748  30FF               	movlw	255
  6382  0749  052E               	andwf	___flmul@grs,w
  6383  074A  00A8               	movwf	??___flmul
  6384  074B  30FF               	movlw	255
  6385  074C  052F               	andwf	___flmul@grs+1,w
  6386  074D  00A9               	movwf	??___flmul+1
  6387  074E  30FF               	movlw	255
  6388  074F  0530               	andwf	___flmul@grs+2,w
  6389  0750  00AA               	movwf	??___flmul+2
  6390  0751  307F               	movlw	127
  6391  0752  0531               	andwf	___flmul@grs+3,w
  6392  0753  00AB               	movwf	??___flmul+3
  6393  0754  082B               	movf	??___flmul+3,w
  6394  0755  042A               	iorwf	??___flmul+2,w
  6395  0756  0429               	iorwf	??___flmul+1,w
  6396  0757  0428               	iorwf	??___flmul,w
  6397  0758  1903               	skipnz
  6398  0759  2F5B               	goto	u2951
  6399  075A  2F5C               	goto	u2950
  6400  075B                     u2951:
  6401  075B  2F5F               	goto	l706
  6402  075C                     u2950:
  6403  075C                     l2325:
  6404  075C  01B2               	clrf	___flmul@aexp
  6405  075D  0AB2               	incf	___flmul@aexp,f
  6406  075E  2F64               	goto	l2329
  6407  075F                     l706:
  6408  075F  1C34               	btfss	___flmul@prod,0
  6409  0760  2F62               	goto	u2961
  6410  0761  2F63               	goto	u2960
  6411  0762                     u2961:
  6412  0762  2F64               	goto	l2329
  6413  0763                     u2960:
  6414  0763  2F5C               	goto	l2325
  6415  0764                     l2329:
  6416  0764  0832               	movf	___flmul@aexp,w
  6417  0765  1903               	btfsc	3,2
  6418  0766  2F68               	goto	u2971
  6419  0767  2F69               	goto	u2970
  6420  0768                     u2971:
  6421  0768  2F9A               	goto	l2339
  6422  0769                     u2970:
  6423  0769                     l2331:
  6424  0769  3001               	movlw	1
  6425  076A  07B4               	addwf	___flmul@prod,f
  6426  076B  3000               	movlw	0
  6427  076C  1803               	skipnc
  6428  076D  3001               	movlw	1
  6429  076E  07B5               	addwf	___flmul@prod+1,f
  6430  076F  3000               	movlw	0
  6431  0770  1803               	skipnc
  6432  0771  3001               	movlw	1
  6433  0772  07B6               	addwf	___flmul@prod+2,f
  6434  0773  3000               	movlw	0
  6435  0774  1803               	skipnc
  6436  0775  3001               	movlw	1
  6437  0776  07B7               	addwf	___flmul@prod+3,f
  6438  0777                     l2333:
  6439  0777  1C37               	btfss	___flmul@prod+3,0
  6440  0778  2F7A               	goto	u2981
  6441  0779  2F7B               	goto	u2980
  6442  077A                     u2981:
  6443  077A  2F9A               	goto	l2339
  6444  077B                     u2980:
  6445  077B                     l2335:
  6446  077B  0834               	movf	___flmul@prod,w
  6447  077C  00A8               	movwf	??___flmul
  6448  077D  0835               	movf	___flmul@prod+1,w
  6449  077E  00A9               	movwf	??___flmul+1
  6450  077F  0836               	movf	___flmul@prod+2,w
  6451  0780  00AA               	movwf	??___flmul+2
  6452  0781  0837               	movf	___flmul@prod+3,w
  6453  0782  00AB               	movwf	??___flmul+3
  6454  0783  3001               	movlw	1
  6455  0784  00AC               	movwf	??___flmul+4
  6456  0785                     u2995:
  6457  0785  0D2B               	rlf	??___flmul+3,w
  6458  0786  0CAB               	rrf	??___flmul+3,f
  6459  0787  0CAA               	rrf	??___flmul+2,f
  6460  0788  0CA9               	rrf	??___flmul+1,f
  6461  0789  0CA8               	rrf	??___flmul,f
  6462  078A                     u2990:
  6463  078A  0BAC               	decfsz	??___flmul+4,f
  6464  078B  2F85               	goto	u2995
  6465  078C  082B               	movf	??___flmul+3,w
  6466  078D  00B7               	movwf	___flmul@prod+3
  6467  078E  082A               	movf	??___flmul+2,w
  6468  078F  00B6               	movwf	___flmul@prod+2
  6469  0790  0829               	movf	??___flmul+1,w
  6470  0791  00B5               	movwf	___flmul@prod+1
  6471  0792  0828               	movf	??___flmul,w
  6472  0793  00B4               	movwf	___flmul@prod
  6473  0794                     l2337:
  6474  0794  3001               	movlw	1
  6475  0795  07B8               	addwf	___flmul@temp,f
  6476  0796  1803               	skipnc
  6477  0797  0AB9               	incf	___flmul@temp+1,f
  6478  0798  3000               	movlw	0
  6479  0799  07B9               	addwf	___flmul@temp+1,f
  6480  079A                     l2339:
  6481  079A  0839               	movf	___flmul@temp+1,w
  6482  079B  3A80               	xorlw	128
  6483  079C  00FF               	movwf	btemp+1
  6484  079D  3080               	movlw	128
  6485  079E  027F               	subwf	btemp+1,w
  6486  079F  1D03               	skipz
  6487  07A0  2FA3               	goto	u3005
  6488  07A1  30FF               	movlw	255
  6489  07A2  0238               	subwf	___flmul@temp,w
  6490  07A3                     u3005:
  6491  07A3  1C03               	skipc
  6492  07A4  2FA6               	goto	u3001
  6493  07A5  2FA7               	goto	u3000
  6494  07A6                     u3001:
  6495  07A6  2FB2               	goto	l2343
  6496  07A7                     u3000:
  6497  07A7                     l2341:
  6498  07A7  307F               	movlw	127
  6499  07A8  1283               	bcf	3,5	;RP0=0, select bank0
  6500  07A9  1303               	bcf	3,6	;RP1=0, select bank0
  6501  07AA  00B7               	movwf	___flmul@prod+3
  6502  07AB  3080               	movlw	128
  6503  07AC  00B6               	movwf	___flmul@prod+2
  6504  07AD  3000               	movlw	0
  6505  07AE  00B5               	movwf	___flmul@prod+1
  6506  07AF  3000               	movlw	0
  6507  07B0  00B4               	movwf	___flmul@prod
  6508  07B1  2FE7               	goto	l712
  6509  07B2                     l2343:
  6510  07B2  1283               	bcf	3,5	;RP0=0, select bank0
  6511  07B3  1303               	bcf	3,6	;RP1=0, select bank0
  6512  07B4  0839               	movf	___flmul@temp+1,w
  6513  07B5  3A80               	xorlw	128
  6514  07B6  00FF               	movwf	btemp+1
  6515  07B7  3080               	movlw	128
  6516  07B8  027F               	subwf	btemp+1,w
  6517  07B9  1D03               	skipz
  6518  07BA  2FBD               	goto	u3015
  6519  07BB  3001               	movlw	1
  6520  07BC  0238               	subwf	___flmul@temp,w
  6521  07BD                     u3015:
  6522  07BD  1803               	skipnc
  6523  07BE  2FC0               	goto	u3011
  6524  07BF  2FC1               	goto	u3010
  6525  07C0                     u3011:
  6526  07C0  2FCD               	goto	l2349
  6527  07C1                     u3010:
  6528  07C1                     l2345:
  6529  07C1  3000               	movlw	0
  6530  07C2  1283               	bcf	3,5	;RP0=0, select bank0
  6531  07C3  1303               	bcf	3,6	;RP1=0, select bank0
  6532  07C4  00B7               	movwf	___flmul@prod+3
  6533  07C5  3000               	movlw	0
  6534  07C6  00B6               	movwf	___flmul@prod+2
  6535  07C7  3000               	movlw	0
  6536  07C8  00B5               	movwf	___flmul@prod+1
  6537  07C9  3000               	movlw	0
  6538  07CA  00B4               	movwf	___flmul@prod
  6539  07CB                     l2347:
  6540  07CB  01AD               	clrf	___flmul@sign
  6541  07CC  2FE7               	goto	l712
  6542  07CD                     l2349:
  6543  07CD  1283               	bcf	3,5	;RP0=0, select bank0
  6544  07CE  1303               	bcf	3,6	;RP1=0, select bank0
  6545  07CF  0838               	movf	___flmul@temp,w
  6546  07D0  00A8               	movwf	??___flmul
  6547  07D1  0828               	movf	??___flmul,w
  6548  07D2  00B3               	movwf	___flmul@bexp
  6549  07D3  30FF               	movlw	255
  6550  07D4  05B4               	andwf	___flmul@prod,f
  6551  07D5  30FF               	movlw	255
  6552  07D6  05B5               	andwf	___flmul@prod+1,f
  6553  07D7  307F               	movlw	127
  6554  07D8  05B6               	andwf	___flmul@prod+2,f
  6555  07D9  3000               	movlw	0
  6556  07DA  05B7               	andwf	___flmul@prod+3,f
  6557  07DB                     l2351:
  6558  07DB  1C33               	btfss	___flmul@bexp,0
  6559  07DC  2FDE               	goto	u3021
  6560  07DD  2FDF               	goto	u3020
  6561  07DE                     u3021:
  6562  07DE  2FE0               	goto	l2355
  6563  07DF                     u3020:
  6564  07DF                     l2353:
  6565  07DF  17B6               	bsf	___flmul@prod+2,7
  6566  07E0                     l2355:
  6567  07E0  0833               	movf	___flmul@bexp,w
  6568  07E1  00A8               	movwf	??___flmul
  6569  07E2  1003               	clrc
  6570  07E3  0C28               	rrf	??___flmul,w
  6571  07E4  00A9               	movwf	??___flmul+1
  6572  07E5  0829               	movf	??___flmul+1,w
  6573  07E6  00B7               	movwf	___flmul@prod+3
  6574  07E7                     l712:
  6575  07E7  082D               	movf	___flmul@sign,w
  6576  07E8  00A8               	movwf	??___flmul
  6577  07E9  0828               	movf	??___flmul,w
  6578  07EA  04B7               	iorwf	___flmul@prod+3,f
  6579  07EB                     l2357:
  6580  07EB  0837               	movf	___flmul@prod+3,w
  6581  07EC  00A3               	movwf	?___flmul+3
  6582  07ED  0836               	movf	___flmul@prod+2,w
  6583  07EE  00A2               	movwf	?___flmul+2
  6584  07EF  0835               	movf	___flmul@prod+1,w
  6585  07F0  00A1               	movwf	?___flmul+1
  6586  07F1  0834               	movf	___flmul@prod,w
  6587  07F2  00A0               	movwf	?___flmul
  6588  07F3                     l700:
  6589  07F3  0008               	return
  6590  07F4                     __end_of___flmul:
  6591                           
  6592                           	psect	text20
  6593  1740                     __ptext20:	
  6594 ;; *************** function __Umul8_16 *****************
  6595 ;; Defined at:
  6596 ;;		line 4 in file "C:\Program Files\Microchip\xc8\v2.35\pic\sources\c90\common\Umul8_16.c"
  6597 ;; Parameters:    Size  Location     Type
  6598 ;;  multiplier      1    wreg     unsigned char 
  6599 ;;  multiplicand    1    0[COMMON] unsigned char 
  6600 ;; Auto vars:     Size  Location     Type
  6601 ;;  multiplier      1    8[COMMON] unsigned char 
  6602 ;;  word_mpld       2    6[COMMON] unsigned int 
  6603 ;;  product         2    4[COMMON] unsigned int 
  6604 ;; Return value:  Size  Location     Type
  6605 ;;                  2    0[COMMON] unsigned int 
  6606 ;; Registers used:
  6607 ;;		wreg, status,2, status,0
  6608 ;; Tracked objects:
  6609 ;;		On entry : 0/0
  6610 ;;		On exit  : 0/0
  6611 ;;		Unchanged: 0/0
  6612 ;; Data sizes:     COMMON   BANK0   BANK1   BANK3   BANK2
  6613 ;;      Params:         2       0       0       0       0
  6614 ;;      Locals:         5       0       0       0       0
  6615 ;;      Temps:          2       0       0       0       0
  6616 ;;      Totals:         9       0       0       0       0
  6617 ;;Total ram usage:        9 bytes
  6618 ;; Hardware stack levels used: 1
  6619 ;; This function calls:
  6620 ;;		Nothing
  6621 ;; This function is called by:
  6622 ;;		___flmul
  6623 ;; This function uses a non-reentrant model
  6624 ;;
  6625                           
  6626  1740                     __Umul8_16:	
  6627                           ;psect for function __Umul8_16
  6628                           
  6629                           
  6630                           ;incstack = 0
  6631                           ; Regs used in __Umul8_16: [wreg+status,2+status,0]
  6632                           ;__Umul8_16@multiplier stored from wreg
  6633  1740  00F8               	movwf	__Umul8_16@multiplier
  6634  1741                     l1833:
  6635  1741  01F4               	clrf	__Umul8_16@product
  6636  1742  01F5               	clrf	__Umul8_16@product+1
  6637  1743                     l1835:
  6638  1743  0870               	movf	__Umul8_16@multiplicand,w
  6639  1744  00F2               	movwf	??__Umul8_16
  6640  1745  01F3               	clrf	??__Umul8_16+1
  6641  1746  0872               	movf	??__Umul8_16,w
  6642  1747  00F6               	movwf	__Umul8_16@word_mpld
  6643  1748  0873               	movf	??__Umul8_16+1,w
  6644  1749  00F7               	movwf	__Umul8_16@word_mpld+1
  6645  174A                     l1837:
  6646  174A  1C78               	btfss	__Umul8_16@multiplier,0
  6647  174B  2F4D               	goto	u1781
  6648  174C  2F4E               	goto	u1780
  6649  174D                     u1781:
  6650  174D  2F54               	goto	l719
  6651  174E                     u1780:
  6652  174E                     l1839:
  6653  174E  0876               	movf	__Umul8_16@word_mpld,w
  6654  174F  07F4               	addwf	__Umul8_16@product,f
  6655  1750  1803               	skipnc
  6656  1751  0AF5               	incf	__Umul8_16@product+1,f
  6657  1752  0877               	movf	__Umul8_16@word_mpld+1,w
  6658  1753  07F5               	addwf	__Umul8_16@product+1,f
  6659  1754                     l719:
  6660  1754  3001               	movlw	1
  6661  1755                     u1795:
  6662  1755  1003               	clrc
  6663  1756  0DF6               	rlf	__Umul8_16@word_mpld,f
  6664  1757  0DF7               	rlf	__Umul8_16@word_mpld+1,f
  6665  1758  3EFF               	addlw	-1
  6666  1759  1D03               	skipz
  6667  175A  2F55               	goto	u1795
  6668  175B  1003               	clrc
  6669  175C  0CF8               	rrf	__Umul8_16@multiplier,f
  6670  175D                     l1841:
  6671  175D  0878               	movf	__Umul8_16@multiplier,w
  6672  175E  1D03               	btfss	3,2
  6673  175F  2F61               	goto	u1801
  6674  1760  2F62               	goto	u1800
  6675  1761                     u1801:
  6676  1761  2F4A               	goto	l1837
  6677  1762                     u1800:
  6678  1762                     l1843:
  6679  1762  0875               	movf	__Umul8_16@product+1,w
  6680  1763  00F1               	movwf	?__Umul8_16+1
  6681  1764  0874               	movf	__Umul8_16@product,w
  6682  1765  00F0               	movwf	?__Umul8_16
  6683  1766                     l721:
  6684  1766  0008               	return
  6685  1767                     __end_of__Umul8_16:
  6686                           
  6687                           	psect	text21
  6688  001E                     __ptext21:	
  6689 ;; *************** function ___fldiv *****************
  6690 ;; Defined at:
  6691 ;;		line 8 in file "C:\Program Files\Microchip\xc8\v2.35\pic\sources\c90\common\sprcdiv.c"
  6692 ;; Parameters:    Size  Location     Type
  6693 ;;  a               4   26[BANK0 ] unsigned int 
  6694 ;;  b               4   30[BANK0 ] unsigned int 
  6695 ;; Auto vars:     Size  Location     Type
  6696 ;;  grs             4   46[BANK0 ] unsigned long 
  6697 ;;  rem             4   39[BANK0 ] unsigned long 
  6698 ;;  new_exp         2   44[BANK0 ] int 
  6699 ;;  aexp            1   51[BANK0 ] unsigned char 
  6700 ;;  bexp            1   50[BANK0 ] unsigned char 
  6701 ;;  sign            1   43[BANK0 ] unsigned char 
  6702 ;; Return value:  Size  Location     Type
  6703 ;;                  4   26[BANK0 ] unsigned char 
  6704 ;; Registers used:
  6705 ;;		wreg, status,2, status,0, btemp+1
  6706 ;; Tracked objects:
  6707 ;;		On entry : 0/0
  6708 ;;		On exit  : 0/0
  6709 ;;		Unchanged: 0/0
  6710 ;; Data sizes:     COMMON   BANK0   BANK1   BANK3   BANK2
  6711 ;;      Params:         0       8       0       0       0
  6712 ;;      Locals:         0      13       0       0       0
  6713 ;;      Temps:          0       5       0       0       0
  6714 ;;      Totals:         0      26       0       0       0
  6715 ;;Total ram usage:       26 bytes
  6716 ;; Hardware stack levels used: 1
  6717 ;; This function calls:
  6718 ;;		Nothing
  6719 ;; This function is called by:
  6720 ;;		_CENTENA
  6721 ;; This function uses a non-reentrant model
  6722 ;;
  6723                           
  6724  001E                     ___fldiv:	
  6725                           ;psect for function ___fldiv
  6726                           
  6727  001E                     l2079:	
  6728                           ;incstack = 0
  6729                           ; Regs used in ___fldiv: [wreg+status,2+status,0+btemp+1]
  6730                           
  6731  001E  1283               	bcf	3,5	;RP0=0, select bank0
  6732  001F  1303               	bcf	3,6	;RP1=0, select bank0
  6733  0020  0841               	movf	___fldiv@b+3,w
  6734  0021  3980               	andlw	128
  6735  0022  00C2               	movwf	??___fldiv
  6736  0023  0842               	movf	??___fldiv,w
  6737  0024  00CB               	movwf	___fldiv@sign
  6738  0025                     l2081:
  6739  0025  0841               	movf	___fldiv@b+3,w
  6740  0026  00C2               	movwf	??___fldiv
  6741  0027  0742               	addwf	??___fldiv,w
  6742  0028  00C3               	movwf	??___fldiv+1
  6743  0029  0843               	movf	??___fldiv+1,w
  6744  002A  00D2               	movwf	___fldiv@bexp
  6745  002B                     l2083:
  6746  002B  1FC0               	btfss	___fldiv@b+2,7
  6747  002C  282E               	goto	u2371
  6748  002D  282F               	goto	u2370
  6749  002E                     u2371:
  6750  002E  2830               	goto	l2087
  6751  002F                     u2370:
  6752  002F                     l2085:
  6753  002F  1452               	bsf	___fldiv@bexp,0
  6754  0030                     l2087:
  6755  0030  0852               	movf	___fldiv@bexp,w
  6756  0031  1903               	btfsc	3,2
  6757  0032  2834               	goto	u2381
  6758  0033  2835               	goto	u2380
  6759  0034                     u2381:
  6760  0034  2845               	goto	l2097
  6761  0035                     u2380:
  6762  0035                     l2089:
  6763  0035  0A52               	incf	___fldiv@bexp,w
  6764  0036  1D03               	btfss	3,2
  6765  0037  2839               	goto	u2391
  6766  0038  283A               	goto	u2390
  6767  0039                     u2391:
  6768  0039  2842               	goto	l2093
  6769  003A                     u2390:
  6770  003A                     l2091:
  6771  003A  3000               	movlw	0
  6772  003B  00C1               	movwf	___fldiv@b+3
  6773  003C  3000               	movlw	0
  6774  003D  00C0               	movwf	___fldiv@b+2
  6775  003E  3000               	movlw	0
  6776  003F  00BF               	movwf	___fldiv@b+1
  6777  0040  3000               	movlw	0
  6778  0041  00BE               	movwf	___fldiv@b
  6779  0042                     l2093:
  6780  0042  17C0               	bsf	___fldiv@b+2,7
  6781  0043                     l2095:
  6782  0043  01C1               	clrf	___fldiv@b+3
  6783  0044  284D               	goto	l2099
  6784  0045                     l2097:
  6785  0045  3000               	movlw	0
  6786  0046  00C1               	movwf	___fldiv@b+3
  6787  0047  3000               	movlw	0
  6788  0048  00C0               	movwf	___fldiv@b+2
  6789  0049  3000               	movlw	0
  6790  004A  00BF               	movwf	___fldiv@b+1
  6791  004B  3000               	movlw	0
  6792  004C  00BE               	movwf	___fldiv@b
  6793  004D                     l2099:
  6794  004D  083D               	movf	___fldiv@a+3,w
  6795  004E  3980               	andlw	128
  6796  004F  00C2               	movwf	??___fldiv
  6797  0050  0842               	movf	??___fldiv,w
  6798  0051  06CB               	xorwf	___fldiv@sign,f
  6799  0052                     l2101:
  6800  0052  083D               	movf	___fldiv@a+3,w
  6801  0053  00C2               	movwf	??___fldiv
  6802  0054  0742               	addwf	??___fldiv,w
  6803  0055  00C3               	movwf	??___fldiv+1
  6804  0056  0843               	movf	??___fldiv+1,w
  6805  0057  00D3               	movwf	___fldiv@aexp
  6806  0058                     l2103:
  6807  0058  1FBC               	btfss	___fldiv@a+2,7
  6808  0059  285B               	goto	u2401
  6809  005A  285C               	goto	u2400
  6810  005B                     u2401:
  6811  005B  285D               	goto	l2107
  6812  005C                     u2400:
  6813  005C                     l2105:
  6814  005C  1453               	bsf	___fldiv@aexp,0
  6815  005D                     l2107:
  6816  005D  0853               	movf	___fldiv@aexp,w
  6817  005E  1903               	btfsc	3,2
  6818  005F  2861               	goto	u2411
  6819  0060  2862               	goto	u2410
  6820  0061                     u2411:
  6821  0061  2872               	goto	l2117
  6822  0062                     u2410:
  6823  0062                     l2109:
  6824  0062  0A53               	incf	___fldiv@aexp,w
  6825  0063  1D03               	btfss	3,2
  6826  0064  2866               	goto	u2421
  6827  0065  2867               	goto	u2420
  6828  0066                     u2421:
  6829  0066  286F               	goto	l2113
  6830  0067                     u2420:
  6831  0067                     l2111:
  6832  0067  3000               	movlw	0
  6833  0068  00BD               	movwf	___fldiv@a+3
  6834  0069  3000               	movlw	0
  6835  006A  00BC               	movwf	___fldiv@a+2
  6836  006B  3000               	movlw	0
  6837  006C  00BB               	movwf	___fldiv@a+1
  6838  006D  3000               	movlw	0
  6839  006E  00BA               	movwf	___fldiv@a
  6840  006F                     l2113:
  6841  006F  17BC               	bsf	___fldiv@a+2,7
  6842  0070                     l2115:
  6843  0070  01BD               	clrf	___fldiv@a+3
  6844  0071  287A               	goto	l660
  6845  0072                     l2117:
  6846  0072  3000               	movlw	0
  6847  0073  00BD               	movwf	___fldiv@a+3
  6848  0074  3000               	movlw	0
  6849  0075  00BC               	movwf	___fldiv@a+2
  6850  0076  3000               	movlw	0
  6851  0077  00BB               	movwf	___fldiv@a+1
  6852  0078  3000               	movlw	0
  6853  0079  00BA               	movwf	___fldiv@a
  6854  007A                     l660:
  6855  007A  083D               	movf	___fldiv@a+3,w
  6856  007B  043C               	iorwf	___fldiv@a+2,w
  6857  007C  043B               	iorwf	___fldiv@a+1,w
  6858  007D  043A               	iorwf	___fldiv@a,w
  6859  007E  1D03               	skipz
  6860  007F  2881               	goto	u2431
  6861  0080  2882               	goto	u2430
  6862  0081                     u2431:
  6863  0081  289B               	goto	l2127
  6864  0082                     u2430:
  6865  0082                     l2119:
  6866  0082  3000               	movlw	0
  6867  0083  00C1               	movwf	___fldiv@b+3
  6868  0084  3000               	movlw	0
  6869  0085  00C0               	movwf	___fldiv@b+2
  6870  0086  3000               	movlw	0
  6871  0087  00BF               	movwf	___fldiv@b+1
  6872  0088  3000               	movlw	0
  6873  0089  00BE               	movwf	___fldiv@b
  6874  008A  3080               	movlw	128
  6875  008B  04C0               	iorwf	___fldiv@b+2,f
  6876  008C  307F               	movlw	127
  6877  008D  04C1               	iorwf	___fldiv@b+3,f
  6878  008E                     l2121:
  6879  008E  084B               	movf	___fldiv@sign,w
  6880  008F  00C2               	movwf	??___fldiv
  6881  0090  0842               	movf	??___fldiv,w
  6882  0091  04C1               	iorwf	___fldiv@b+3,f
  6883  0092                     l2123:
  6884  0092  0841               	movf	___fldiv@b+3,w
  6885  0093  00BD               	movwf	?___fldiv+3
  6886  0094  0840               	movf	___fldiv@b+2,w
  6887  0095  00BC               	movwf	?___fldiv+2
  6888  0096  083F               	movf	___fldiv@b+1,w
  6889  0097  00BB               	movwf	?___fldiv+1
  6890  0098  083E               	movf	___fldiv@b,w
  6891  0099  00BA               	movwf	?___fldiv
  6892  009A  29FA               	goto	l662
  6893  009B                     l2127:
  6894  009B  0852               	movf	___fldiv@bexp,w
  6895  009C  1D03               	btfss	3,2
  6896  009D  289F               	goto	u2441
  6897  009E  28A0               	goto	u2440
  6898  009F                     u2441:
  6899  009F  28A9               	goto	l2133
  6900  00A0                     u2440:
  6901  00A0                     l2129:
  6902  00A0  3000               	movlw	0
  6903  00A1  00BD               	movwf	?___fldiv+3
  6904  00A2  3000               	movlw	0
  6905  00A3  00BC               	movwf	?___fldiv+2
  6906  00A4  3000               	movlw	0
  6907  00A5  00BB               	movwf	?___fldiv+1
  6908  00A6  3000               	movlw	0
  6909  00A7  00BA               	movwf	?___fldiv
  6910  00A8  29FA               	goto	l662
  6911  00A9                     l2133:
  6912  00A9  0852               	movf	___fldiv@bexp,w
  6913  00AA  00C2               	movwf	??___fldiv
  6914  00AB  01C3               	clrf	??___fldiv+1
  6915  00AC  0843               	movf	??___fldiv+1,w
  6916  00AD  00C5               	movwf	??___fldiv+3
  6917  00AE  0853               	movf	___fldiv@aexp,w
  6918  00AF  0242               	subwf	??___fldiv,w
  6919  00B0  00C4               	movwf	??___fldiv+2
  6920  00B1  1C03               	skipc
  6921  00B2  03C5               	decf	??___fldiv+3,f
  6922  00B3  0844               	movf	??___fldiv+2,w
  6923  00B4  3E7F               	addlw	127
  6924  00B5  00CC               	movwf	___fldiv@new_exp
  6925  00B6  0845               	movf	??___fldiv+3,w
  6926  00B7  1803               	skipnc
  6927  00B8  3E01               	addlw	1
  6928  00B9  3E00               	addlw	0
  6929  00BA  00CD               	movwf	___fldiv@new_exp+1
  6930  00BB                     l2135:
  6931  00BB  0841               	movf	___fldiv@b+3,w
  6932  00BC  00CA               	movwf	___fldiv@rem+3
  6933  00BD  0840               	movf	___fldiv@b+2,w
  6934  00BE  00C9               	movwf	___fldiv@rem+2
  6935  00BF  083F               	movf	___fldiv@b+1,w
  6936  00C0  00C8               	movwf	___fldiv@rem+1
  6937  00C1  083E               	movf	___fldiv@b,w
  6938  00C2  00C7               	movwf	___fldiv@rem
  6939  00C3                     l2137:
  6940  00C3  3000               	movlw	0
  6941  00C4  00C1               	movwf	___fldiv@b+3
  6942  00C5  3000               	movlw	0
  6943  00C6  00C0               	movwf	___fldiv@b+2
  6944  00C7  3000               	movlw	0
  6945  00C8  00BF               	movwf	___fldiv@b+1
  6946  00C9  3000               	movlw	0
  6947  00CA  00BE               	movwf	___fldiv@b
  6948  00CB                     l2139:
  6949  00CB  3000               	movlw	0
  6950  00CC  00D1               	movwf	___fldiv@grs+3
  6951  00CD  3000               	movlw	0
  6952  00CE  00D0               	movwf	___fldiv@grs+2
  6953  00CF  3000               	movlw	0
  6954  00D0  00CF               	movwf	___fldiv@grs+1
  6955  00D1  3000               	movlw	0
  6956  00D2  00CE               	movwf	___fldiv@grs
  6957  00D3                     l2141:
  6958  00D3  01D3               	clrf	___fldiv@aexp
  6959  00D4  291F               	goto	l2161
  6960  00D5                     l2143:
  6961  00D5  0853               	movf	___fldiv@aexp,w
  6962  00D6  1903               	btfsc	3,2
  6963  00D7  28D9               	goto	u2451
  6964  00D8  28DA               	goto	u2450
  6965  00D9                     u2451:
  6966  00D9  28FA               	goto	l2153
  6967  00DA                     u2450:
  6968  00DA                     l2145:
  6969  00DA  3001               	movlw	1
  6970  00DB  00C2               	movwf	??___fldiv
  6971  00DC                     u2465:
  6972  00DC  1003               	clrc
  6973  00DD  0DC7               	rlf	___fldiv@rem,f
  6974  00DE  0DC8               	rlf	___fldiv@rem+1,f
  6975  00DF  0DC9               	rlf	___fldiv@rem+2,f
  6976  00E0  0DCA               	rlf	___fldiv@rem+3,f
  6977  00E1  0BC2               	decfsz	??___fldiv,f
  6978  00E2  28DC               	goto	u2465
  6979  00E3  3001               	movlw	1
  6980  00E4  00C2               	movwf	??___fldiv
  6981  00E5                     u2475:
  6982  00E5  1003               	clrc
  6983  00E6  0DBE               	rlf	___fldiv@b,f
  6984  00E7  0DBF               	rlf	___fldiv@b+1,f
  6985  00E8  0DC0               	rlf	___fldiv@b+2,f
  6986  00E9  0DC1               	rlf	___fldiv@b+3,f
  6987  00EA  0BC2               	decfsz	??___fldiv,f
  6988  00EB  28E5               	goto	u2475
  6989  00EC                     l2147:
  6990  00EC  1FD1               	btfss	___fldiv@grs+3,7
  6991  00ED  28EF               	goto	u2481
  6992  00EE  28F0               	goto	u2480
  6993  00EF                     u2481:
  6994  00EF  28F1               	goto	l2151
  6995  00F0                     u2480:
  6996  00F0                     l2149:
  6997  00F0  143E               	bsf	___fldiv@b,0
  6998  00F1                     l2151:
  6999  00F1  3001               	movlw	1
  7000  00F2  00C2               	movwf	??___fldiv
  7001  00F3                     u2495:
  7002  00F3  1003               	clrc
  7003  00F4  0DCE               	rlf	___fldiv@grs,f
  7004  00F5  0DCF               	rlf	___fldiv@grs+1,f
  7005  00F6  0DD0               	rlf	___fldiv@grs+2,f
  7006  00F7  0DD1               	rlf	___fldiv@grs+3,f
  7007  00F8  0BC2               	decfsz	??___fldiv,f
  7008  00F9  28F3               	goto	u2495
  7009  00FA                     l2153:
  7010  00FA  083D               	movf	___fldiv@a+3,w
  7011  00FB  024A               	subwf	___fldiv@rem+3,w
  7012  00FC  1D03               	skipz
  7013  00FD  2908               	goto	u2505
  7014  00FE  083C               	movf	___fldiv@a+2,w
  7015  00FF  0249               	subwf	___fldiv@rem+2,w
  7016  0100  1D03               	skipz
  7017  0101  2908               	goto	u2505
  7018  0102  083B               	movf	___fldiv@a+1,w
  7019  0103  0248               	subwf	___fldiv@rem+1,w
  7020  0104  1D03               	skipz
  7021  0105  2908               	goto	u2505
  7022  0106  083A               	movf	___fldiv@a,w
  7023  0107  0247               	subwf	___fldiv@rem,w
  7024  0108                     u2505:
  7025  0108  1C03               	skipc
  7026  0109  290B               	goto	u2501
  7027  010A  290C               	goto	u2500
  7028  010B                     u2501:
  7029  010B  291B               	goto	l2159
  7030  010C                     u2500:
  7031  010C                     l2155:
  7032  010C  1751               	bsf	___fldiv@grs+3,6
  7033  010D                     l2157:
  7034  010D  083A               	movf	___fldiv@a,w
  7035  010E  02C7               	subwf	___fldiv@rem,f
  7036  010F  083B               	movf	___fldiv@a+1,w
  7037  0110  1C03               	skipc
  7038  0111  0F3B               	incfsz	___fldiv@a+1,w
  7039  0112  02C8               	subwf	___fldiv@rem+1,f
  7040  0113  083C               	movf	___fldiv@a+2,w
  7041  0114  1C03               	skipc
  7042  0115  0F3C               	incfsz	___fldiv@a+2,w
  7043  0116  02C9               	subwf	___fldiv@rem+2,f
  7044  0117  083D               	movf	___fldiv@a+3,w
  7045  0118  1C03               	skipc
  7046  0119  0F3D               	incfsz	___fldiv@a+3,w
  7047  011A  02CA               	subwf	___fldiv@rem+3,f
  7048  011B                     l2159:
  7049  011B  3001               	movlw	1
  7050  011C  00C2               	movwf	??___fldiv
  7051  011D  0842               	movf	??___fldiv,w
  7052  011E  07D3               	addwf	___fldiv@aexp,f
  7053  011F                     l2161:
  7054  011F  301A               	movlw	26
  7055  0120  0253               	subwf	___fldiv@aexp,w
  7056  0121  1C03               	skipc
  7057  0122  2924               	goto	u2511
  7058  0123  2925               	goto	u2510
  7059  0124                     u2511:
  7060  0124  28D5               	goto	l2143
  7061  0125                     u2510:
  7062  0125                     l2163:
  7063  0125  084A               	movf	___fldiv@rem+3,w
  7064  0126  0449               	iorwf	___fldiv@rem+2,w
  7065  0127  0448               	iorwf	___fldiv@rem+1,w
  7066  0128  0447               	iorwf	___fldiv@rem,w
  7067  0129  1903               	skipnz
  7068  012A  292C               	goto	u2521
  7069  012B  292D               	goto	u2520
  7070  012C                     u2521:
  7071  012C  294C               	goto	l2177
  7072  012D                     u2520:
  7073  012D                     l2165:
  7074  012D  144E               	bsf	___fldiv@grs,0
  7075  012E  294C               	goto	l2177
  7076  012F                     l2167:
  7077  012F  3001               	movlw	1
  7078  0130  00C2               	movwf	??___fldiv
  7079  0131                     u2535:
  7080  0131  1003               	clrc
  7081  0132  0DBE               	rlf	___fldiv@b,f
  7082  0133  0DBF               	rlf	___fldiv@b+1,f
  7083  0134  0DC0               	rlf	___fldiv@b+2,f
  7084  0135  0DC1               	rlf	___fldiv@b+3,f
  7085  0136  0BC2               	decfsz	??___fldiv,f
  7086  0137  2931               	goto	u2535
  7087  0138                     l2169:
  7088  0138  1FD1               	btfss	___fldiv@grs+3,7
  7089  0139  293B               	goto	u2541
  7090  013A  293C               	goto	u2540
  7091  013B                     u2541:
  7092  013B  293D               	goto	l2173
  7093  013C                     u2540:
  7094  013C                     l2171:
  7095  013C  143E               	bsf	___fldiv@b,0
  7096  013D                     l2173:
  7097  013D  3001               	movlw	1
  7098  013E  00C2               	movwf	??___fldiv
  7099  013F                     u2555:
  7100  013F  1003               	clrc
  7101  0140  0DCE               	rlf	___fldiv@grs,f
  7102  0141  0DCF               	rlf	___fldiv@grs+1,f
  7103  0142  0DD0               	rlf	___fldiv@grs+2,f
  7104  0143  0DD1               	rlf	___fldiv@grs+3,f
  7105  0144  0BC2               	decfsz	??___fldiv,f
  7106  0145  293F               	goto	u2555
  7107  0146                     l2175:
  7108  0146  30FF               	movlw	255
  7109  0147  07CC               	addwf	___fldiv@new_exp,f
  7110  0148  1803               	skipnc
  7111  0149  0ACD               	incf	___fldiv@new_exp+1,f
  7112  014A  30FF               	movlw	255
  7113  014B  07CD               	addwf	___fldiv@new_exp+1,f
  7114  014C                     l2177:
  7115  014C  1FC0               	btfss	___fldiv@b+2,7
  7116  014D  294F               	goto	u2561
  7117  014E  2950               	goto	u2560
  7118  014F                     u2561:
  7119  014F  292F               	goto	l2167
  7120  0150                     u2560:
  7121  0150                     l2179:
  7122  0150  01D3               	clrf	___fldiv@aexp
  7123  0151                     l2181:
  7124  0151  1FD1               	btfss	___fldiv@grs+3,7
  7125  0152  2954               	goto	u2571
  7126  0153  2955               	goto	u2570
  7127  0154                     u2571:
  7128  0154  2971               	goto	l2189
  7129  0155                     u2570:
  7130  0155                     l2183:
  7131  0155  30FF               	movlw	255
  7132  0156  054E               	andwf	___fldiv@grs,w
  7133  0157  00C2               	movwf	??___fldiv
  7134  0158  30FF               	movlw	255
  7135  0159  054F               	andwf	___fldiv@grs+1,w
  7136  015A  00C3               	movwf	??___fldiv+1
  7137  015B  30FF               	movlw	255
  7138  015C  0550               	andwf	___fldiv@grs+2,w
  7139  015D  00C4               	movwf	??___fldiv+2
  7140  015E  307F               	movlw	127
  7141  015F  0551               	andwf	___fldiv@grs+3,w
  7142  0160  00C5               	movwf	??___fldiv+3
  7143  0161  0845               	movf	??___fldiv+3,w
  7144  0162  0444               	iorwf	??___fldiv+2,w
  7145  0163  0443               	iorwf	??___fldiv+1,w
  7146  0164  0442               	iorwf	??___fldiv,w
  7147  0165  1903               	skipnz
  7148  0166  2968               	goto	u2581
  7149  0167  2969               	goto	u2580
  7150  0168                     u2581:
  7151  0168  296C               	goto	l676
  7152  0169                     u2580:
  7153  0169                     l2185:
  7154  0169  01D3               	clrf	___fldiv@aexp
  7155  016A  0AD3               	incf	___fldiv@aexp,f
  7156  016B  2971               	goto	l2189
  7157  016C                     l676:
  7158  016C  1C3E               	btfss	___fldiv@b,0
  7159  016D  296F               	goto	u2591
  7160  016E  2970               	goto	u2590
  7161  016F                     u2591:
  7162  016F  2971               	goto	l2189
  7163  0170                     u2590:
  7164  0170  2969               	goto	l2185
  7165  0171                     l2189:
  7166  0171  0853               	movf	___fldiv@aexp,w
  7167  0172  1903               	btfsc	3,2
  7168  0173  2975               	goto	u2601
  7169  0174  2976               	goto	u2600
  7170  0175                     u2601:
  7171  0175  29A7               	goto	l2199
  7172  0176                     u2600:
  7173  0176                     l2191:
  7174  0176  3001               	movlw	1
  7175  0177  07BE               	addwf	___fldiv@b,f
  7176  0178  3000               	movlw	0
  7177  0179  1803               	skipnc
  7178  017A  3001               	movlw	1
  7179  017B  07BF               	addwf	___fldiv@b+1,f
  7180  017C  3000               	movlw	0
  7181  017D  1803               	skipnc
  7182  017E  3001               	movlw	1
  7183  017F  07C0               	addwf	___fldiv@b+2,f
  7184  0180  3000               	movlw	0
  7185  0181  1803               	skipnc
  7186  0182  3001               	movlw	1
  7187  0183  07C1               	addwf	___fldiv@b+3,f
  7188  0184                     l2193:
  7189  0184  1C41               	btfss	___fldiv@b+3,0
  7190  0185  2987               	goto	u2611
  7191  0186  2988               	goto	u2610
  7192  0187                     u2611:
  7193  0187  29A7               	goto	l2199
  7194  0188                     u2610:
  7195  0188                     l2195:
  7196  0188  083E               	movf	___fldiv@b,w
  7197  0189  00C2               	movwf	??___fldiv
  7198  018A  083F               	movf	___fldiv@b+1,w
  7199  018B  00C3               	movwf	??___fldiv+1
  7200  018C  0840               	movf	___fldiv@b+2,w
  7201  018D  00C4               	movwf	??___fldiv+2
  7202  018E  0841               	movf	___fldiv@b+3,w
  7203  018F  00C5               	movwf	??___fldiv+3
  7204  0190  3001               	movlw	1
  7205  0191  00C6               	movwf	??___fldiv+4
  7206  0192                     u2625:
  7207  0192  0D45               	rlf	??___fldiv+3,w
  7208  0193  0CC5               	rrf	??___fldiv+3,f
  7209  0194  0CC4               	rrf	??___fldiv+2,f
  7210  0195  0CC3               	rrf	??___fldiv+1,f
  7211  0196  0CC2               	rrf	??___fldiv,f
  7212  0197                     u2620:
  7213  0197  0BC6               	decfsz	??___fldiv+4,f
  7214  0198  2992               	goto	u2625
  7215  0199  0845               	movf	??___fldiv+3,w
  7216  019A  00C1               	movwf	___fldiv@b+3
  7217  019B  0844               	movf	??___fldiv+2,w
  7218  019C  00C0               	movwf	___fldiv@b+2
  7219  019D  0843               	movf	??___fldiv+1,w
  7220  019E  00BF               	movwf	___fldiv@b+1
  7221  019F  0842               	movf	??___fldiv,w
  7222  01A0  00BE               	movwf	___fldiv@b
  7223  01A1                     l2197:
  7224  01A1  3001               	movlw	1
  7225  01A2  07CC               	addwf	___fldiv@new_exp,f
  7226  01A3  1803               	skipnc
  7227  01A4  0ACD               	incf	___fldiv@new_exp+1,f
  7228  01A5  3000               	movlw	0
  7229  01A6  07CD               	addwf	___fldiv@new_exp+1,f
  7230  01A7                     l2199:
  7231  01A7  084D               	movf	___fldiv@new_exp+1,w
  7232  01A8  3A80               	xorlw	128
  7233  01A9  00FF               	movwf	btemp+1
  7234  01AA  3080               	movlw	128
  7235  01AB  027F               	subwf	btemp+1,w
  7236  01AC  1D03               	skipz
  7237  01AD  29B0               	goto	u2635
  7238  01AE  30FF               	movlw	255
  7239  01AF  024C               	subwf	___fldiv@new_exp,w
  7240  01B0                     u2635:
  7241  01B0  1C03               	skipc
  7242  01B1  29B3               	goto	u2631
  7243  01B2  29B4               	goto	u2630
  7244  01B3                     u2631:
  7245  01B3  29C2               	goto	l2203
  7246  01B4                     u2630:
  7247  01B4                     l2201:
  7248  01B4  30FF               	movlw	255
  7249  01B5  1283               	bcf	3,5	;RP0=0, select bank0
  7250  01B6  1303               	bcf	3,6	;RP1=0, select bank0
  7251  01B7  00CC               	movwf	___fldiv@new_exp
  7252  01B8  3000               	movlw	0
  7253  01B9  00CD               	movwf	___fldiv@new_exp+1
  7254  01BA  3000               	movlw	0
  7255  01BB  00C1               	movwf	___fldiv@b+3
  7256  01BC  3000               	movlw	0
  7257  01BD  00C0               	movwf	___fldiv@b+2
  7258  01BE  3000               	movlw	0
  7259  01BF  00BF               	movwf	___fldiv@b+1
  7260  01C0  3000               	movlw	0
  7261  01C1  00BE               	movwf	___fldiv@b
  7262  01C2                     l2203:
  7263  01C2  1283               	bcf	3,5	;RP0=0, select bank0
  7264  01C3  1303               	bcf	3,6	;RP1=0, select bank0
  7265  01C4  084D               	movf	___fldiv@new_exp+1,w
  7266  01C5  3A80               	xorlw	128
  7267  01C6  00FF               	movwf	btemp+1
  7268  01C7  3080               	movlw	128
  7269  01C8  027F               	subwf	btemp+1,w
  7270  01C9  1D03               	skipz
  7271  01CA  29CD               	goto	u2645
  7272  01CB  3001               	movlw	1
  7273  01CC  024C               	subwf	___fldiv@new_exp,w
  7274  01CD                     u2645:
  7275  01CD  1803               	skipnc
  7276  01CE  29D0               	goto	u2641
  7277  01CF  29D1               	goto	u2640
  7278  01D0                     u2641:
  7279  01D0  29DE               	goto	l682
  7280  01D1                     u2640:
  7281  01D1                     l2205:
  7282  01D1  1283               	bcf	3,5	;RP0=0, select bank0
  7283  01D2  1303               	bcf	3,6	;RP1=0, select bank0
  7284  01D3  01CC               	clrf	___fldiv@new_exp
  7285  01D4  01CD               	clrf	___fldiv@new_exp+1
  7286  01D5                     l2207:
  7287  01D5  3000               	movlw	0
  7288  01D6  00C1               	movwf	___fldiv@b+3
  7289  01D7  3000               	movlw	0
  7290  01D8  00C0               	movwf	___fldiv@b+2
  7291  01D9  3000               	movlw	0
  7292  01DA  00BF               	movwf	___fldiv@b+1
  7293  01DB  3000               	movlw	0
  7294  01DC  00BE               	movwf	___fldiv@b
  7295  01DD                     l2209:
  7296  01DD  01CB               	clrf	___fldiv@sign
  7297  01DE                     l682:
  7298  01DE  1283               	bcf	3,5	;RP0=0, select bank0
  7299  01DF  1303               	bcf	3,6	;RP1=0, select bank0
  7300  01E0  084C               	movf	___fldiv@new_exp,w
  7301  01E1  00C2               	movwf	??___fldiv
  7302  01E2  0842               	movf	??___fldiv,w
  7303  01E3  00D2               	movwf	___fldiv@bexp
  7304  01E4                     l2211:
  7305  01E4  1C52               	btfss	___fldiv@bexp,0
  7306  01E5  29E7               	goto	u2651
  7307  01E6  29E8               	goto	u2650
  7308  01E7                     u2651:
  7309  01E7  29EA               	goto	l2215
  7310  01E8                     u2650:
  7311  01E8                     l2213:
  7312  01E8  17C0               	bsf	___fldiv@b+2,7
  7313  01E9  29EE               	goto	l684
  7314  01EA                     l2215:
  7315  01EA  307F               	movlw	127
  7316  01EB  00C2               	movwf	??___fldiv
  7317  01EC  0842               	movf	??___fldiv,w
  7318  01ED  05C0               	andwf	___fldiv@b+2,f
  7319  01EE                     l684:
  7320  01EE  0852               	movf	___fldiv@bexp,w
  7321  01EF  00C2               	movwf	??___fldiv
  7322  01F0  1003               	clrc
  7323  01F1  0C42               	rrf	??___fldiv,w
  7324  01F2  00C3               	movwf	??___fldiv+1
  7325  01F3  0843               	movf	??___fldiv+1,w
  7326  01F4  00C1               	movwf	___fldiv@b+3
  7327  01F5  084B               	movf	___fldiv@sign,w
  7328  01F6  00C2               	movwf	??___fldiv
  7329  01F7  0842               	movf	??___fldiv,w
  7330  01F8  04C1               	iorwf	___fldiv@b+3,f
  7331  01F9  2892               	goto	l2123
  7332  01FA                     l662:
  7333  01FA  0008               	return
  7334  01FB                     __end_of___fldiv:
  7335                           
  7336                           	psect	text22
  7337  16BC                     __ptext22:	
  7338 ;; *************** function _LCD_XY8 *****************
  7339 ;; Defined at:
  7340 ;;		line 27 in file "LCD.c"
  7341 ;; Parameters:    Size  Location     Type
  7342 ;;  x               1    wreg     unsigned char 
  7343 ;;  y               1    4[COMMON] unsigned char 
  7344 ;; Auto vars:     Size  Location     Type
  7345 ;;  x               1    5[COMMON] unsigned char 
  7346 ;; Return value:  Size  Location     Type
  7347 ;;                  1    wreg      void 
  7348 ;; Registers used:
  7349 ;;		wreg, status,2, status,0, pclath, cstack
  7350 ;; Tracked objects:
  7351 ;;		On entry : 0/0
  7352 ;;		On exit  : 0/0
  7353 ;;		Unchanged: 0/0
  7354 ;; Data sizes:     COMMON   BANK0   BANK1   BANK3   BANK2
  7355 ;;      Params:         1       0       0       0       0
  7356 ;;      Locals:         1       0       0       0       0
  7357 ;;      Temps:          0       0       0       0       0
  7358 ;;      Totals:         2       0       0       0       0
  7359 ;;Total ram usage:        2 bytes
  7360 ;; Hardware stack levels used: 1
  7361 ;; Hardware stack levels required when called: 2
  7362 ;; This function calls:
  7363 ;;		_LCD_COM8
  7364 ;; This function is called by:
  7365 ;;		_main
  7366 ;; This function uses a non-reentrant model
  7367 ;;
  7368                           
  7369  16BC                     _LCD_XY8:	
  7370                           ;psect for function _LCD_XY8
  7371                           
  7372                           
  7373                           ;incstack = 0
  7374                           ; Regs used in _LCD_XY8: [wreg+status,2+status,0+pclath+cstack]
  7375                           ;LCD_XY8@x stored from wreg
  7376  16BC  00F5               	movwf	LCD_XY8@x
  7377  16BD                     l2601:
  7378                           
  7379                           ;LCD.c: 28:     if(x == 1)
  7380  16BD  0375               	decf	LCD_XY8@x,w
  7381  16BE  1D03               	btfss	3,2
  7382  16BF  2EC1               	goto	u3421
  7383  16C0  2EC2               	goto	u3420
  7384  16C1                     u3421:
  7385  16C1  2ECA               	goto	l2605
  7386  16C2                     u3420:
  7387  16C2                     l2603:
  7388                           
  7389                           ;LCD.c: 29:    LCD_COM8(0x80 + y);
  7390  16C2  0874               	movf	LCD_XY8@y,w
  7391  16C3  3E80               	addlw	128
  7392  16C4  120A  118A  2004  160A  118A  	fcall	_LCD_COM8
  7393  16C9  2ED7               	goto	l23
  7394  16CA                     l2605:
  7395  16CA  3002               	movlw	2
  7396  16CB  0675               	xorwf	LCD_XY8@x,w
  7397  16CC  1D03               	btfss	3,2
  7398  16CD  2ECF               	goto	u3431
  7399  16CE  2ED0               	goto	u3430
  7400  16CF                     u3431:
  7401  16CF  2ED7               	goto	l23
  7402  16D0                     u3430:
  7403  16D0                     l2607:
  7404                           
  7405                           ;LCD.c: 31:   LCD_COM8(0xC0 + y);
  7406  16D0  0874               	movf	LCD_XY8@y,w
  7407  16D1  3EC0               	addlw	192
  7408  16D2  120A  118A  2004  160A  118A  	fcall	_LCD_COM8
  7409  16D7                     l23:
  7410  16D7  0008               	return
  7411  16D8                     __end_of_LCD_XY8:
  7412                           
  7413                           	psect	text23
  7414  0004                     __ptext23:	
  7415 ;; *************** function _LCD_COM8 *****************
  7416 ;; Defined at:
  7417 ;;		line 16 in file "LCD.c"
  7418 ;; Parameters:    Size  Location     Type
  7419 ;;  a               1    wreg     unsigned char 
  7420 ;; Auto vars:     Size  Location     Type
  7421 ;;  a               1    3[COMMON] unsigned char 
  7422 ;; Return value:  Size  Location     Type
  7423 ;;                  1    wreg      void 
  7424 ;; Registers used:
  7425 ;;		wreg, status,2, status,0, pclath, cstack
  7426 ;; Tracked objects:
  7427 ;;		On entry : 0/0
  7428 ;;		On exit  : 0/0
  7429 ;;		Unchanged: 0/0
  7430 ;; Data sizes:     COMMON   BANK0   BANK1   BANK3   BANK2
  7431 ;;      Params:         0       0       0       0       0
  7432 ;;      Locals:         1       0       0       0       0
  7433 ;;      Temps:          2       0       0       0       0
  7434 ;;      Totals:         3       0       0       0       0
  7435 ;;Total ram usage:        3 bytes
  7436 ;; Hardware stack levels used: 1
  7437 ;; Hardware stack levels required when called: 1
  7438 ;; This function calls:
  7439 ;;		_LCD_PORT8
  7440 ;; This function is called by:
  7441 ;;		_LCD_XY8
  7442 ;;		_LCD_INIT8
  7443 ;;		_LCD_RIGHT8
  7444 ;;		_LCD_LEFT8
  7445 ;; This function uses a non-reentrant model
  7446 ;;
  7447                           
  7448  0004                     _LCD_COM8:	
  7449                           ;psect for function _LCD_COM8
  7450                           
  7451                           
  7452                           ;incstack = 0
  7453                           ; Regs used in _LCD_COM8: [wreg+status,2+status,0+pclath+cstack]
  7454                           ;LCD_COM8@a stored from wreg
  7455  0004  00F3               	movwf	LCD_COM8@a
  7456  0005                     l2405:
  7457                           
  7458                           ;LCD.c: 17:     RC0 = 0;
  7459  0005  1283               	bcf	3,5	;RP0=0, select bank0
  7460  0006  1303               	bcf	3,6	;RP1=0, select bank0
  7461  0007  1007               	bcf	7,0	;volatile
  7462  0008                     l2407:
  7463                           
  7464                           ;LCD.c: 18:     LCD_PORT8(a);
  7465  0008  0873               	movf	LCD_COM8@a,w
  7466  0009  160A  118A  2670  120A  118A  	fcall	_LCD_PORT8
  7467  000E                     l2409:
  7468                           
  7469                           ;LCD.c: 19:     RC1 = 1;
  7470  000E  1283               	bcf	3,5	;RP0=0, select bank0
  7471  000F  1303               	bcf	3,6	;RP1=0, select bank0
  7472  0010  1487               	bsf	7,1	;volatile
  7473  0011                     l2411:
  7474                           
  7475                           ;LCD.c: 20:     _delay((unsigned long)((5)*(8000000/4000.0)));
  7476  0011  300D               	movlw	13
  7477  0012  00F2               	movwf	??_LCD_COM8+1
  7478  0013  30FB               	movlw	251
  7479  0014  00F1               	movwf	??_LCD_COM8
  7480  0015                     u3587:
  7481  0015  0BF1               	decfsz	??_LCD_COM8,f
  7482  0016  2815               	goto	u3587
  7483  0017  0BF2               	decfsz	??_LCD_COM8+1,f
  7484  0018  2815               	goto	u3587
  7485  0019  281A               	nop2
  7486  001A                     l2413:
  7487                           
  7488                           ;LCD.c: 21:     RC1 = 0;
  7489  001A  1283               	bcf	3,5	;RP0=0, select bank0
  7490  001B  1303               	bcf	3,6	;RP1=0, select bank0
  7491  001C  1087               	bcf	7,1	;volatile
  7492  001D                     l14:
  7493  001D  0008               	return
  7494  001E                     __end_of_LCD_COM8:
  7495                           
  7496                           	psect	text24
  7497  171B                     __ptext24:	
  7498 ;; *************** function _LCD_STRING8 *****************
  7499 ;; Defined at:
  7500 ;;		line 56 in file "LCD.c"
  7501 ;; Parameters:    Size  Location     Type
  7502 ;;  a               1    wreg     PTR unsigned char 
  7503 ;;		 -> STR_12(2), STR_11(2), STR_10(5), STR_9(2), 
  7504 ;;		 -> STR_8(2), STR_7(4), 
  7505 ;; Auto vars:     Size  Location     Type
  7506 ;;  a               1    6[COMMON] PTR unsigned char 
  7507 ;;		 -> STR_12(2), STR_11(2), STR_10(5), STR_9(2), 
  7508 ;;		 -> STR_8(2), STR_7(4), 
  7509 ;;  i               2    4[COMMON] int 
  7510 ;; Return value:  Size  Location     Type
  7511 ;;                  1    wreg      void 
  7512 ;; Registers used:
  7513 ;;		wreg, fsr0l, fsr0h, status,2, status,0, pclath, cstack
  7514 ;; Tracked objects:
  7515 ;;		On entry : 0/0
  7516 ;;		On exit  : 0/0
  7517 ;;		Unchanged: 0/0
  7518 ;; Data sizes:     COMMON   BANK0   BANK1   BANK3   BANK2
  7519 ;;      Params:         0       0       0       0       0
  7520 ;;      Locals:         3       0       0       0       0
  7521 ;;      Temps:          0       0       0       0       0
  7522 ;;      Totals:         3       0       0       0       0
  7523 ;;Total ram usage:        3 bytes
  7524 ;; Hardware stack levels used: 1
  7525 ;; Hardware stack levels required when called: 2
  7526 ;; This function calls:
  7527 ;;		_LCD_CHAR8
  7528 ;; This function is called by:
  7529 ;;		_main
  7530 ;; This function uses a non-reentrant model
  7531 ;;
  7532                           
  7533  171B                     _LCD_STRING8:	
  7534                           ;psect for function _LCD_STRING8
  7535                           
  7536                           
  7537                           ;incstack = 0
  7538                           ; Regs used in _LCD_STRING8: [wreg-fsr0h+status,2+status,0+pclath+cstack]
  7539                           ;LCD_STRING8@a stored from wreg
  7540  171B  00F6               	movwf	LCD_STRING8@a
  7541  171C                     l2609:
  7542                           
  7543                           ;LCD.c: 57:     int i;;LCD.c: 58:  for(i=0;a[i]!='\0';i++)
  7544  171C  01F4               	clrf	LCD_STRING8@i
  7545  171D  01F5               	clrf	LCD_STRING8@i+1
  7546  171E  2F32               	goto	l2615
  7547  171F                     l2611:
  7548                           
  7549                           ;LCD.c: 59:   LCD_CHAR8(a[i]);
  7550  171F  0874               	movf	LCD_STRING8@i,w
  7551  1720  0776               	addwf	LCD_STRING8@a,w
  7552  1721  0084               	movwf	4
  7553  1722  120A  158A  2000  160A  118A  	fcall	stringdir
  7554  1727  160A  118A  26A2  160A  118A  	fcall	_LCD_CHAR8
  7555  172C                     l2613:
  7556  172C  3001               	movlw	1
  7557  172D  07F4               	addwf	LCD_STRING8@i,f
  7558  172E  1803               	skipnc
  7559  172F  0AF5               	incf	LCD_STRING8@i+1,f
  7560  1730  3000               	movlw	0
  7561  1731  07F5               	addwf	LCD_STRING8@i+1,f
  7562  1732                     l2615:
  7563  1732  0874               	movf	LCD_STRING8@i,w
  7564  1733  0776               	addwf	LCD_STRING8@a,w
  7565  1734  0084               	movwf	4
  7566  1735  120A  158A  2000  160A  118A  	fcall	stringdir
  7567  173A  3A00               	xorlw	0
  7568  173B  1D03               	skipz
  7569  173C  2F3E               	goto	u3441
  7570  173D  2F3F               	goto	u3440
  7571  173E                     u3441:
  7572  173E  2F1F               	goto	l2611
  7573  173F                     u3440:
  7574  173F                     l35:
  7575  173F  0008               	return
  7576  1740                     __end_of_LCD_STRING8:
  7577                           
  7578                           	psect	text25
  7579  16A2                     __ptext25:	
  7580 ;; *************** function _LCD_CHAR8 *****************
  7581 ;; Defined at:
  7582 ;;		line 49 in file "LCD.c"
  7583 ;; Parameters:    Size  Location     Type
  7584 ;;  a               1    wreg     unsigned char 
  7585 ;; Auto vars:     Size  Location     Type
  7586 ;;  a               1    3[COMMON] unsigned char 
  7587 ;; Return value:  Size  Location     Type
  7588 ;;                  1    wreg      void 
  7589 ;; Registers used:
  7590 ;;		wreg, status,2, status,0, pclath, cstack
  7591 ;; Tracked objects:
  7592 ;;		On entry : 0/0
  7593 ;;		On exit  : 0/0
  7594 ;;		Unchanged: 0/0
  7595 ;; Data sizes:     COMMON   BANK0   BANK1   BANK3   BANK2
  7596 ;;      Params:         0       0       0       0       0
  7597 ;;      Locals:         1       0       0       0       0
  7598 ;;      Temps:          2       0       0       0       0
  7599 ;;      Totals:         3       0       0       0       0
  7600 ;;Total ram usage:        3 bytes
  7601 ;; Hardware stack levels used: 1
  7602 ;; Hardware stack levels required when called: 1
  7603 ;; This function calls:
  7604 ;;		_LCD_PORT8
  7605 ;; This function is called by:
  7606 ;;		_LCD_STRING8
  7607 ;;		_main
  7608 ;; This function uses a non-reentrant model
  7609 ;;
  7610                           
  7611  16A2                     _LCD_CHAR8:	
  7612                           ;psect for function _LCD_CHAR8
  7613                           
  7614                           
  7615                           ;incstack = 0
  7616                           ; Regs used in _LCD_CHAR8: [wreg+status,2+status,0+pclath+cstack]
  7617                           ;LCD_CHAR8@a stored from wreg
  7618  16A2  00F3               	movwf	LCD_CHAR8@a
  7619  16A3                     l2537:
  7620                           
  7621                           ;LCD.c: 50:     RC0 = 1;
  7622  16A3  1283               	bcf	3,5	;RP0=0, select bank0
  7623  16A4  1303               	bcf	3,6	;RP1=0, select bank0
  7624  16A5  1407               	bsf	7,0	;volatile
  7625  16A6                     l2539:
  7626                           
  7627                           ;LCD.c: 51:     LCD_PORT8(a);
  7628  16A6  0873               	movf	LCD_CHAR8@a,w
  7629  16A7  160A  118A  2670  160A  118A  	fcall	_LCD_PORT8
  7630  16AC                     l2541:
  7631                           
  7632                           ;LCD.c: 52:     RC1 = 1;
  7633  16AC  1283               	bcf	3,5	;RP0=0, select bank0
  7634  16AD  1303               	bcf	3,6	;RP1=0, select bank0
  7635  16AE  1487               	bsf	7,1	;volatile
  7636  16AF                     l2543:
  7637                           
  7638                           ;LCD.c: 53:    _delay((unsigned long)((4)*(8000000/4000.0)));
  7639  16AF  300B               	movlw	11
  7640  16B0  00F2               	movwf	??_LCD_CHAR8+1
  7641  16B1  3062               	movlw	98
  7642  16B2  00F1               	movwf	??_LCD_CHAR8
  7643  16B3                     u3597:
  7644  16B3  0BF1               	decfsz	??_LCD_CHAR8,f
  7645  16B4  2EB3               	goto	u3597
  7646  16B5  0BF2               	decfsz	??_LCD_CHAR8+1,f
  7647  16B6  2EB3               	goto	u3597
  7648  16B7  0000               	nop
  7649  16B8                     l2545:
  7650                           
  7651                           ;LCD.c: 54:     RC1 = 0;
  7652  16B8  1283               	bcf	3,5	;RP0=0, select bank0
  7653  16B9  1303               	bcf	3,6	;RP1=0, select bank0
  7654  16BA  1087               	bcf	7,1	;volatile
  7655  16BB                     l29:
  7656  16BB  0008               	return
  7657  16BC                     __end_of_LCD_CHAR8:
  7658                           
  7659                           	psect	text26
  7660  085D                     __ptext26:	
  7661 ;; *************** function _LCD_CLEAR8 *****************
  7662 ;; Defined at:
  7663 ;;		line 23 in file "LCD.c"
  7664 ;; Parameters:    Size  Location     Type
  7665 ;;		None
  7666 ;; Auto vars:     Size  Location     Type
  7667 ;;		None
  7668 ;; Return value:  Size  Location     Type
  7669 ;;                  1    wreg      void 
  7670 ;; Registers used:
  7671 ;;		wreg, status,2, status,0, pclath, cstack
  7672 ;; Tracked objects:
  7673 ;;		On entry : 0/0
  7674 ;;		On exit  : 0/0
  7675 ;;		Unchanged: 0/0
  7676 ;; Data sizes:     COMMON   BANK0   BANK1   BANK3   BANK2
  7677 ;;      Params:         0       0       0       0       0
  7678 ;;      Locals:         0       0       0       0       0
  7679 ;;      Temps:          0       0       0       0       0
  7680 ;;      Totals:         0       0       0       0       0
  7681 ;;Total ram usage:        0 bytes
  7682 ;; Hardware stack levels used: 1
  7683 ;; Hardware stack levels required when called: 1
  7684 ;; This function calls:
  7685 ;;		_LCD_PORT8
  7686 ;; This function is called by:
  7687 ;;		_main
  7688 ;; This function uses a non-reentrant model
  7689 ;;
  7690                           
  7691  085D                     _LCD_CLEAR8:	
  7692                           ;psect for function _LCD_CLEAR8
  7693                           
  7694  085D                     l2599:	
  7695                           ;incstack = 0
  7696                           ; Regs used in _LCD_CLEAR8: [wreg+status,2+status,0+pclath+cstack]
  7697                           
  7698                           
  7699                           ;LCD.c: 24:     LCD_PORT8(0);
  7700  085D  3000               	movlw	0
  7701  085E  160A  118A  2670  120A  158A  	fcall	_LCD_PORT8
  7702                           
  7703                           ;LCD.c: 25:     LCD_PORT8(1);
  7704  0863  3001               	movlw	1
  7705  0864  160A  118A  2670  120A  158A  	fcall	_LCD_PORT8
  7706  0869                     l17:
  7707  0869  0008               	return
  7708  086A                     __end_of_LCD_CLEAR8:
  7709                           
  7710                           	psect	text27
  7711  1670                     __ptext27:	
  7712 ;; *************** function _LCD_PORT8 *****************
  7713 ;; Defined at:
  7714 ;;		line 13 in file "LCD.c"
  7715 ;; Parameters:    Size  Location     Type
  7716 ;;  a               1    wreg     unsigned char 
  7717 ;; Auto vars:     Size  Location     Type
  7718 ;;  a               1    0[COMMON] unsigned char 
  7719 ;; Return value:  Size  Location     Type
  7720 ;;                  1    wreg      void 
  7721 ;; Registers used:
  7722 ;;		wreg
  7723 ;; Tracked objects:
  7724 ;;		On entry : 0/0
  7725 ;;		On exit  : 0/0
  7726 ;;		Unchanged: 0/0
  7727 ;; Data sizes:     COMMON   BANK0   BANK1   BANK3   BANK2
  7728 ;;      Params:         0       0       0       0       0
  7729 ;;      Locals:         1       0       0       0       0
  7730 ;;      Temps:          0       0       0       0       0
  7731 ;;      Totals:         1       0       0       0       0
  7732 ;;Total ram usage:        1 bytes
  7733 ;; Hardware stack levels used: 1
  7734 ;; This function calls:
  7735 ;;		Nothing
  7736 ;; This function is called by:
  7737 ;;		_LCD_COM8
  7738 ;;		_LCD_CLEAR8
  7739 ;;		_LCD_INIT8
  7740 ;;		_LCD_CHAR8
  7741 ;; This function uses a non-reentrant model
  7742 ;;
  7743                           
  7744  1670                     _LCD_PORT8:	
  7745                           ;psect for function _LCD_PORT8
  7746                           
  7747                           
  7748                           ;incstack = 0
  7749                           ; Regs used in _LCD_PORT8: [wreg]
  7750                           ;LCD_PORT8@a stored from wreg
  7751  1670  00F0               	movwf	LCD_PORT8@a
  7752  1671                     l1847:
  7753                           
  7754                           ;LCD.c: 14:     PORTD = a;
  7755  1671  0870               	movf	LCD_PORT8@a,w
  7756  1672  1283               	bcf	3,5	;RP0=0, select bank0
  7757  1673  1303               	bcf	3,6	;RP1=0, select bank0
  7758  1674  0088               	movwf	8	;volatile
  7759  1675                     l11:
  7760  1675  0008               	return
  7761  1676                     __end_of_LCD_PORT8:
  7762                           
  7763                           	psect	text28
  7764  1676                     __ptext28:	
  7765 ;; *************** function _ADC_READ *****************
  7766 ;; Defined at:
  7767 ;;		line 198 in file "ADC.c"
  7768 ;; Parameters:    Size  Location     Type
  7769 ;;		None
  7770 ;; Auto vars:     Size  Location     Type
  7771 ;;		None
  7772 ;; Return value:  Size  Location     Type
  7773 ;;                  2    0[COMMON] int 
  7774 ;; Registers used:
  7775 ;;		wreg
  7776 ;; Tracked objects:
  7777 ;;		On entry : 0/0
  7778 ;;		On exit  : 0/0
  7779 ;;		Unchanged: 0/0
  7780 ;; Data sizes:     COMMON   BANK0   BANK1   BANK3   BANK2
  7781 ;;      Params:         2       0       0       0       0
  7782 ;;      Locals:         0       0       0       0       0
  7783 ;;      Temps:          2       0       0       0       0
  7784 ;;      Totals:         4       0       0       0       0
  7785 ;;Total ram usage:        4 bytes
  7786 ;; Hardware stack levels used: 1
  7787 ;; This function calls:
  7788 ;;		Nothing
  7789 ;; This function is called by:
  7790 ;;		_main
  7791 ;; This function uses a non-reentrant model
  7792 ;;
  7793                           
  7794  1676                     _ADC_READ:	
  7795                           ;psect for function _ADC_READ
  7796                           
  7797  1676                     l2623:	
  7798                           ;incstack = 0
  7799                           ; Regs used in _ADC_READ: [wreg]
  7800                           
  7801                           
  7802                           ;ADC.c: 202:             return ADRESH;
  7803  1676  1283               	bcf	3,5	;RP0=0, select bank0
  7804  1677  1303               	bcf	3,6	;RP1=0, select bank0
  7805  1678  081E               	movf	30,w	;volatile
  7806  1679  00F2               	movwf	??_ADC_READ
  7807  167A  01F3               	clrf	??_ADC_READ+1
  7808  167B  0872               	movf	??_ADC_READ,w
  7809  167C  00F0               	movwf	?_ADC_READ
  7810  167D  0873               	movf	??_ADC_READ+1,w
  7811  167E  00F1               	movwf	?_ADC_READ+1
  7812  167F                     l93:
  7813  167F  0008               	return
  7814  1680                     __end_of_ADC_READ:
  7815  007E                     btemp	set	126	;btemp
  7816  007E                     wtemp0	set	126
  7817                           
  7818                           	psect	idloc
  7819                           
  7820                           ;Config register IDLOC0 @ 0x2000
  7821                           ;	unspecified, using default values
  7822  2000                     	org	8192
  7823  2000  3FFF               	dw	16383
  7824                           
  7825                           ;Config register IDLOC1 @ 0x2001
  7826                           ;	unspecified, using default values
  7827  2001                     	org	8193
  7828  2001  3FFF               	dw	16383
  7829                           
  7830                           ;Config register IDLOC2 @ 0x2002
  7831                           ;	unspecified, using default values
  7832  2002                     	org	8194
  7833  2002  3FFF               	dw	16383
  7834                           
  7835                           ;Config register IDLOC3 @ 0x2003
  7836                           ;	unspecified, using default values
  7837  2003                     	org	8195
  7838  2003  3FFF               	dw	16383
  7839                           
  7840                           	psect	config
  7841                           
  7842                           ;Config register CONFIG1 @ 0x2007
  7843                           ;	Oscillator Selection bits
  7844                           ;	FOSC = INTRC_NOCLKOUT, INTOSCIO oscillator: I/O function on RA6/OSC2/CLKOUT pin, I/O f
      +                          unction on RA7/OSC1/CLKIN
  7845                           ;	Watchdog Timer Enable bit
  7846                           ;	WDTE = OFF, WDT disabled and can be enabled by SWDTEN bit of the WDTCON register
  7847                           ;	Power-up Timer Enable bit
  7848                           ;	PWRTE = OFF, PWRT disabled
  7849                           ;	RE3/MCLR pin function select bit
  7850                           ;	MCLRE = OFF, RE3/MCLR pin function is digital input, MCLR internally tied to VDD
  7851                           ;	Code Protection bit
  7852                           ;	CP = OFF, Program memory code protection is disabled
  7853                           ;	Data Code Protection bit
  7854                           ;	CPD = OFF, Data memory code protection is disabled
  7855                           ;	Brown Out Reset Selection bits
  7856                           ;	BOREN = OFF, BOR disabled
  7857                           ;	Internal External Switchover bit
  7858                           ;	IESO = OFF, Internal/External Switchover mode is disabled
  7859                           ;	Fail-Safe Clock Monitor Enabled bit
  7860                           ;	FCMEN = OFF, Fail-Safe Clock Monitor is disabled
  7861                           ;	Low Voltage Programming Enable bit
  7862                           ;	LVP = OFF, RB3 pin has digital I/O, HV on MCLR must be used for programming
  7863                           ;	In-Circuit Debugger Mode bit
  7864                           ;	DEBUG = 0x1, unprogrammed default
  7865  2007                     	org	8199
  7866  2007  20D4               	dw	8404
  7867                           
  7868                           ;Config register CONFIG2 @ 0x2008
  7869                           ;	Brown-out Reset Selection bit
  7870                           ;	BOR4V = BOR40V, Brown-out Reset set to 4.0V
  7871                           ;	Flash Program Memory Self Write Enable bits
  7872                           ;	WRT = OFF, Write protection off
  7873  2008                     	org	8200
  7874  2008  3FFF               	dw	16383

Data Sizes:
    Strings     82
    Constant    0
    Data        0
    BSS         6
    Persistent  0
    Stack       0

Auto Spaces:
    Space          Size  Autos    Used
    COMMON           14     14      14
    BANK0            80     80      80
    BANK1            80     42      48
    BANK3            96      0       0
    BANK2            96      0       0

Pointer List with Targets:

    USART_WRITE@c	PTR unsigned char  size(1) Largest target is 24
		 -> STR_6(CODE[5]), STR_5(CODE[2]), STR_4(CODE[2]), STR_3(CODE[17]), 
		 -> STR_2(CODE[23]), STR_1(CODE[24]), 

    LCD_STRING8@a	PTR unsigned char  size(1) Largest target is 5
		 -> STR_12(CODE[2]), STR_11(CODE[2]), STR_10(CODE[5]), STR_9(CODE[2]), 
		 -> STR_8(CODE[2]), STR_7(CODE[4]), 


Critical Paths under _main in COMMON

    _setup->_USART_INIT
    _USART_INIT->___aldiv
    _LCD_INIT8->_LCD_COM8
    _USART_WRITE->_USART_CHAR
    _UNIDAD->___xxtofl
    _DECENA->___xxtofl
    ___wmul->___xxtofl
    ___flsub->___xxtofl
    ___awdiv->___xxtofl
    _CENTENA->___xxtofl
    ___fltol->___xxtofl
    ___flmul->___xxtofl
    ___fldiv->___xxtofl
    _LCD_XY8->_LCD_COM8
    _LCD_COM8->_LCD_PORT8
    _LCD_STRING8->_LCD_CHAR8
    _LCD_CHAR8->_LCD_PORT8
    _LCD_CLEAR8->_LCD_PORT8

Critical Paths under _main in BANK0

    _setup->_USART_INIT
    _USART_INIT->___aldiv
    _DECENA->___awdiv
    ___wmul->_CENTENA
    ___flsub->___wmul
    ___awdiv->___wmul
    _CENTENA->___fltol
    ___fltol->___fldiv
    ___fldiv->___flmul

Critical Paths under _main in BANK1

    _main->_UNIDAD
    _UNIDAD->_DECENA
    _DECENA->___awdiv
    ___awdiv->___flsub

Critical Paths under _main in BANK3

    None.

Critical Paths under _main in BANK2

    None.

Call Graph Tables:

 ---------------------------------------------------------------------------------
 (Depth) Function   	        Calls       Base Space   Used Autos Params    Refs
 ---------------------------------------------------------------------------------
 (0) _main                                                 3     3      0   45816
                                             39 BANK1      3     3      0
                           _ADC_READ
                            _CENTENA
                             _DECENA
                          _LCD_CHAR8
                         _LCD_CLEAR8
                        _LCD_STRING8
                            _LCD_XY8
                             _UNIDAD
                         _USART_CHAR
                         _USART_READ
                        _USART_WRITE
                              _setup
 ---------------------------------------------------------------------------------
 (1) _setup                                                1     1      0     934
                                             10 COMMON     1     1      0
                           _ADC_INIT
                          _LCD_INIT8
                         _OSCILLATOR
                         _USART_INIT
 ---------------------------------------------------------------------------------
 (2) _USART_INIT                                           8     6      2     748
                                              9 COMMON     1     1      0
                                              6 BANK0      7     5      2
                            ___aldiv
 ---------------------------------------------------------------------------------
 (3) ___aldiv                                             15     7      8     604
                                              0 COMMON     9     1      8
                                              0 BANK0      6     6      0
 ---------------------------------------------------------------------------------
 (2) _OSCILLATOR                                           3     3      0      22
                                              0 COMMON     3     3      0
 ---------------------------------------------------------------------------------
 (2) _LCD_INIT8                                            2     2      0      66
                                              4 COMMON     2     2      0
                           _LCD_COM8
                          _LCD_PORT8
 ---------------------------------------------------------------------------------
 (2) _ADC_INIT                                             2     0      2      98
                                              0 COMMON     2     0      2
 ---------------------------------------------------------------------------------
 (1) _USART_WRITE                                          2     2      0     265
                                              1 COMMON     2     2      0
                         _USART_CHAR
 ---------------------------------------------------------------------------------
 (2) _USART_CHAR                                           1     1      0      22
                                              0 COMMON     1     1      0
 ---------------------------------------------------------------------------------
 (1) _USART_READ                                           3     3      0       0
                                              0 COMMON     3     3      0
 ---------------------------------------------------------------------------------
 (1) _UNIDAD                                              15    15      0   25530
                                             24 BANK1     15    15      0
                            _CENTENA
                             _DECENA
                            ___flmul
                            ___flsub
                            ___fltol
                             ___wmul
                           ___xxtofl
 ---------------------------------------------------------------------------------
 (2) _DECENA                                              12    12      0   12957
                                             12 BANK1     12    12      0
                            _CENTENA
                            ___awdiv
                            ___flmul
                            ___flsub
                            ___fltol
                             ___wmul
                           ___xxtofl
 ---------------------------------------------------------------------------------
 (2) ___wmul                                               6     2      4     548
                                             69 BANK0      6     2      4
                            _CENTENA (ARG)
                            ___fltol (ARG)
                           ___xxtofl (ARG)
 ---------------------------------------------------------------------------------
 (2) ___flsub                                              8     0      8    2637
                                              0 BANK1      8     0      8
                            _CENTENA (ARG)
                            ___fladd
                            ___flmul (ARG)
                            ___fltol (ARG)
                             ___wmul (ARG)
                           ___xxtofl (ARG)
 ---------------------------------------------------------------------------------
 (3) ___fladd                                             20    12      8    2136
                                              0 COMMON    12     4      8
                                              0 BANK0      8     8      0
 ---------------------------------------------------------------------------------
 (3) ___awdiv                                              9     5      4     452
                                             75 BANK0      5     1      4
                                              8 BANK1      4     4      0
                            _CENTENA (ARG)
                            ___flmul (ARG)
                            ___flsub (ARG)
                            ___fltol (ARG)
                             ___wmul (ARG)
                           ___xxtofl (ARG)
 ---------------------------------------------------------------------------------
 (3) _CENTENA                                              6     6      0    5274
                                             63 BANK0      6     6      0
                            ___fldiv
                            ___flmul
                            ___fltol
                           ___xxtofl
 ---------------------------------------------------------------------------------
 (2) ___xxtofl                                            14    10      4     778
                                              0 COMMON    14    10      4
 ---------------------------------------------------------------------------------
 (2) ___fltol                                             11     7      4     457
                                             52 BANK0     11     7      4
                            ___fladd (ARG)
                            ___fldiv (ARG)
                            ___flmul (ARG)
                           ___xxtofl (ARG)
 ---------------------------------------------------------------------------------
 (2) ___flmul                                             26    18      8    2721
                                              0 BANK0     26    18      8
                          __Umul8_16
                           ___xxtofl (ARG)
 ---------------------------------------------------------------------------------
 (3) __Umul8_16                                            9     7      2     799
                                              0 COMMON     9     7      2
 ---------------------------------------------------------------------------------
 (4) ___fldiv                                             26    18      8    1273
                                             26 BANK0     26    18      8
                            ___flmul (ARG)
                           ___xxtofl (ARG)
 ---------------------------------------------------------------------------------
 (1) _LCD_XY8                                              2     1      1     436
                                              4 COMMON     2     1      1
                           _LCD_COM8
 ---------------------------------------------------------------------------------
 (3) _LCD_COM8                                             3     3      0      44
                                              1 COMMON     3     3      0
                          _LCD_PORT8
 ---------------------------------------------------------------------------------
 (1) _LCD_STRING8                                          3     3      0     332
                                              4 COMMON     3     3      0
                          _LCD_CHAR8
 ---------------------------------------------------------------------------------
 (2) _LCD_CHAR8                                            3     3      0      44
                                              1 COMMON     3     3      0
                          _LCD_PORT8
 ---------------------------------------------------------------------------------
 (1) _LCD_CLEAR8                                           0     0      0      22
                          _LCD_PORT8
 ---------------------------------------------------------------------------------
 (3) _LCD_PORT8                                            1     1      0      22
                                              0 COMMON     1     1      0
 ---------------------------------------------------------------------------------
 (1) _ADC_READ                                             4     2      2       0
                                              0 COMMON     4     2      2
 ---------------------------------------------------------------------------------
 Estimated maximum stack depth 4
 ---------------------------------------------------------------------------------

 Call Graph Graphs:

 _main (ROOT)
   _ADC_READ
   _CENTENA
     ___fldiv
       ___flmul (ARG)
         __Umul8_16
         ___xxtofl (ARG)
       ___xxtofl (ARG)
     ___flmul
     ___fltol
       ___fladd (ARG)
       ___fldiv (ARG)
       ___flmul (ARG)
       ___xxtofl (ARG)
     ___xxtofl
   _DECENA
     _CENTENA
     ___awdiv
       _CENTENA (ARG)
       ___flmul (ARG)
       ___flsub (ARG)
         _CENTENA (ARG)
         ___fladd (ARG)
         ___flmul (ARG)
         ___fltol (ARG)
         ___wmul (ARG)
           _CENTENA (ARG)
           ___fltol (ARG)
           ___xxtofl (ARG)
         ___xxtofl (ARG)
       ___fltol (ARG)
       ___wmul (ARG)
       ___xxtofl (ARG)
     ___flmul
     ___flsub
     ___fltol
     ___wmul
     ___xxtofl
   _LCD_CHAR8
     _LCD_PORT8
   _LCD_CLEAR8
     _LCD_PORT8
   _LCD_STRING8
     _LCD_CHAR8
   _LCD_XY8
     _LCD_COM8
       _LCD_PORT8
   _UNIDAD
     _CENTENA
     _DECENA
     ___flmul
     ___flsub
     ___fltol
     ___wmul
     ___xxtofl
   _USART_CHAR
   _USART_READ
   _USART_WRITE
     _USART_CHAR
   _setup
     _ADC_INIT
     _LCD_INIT8
       _LCD_COM8
       _LCD_PORT8
     _OSCILLATOR
     _USART_INIT
       ___aldiv

 Address spaces:
Name               Size   Autos  Total    Cost      Usage
BITCOMMON            E      0       0       0        0.0%
EEDATA             100      0       0       0        0.0%
NULL                 0      0       0       0        0.0%
CODE                 0      0       0       0        0.0%
COMMON               E      E       E       1      100.0%
BITSFR0              0      0       0       1        0.0%
SFR0                 0      0       0       1        0.0%
BITSFR1              0      0       0       2        0.0%
SFR1                 0      0       0       2        0.0%
STACK                0      0       0       2        0.0%
ABS                  0      0      8E       3        0.0%
BITBANK0            50      0       0       4        0.0%
BITSFR3              0      0       0       4        0.0%
SFR3                 0      0       0       4        0.0%
BANK0               50     50      50       5      100.0%
BITSFR2              0      0       0       5        0.0%
SFR2                 0      0       0       5        0.0%
BITBANK1            50      0       0       6        0.0%
BANK1               50     2A      30       7       60.0%
BITBANK3            60      0       0       8        0.0%
BANK3               60      0       0       9        0.0%
BITBANK2            60      0       0      10        0.0%
BANK2               60      0       0      11        0.0%
DATA                 0      0      8E      12        0.0%


Microchip Technology PIC Macro Assembler V2.35 build 20211206165544 
Symbol Table                                                                                   Sun Jul 23 18:21:41 2023

           ___fldiv@aexp 0053             ___fldiv@bexp 0052                        pc 0002  
           ___fldiv@sign 004B                       l11 1675                       l14 001D  
                     l23 16D7                       l17 0869                       l50 0992  
                     l26 08DE                       l35 173F                       l60 176C  
                     l29 16BB                       l53 0D65                       l62 1770  
                     l70 17B2                       l63 1774                       l56 0E77  
                     l80 0ABE                       l64 1778                       l81 0AC5  
                     l65 177C                       l82 0ACC                       l90 0B35  
                     l74 0A9B                       l66 1780                       l83 0AD3  
                     l67 1784                       l84 0ADA                       l76 0AA2  
                     l68 1788                       l93 167F                       l85 0AE1  
                     l77 0AA9                       l69 178C                       l86 0AE8  
                     l78 0AB0                       l87 0AEF                       l79 0AB7  
                     l88 0AF6                       l89 0AFD             ___awdiv@sign 00A9  
                     fsr 0004      ___wmul@multiplicand 0067      __Umul8_16@word_mpld 0076  
                    l130 1681                      l133 168B                      l311 0878  
                    l143 16A1                      l127 0937                      l313 0890  
                    l225 17FF                      l139 16F6                      l219 0F4A  
                    l504 09F9                      l610 02DC                      l507 0A0E  
                    l700 07F3                      l604 025E                      l712 07E7  
                    l464 0A99                      l608 0307                      l376 0B4A  
                    l721 1766                      l625 03D8                      l617 0492  
                    l706 075F                      l650 171A                      l386 0BD2  
                    l635 0420                      l660 007A                      l629 03FE  
                    l662 01FA                      l750 0C3A                      l646 0484  
                    l638 0460                      l719 1754                      l647 0492  
                    l744 0BF5                      l497 0A0E                      l682 01DE  
                    l746 0C8C                      l684 01EE                      l676 016C  
                    l757 0C56                      l758 0C62                      _RC0 0038  
                    _RC1 0039                      _POT 00CE                      fsr0 0004  
        __end_of_CENTENA 0993             ___flmul@aexp 0032             ___flmul@bexp 0033  
           ___flmul@sign 002D             ___flmul@temp 0038             ___flmul@prod 0034  
        __end_of_LCD_XY8 16D8             ___fltol@exp1 005E                     l2001 0349  
                   l2011 03B0                     l2003 034A                     l2101 0052  
                   l2021 03E5                     l2013 03B6                     l2005 0355  
                   l2111 0067                     l2103 0058                     l2031 0402  
                   l2015 03BB                     l2007 035A                     l2201 01B4  
                   l2121 008E                     l2113 006F                     l2105 005C  
                   l2033 0405                     l2025 03EE                     l2009 0370  
                   l2017 03CA                     l2041 0412                     l2211 01E4  
                   l2203 01C2                     l2123 0092                     l2115 0070  
                   l2107 005D                     l2051 0425                     l2043 0413  
                   l2035 0407                     l2027 03F9                     l2019 03E0  
                   l2213 01E8                     l2205 01D1                     l2141 00D3  
                   l2133 00A9                     l2109 0062                     l2117 0072  
                   l2301 06E3                     l2221 0493                     l2061 0465  
                   l2053 042A                     l2045 0417                     l2037 040C  
                   l2029 03FD                     l2215 01EA                     l2207 01D5  
                   l2151 00F1                     l2143 00D5                     l2135 00BB  
                   l2119 0082                     l2127 009B                     l2311 072F  
                   l2303 070B                     l2231 04AA                     l2223 049A  
                   l2071 047C                     l2063 046A                     l2055 0438  
                   l2047 041D                     l2039 040E                     l2209 01DD  
                   l2145 00DA                     l2153 00FA                     l2161 011F  
                   l2137 00C3                     l2129 00A0                     l2081 0025  
                   l2321 0744                     l2313 0730                     l2305 0714  
                   l2241 04C6                     l2233 04AF                     l2225 04A0  
                   l2401 0C84                     l2073 047E                     l2065 0472  
                   l2057 043C                     l2411 0011                     l2171 013C  
                   l2163 0125                     l2155 010C                     l2147 00EC  
                   l2139 00CB                     l2091 003A                     l2083 002B  
                   l2331 0769                     l2323 0748                     l2315 0739  
                   l2307 0722                     l2251 04DB                     l2243 04CC  
                   l2235 04B7                     l2227 04A4                     l2075 048D  
                   l2067 0477                     l2059 045C                     l2413 001A  
                   l2405 0005                     l2181 0151                     l2173 013D  
                   l2165 012D                     l2157 010D                     l2149 00F0  
                   l2093 0042                     l2085 002F                     l2341 07A7  
                   l2333 0777                     l2325 075C                     l2309 072B  
                   l2317 073F                     l2261 04F7                     l2253 04E3  
                   l2245 04D0                     l2237 04B9                     l2229 04A5  
                   l2501 0A55                     l2077 0491                     l2069 0478  
                   l2421 086A                     l2407 0008                     l2191 0176  
                   l2183 0155                     l2175 0146                     l2167 012F  
                   l2159 011B                     l2095 0043                     l2087 0030  
                   l2079 001E                     l2351 07DB                     l2343 07B2  
                   l2335 077B                     l2319 0743                     l2271 053A  
                   l2255 04E5                     l2247 04D1                     l2239 04C1  
                   l2415 093B                     l2503 0A6A                     l2511 0A83  
                   l2431 088C                     l2423 086E                     l2409 000E  
                   l2601 16BD                     l2193 0184                     l2185 0169  
                   l2169 0138                     l2177 014C                     l2089 0035  
                   l2097 0045                     l2353 07DF                     l2345 07C1  
                   l2337 0794                     l2329 0764                     l2281 05C3  
                   l2273 0556                     l2265 0500                     l2257 04ED  
                   l2249 04D6                     l2361 0BD4                     l2417 0991  
                   l2513 0A8A                     l2505 0A70                     l2521 16FB  
                   l2425 0872                     l2441 0B4E                     l2611 171F  
                   l2603 16C2                     l2195 0188                     l2179 0150  
                   l2099 004D                     l2355 07E0                     l2347 07CB  
                   l2339 079A                     l2291 0636                     l2283 05D3  
                   l2275 0582                     l2267 0510                     l2259 04F2  
                   l2363 0BD9                     l2515 0A8F                     l2507 0A73  
                   l2427 087F                     l2531 08A3                     l2451 0B70  
                   l2443 0B59                     l2435 0B36                     l2541 16AC  
                   l2613 172C                     l2605 16CA                     l2197 01A1  
                   l2189 0171                     l2357 07EB                     l2349 07CD  
                   l2293 0653                     l2285 05F0                     l2277 059E  
                   l2269 051D                     l2381 0C23                     l2373 0C06  
                   l2365 0BDD                     l2509 0A7B                     l1901 0220  
                   l2429 0886                     l2533 08B2                     l2525 0891  
                   l2461 0BAA                     l2453 0B7D                     l2445 0B5D  
                   l2437 0B39                     l2701 0E89                     l2623 1676  
                   l2543 16AF                     l2615 1732                     l2607 16D0  
                   l2199 01A7                     l2295 0680                     l2287 0600  
                   l2279 05BA                     l2391 0C5A                     l2383 0C31  
                   l2375 0C0B                     l2367 0BED                     l1911 0236  
                   l1903 0222                     l2519 16F7                     l2631 16E6  
                   l2535 08B8                     l2527 0897                     l2471 0BCA  
                   l2463 0BAB                     l2455 0B81                     l2447 0B65  
                   l2439 0B3D                     l2711 0EBA                     l2703 0E94  
                   l2545 16B8                     l2537 16A3                     l2609 171C  
                   l1841 175D                     l1833 1741                     l2297 0690  
                   l2289 061D                     l2393 0C64                     l2385 0C41  
                   l2377 0C18                     l2369 0BFD                     l2481 0A1D  
                   l1921 024B                     l1913 023C                     l1905 022A  
                   l2617 0D69                     l2641 1694                     l2633 16EA  
                   l2529 089A                     l2553 1768                     l2465 0BB4  
                   l2457 0B8A                     l2449 0B6D                     l2721 0ED6  
                   l2713 0EBE                     l2705 0E97                     l2539 16A6  
                   l1843 1762                     l1835 1743                     l2299 06BD  
                   l1851 09A0                     l2395 0C7A                     l2387 0C4C  
                   l2379 0C1F                     l2491 0A35                     l2483 0A21  
                   l2475 0A0F                     l1931 0268                     l1923 0253  
                   l1915 0240                     l1907 022F                     l2547 0C90  
                   l2619 0E76                     l2635 168C                     l2627 16D9  
                   l2563 0A9A                     l2459 0B9C                     l2467 0BBA  
                   l2651 17BC                     l2643 17B3                     l2731 0EF0  
                   l2723 0EDD                     l2715 0EC2                     l2707 0EA4  
                   l1837 174A                     l1861 09C7                     l2397 0C7F  
                   l2389 0C50                     l2493 0A3D                     l2485 0A26  
                   l2477 0A12                     l1941 027C                     l1933 026C  
                   l1925 0254                     l1917 0241                     l1909 0235  
                   l2549 0D64                     l2637 1692                     l2629 16DA  
                   l2557 1790                     l2469 0BBF                     l2581 0921  
                   l2573 08DF                     l2661 17D6                     l2653 17C3  
                   l2645 17B7                     l2741 0F19                     l2733 0EFF  
                   l2725 0EE3                     l2717 0EC6                     l2709 0EAF  
                   l1847 1671                     l1839 174E                     l1871 09D5  
                   l1863 09C9                     l1855 09A9                     l2399 0C83  
                   l2495 0A42                     l2487 0A2B                     l2479 0A18  
                   l1951 0290                     l1943 0280                     l1935 0270  
                   l1919 0246                     l1927 0256                     l2567 0B04  
                   l2831 1798                     l2591 0931                     l2583 0927  
                   l2575 091A                     l2671 17E4                     l2663 17D9  
                   l2655 17C9                     l2647 17B8                     l2751 0F3B  
                   l2743 0F1F                     l2735 0F05                     l2727 0EE7  
                   l2719 0ED0                     l1881 09FE                     l1865 09CD  
                   l1873 09E7                     l1857 09BE                     l1849 0993  
                   l2497 0A49                     l2489 0A31                     l1961 02A4  
                   l1953 0294                     l1945 0284                     l1937 0274  
                   l1929 0264                     l2833 0B09                     l2593 0934  
                   l2585 0928                     l2577 091D                     l2681 17ED  
                   l2673 17E7                     l2665 17DA                     l2657 17D2  
                   l2649 17BB                     l2761 0F83                     l2753 0F57  
                   l2745 0F27                     l2737 0F0B                     l2729 0EEA  
                   l1883 0A03                     l1859 09BF                     l2499 0A4F  
                   l1971 02EB                     l1955 0298                     l1947 0288  
                   l1939 0278                     l1963 02A8                     l1891 020C  
                   l2595 1681                     l2587 092B                     l2579 091E  
                   l2683 17EE                     l2675 17EA                     l2667 17DD  
                   l2659 17D5                     l2771 0FB4                     l2763 0F89  
                   l2755 0F5D                     l2747 0F2F                     l2739 0F11  
                   l1973 02ED                     l1981 0301                     l1965 02A9  
                   l1957 029C                     l1949 028C                     l1893 020D  
                   l1885 01FB                     l2597 1687                     l2589 092E  
                   l2685 17EF                     l2677 17EB                     l2669 17E0  
                   l2781 0FD8                     l2773 0FB8                     l2765 0F96  
                   l2757 0F65                     l2749 0F35                     l2599 085D  
                   l1879 09EE                     l1991 0330                     l1983 030B  
                   l1975 02F1                     l1967 02C0                     l1959 02A0  
                   l1895 0212                     l1887 0202                     l2687 17F4  
                   l2679 17EC                     l2783 0FE0                     l2775 0FBC  
                   l2767 0FA3                     l2759 0F6D                     l2695 0E78  
                   l1993 0334                     l1985 0310                     l1977 02F2  
                   l1969 02E0                     l1897 0217                     l1889 0208  
                   l2785 0FE6                     l2777 0FC6                     l2769 0FB0  
                   l2697 0E7D                     l1995 0338                     l1979 02FD  
                   l1899 021F                     l2787 0FEE                     l2779 0FCC  
                   l2699 0E83                     l1997 0343                     l1989 0319  
                   l2789 0FF6                     l1999 0345                     STR_1 0806  
                   STR_2 081E                     STR_3 0835                     STR_4 0854  
                   STR_5 0856                     STR_6 0846                     STR_7 0850  
                   STR_8 0854                     STR_9 0856                     u2000 02C0  
                   u2001 02BF                     u2010 02C9                     u2011 02C7  
                   u2100 0334                     u2020 02CA                     u2101 0333  
                   u2005 02BC                     u2110 0338                     u2030 02E0  
                   u2111 0337                     u2031 02DF                     u3000 07A7  
                   u2120 0349                     u2040 02F1                     u3001 07A6  
                   u2121 0348                     u2041 02F0                     u3010 07C1  
                   u2210 03FD                     u3011 07C0                     u2211 03FC  
                   u3020 07DF                     u2300 044D                     u2220 0402  
                   u2140 0370                     u2060 0307                     u3021 07DE  
                   u3005 07A3                     u2221 0401                     u2205 03F2  
                   u2141 036F                     u2061 0306                     u3110 0C50  
                   u3030 0BD9                     u2310 045C                     u2230 040C  
                   u2070 030B                     u3015 07BD                     u3111 0C4F  
                   u3031 0BD8                     u2311 045B                     u2231 040B  
                   u2151 0389                     u2143 036C                     u2135 034E  
                   u2071 030A                     u2055 02F6                     u2400 005C  
                   u3120 0C56                     u3040 0BDD                     u2320 0465  
                   u2240 0412                     u2160 039D                     u2152 038A  
                   u2080 0310                     u3200 088C                     u2401 005B  
                   u3121 0C55                     u3105 0C45                     u3041 0BDC  
                   u2321 0464                     u2305 0448                     u2241 0411  
                   u2161 039E                     u2153 038F                     u2081 030F  
                   u3201 088B                     u2410 0062                     u3130 0C5A  
                   u3050 0BFD                     u2330 046A                     u2250 0417  
                   u2170 03BB                     u2162 03A3                     u2154 0390  
                   u3210 0B3D                     u2411 0061                     u3131 0C59  
                   u3051 0BFC                     u2331 0469                     u2251 0416  
                   u2171 03BA                     u2163 03A4                     u2155 0395  
                   u2091 0322                     u3211 0B3C                     u2500 010C  
                   u2420 0067                     u3140 0C6F                     u2340 0477  
                   u2260 041D                     u2180 03E0                     u2156 0396  
                   u2092 0329                     u3300 0BBF                     u3220 0B4E  
                   u2501 010B                     u2421 0066                     u2341 0476  
                   u2261 041C                     u2181 03DF                     u2093 0330  
                   u3301 0BBE                     u3221 0B4D                     u2510 0125  
                   u2430 0082                     u3150 0C7F                     u3070 0C1E  
                   u3310 0A18                     u2350 047C                     u2270 0424  
                   u2190 03E5                     u3230 0B6D                     u2511 0124  
                   u2431 0081                     u3151 0C7E                     u3071 0C1D  
                   u3311 0A17                     u2351 047B                     u2271 0423  
                   u2191 03E4                     u3231 0B6C                     u2600 0176  
                   u2520 012D                     u2440 00A0                     u1800 1762  
                   u3160 0C83                     u3400 0A8A                     u3320 0A26  
                   u2360 0491                     u2280 042A                     u2601 0175  
                   u2521 012C                     u2505 0108                     u2441 009F  
                   u1801 1761                     u3161 0C82                     u3145 0C6A  
                   u3065 0C10                     u3401 0A89                     u3321 0A25  
                   u2361 0490                     u2281 0429                     u2610 0188  
                   u2450 00DA                     u2370 002F                     u1810 09A0  
                   u3090 0C40                     u3330 0A3D                     u2290 043C  
                   u3170 0872                     u3410 1687                     u3250 0B81  
                   u2611 0187                     u2451 00D9                     u2371 002E  
                   u1811 099F                     u3091 0C3F                     u3331 0A3C  
                   u2291 043B                     u3171 0871                     u3411 1686  
                   u3251 0B80                     u3420 16C2                     u2620 0197  
                   u2540 013C                     u2380 0035                     u2700 04D6  
                   u1900 0A03                     u1820 09B7                     u3500 0EF0  
                   u3421 16C1                     u2541 013B                     u2381 0034  
                   u2701 04D5                     u1901 0A02                     u3085 0C32  
                   u3245 0B72                     u3501 0EEF                     u3430 16D0  
                   u2630 01B4                     u2390 003A                     u2710 04DB  
                   u1830 09CD                     u3350 0A55                     u1910 020C  
                   u3270 0B9C                     u3431 16CF                     u2631 01B3  
                   u2535 0131                     u2391 0039                     u2711 04DA  
                   u1831 09CC                     u3351 0A54                     u1911 020B  
                   u3271 0B9B                     u3440 173F                     u2640 01D1  
                   u2560 0150                     u2480 00F0                     u2720 04F2  
                   u1840 09D4                     u1920 0212                     u3441 173E  
                   u2641 01D0                     u2625 0192                     u2561 014F  
                   u2481 00EF                     u2465 00DC                     u2801 060F  
                   u2721 04F1                     u1841 09D3                     u1825 09B2  
                   u3345 0A43                     u1921 0211                     u3185 0879  
                   u3265 0B83                     u2650 01E8                     u2570 0155  
                   u2802 0616                     u2730 04F7                     u3370 0A6A  
                   u1930 0217                     u3450 16F6                     u3290 0BBA  
                   u2651 01E7                     u2635 01B0                     u2571 0154  
                   u2555 013F                     u2475 00E5                     u2803 061D  
                   u2731 04F6                     u3371 0A69                     u1931 0216  
                   u3195 0880                     u3451 16F5                     u3291 0BB9  
                   u3275 0B98                     u2580 0169                     u1780 174E  
                   u2660 04A4                     u1860 09E6                     u1940 0235  
                   u3460 1692                     u2645 01CD                     u2581 0168  
                   u1781 174D                     u2821 0645                     u2741 0548  
                   u2661 04A3                     u1861 09E5                     u3365 0A58  
                   u1941 0234                     u3461 1691                     u3285 0BAC  
                   u3517 0EF8                     u2590 0170                     u2910 072F  
                   u2822 064C                     u2742 054F                     u2670 04AA  
                   u1870 09ED                     u3390 0A83                     u1950 0240  
                   u3470 0E89                     u2591 016F                     u2495 00F3  
                   u2911 072E                     u2831 0672                     u2823 0653  
                   u2815 061F                     u2751 0564                     u2743 0556  
                   u2671 04A9                     u1871 09EC                     u1855 09D6  
                   u3391 0A82                     u3375 0A66                     u1951 023F  
                   u3527 0F43                     u3471 0E88                     u2832 0679  
                   u2752 056B                     u2680 04AF                     u1960 0246  
                   u3480 0ED6                     u2905 0724                     u2841 069F  
                   u2833 0680                     u2761 0590                     u2753 0572  
                   u2681 04AE                     u3385 0A75                     u1961 0245  
                   u3537 17E2                     u3481 0ED5                     u2930 0743  
                   u2850 06C9                     u2842 06A6                     u2762 0597  
                   u2690 04D0                     u1890 09FE                     u1970 024B  
                   u3490 0EE3                     u1795 1755                     u2931 0742  
                   u2843 06AD                     u2771 05AC                     u2763 059E  
                   u2691 04CF                     u1891 09FD                     u1971 024A  
                   u3547 089E                     u3491 0EE2                     u2940 0748  
                   u2772 05B3                     u1980 0264                     u2941 0747  
                   u2925 0732                     u2861 06D5                     u2773 05BA  
                   u1885 09F0                     u1981 0263                     u3557 08AD  
                   u2950 075C                     u2870 06F1                     u2862 06DC  
                   u1990 0268                     u2951 075B                     u2863 06E3  
                   u2855 06C4                     u2791 05E2                     u1991 0267  
                   u3567 08BC                     u2960 0763                     u2792 05E9  
                   u2961 0762                     u2881 06FD                     u2793 05F0  
                   u2785 05BC                     u3577 169A                     u2970 0769  
                   u2882 0704                     u3587 0015                     u2971 0768  
                   u2883 070B                     u2875 06EC                     u2980 077B  
                   u3597 16B3                     u2981 077A                     u2990 078A  
                   u2895 070D                     u2995 0785         __end_of_ADC_INIT 0B36  
       __end_of_ADC_READ 1680                     _cont 00CD                     _main 0E78  
                   btemp 007E                     start 0000              ?_OSCILLATOR 0070  
        ___fldiv@new_exp 004C             LCD_STRING8@a 0076             LCD_STRING8@i 0074  
       __end_of_LCD_COM8 001E            ___fltol@sign1 005D          __end_of___aldiv 0BD3  
        __end_of___fladd 0493                    ?_main 0070          __end_of___fldiv 01FB  
        __end_of___awdiv 0A9A                    STR_10 084B                    STR_11 0854  
                  STR_12 0856          __end_of___flmul 07F4          __end_of___flsub 171B  
        __end_of___fltol 0A0F                    _ANSEL 0188          ___awdiv@divisor 006B  
        ___awdiv@counter 00A8                    _RCREG 001A             USART_WRITE@c 0072  
                  _SPBRG 0099                    _PORTA 0005                    _PORTC 0007  
                  _PORTD 0008                    _TRISA 0085                    _TRISC 0087  
                  _TRISD 0088                    _TXREG 0019                    _setup 17B3  
                  pclath 000A                    status 0003                    wtemp0 007E  
            ?_USART_CHAR 0070              ?_USART_INIT 0026              ?_USART_READ 0070  
        __initialization 07F4             __end_of_main 1000        __end_of_LCD_CHAR8 16BC  
              ??_CENTENA 005F        __end_of_LCD_INIT8 08DF        __end_of_LCD_PORT8 1676  
                 ??_main 00C7                ??_LCD_XY8 0075                ADC_INIT@c 0070  
                 _DECENA 0C8D                   _ADRESH 001E         ___awdiv@dividend 006D  
                 ?_setup 0070                   _ANSELH 0189                   _SPBRGH 009A  
                 _UNIDAD 0D66         __end_of___xxtofl 0C8D                ??___aldiv 0078  
              ??___fladd 0020                   ___wmul 086A                ??___fldiv 0042  
              ??___awdiv 006F                   _decena 00CB                ??___flmul 0028  
              ??___flsub 007E                ??___fltol 0058         ___awdiv@quotient 00AA  
                 _unidad 00CC                ?_ADC_INIT 0070                ?_ADC_READ 0070  
              LCD_COM8@a 0073                ?_LCD_COM8 0070             ___xxtofl@arg 007A  
           ___xxtofl@exp 0079             ___xxtofl@val 0070  __end_of__initialization 07FC  
           ??_LCD_CLEAR8 0071             ?_USART_WRITE 0070               ___fltol@f1 0054  
         __pcstackCOMMON 0070              OSCILLATOR@f 0072            __end_of_setup 1800  
                DECENA@c 00B7               ??_ADC_INIT 0072               ??_ADC_READ 0072  
     __end_of_LCD_CLEAR8 086A           USART_INIT@BAUD 0026                  ?_DECENA 0070  
                ??_setup 007A               __pbssBANK1 00CA               ??_LCD_COM8 0071  
                ?_UNIDAD 0070             ??_OSCILLATOR 0070        __end_of__Umul8_16 1767  
             __pmaintext 0E78                  UNIDAD@c 00C6                  ?___wmul 0065  
                _CENTENA 0938                  _LCD_XY8 16BC                ?___xxtofl 0070  
     __end_of_OSCILLATOR 17B3               __stringtab 0800             ??_USART_CHAR 0070  
           ??_USART_INIT 0079             ??_USART_READ 0070                  ___aldiv 0B36  
                ___fladd 01FB                  ___fldiv 001E                  ___awdiv 0A0F  
                ___flmul 0493                  ___flsub 16F7                  ___fltol 0993  
                _centena 00CA                  __ptext1 17B3                  __ptext2 08DF  
                __ptext3 0B36                  __ptext4 1767                  __ptext5 0891  
                __ptext6 0A9A                  __ptext7 16D8                  __ptext8 1680  
                __ptext9 168C                _LCD_CHAR8 16A2               ??___xxtofl 0074  
                _old_pot 00CF                _LCD_INIT8 0891         ___aldiv@dividend 0074  
              _LCD_PORT8 1670       __end_of_USART_CHAR 168C       __end_of_USART_INIT 0938  
     __end_of_USART_READ 16A2     end_of_initialization 07FC                _RCSTAbits 0018  
       ___aldiv@quotient 0022               LCD_CHAR8@a 0073               ?_LCD_CHAR8 0070  
            ___fladd@grs 007B               ?_LCD_INIT8 0070            ___xxtofl@sign 0078  
             ?_LCD_PORT8 0070              ___fldiv@grs 004E              ___fldiv@rem 0047  
             LCD_PORT8@a 0070           __end_of_DECENA 0D66              ___flmul@grs 002E  
            _DECENA$1084 00B3                _TXSTAbits 0098           __end_of_UNIDAD 0E78  
          ??_LCD_STRING8 0074              USART_CHAR@d 0070              USART_INIT@n 002C  
         __end_of___wmul 0891              _BAUDCTLbits 0187      start_initialization 07F4  
               ??_DECENA 00AC                 ??_UNIDAD 00B8                 CENTENA@c 0064  
               ??___wmul 007E                __Umul8_16 1740      __end_of_LCD_STRING8 1740  
               ?_CENTENA 0070                ___fladd@a 0074                ___fladd@b 0070  
               ?_LCD_XY8 0074                ___fldiv@a 003A                ___fldiv@b 003E  
            ??_LCD_CHAR8 0071              ??_LCD_INIT8 0074                ___flmul@a 0024  
              ___flmul@b 0020                ___flsub@a 00A0                ___flsub@b 00A4  
               LCD_XY8@x 0075                 LCD_XY8@y 0074                ___latbits 0002  
            ??_LCD_PORT8 0070            __pcstackBANK0 0020            __pcstackBANK1 00A0  
               ?___aldiv 0070                 ?___fladd 0070                 ?___fldiv 003A  
               ?___awdiv 006B                 ?___flmul 0020                 ?___flsub 00A0  
               ?___fltol 0054               ?__Umul8_16 0070                __pstrings 0800  
               _ADC_INIT 0A9A                 _ADC_READ 1676                 _LCD_COM8 0004  
        ___aldiv@divisor 0070          ___aldiv@counter 0020           ___wmul@product 0069  
               _PIR1bits 000C              _LCD_STRING8 171B          _USART_INIT$1088 0028  
             _ADCON0bits 001F              __stringbase 0805               _ADCON1bits 009F  
      ___wmul@multiplier 0065            ??_USART_WRITE 0071              ??__Umul8_16 0072  
     __end_of__stringtab 0806                 ___xxtofl 0BD3                 __ptext10 0D66  
               __ptext11 0C8D                 __ptext20 1740                 __ptext12 086A  
               __ptext21 001E                 __ptext13 16F7                 __ptext22 16BC  
               __ptext14 01FB                 __ptext23 0004                 __ptext15 0A0F  
               __ptext24 171B                 __ptext16 0938                 __ptext25 16A2  
               __ptext17 0BD3                 __ptext26 085D                 __ptext18 0993  
               __ptext27 1670                 __ptext19 0493                 __ptext28 1676  
             _LCD_CLEAR8 085D      __end_of_USART_WRITE 16F7              _UNIDAD$1085 00BC  
            _UNIDAD$1086 00C4              _UNIDAD$1087 00C0               _OSCILLATOR 1767  
              stringcode 0800               _OSCCONbits 008F   __Umul8_16@multiplicand 0070  
               stringdir 0800                 stringtab 0800             ___aldiv@sign 0021  
          ___fladd@signs 0078             ___fladd@aexp 0079             ___fladd@bexp 007A  
            ?_LCD_CLEAR8 0070     __Umul8_16@multiplier 0078              _USART_WRITE 16D8  
             _USART_CHAR 1680               _USART_INIT 08DF               _USART_READ 168C  
           ?_LCD_STRING8 0070        __Umul8_16@product 0074  
