

Microchip MPLAB XC8 Assembler V2.35 build 20211206165544 
                                                                                               Sun Aug 06 13:33:49 2023

Microchip MPLAB XC8 C Compiler v2.35 (Free license) build 20211206165544 Og1 
     1                           	processor	16F887
     2                           	pagewidth 120
     3                           	opt	flic
     4                           	psect	idataBANK1,global,class=CODE,delta=2,noexec
     5                           	psect	idataBANK3,global,class=CODE,delta=2,noexec
     6                           	psect	strings,global,class=STRING,delta=2,noexec
     7                           	psect	cinit,global,class=CODE,merge=1,delta=2
     8                           	psect	bssCOMMON,global,class=COMMON,space=1,delta=1,noexec
     9                           	psect	bssBANK1,global,class=BANK1,space=1,delta=1,noexec
    10                           	psect	dataBANK1,global,class=BANK1,space=1,delta=1,noexec
    11                           	psect	dataBANK3,global,class=BANK3,space=1,delta=1,noexec
    12                           	psect	inittext,global,class=CODE,delta=2
    13                           	psect	cstackBANK1,global,class=BANK1,space=1,delta=1,noexec
    14                           	psect	cstackCOMMON,global,class=COMMON,space=1,delta=1,noexec
    15                           	psect	cstackBANK0,global,class=BANK0,space=1,delta=1,noexec
    16                           	psect	maintext,global,class=CODE,split=1,delta=2
    17                           	psect	text1,local,class=CODE,merge=1,delta=2
    18                           	psect	text2,local,class=CODE,merge=1,delta=2
    19                           	psect	text3,local,class=CODE,merge=1,delta=2
    20                           	psect	text4,local,class=CODE,merge=1,delta=2
    21                           	psect	text5,local,class=CODE,merge=1,delta=2
    22                           	psect	text6,local,class=CODE,merge=1,delta=2,group=1
    23                           	psect	text7,local,class=CODE,merge=1,delta=2
    24                           	psect	text8,local,class=CODE,merge=1,delta=2
    25                           	psect	text9,local,class=CODE,merge=1,delta=2,group=1
    26                           	psect	text10,local,class=CODE,merge=1,delta=2,group=1
    27                           	psect	text11,local,class=CODE,merge=1,delta=2,group=1
    28                           	psect	text12,local,class=CODE,merge=1,delta=2
    29                           	psect	text13,local,class=CODE,merge=1,delta=2,group=1
    30                           	psect	text14,local,class=CODE,merge=1,delta=2,group=1
    31                           	psect	text15,local,class=CODE,merge=1,delta=2,group=1
    32                           	psect	text16,local,class=CODE,merge=1,delta=2,group=1
    33                           	psect	text17,local,class=CODE,merge=1,delta=2,group=1
    34                           	psect	text18,local,class=CODE,merge=1,delta=2
    35                           	psect	text19,local,class=CODE,merge=1,delta=2
    36                           	psect	text20,local,class=CODE,merge=1,delta=2
    37                           	psect	text21,local,class=CODE,merge=1,delta=2
    38                           	psect	text22,local,class=CODE,merge=1,delta=2
    39                           	psect	text23,local,class=CODE,merge=1,delta=2
    40                           	psect	text24,local,class=CODE,merge=1,delta=2
    41                           	psect	text25,local,class=CODE,merge=1,delta=2
    42                           	psect	text26,local,class=CODE,merge=1,delta=2
    43                           	psect	text27,local,class=CODE,merge=1,delta=2
    44                           	psect	text28,local,class=CODE,merge=1,delta=2,group=1
    45                           	psect	text29,local,class=CODE,merge=1,delta=2
    46                           	psect	text30,local,class=CODE,merge=1,delta=2
    47                           	psect	text31,local,class=CODE,merge=1,delta=2
    48                           	psect	text32,local,class=CODE,merge=1,delta=2
    49                           	psect	text33,local,class=CODE,merge=1,delta=2
    50                           	psect	text34,local,class=CODE,merge=1,delta=2
    51                           	psect	text35,local,class=CODE,merge=1,delta=2
    52                           	psect	text36,local,class=CODE,merge=1,delta=2
    53                           	psect	text37,local,class=CODE,merge=1,delta=2
    54                           	psect	text38,local,class=CODE,merge=1,delta=2
    55                           	psect	text39,local,class=CODE,merge=1,delta=2,group=1
    56                           	psect	text40,local,class=CODE,merge=1,delta=2,group=1
    57                           	psect	text41,local,class=CODE,merge=1,delta=2
    58                           	psect	intentry,global,class=CODE,delta=2
    59                           	psect	text42,local,class=CODE,merge=1,delta=2
    60                           	psect	idloc,global,abs,ovrld,class=IDLOC,space=5,delta=2,noexec
    61                           	psect	config,global,abs,ovrld,class=CONFIG,space=4,delta=2,noexec
    62                           	dabs	1,0x7E,2
    63  0000                     
    64                           ; Version 2.40
    65                           ; Generated 17/11/2021 GMT
    66                           ; 
    67                           ; Copyright © 2021, Microchip Technology Inc. and its subsidiaries ("Microchip")
    68                           ; All rights reserved.
    69                           ; 
    70                           ; This software is developed by Microchip Technology Inc. and its subsidiaries ("Microch
      +                          ip").
    71                           ; 
    72                           ; Redistribution and use in source and binary forms, with or without modification, are
    73                           ; permitted provided that the following conditions are met:
    74                           ; 
    75                           ;     1. Redistributions of source code must retain the above copyright notice, this lis
      +                          t of
    76                           ;        conditions and the following disclaimer.
    77                           ; 
    78                           ;     2. Redistributions in binary form must reproduce the above copyright notice, this 
      +                          list
    79                           ;        of conditions and the following disclaimer in the documentation and/or other
    80                           ;        materials provided with the distribution. Publication is not required when
    81                           ;        this file is used in an embedded application.
    82                           ; 
    83                           ;     3. Microchip's name may not be used to endorse or promote products derived from th
      +                          is
    84                           ;        software without specific prior written permission.
    85                           ; 
    86                           ; THIS SOFTWARE IS PROVIDED BY MICROCHIP "AS IS" AND ANY EXPRESS OR IMPLIED WARRANTIES,
    87                           ; INCLUDING, BUT NOT LIMITED TO, THE IMPLIED WARRANTIES OF MERCHANTABILITY AND FITNESS F
      +                          OR
    88                           ; PURPOSE ARE DISCLAIMED.  IN NO EVENT SHALL MICROCHIP BE LIABLE FOR ANY DIRECT, INDIREC
      +                          T,
    89                           ; INCIDENTAL, SPECIAL, EXEMPLARY, OR CONSEQUENTIAL DAMAGES (INCLUDING BUT NOT LIMITED TO
    90                           ; PROCUREMENT OF SUBSTITUTE GOODS OR SERVICES; LOSS OF USE, DATA OR PROFITS; OR BUSINESS
    91                           ; INTERRUPTION) HOWSOEVER CAUSED AND ON ANY THEORY OF LIABILITY, WHETHER IN CONTRACT, ST
      +                          RICT
    92                           ; LIABILITY, OR TORT (INCLUDING NEGLIGENCE OR OTHERWISE) ARISING IN ANY WAY OUT OF THE U
      +                          SE OF
    93                           ; THIS SOFTWARE, EVEN IF ADVISED OF THE POSSIBILITY OF SUCH DAMAGE.
    94                           ; 
    95                           ; 
    96                           ; Code-generator required, PIC16F887 Definitions
    97                           ; 
    98                           ; SFR Addresses
    99  0000                     	;# 
   100  0001                     	;# 
   101  0002                     	;# 
   102  0003                     	;# 
   103  0004                     	;# 
   104  0005                     	;# 
   105  0006                     	;# 
   106  0007                     	;# 
   107  0008                     	;# 
   108  0009                     	;# 
   109  000A                     	;# 
   110  000B                     	;# 
   111  000C                     	;# 
   112  000D                     	;# 
   113  000E                     	;# 
   114  000E                     	;# 
   115  000F                     	;# 
   116  0010                     	;# 
   117  0011                     	;# 
   118  0012                     	;# 
   119  0013                     	;# 
   120  0014                     	;# 
   121  0015                     	;# 
   122  0015                     	;# 
   123  0016                     	;# 
   124  0017                     	;# 
   125  0018                     	;# 
   126  0019                     	;# 
   127  001A                     	;# 
   128  001B                     	;# 
   129  001B                     	;# 
   130  001C                     	;# 
   131  001D                     	;# 
   132  001E                     	;# 
   133  001F                     	;# 
   134  0081                     	;# 
   135  0085                     	;# 
   136  0086                     	;# 
   137  0087                     	;# 
   138  0088                     	;# 
   139  0089                     	;# 
   140  008C                     	;# 
   141  008D                     	;# 
   142  008E                     	;# 
   143  008F                     	;# 
   144  0090                     	;# 
   145  0091                     	;# 
   146  0092                     	;# 
   147  0093                     	;# 
   148  0093                     	;# 
   149  0093                     	;# 
   150  0094                     	;# 
   151  0095                     	;# 
   152  0096                     	;# 
   153  0097                     	;# 
   154  0098                     	;# 
   155  0099                     	;# 
   156  009A                     	;# 
   157  009B                     	;# 
   158  009C                     	;# 
   159  009D                     	;# 
   160  009E                     	;# 
   161  009F                     	;# 
   162  0105                     	;# 
   163  0107                     	;# 
   164  0108                     	;# 
   165  0109                     	;# 
   166  010C                     	;# 
   167  010C                     	;# 
   168  010D                     	;# 
   169  010E                     	;# 
   170  010F                     	;# 
   171  0185                     	;# 
   172  0187                     	;# 
   173  0188                     	;# 
   174  0189                     	;# 
   175  018C                     	;# 
   176  018D                     	;# 
   177  0000                     	;# 
   178  0001                     	;# 
   179  0002                     	;# 
   180  0003                     	;# 
   181  0004                     	;# 
   182  0005                     	;# 
   183  0006                     	;# 
   184  0007                     	;# 
   185  0008                     	;# 
   186  0009                     	;# 
   187  000A                     	;# 
   188  000B                     	;# 
   189  000C                     	;# 
   190  000D                     	;# 
   191  000E                     	;# 
   192  000E                     	;# 
   193  000F                     	;# 
   194  0010                     	;# 
   195  0011                     	;# 
   196  0012                     	;# 
   197  0013                     	;# 
   198  0014                     	;# 
   199  0015                     	;# 
   200  0015                     	;# 
   201  0016                     	;# 
   202  0017                     	;# 
   203  0018                     	;# 
   204  0019                     	;# 
   205  001A                     	;# 
   206  001B                     	;# 
   207  001B                     	;# 
   208  001C                     	;# 
   209  001D                     	;# 
   210  001E                     	;# 
   211  001F                     	;# 
   212  0081                     	;# 
   213  0085                     	;# 
   214  0086                     	;# 
   215  0087                     	;# 
   216  0088                     	;# 
   217  0089                     	;# 
   218  008C                     	;# 
   219  008D                     	;# 
   220  008E                     	;# 
   221  008F                     	;# 
   222  0090                     	;# 
   223  0091                     	;# 
   224  0092                     	;# 
   225  0093                     	;# 
   226  0093                     	;# 
   227  0093                     	;# 
   228  0094                     	;# 
   229  0095                     	;# 
   230  0096                     	;# 
   231  0097                     	;# 
   232  0098                     	;# 
   233  0099                     	;# 
   234  009A                     	;# 
   235  009B                     	;# 
   236  009C                     	;# 
   237  009D                     	;# 
   238  009E                     	;# 
   239  009F                     	;# 
   240  0105                     	;# 
   241  0107                     	;# 
   242  0108                     	;# 
   243  0109                     	;# 
   244  010C                     	;# 
   245  010C                     	;# 
   246  010D                     	;# 
   247  010E                     	;# 
   248  010F                     	;# 
   249  0185                     	;# 
   250  0187                     	;# 
   251  0188                     	;# 
   252  0189                     	;# 
   253  018C                     	;# 
   254  018D                     	;# 
   255  0000                     	;# 
   256  0001                     	;# 
   257  0002                     	;# 
   258  0003                     	;# 
   259  0004                     	;# 
   260  0005                     	;# 
   261  0006                     	;# 
   262  0007                     	;# 
   263  0008                     	;# 
   264  0009                     	;# 
   265  000A                     	;# 
   266  000B                     	;# 
   267  000C                     	;# 
   268  000D                     	;# 
   269  000E                     	;# 
   270  000E                     	;# 
   271  000F                     	;# 
   272  0010                     	;# 
   273  0011                     	;# 
   274  0012                     	;# 
   275  0013                     	;# 
   276  0014                     	;# 
   277  0015                     	;# 
   278  0015                     	;# 
   279  0016                     	;# 
   280  0017                     	;# 
   281  0018                     	;# 
   282  0019                     	;# 
   283  001A                     	;# 
   284  001B                     	;# 
   285  001B                     	;# 
   286  001C                     	;# 
   287  001D                     	;# 
   288  001E                     	;# 
   289  001F                     	;# 
   290  0081                     	;# 
   291  0085                     	;# 
   292  0086                     	;# 
   293  0087                     	;# 
   294  0088                     	;# 
   295  0089                     	;# 
   296  008C                     	;# 
   297  008D                     	;# 
   298  008E                     	;# 
   299  008F                     	;# 
   300  0090                     	;# 
   301  0091                     	;# 
   302  0092                     	;# 
   303  0093                     	;# 
   304  0093                     	;# 
   305  0093                     	;# 
   306  0094                     	;# 
   307  0095                     	;# 
   308  0096                     	;# 
   309  0097                     	;# 
   310  0098                     	;# 
   311  0099                     	;# 
   312  009A                     	;# 
   313  009B                     	;# 
   314  009C                     	;# 
   315  009D                     	;# 
   316  009E                     	;# 
   317  009F                     	;# 
   318  0105                     	;# 
   319  0107                     	;# 
   320  0108                     	;# 
   321  0109                     	;# 
   322  010C                     	;# 
   323  010C                     	;# 
   324  010D                     	;# 
   325  010E                     	;# 
   326  010F                     	;# 
   327  0185                     	;# 
   328  0187                     	;# 
   329  0188                     	;# 
   330  0189                     	;# 
   331  018C                     	;# 
   332  018D                     	;# 
   333  0000                     	;# 
   334  0001                     	;# 
   335  0002                     	;# 
   336  0003                     	;# 
   337  0004                     	;# 
   338  0005                     	;# 
   339  0006                     	;# 
   340  0007                     	;# 
   341  0008                     	;# 
   342  0009                     	;# 
   343  000A                     	;# 
   344  000B                     	;# 
   345  000C                     	;# 
   346  000D                     	;# 
   347  000E                     	;# 
   348  000E                     	;# 
   349  000F                     	;# 
   350  0010                     	;# 
   351  0011                     	;# 
   352  0012                     	;# 
   353  0013                     	;# 
   354  0014                     	;# 
   355  0015                     	;# 
   356  0015                     	;# 
   357  0016                     	;# 
   358  0017                     	;# 
   359  0018                     	;# 
   360  0019                     	;# 
   361  001A                     	;# 
   362  001B                     	;# 
   363  001B                     	;# 
   364  001C                     	;# 
   365  001D                     	;# 
   366  001E                     	;# 
   367  001F                     	;# 
   368  0081                     	;# 
   369  0085                     	;# 
   370  0086                     	;# 
   371  0087                     	;# 
   372  0088                     	;# 
   373  0089                     	;# 
   374  008C                     	;# 
   375  008D                     	;# 
   376  008E                     	;# 
   377  008F                     	;# 
   378  0090                     	;# 
   379  0091                     	;# 
   380  0092                     	;# 
   381  0093                     	;# 
   382  0093                     	;# 
   383  0093                     	;# 
   384  0094                     	;# 
   385  0095                     	;# 
   386  0096                     	;# 
   387  0097                     	;# 
   388  0098                     	;# 
   389  0099                     	;# 
   390  009A                     	;# 
   391  009B                     	;# 
   392  009C                     	;# 
   393  009D                     	;# 
   394  009E                     	;# 
   395  009F                     	;# 
   396  0105                     	;# 
   397  0107                     	;# 
   398  0108                     	;# 
   399  0109                     	;# 
   400  010C                     	;# 
   401  010C                     	;# 
   402  010D                     	;# 
   403  010E                     	;# 
   404  010F                     	;# 
   405  0185                     	;# 
   406  0187                     	;# 
   407  0188                     	;# 
   408  0189                     	;# 
   409  018C                     	;# 
   410  018D                     	;# 
   411                           
   412                           	psect	idataBANK1
   413  110F                     __pidataBANK1:
   414                           
   415                           ;initializer for _Time
   416  110F  3430               	retlw	48
   417  1110  3430               	retlw	48
   418  1111  342F               	retlw	47
   419  1112  3430               	retlw	48
   420  1113  3430               	retlw	48
   421  1114  342F               	retlw	47
   422  1115  3430               	retlw	48
   423  1116  3430               	retlw	48
   424  1117  3400               	retlw	0
   425                           
   426                           	psect	idataBANK3
   427  1122                     __pidataBANK3:
   428                           
   429                           ;initializer for _Date
   430  1122  3430               	retlw	48
   431  1123  3430               	retlw	48
   432  1124  342F               	retlw	47
   433  1125  3430               	retlw	48
   434  1126  3430               	retlw	48
   435  1127  342F               	retlw	47
   436  1128  3432               	retlw	50
   437  1129  3430               	retlw	48
   438  112A  3430               	retlw	48
   439  112B  3430               	retlw	48
   440  112C  3400               	retlw	0
   441  000C                     _PIR1bits	set	12
   442  0013                     _SSPBUF	set	19
   443  0014                     _SSPCON	set	20
   444  0006                     _PORTB	set	6
   445  0009                     _PORTE	set	9
   446  0008                     _PORTD	set	8
   447  000B                     _INTCONbits	set	11
   448  0049                     _RE1	set	73
   449  0048                     _RE0	set	72
   450  0031                     _RB1	set	49
   451  0030                     _RB0	set	48
   452  008C                     _PIE1bits	set	140
   453  0091                     _SSPCON2bits	set	145
   454  0087                     _TRISCbits	set	135
   455  0094                     _SSPSTAT	set	148
   456  0093                     _SSPADD	set	147
   457  0091                     _SSPCON2	set	145
   458  008F                     _OSCCONbits	set	143
   459  0096                     _IOCBbits	set	150
   460  0095                     _WPUBbits	set	149
   461  0081                     _OPTION_REGbits	set	129
   462  0086                     _TRISB	set	134
   463  0089                     _TRISE	set	137
   464  0088                     _TRISD	set	136
   465  043C                     _TRISC4	set	1084
   466  043B                     _TRISC3	set	1083
   467  0189                     _ANSELH	set	393
   468  0188                     _ANSEL	set	392
   469                           
   470                           	psect	strings
   471  0800                     __pstrings:
   472  0800                     stringtab:
   473  0800                     __stringtab:
   474                           
   475                           ;	String table - string pointers are 1 byte each
   476  0800  1BFF               	btfsc	btemp+1,7
   477  0801  280A               	ljmp	stringcode
   478  0802  1383               	bcf	3,7
   479  0803  187F               	btfsc	btemp+1,0
   480  0804  1783               	bsf	3,7
   481  0805  0800               	movf	0,w
   482  0806  0A84               	incf	4,f
   483  0807  1903               	skipnz
   484  0808  0AFF               	incf	btemp+1,f
   485  0809  0008               	return
   486  080A                     stringcode:
   487  080A                     stringdir:
   488  080A  3008               	movlw	high stringdir
   489  080B  008A               	movwf	10
   490  080C  0804               	movf	4,w
   491  080D  0A84               	incf	4,f
   492  080E  0782               	addwf	2,f
   493  080F                     __stringbase:
   494  080F  3400               	retlw	0
   495  0810                     __end_of__stringtab:
   496  0810                     STR_1:
   497  0810  3453               	retlw	83	;'S'
   498  0811  3431               	retlw	49	;'1'
   499  0812  343A               	retlw	58	;':'
   500  0813  3400               	retlw	0
   501  0814                     STR_3:
   502  0814  3420               	retlw	32	;' '
   503  0815  3420               	retlw	32	;' '
   504  0816  3400               	retlw	0
   505  0817                     STR_2:
   506  0817  342E               	retlw	46	;'.'
   507  0818  3400               	retlw	0
   508                           
   509                           	psect	cinit
   510  000F                     start_initialization:	
   511                           ; #config settings
   512                           
   513  000F                     __initialization:
   514                           
   515                           ; Initialize objects allocated to BANK3
   516  000F  1783               	bsf	3,7	;select IRP bank2
   517  0010  309B               	movlw	low (__pdataBANK3+11)
   518  0011  00FD               	movwf	btemp+-1
   519  0012  3011               	movlw	high __pidataBANK3
   520  0013  00FE               	movwf	btemp
   521  0014  3022               	movlw	low __pidataBANK3
   522  0015  00FF               	movwf	btemp+1
   523  0016  3090               	movlw	low __pdataBANK3
   524  0017  0084               	movwf	4
   525  0018  160A  118A  214B  120A  118A  	fcall	init_ram0
   526                           
   527                           ; Initialize objects allocated to BANK1
   528  001D  1383               	bcf	3,7	;select IRP bank0
   529  001E  30EC               	movlw	low (__pdataBANK1+9)
   530  001F  00FD               	movwf	btemp+-1
   531  0020  3011               	movlw	high __pidataBANK1
   532  0021  00FE               	movwf	btemp
   533  0022  300F               	movlw	low __pidataBANK1
   534  0023  00FF               	movwf	btemp+1
   535  0024  30E3               	movlw	low __pdataBANK1
   536  0025  0084               	movwf	4
   537  0026  160A  118A  214B  120A  118A  	fcall	init_ram0
   538                           
   539                           ; Clear objects allocated to BANK1
   540  002B  1683               	bsf	3,5	;RP0=1, select bank1
   541  002C  1303               	bcf	3,6	;RP1=0, select bank1
   542  002D  01D9               	clrf	__pbssBANK1& (0+127)
   543  002E  01DA               	clrf	(__pbssBANK1+1)& (0+127)
   544  002F  01DB               	clrf	(__pbssBANK1+2)& (0+127)
   545  0030  01DC               	clrf	(__pbssBANK1+3)& (0+127)
   546  0031  01DD               	clrf	(__pbssBANK1+4)& (0+127)
   547  0032  01DE               	clrf	(__pbssBANK1+5)& (0+127)
   548  0033  01DF               	clrf	(__pbssBANK1+6)& (0+127)
   549  0034  01E0               	clrf	(__pbssBANK1+7)& (0+127)
   550  0035  01E1               	clrf	(__pbssBANK1+8)& (0+127)
   551  0036  01E2               	clrf	(__pbssBANK1+9)& (0+127)
   552                           
   553                           ; Clear objects allocated to COMMON
   554  0037  01F7               	clrf	__pbssCOMMON& (0+127)
   555  0038  01F8               	clrf	(__pbssCOMMON+1)& (0+127)
   556  0039  01F9               	clrf	(__pbssCOMMON+2)& (0+127)
   557  003A                     end_of_initialization:	
   558                           ;End of C runtime variable initialization code
   559                           
   560  003A                     __end_of__initialization:
   561  003A  0183               	clrf	3
   562  003B  120A  158A  2D8B   	ljmp	_main	;jump to C main() function
   563                           
   564                           	psect	bssCOMMON
   565  0077                     __pbssCOMMON:
   566  0077                     _p:
   567  0077                     	ds	1
   568  0078                     _parametro:
   569  0078                     	ds	1
   570  0079                     _select:
   571  0079                     	ds	1
   572                           
   573                           	psect	bssBANK1
   574  00D9                     __pbssBANK1:
   575  00D9                     _year:
   576  00D9                     	ds	1
   577  00DA                     _mes:
   578  00DA                     	ds	1
   579  00DB                     _dia:
   580  00DB                     	ds	1
   581  00DC                     _hora:
   582  00DC                     	ds	1
   583  00DD                     _min:
   584  00DD                     	ds	1
   585  00DE                     _seg:
   586  00DE                     	ds	1
   587  00DF                     _centena:
   588  00DF                     	ds	1
   589  00E0                     _decena:
   590  00E0                     	ds	1
   591  00E1                     _unidad:
   592  00E1                     	ds	1
   593  00E2                     _POT:
   594  00E2                     	ds	1
   595                           
   596                           	psect	dataBANK1
   597  00E3                     __pdataBANK1:
   598  00E3                     _Time:
   599  00E3                     	ds	9
   600                           
   601                           	psect	dataBANK3
   602  0190                     __pdataBANK3:
   603  0190                     _Date:
   604  0190                     	ds	11
   605                           
   606                           	psect	inittext
   607  1147                     init_fetch0:	
   608                           ;	Called with low address in FSR and high address in W
   609                           
   610  1147  087E               	movf	btemp,w
   611  1148  008A               	movwf	10
   612  1149  087F               	movf	btemp+1,w
   613  114A  0082               	movwf	2
   614  114B                     init_ram0:	
   615                           ;Called with:
   616                           ;	high address of idata address in btemp 
   617                           ;	low address of idata address in btemp+1 
   618                           ;	low address of data in FSR
   619                           ;	high address + 1 of data in btemp-1
   620                           
   621  114B  160A  118A  2147  160A  118A  	fcall	init_fetch0
   622  1150  0080               	movwf	0
   623  1151  0A84               	incf	4,f
   624  1152  0804               	movf	4,w
   625  1153  067D               	xorwf	btemp+-1,w
   626  1154  1903               	btfsc	3,2
   627  1155  3400               	retlw	0
   628  1156  0AFF               	incf	btemp+1,f
   629  1157  1903               	btfsc	3,2
   630  1158  0AFE               	incf	btemp,f
   631  1159  294B               	goto	init_ram0
   632                           
   633                           	psect	cstackBANK1
   634  00A0                     __pcstackBANK1:
   635  00A0                     ??_CENTENA:
   636                           
   637                           ; 1 bytes @ 0x0
   638  00A0                     	ds	5
   639  00A5                     ?___wmul:
   640  00A5                     ___wmul@multiplier:	
   641                           ; 2 bytes @ 0x5
   642                           
   643                           
   644                           ; 2 bytes @ 0x5
   645  00A5                     	ds	2
   646  00A7                     ___wmul@multiplicand:
   647                           
   648                           ; 2 bytes @ 0x7
   649  00A7                     	ds	2
   650  00A9                     ?___flsub:
   651  00A9                     ___flsub@a:	
   652                           ; 4 bytes @ 0x9
   653                           
   654                           
   655                           ; 4 bytes @ 0x9
   656  00A9                     	ds	4
   657  00AD                     ___flsub@b:
   658                           
   659                           ; 4 bytes @ 0xD
   660  00AD                     	ds	4
   661  00B1                     ?___awdiv:
   662  00B1                     ___awdiv@divisor:	
   663                           ; 2 bytes @ 0x11
   664                           
   665                           
   666                           ; 2 bytes @ 0x11
   667  00B1                     	ds	2
   668  00B3                     ___awdiv@dividend:
   669                           
   670                           ; 2 bytes @ 0x13
   671  00B3                     	ds	2
   672  00B5                     ??___awdiv:
   673                           
   674                           ; 1 bytes @ 0x15
   675  00B5                     	ds	1
   676  00B6                     ___awdiv@counter:
   677                           
   678                           ; 1 bytes @ 0x16
   679  00B6                     	ds	1
   680  00B7                     ___awdiv@sign:
   681                           
   682                           ; 1 bytes @ 0x17
   683  00B7                     	ds	1
   684  00B8                     ___awdiv@quotient:
   685                           
   686                           ; 2 bytes @ 0x18
   687  00B8                     	ds	2
   688  00BA                     ??_DECENA:
   689  00BA                     ??_RTC_PRINT:	
   690                           ; 1 bytes @ 0x1A
   691                           
   692  00BA                     ??_DECIMAL_BCD:	
   693                           ; 1 bytes @ 0x1A
   694                           
   695                           
   696                           ; 1 bytes @ 0x1A
   697  00BA                     	ds	3
   698  00BD                     RTC_PRINT@seg1:
   699                           
   700                           ; 1 bytes @ 0x1D
   701  00BD                     	ds	1
   702  00BE                     RTC_PRINT@min1:
   703                           
   704                           ; 1 bytes @ 0x1E
   705  00BE                     	ds	1
   706  00BF                     RTC_PRINT@hora1:
   707  00BF                     DECIMAL_BCD@num:	
   708                           ; 1 bytes @ 0x1F
   709                           
   710                           
   711                           ; 1 bytes @ 0x1F
   712  00BF                     	ds	1
   713  00C0                     ?_CONFIGURAR_v2:
   714  00C0                     RTC_PRINT@dia1:	
   715                           ; 1 bytes @ 0x20
   716                           
   717  00C0                     CONFIGURAR_v2@y:	
   718                           ; 1 bytes @ 0x20
   719                           
   720                           
   721                           ; 1 bytes @ 0x20
   722  00C0                     	ds	1
   723  00C1                     RTC_PRINT@mes1:
   724  00C1                     CONFIGURAR_v2@parametro:	
   725                           ; 1 bytes @ 0x21
   726                           
   727  00C1                     _DECENA$1173:	
   728                           ; 1 bytes @ 0x21
   729                           
   730                           
   731                           ; 4 bytes @ 0x21
   732  00C1                     	ds	1
   733  00C2                     RTC_PRINT@year1:
   734  00C2                     CONFIGURAR_v2@rtc:	
   735                           ; 1 bytes @ 0x22
   736                           
   737                           
   738                           ; 1 bytes @ 0x22
   739  00C2                     	ds	1
   740  00C3                     ??_CONFIGURAR_v2:
   741                           
   742                           ; 1 bytes @ 0x23
   743  00C3                     	ds	1
   744  00C4                     CONFIGURAR_v2@x:
   745                           
   746                           ; 1 bytes @ 0x24
   747  00C4                     	ds	1
   748  00C5                     DECENA@c:
   749                           
   750                           ; 1 bytes @ 0x25
   751  00C5                     	ds	1
   752  00C6                     ??_UNIDAD:
   753                           
   754                           ; 1 bytes @ 0x26
   755  00C6                     	ds	4
   756  00CA                     _UNIDAD$1174:
   757                           
   758                           ; 4 bytes @ 0x2A
   759  00CA                     	ds	4
   760  00CE                     _UNIDAD$1176:
   761                           
   762                           ; 4 bytes @ 0x2E
   763  00CE                     	ds	4
   764  00D2                     _UNIDAD$1175:
   765                           
   766                           ; 2 bytes @ 0x32
   767  00D2                     	ds	2
   768  00D4                     UNIDAD@c:
   769                           
   770                           ; 1 bytes @ 0x34
   771  00D4                     	ds	1
   772  00D5                     ??_main:
   773                           
   774                           ; 1 bytes @ 0x35
   775  00D5                     	ds	4
   776                           
   777                           	psect	cstackCOMMON
   778  0070                     __pcstackCOMMON:
   779  0070                     ?_ANTI_REBOTE:
   780  0070                     ?i1_ANTI_REBOTE:	
   781                           ; 1 bit 
   782                           
   783  0070                     ?_setup:	
   784                           ; 1 bit 
   785                           
   786  0070                     ?_I2C_Master_Start:	
   787                           ; 1 bytes @ 0x0
   788                           
   789  0070                     ?_I2C_Master_Stop:	
   790                           ; 1 bytes @ 0x0
   791                           
   792  0070                     ?_CENTENA:	
   793                           ; 1 bytes @ 0x0
   794                           
   795  0070                     ?_DECENA:	
   796                           ; 1 bytes @ 0x0
   797                           
   798  0070                     ?_UNIDAD:	
   799                           ; 1 bytes @ 0x0
   800                           
   801  0070                     ?_LCD_CLEAR:	
   802                           ; 1 bytes @ 0x0
   803                           
   804  0070                     ?_LCD_CHAR:	
   805                           ; 1 bytes @ 0x0
   806                           
   807  0070                     ?_RTC_PRINT:	
   808                           ; 1 bytes @ 0x0
   809                           
   810  0070                     ?_OSCILLATOR:	
   811                           ; 1 bytes @ 0x0
   812                           
   813  0070                     ?_IOC_INT:	
   814                           ; 1 bytes @ 0x0
   815                           
   816  0070                     ?_LCD_INIT:	
   817                           ; 1 bytes @ 0x0
   818                           
   819  0070                     ?_BCD_DECIMAL:	
   820                           ; 1 bytes @ 0x0
   821                           
   822  0070                     ?_isr:	
   823                           ; 1 bytes @ 0x0
   824                           
   825  0070                     ?_main:	
   826                           ; 1 bytes @ 0x0
   827                           
   828  0070                     ?_Parpadeo:	
   829                           ; 1 bytes @ 0x0
   830                           
   831  0070                     ?_DECIMAL_BCD:	
   832                           ; 1 bytes @ 0x0
   833                           
   834  0070                     ?_LCD_PORT:	
   835                           ; 1 bytes @ 0x0
   836                           
   837  0070                     ?_LCD_COM:	
   838                           ; 1 bytes @ 0x0
   839                           
   840  0070                     ?_I2C_Master_Wait:	
   841                           ; 1 bytes @ 0x0
   842                           
   843  0070                     ??i1_ANTI_REBOTE:	
   844                           ; 1 bytes @ 0x0
   845                           
   846                           
   847                           ; 1 bytes @ 0x0
   848  0070                     	ds	2
   849  0072                     i1ANTI_REBOTE@contador:
   850                           
   851                           ; 1 bytes @ 0x2
   852  0072                     	ds	1
   853  0073                     i1ANTI_REBOTE@i:
   854                           
   855                           ; 1 bytes @ 0x3
   856  0073                     	ds	1
   857  0074                     ??_isr:
   858                           
   859                           ; 1 bytes @ 0x4
   860  0074                     	ds	3
   861                           
   862                           	psect	cstackBANK0
   863  0020                     __pcstackBANK0:
   864  0020                     ??_ANTI_REBOTE:
   865  0020                     ??_I2C_Master_Start:	
   866                           ; 1 bytes @ 0x0
   867                           
   868  0020                     ?_I2C_Master_Write:	
   869                           ; 1 bytes @ 0x0
   870                           
   871  0020                     ??_I2C_Master_Stop:	
   872                           ; 1 bytes @ 0x0
   873                           
   874  0020                     ??_OSCILLATOR:	
   875                           ; 1 bytes @ 0x0
   876                           
   877  0020                     ??_IOC_INT:	
   878                           ; 1 bytes @ 0x0
   879                           
   880  0020                     ??_Parpadeo:	
   881                           ; 1 bytes @ 0x0
   882                           
   883  0020                     ??_LCD_PORT:	
   884                           ; 1 bytes @ 0x0
   885                           
   886  0020                     ??_I2C_Master_Wait:	
   887                           ; 1 bytes @ 0x0
   888                           
   889  0020                     ?___bmul:	
   890                           ; 1 bytes @ 0x0
   891                           
   892  0020                     ?_I2C_Master_Read:	
   893                           ; 1 bytes @ 0x0
   894                           
   895  0020                     ?__Umul8_16:	
   896                           ; 2 bytes @ 0x0
   897                           
   898  0020                     ?___awmod:	
   899                           ; 2 bytes @ 0x0
   900                           
   901  0020                     ?___lldiv:	
   902                           ; 2 bytes @ 0x0
   903                           
   904  0020                     ?___fladd:	
   905                           ; 4 bytes @ 0x0
   906                           
   907  0020                     ?___xxtofl:	
   908                           ; 4 bytes @ 0x0
   909                           
   910  0020                     IOC_INT@a:	
   911                           ; 4 bytes @ 0x0
   912                           
   913  0020                     LCD_PORT@a:	
   914                           ; 1 bytes @ 0x0
   915                           
   916  0020                     ___bmul@multiplicand:	
   917                           ; 1 bytes @ 0x0
   918                           
   919  0020                     __Umul8_16@multiplicand:	
   920                           ; 1 bytes @ 0x0
   921                           
   922  0020                     I2C_Master_Write@d:	
   923                           ; 1 bytes @ 0x0
   924                           
   925  0020                     I2C_Master_Read@a:	
   926                           ; 2 bytes @ 0x0
   927                           
   928  0020                     ___awmod@divisor:	
   929                           ; 2 bytes @ 0x0
   930                           
   931  0020                     ___lldiv@divisor:	
   932                           ; 2 bytes @ 0x0
   933                           
   934  0020                     ___fladd@b:	
   935                           ; 4 bytes @ 0x0
   936                           
   937  0020                     ___xxtofl@val:	
   938                           ; 4 bytes @ 0x0
   939                           
   940                           
   941                           ; 4 bytes @ 0x0
   942  0020                     	ds	1
   943  0021                     ??_LCD_CLEAR:
   944  0021                     ??_LCD_CHAR:	
   945                           ; 1 bytes @ 0x1
   946                           
   947  0021                     ??_LCD_COM:	
   948                           ; 1 bytes @ 0x1
   949                           
   950  0021                     ??___bmul:	
   951                           ; 1 bytes @ 0x1
   952                           
   953                           
   954                           ; 1 bytes @ 0x1
   955  0021                     	ds	1
   956  0022                     ??_I2C_Master_Write:
   957  0022                     ??_I2C_Master_Read:	
   958                           ; 1 bytes @ 0x2
   959                           
   960  0022                     ?_RTC_WRITE:	
   961                           ; 1 bytes @ 0x2
   962                           
   963  0022                     ??__Umul8_16:	
   964                           ; 1 bytes @ 0x2
   965                           
   966  0022                     Parpadeo@j:	
   967                           ; 1 bytes @ 0x2
   968                           
   969  0022                     ANTI_REBOTE@contador:	
   970                           ; 1 bytes @ 0x2
   971                           
   972  0022                     OSCILLATOR@f:	
   973                           ; 1 bytes @ 0x2
   974                           
   975  0022                     ___bmul@product:	
   976                           ; 1 bytes @ 0x2
   977                           
   978  0022                     RTC_WRITE@I2C:	
   979                           ; 1 bytes @ 0x2
   980                           
   981  0022                     ___awmod@dividend:	
   982                           ; 2 bytes @ 0x2
   983                           
   984                           
   985                           ; 2 bytes @ 0x2
   986  0022                     	ds	1
   987  0023                     ANTI_REBOTE@i:
   988  0023                     LCD_COM@a:	
   989                           ; 1 bytes @ 0x3
   990                           
   991  0023                     LCD_CHAR@a:	
   992                           ; 1 bytes @ 0x3
   993                           
   994  0023                     ___bmul@multiplier:	
   995                           ; 1 bytes @ 0x3
   996                           
   997                           
   998                           ; 1 bytes @ 0x3
   999  0023                     	ds	1
  1000  0024                     ?_LCD_XY:
  1001  0024                     ?_LCD_STRING:	
  1002                           ; 1 bytes @ 0x4
  1003                           
  1004  0024                     ??_LCD_INIT:	
  1005                           ; 1 bytes @ 0x4
  1006                           
  1007  0024                     ??_BCD_DECIMAL:	
  1008                           ; 1 bytes @ 0x4
  1009                           
  1010  0024                     ??___awmod:	
  1011                           ; 1 bytes @ 0x4
  1012                           
  1013  0024                     ??___xxtofl:	
  1014                           ; 1 bytes @ 0x4
  1015                           
  1016  0024                     LCD_XY@y:	
  1017                           ; 1 bytes @ 0x4
  1018                           
  1019  0024                     RTC_WRITE@d:	
  1020                           ; 1 bytes @ 0x4
  1021                           
  1022  0024                     LCD_STRING@a:	
  1023                           ; 2 bytes @ 0x4
  1024                           
  1025  0024                     I2C_Master_Read@temp:	
  1026                           ; 2 bytes @ 0x4
  1027                           
  1028  0024                     __Umul8_16@product:	
  1029                           ; 2 bytes @ 0x4
  1030                           
  1031  0024                     ___lldiv@dividend:	
  1032                           ; 2 bytes @ 0x4
  1033                           
  1034  0024                     ___fladd@a:	
  1035                           ; 4 bytes @ 0x4
  1036                           
  1037                           
  1038                           ; 4 bytes @ 0x4
  1039  0024                     	ds	1
  1040  0025                     ??_LCD_XY:
  1041  0025                     LCD_XY@x:	
  1042                           ; 1 bytes @ 0x5
  1043                           
  1044  0025                     ___awmod@counter:	
  1045                           ; 1 bytes @ 0x5
  1046                           
  1047                           
  1048                           ; 1 bytes @ 0x5
  1049  0025                     	ds	1
  1050  0026                     ??_LCD_STRING:
  1051  0026                     ?_RTC_READ:	
  1052                           ; 1 bytes @ 0x6
  1053                           
  1054  0026                     RTC_WRITE@parametro:	
  1055                           ; 2 bytes @ 0x6
  1056                           
  1057  0026                     ___awmod@sign:	
  1058                           ; 1 bytes @ 0x6
  1059                           
  1060  0026                     RTC_READ@I2C:	
  1061                           ; 1 bytes @ 0x6
  1062                           
  1063  0026                     __Umul8_16@word_mpld:	
  1064                           ; 2 bytes @ 0x6
  1065                           
  1066                           
  1067                           ; 2 bytes @ 0x6
  1068  0026                     	ds	1
  1069  0027                     ??_RTC_WRITE:
  1070  0027                     BCD_DECIMAL@num:	
  1071                           ; 1 bytes @ 0x7
  1072                           
  1073                           
  1074                           ; 1 bytes @ 0x7
  1075  0027                     	ds	1
  1076  0028                     ?_PAM:
  1077  0028                     ??___lldiv:	
  1078                           ; 1 bytes @ 0x8
  1079                           
  1080  0028                     ??___fladd:	
  1081                           ; 1 bytes @ 0x8
  1082                           
  1083  0028                     PAM@rtc:	
  1084                           ; 1 bytes @ 0x8
  1085                           
  1086  0028                     __Umul8_16@multiplier:	
  1087                           ; 1 bytes @ 0x8
  1088                           
  1089  0028                     ___xxtofl@sign:	
  1090                           ; 1 bytes @ 0x8
  1091                           
  1092  0028                     RTC_READ@d:	
  1093                           ; 1 bytes @ 0x8
  1094                           
  1095                           
  1096                           ; 2 bytes @ 0x8
  1097  0028                     	ds	1
  1098  0029                     ??_PAM:
  1099  0029                     ___xxtofl@exp:	
  1100                           ; 1 bytes @ 0x9
  1101                           
  1102  0029                     LCD_STRING@i:	
  1103                           ; 1 bytes @ 0x9
  1104                           
  1105  0029                     ___lldiv@quotient:	
  1106                           ; 2 bytes @ 0x9
  1107                           
  1108                           
  1109                           ; 4 bytes @ 0x9
  1110  0029                     	ds	1
  1111  002A                     ??_RTC_READ:
  1112  002A                     PAM@parametro:	
  1113                           ; 1 bytes @ 0xA
  1114                           
  1115  002A                     ___xxtofl@arg:	
  1116                           ; 1 bytes @ 0xA
  1117                           
  1118                           
  1119                           ; 4 bytes @ 0xA
  1120  002A                     	ds	2
  1121  002C                     RTC_READ@RTC:
  1122                           
  1123                           ; 2 bytes @ 0xC
  1124  002C                     	ds	1
  1125  002D                     ___lldiv@counter:
  1126                           
  1127                           ; 1 bytes @ 0xD
  1128  002D                     	ds	1
  1129  002E                     ?_I2C_Master_Init:
  1130  002E                     ?___flmul:	
  1131                           ; 1 bytes @ 0xE
  1132                           
  1133  002E                     I2C_Master_Init@c:	
  1134                           ; 4 bytes @ 0xE
  1135                           
  1136  002E                     ___flmul@b:	
  1137                           ; 4 bytes @ 0xE
  1138                           
  1139                           
  1140                           ; 4 bytes @ 0xE
  1141  002E                     	ds	2
  1142  0030                     ___fladd@signs:
  1143                           
  1144                           ; 1 bytes @ 0x10
  1145  0030                     	ds	1
  1146  0031                     ___fladd@aexp:
  1147                           
  1148                           ; 1 bytes @ 0x11
  1149  0031                     	ds	1
  1150  0032                     ??_I2C_Master_Init:
  1151  0032                     ___fladd@bexp:	
  1152                           ; 1 bytes @ 0x12
  1153                           
  1154  0032                     ___flmul@a:	
  1155                           ; 1 bytes @ 0x12
  1156                           
  1157                           
  1158                           ; 4 bytes @ 0x12
  1159  0032                     	ds	1
  1160  0033                     ___fladd@grs:
  1161                           
  1162                           ; 1 bytes @ 0x13
  1163  0033                     	ds	3
  1164  0036                     ??_setup:
  1165  0036                     ??___flmul:	
  1166                           ; 1 bytes @ 0x16
  1167                           
  1168                           
  1169                           ; 1 bytes @ 0x16
  1170  0036                     	ds	5
  1171  003B                     ___flmul@sign:
  1172                           
  1173                           ; 1 bytes @ 0x1B
  1174  003B                     	ds	1
  1175  003C                     ___flmul@grs:
  1176                           
  1177                           ; 4 bytes @ 0x1C
  1178  003C                     	ds	4
  1179  0040                     ___flmul@aexp:
  1180                           
  1181                           ; 1 bytes @ 0x20
  1182  0040                     	ds	1
  1183  0041                     ___flmul@bexp:
  1184                           
  1185                           ; 1 bytes @ 0x21
  1186  0041                     	ds	1
  1187  0042                     ___flmul@prod:
  1188                           
  1189                           ; 4 bytes @ 0x22
  1190  0042                     	ds	4
  1191  0046                     ___flmul@temp:
  1192                           
  1193                           ; 2 bytes @ 0x26
  1194  0046                     	ds	2
  1195  0048                     ?___fldiv:
  1196  0048                     ___fldiv@a:	
  1197                           ; 4 bytes @ 0x28
  1198                           
  1199                           
  1200                           ; 4 bytes @ 0x28
  1201  0048                     	ds	4
  1202  004C                     ___fldiv@b:
  1203                           
  1204                           ; 4 bytes @ 0x2C
  1205  004C                     	ds	4
  1206  0050                     ??___fldiv:
  1207                           
  1208                           ; 1 bytes @ 0x30
  1209  0050                     	ds	5
  1210  0055                     ___fldiv@rem:
  1211                           
  1212                           ; 4 bytes @ 0x35
  1213  0055                     	ds	4
  1214  0059                     ___fldiv@sign:
  1215                           
  1216                           ; 1 bytes @ 0x39
  1217  0059                     	ds	1
  1218  005A                     ___fldiv@new_exp:
  1219                           
  1220                           ; 2 bytes @ 0x3A
  1221  005A                     	ds	2
  1222  005C                     ___fldiv@grs:
  1223                           
  1224                           ; 4 bytes @ 0x3C
  1225  005C                     	ds	4
  1226  0060                     ___fldiv@bexp:
  1227                           
  1228                           ; 1 bytes @ 0x40
  1229  0060                     	ds	1
  1230  0061                     ___fldiv@aexp:
  1231                           
  1232                           ; 1 bytes @ 0x41
  1233  0061                     	ds	1
  1234  0062                     ?___fltol:
  1235  0062                     ___fltol@f1:	
  1236                           ; 4 bytes @ 0x42
  1237                           
  1238                           
  1239                           ; 4 bytes @ 0x42
  1240  0062                     	ds	4
  1241  0066                     ??___fltol:
  1242                           
  1243                           ; 1 bytes @ 0x46
  1244  0066                     	ds	5
  1245  006B                     ___fltol@sign1:
  1246                           
  1247                           ; 1 bytes @ 0x4B
  1248  006B                     	ds	1
  1249  006C                     ___fltol@exp1:
  1250                           
  1251                           ; 1 bytes @ 0x4C
  1252  006C                     	ds	1
  1253  006D                     CENTENA@c:
  1254                           
  1255                           ; 1 bytes @ 0x4D
  1256  006D                     	ds	1
  1257  006E                     ??___wmul:
  1258  006E                     ___wmul@product:	
  1259                           ; 1 bytes @ 0x4E
  1260                           
  1261                           
  1262                           ; 2 bytes @ 0x4E
  1263  006E                     	ds	2
  1264  0070                     ??___flsub:
  1265                           
  1266                           	psect	maintext
  1267  0D8B                     __pmaintext:	
  1268                           ; 1 bytes @ 0x50
  1269 ;;
  1270 ;;Main: autosize = 0, tempsize = 4, incstack = 0, save=0
  1271 ;;
  1272 ;; *************** function _main *****************
  1273 ;; Defined at:
  1274 ;;		line 95 in file "MAIN_M.c"
  1275 ;; Parameters:    Size  Location     Type
  1276 ;;		None
  1277 ;; Auto vars:     Size  Location     Type
  1278 ;;		None
  1279 ;; Return value:  Size  Location     Type
  1280 ;;                  1    wreg      void 
  1281 ;; Registers used:
  1282 ;;		wreg, fsr0l, fsr0h, status,2, status,0, btemp+1, pclath, cstack
  1283 ;; Tracked objects:
  1284 ;;		On entry : B00/0
  1285 ;;		On exit  : 0/0
  1286 ;;		Unchanged: 0/0
  1287 ;; Data sizes:     COMMON   BANK0   BANK1   BANK3   BANK2
  1288 ;;      Params:         0       0       0       0       0
  1289 ;;      Locals:         0       0       0       0       0
  1290 ;;      Temps:          0       0       4       0       0
  1291 ;;      Totals:         0       0       4       0       0
  1292 ;;Total ram usage:        4 bytes
  1293 ;; Hardware stack levels required when called: 7
  1294 ;; This function calls:
  1295 ;;		_CENTENA
  1296 ;;		_CONFIGURAR_v2
  1297 ;;		_DECENA
  1298 ;;		_I2C_Master_Read
  1299 ;;		_I2C_Master_Start
  1300 ;;		_I2C_Master_Stop
  1301 ;;		_I2C_Master_Write
  1302 ;;		_LCD_CHAR
  1303 ;;		_LCD_CLEAR
  1304 ;;		_LCD_STRING
  1305 ;;		_LCD_XY
  1306 ;;		_PAM
  1307 ;;		_RTC_PRINT
  1308 ;;		_RTC_READ
  1309 ;;		_RTC_WRITE
  1310 ;;		_UNIDAD
  1311 ;;		_setup
  1312 ;; This function is called by:
  1313 ;;		Startup code after reset
  1314 ;; This function uses a non-reentrant model
  1315 ;;
  1316                           
  1317  0D8B                     _main:	
  1318                           ;psect for function _main
  1319                           
  1320  0D8B                     l3377:	
  1321                           ;incstack = 0
  1322                           ; Regs used in _main: [wreg-fsr0h+status,2+status,0+btemp+1+pclath+cstack]
  1323                           
  1324                           
  1325                           ;MAIN_M.c: 96:     setup();
  1326  0D8B  160A  118A  2437  120A  158A  	fcall	_setup
  1327  0D90                     l3379:
  1328                           
  1329                           ;MAIN_M.c: 100:         I2C_Master_Start();
  1330  0D90  160A  118A  20FD  120A  158A  	fcall	_I2C_Master_Start
  1331  0D95                     l3381:
  1332                           
  1333                           ;MAIN_M.c: 101:         I2C_Master_Write(0x81);
  1334  0D95  3081               	movlw	129
  1335  0D96  1283               	bcf	3,5	;RP0=0, select bank0
  1336  0D97  1303               	bcf	3,6	;RP1=0, select bank0
  1337  0D98  00A0               	movwf	I2C_Master_Write@d
  1338  0D99  3000               	movlw	0
  1339  0D9A  00A1               	movwf	I2C_Master_Write@d+1
  1340  0D9B  160A  118A  2118  120A  158A  	fcall	_I2C_Master_Write
  1341  0DA0                     l3383:
  1342                           
  1343                           ;MAIN_M.c: 102:         POT = I2C_Master_Read(0);
  1344  0DA0  3000               	movlw	0
  1345  0DA1  1283               	bcf	3,5	;RP0=0, select bank0
  1346  0DA2  1303               	bcf	3,6	;RP1=0, select bank0
  1347  0DA3  00A0               	movwf	I2C_Master_Read@a
  1348  0DA4  00A1               	movwf	I2C_Master_Read@a+1
  1349  0DA5  160A  118A  22A0  120A  158A  	fcall	_I2C_Master_Read
  1350  0DAA  1283               	bcf	3,5	;RP0=0, select bank0
  1351  0DAB  1303               	bcf	3,6	;RP1=0, select bank0
  1352  0DAC  0820               	movf	?_I2C_Master_Read,w
  1353  0DAD  1683               	bsf	3,5	;RP0=1, select bank1
  1354  0DAE  1303               	bcf	3,6	;RP1=0, select bank1
  1355  0DAF  00D5               	movwf	??_main^(0+128)
  1356  0DB0  0855               	movf	??_main^(0+128),w
  1357  0DB1  00E2               	movwf	_POT^(0+128)
  1358  0DB2                     l3385:
  1359                           
  1360                           ;MAIN_M.c: 103:         I2C_Master_Stop();
  1361  0DB2  160A  118A  2106  120A  158A  	fcall	_I2C_Master_Stop
  1362  0DB7                     l3387:
  1363                           
  1364                           ;MAIN_M.c: 104:         _delay((unsigned long)((10)*(8000000/4000.0)));
  1365  0DB7  301A               	movlw	26
  1366  0DB8  1683               	bsf	3,5	;RP0=1, select bank1
  1367  0DB9  1303               	bcf	3,6	;RP1=0, select bank1
  1368  0DBA  00D6               	movwf	(??_main^(0+128)+1)
  1369  0DBB  30F7               	movlw	247
  1370  0DBC  00D5               	movwf	??_main^(0+128)
  1371  0DBD                     u4347:
  1372  0DBD  0BD5               	decfsz	??_main^(0+128),f
  1373  0DBE  2DBD               	goto	u4347
  1374  0DBF  0BD6               	decfsz	(??_main^(0+128)+1),f
  1375  0DC0  2DBD               	goto	u4347
  1376  0DC1  2DC2               	nop2
  1377  0DC2                     l3389:
  1378                           
  1379                           ;MAIN_M.c: 114:         if(select !=0){
  1380  0DC2  0879               	movf	_select,w
  1381  0DC3  1903               	btfsc	3,2
  1382  0DC4  2DC6               	goto	u4281
  1383  0DC5  2DC7               	goto	u4280
  1384  0DC6                     u4281:
  1385  0DC6  2EFA               	goto	l3423
  1386  0DC7                     u4280:
  1387  0DC7                     l3391:
  1388                           
  1389                           ;MAIN_M.c: 115:             if(select == 1){
  1390  0DC7  0379               	decf	_select,w
  1391  0DC8  1D03               	btfss	3,2
  1392  0DC9  2DCB               	goto	u4291
  1393  0DCA  2DCC               	goto	u4290
  1394  0DCB                     u4291:
  1395  0DCB  2DF6               	goto	l3397
  1396  0DCC                     u4290:
  1397  0DCC                     l3393:
  1398                           
  1399                           ;MAIN_M.c: 116:                 parametro = PAM(parametro,hora);
  1400  0DCC  1683               	bsf	3,5	;RP0=1, select bank1
  1401  0DCD  1303               	bcf	3,6	;RP1=0, select bank1
  1402  0DCE  085C               	movf	_hora^(0+128),w
  1403  0DCF  00D5               	movwf	??_main^(0+128)
  1404  0DD0  0855               	movf	??_main^(0+128),w
  1405  0DD1  1283               	bcf	3,5	;RP0=0, select bank0
  1406  0DD2  1303               	bcf	3,6	;RP1=0, select bank0
  1407  0DD3  00A8               	movwf	PAM@rtc
  1408  0DD4  0878               	movf	_parametro,w
  1409  0DD5  160A  118A  21F8  120A  158A  	fcall	_PAM
  1410  0DDA  1683               	bsf	3,5	;RP0=1, select bank1
  1411  0DDB  1303               	bcf	3,6	;RP1=0, select bank1
  1412  0DDC  00D6               	movwf	(??_main+1)^(0+128)
  1413  0DDD  0856               	movf	(??_main+1)^(0+128),w
  1414  0DDE  00F8               	movwf	_parametro
  1415  0DDF                     l3395:
  1416                           
  1417                           ;MAIN_M.c: 117:                 hora = CONFIGURAR_v2(1,8,parametro,hora);
  1418  0DDF  3008               	movlw	8
  1419  0DE0  00D5               	movwf	??_main^(0+128)
  1420  0DE1  0855               	movf	??_main^(0+128),w
  1421  0DE2  00C0               	movwf	CONFIGURAR_v2@y^(0+128)
  1422  0DE3  0878               	movf	_parametro,w
  1423  0DE4  00D6               	movwf	(??_main+1)^(0+128)
  1424  0DE5  0856               	movf	(??_main+1)^(0+128),w
  1425  0DE6  00C1               	movwf	CONFIGURAR_v2@parametro^(0+128)
  1426  0DE7  085C               	movf	_hora^(0+128),w
  1427  0DE8  00D7               	movwf	(??_main+2)^(0+128)
  1428  0DE9  0857               	movf	(??_main+2)^(0+128),w
  1429  0DEA  00C2               	movwf	CONFIGURAR_v2@rtc^(0+128)
  1430  0DEB  3001               	movlw	1
  1431  0DEC  160A  118A  22D2  120A  158A  	fcall	_CONFIGURAR_v2
  1432  0DF1  1683               	bsf	3,5	;RP0=1, select bank1
  1433  0DF2  1303               	bcf	3,6	;RP1=0, select bank1
  1434  0DF3  00D8               	movwf	(??_main+3)^(0+128)
  1435  0DF4  0858               	movf	(??_main+3)^(0+128),w
  1436  0DF5  00DC               	movwf	_hora^(0+128)
  1437  0DF6                     l3397:
  1438                           
  1439                           ;MAIN_M.c: 119:             if(select == 2){
  1440  0DF6  3002               	movlw	2
  1441  0DF7  0679               	xorwf	_select,w
  1442  0DF8  1D03               	btfss	3,2
  1443  0DF9  2DFB               	goto	u4301
  1444  0DFA  2DFC               	goto	u4300
  1445  0DFB                     u4301:
  1446  0DFB  2E26               	goto	l3403
  1447  0DFC                     u4300:
  1448  0DFC                     l3399:
  1449                           
  1450                           ;MAIN_M.c: 120:                 parametro = PAM(parametro,min);
  1451  0DFC  1683               	bsf	3,5	;RP0=1, select bank1
  1452  0DFD  1303               	bcf	3,6	;RP1=0, select bank1
  1453  0DFE  085D               	movf	_min^(0+128),w
  1454  0DFF  00D5               	movwf	??_main^(0+128)
  1455  0E00  0855               	movf	??_main^(0+128),w
  1456  0E01  1283               	bcf	3,5	;RP0=0, select bank0
  1457  0E02  1303               	bcf	3,6	;RP1=0, select bank0
  1458  0E03  00A8               	movwf	PAM@rtc
  1459  0E04  0878               	movf	_parametro,w
  1460  0E05  160A  118A  21F8  120A  158A  	fcall	_PAM
  1461  0E0A  1683               	bsf	3,5	;RP0=1, select bank1
  1462  0E0B  1303               	bcf	3,6	;RP1=0, select bank1
  1463  0E0C  00D6               	movwf	(??_main+1)^(0+128)
  1464  0E0D  0856               	movf	(??_main+1)^(0+128),w
  1465  0E0E  00F8               	movwf	_parametro
  1466  0E0F                     l3401:
  1467                           
  1468                           ;MAIN_M.c: 121:                 min = CONFIGURAR_v2(1,11,parametro,min);
  1469  0E0F  300B               	movlw	11
  1470  0E10  00D5               	movwf	??_main^(0+128)
  1471  0E11  0855               	movf	??_main^(0+128),w
  1472  0E12  00C0               	movwf	CONFIGURAR_v2@y^(0+128)
  1473  0E13  0878               	movf	_parametro,w
  1474  0E14  00D6               	movwf	(??_main+1)^(0+128)
  1475  0E15  0856               	movf	(??_main+1)^(0+128),w
  1476  0E16  00C1               	movwf	CONFIGURAR_v2@parametro^(0+128)
  1477  0E17  085D               	movf	_min^(0+128),w
  1478  0E18  00D7               	movwf	(??_main+2)^(0+128)
  1479  0E19  0857               	movf	(??_main+2)^(0+128),w
  1480  0E1A  00C2               	movwf	CONFIGURAR_v2@rtc^(0+128)
  1481  0E1B  3001               	movlw	1
  1482  0E1C  160A  118A  22D2  120A  158A  	fcall	_CONFIGURAR_v2
  1483  0E21  1683               	bsf	3,5	;RP0=1, select bank1
  1484  0E22  1303               	bcf	3,6	;RP1=0, select bank1
  1485  0E23  00D8               	movwf	(??_main+3)^(0+128)
  1486  0E24  0858               	movf	(??_main+3)^(0+128),w
  1487  0E25  00DD               	movwf	_min^(0+128)
  1488  0E26                     l3403:
  1489                           
  1490                           ;MAIN_M.c: 123:             if(select == 3){
  1491  0E26  3003               	movlw	3
  1492  0E27  0679               	xorwf	_select,w
  1493  0E28  1D03               	btfss	3,2
  1494  0E29  2E2B               	goto	u4311
  1495  0E2A  2E2C               	goto	u4310
  1496  0E2B                     u4311:
  1497  0E2B  2E56               	goto	l3409
  1498  0E2C                     u4310:
  1499  0E2C                     l3405:
  1500                           
  1501                           ;MAIN_M.c: 124:                 parametro = PAM(parametro,mes);
  1502  0E2C  1683               	bsf	3,5	;RP0=1, select bank1
  1503  0E2D  1303               	bcf	3,6	;RP1=0, select bank1
  1504  0E2E  085A               	movf	_mes^(0+128),w
  1505  0E2F  00D5               	movwf	??_main^(0+128)
  1506  0E30  0855               	movf	??_main^(0+128),w
  1507  0E31  1283               	bcf	3,5	;RP0=0, select bank0
  1508  0E32  1303               	bcf	3,6	;RP1=0, select bank0
  1509  0E33  00A8               	movwf	PAM@rtc
  1510  0E34  0878               	movf	_parametro,w
  1511  0E35  160A  118A  21F8  120A  158A  	fcall	_PAM
  1512  0E3A  1683               	bsf	3,5	;RP0=1, select bank1
  1513  0E3B  1303               	bcf	3,6	;RP1=0, select bank1
  1514  0E3C  00D6               	movwf	(??_main+1)^(0+128)
  1515  0E3D  0856               	movf	(??_main+1)^(0+128),w
  1516  0E3E  00F8               	movwf	_parametro
  1517  0E3F                     l3407:
  1518                           
  1519                           ;MAIN_M.c: 125:                 mes = CONFIGURAR_v2(2,9,parametro,mes);
  1520  0E3F  3009               	movlw	9
  1521  0E40  00D5               	movwf	??_main^(0+128)
  1522  0E41  0855               	movf	??_main^(0+128),w
  1523  0E42  00C0               	movwf	CONFIGURAR_v2@y^(0+128)
  1524  0E43  0878               	movf	_parametro,w
  1525  0E44  00D6               	movwf	(??_main+1)^(0+128)
  1526  0E45  0856               	movf	(??_main+1)^(0+128),w
  1527  0E46  00C1               	movwf	CONFIGURAR_v2@parametro^(0+128)
  1528  0E47  085A               	movf	_mes^(0+128),w
  1529  0E48  00D7               	movwf	(??_main+2)^(0+128)
  1530  0E49  0857               	movf	(??_main+2)^(0+128),w
  1531  0E4A  00C2               	movwf	CONFIGURAR_v2@rtc^(0+128)
  1532  0E4B  3002               	movlw	2
  1533  0E4C  160A  118A  22D2  120A  158A  	fcall	_CONFIGURAR_v2
  1534  0E51  1683               	bsf	3,5	;RP0=1, select bank1
  1535  0E52  1303               	bcf	3,6	;RP1=0, select bank1
  1536  0E53  00D8               	movwf	(??_main+3)^(0+128)
  1537  0E54  0858               	movf	(??_main+3)^(0+128),w
  1538  0E55  00DA               	movwf	_mes^(0+128)
  1539  0E56                     l3409:
  1540                           
  1541                           ;MAIN_M.c: 127:             if(select == 4){
  1542  0E56  3004               	movlw	4
  1543  0E57  0679               	xorwf	_select,w
  1544  0E58  1D03               	btfss	3,2
  1545  0E59  2E5B               	goto	u4321
  1546  0E5A  2E5C               	goto	u4320
  1547  0E5B                     u4321:
  1548  0E5B  2E86               	goto	l3415
  1549  0E5C                     u4320:
  1550  0E5C                     l3411:
  1551                           
  1552                           ;MAIN_M.c: 128:                 parametro = PAM(parametro,year);
  1553  0E5C  1683               	bsf	3,5	;RP0=1, select bank1
  1554  0E5D  1303               	bcf	3,6	;RP1=0, select bank1
  1555  0E5E  0859               	movf	_year^(0+128),w
  1556  0E5F  00D5               	movwf	??_main^(0+128)
  1557  0E60  0855               	movf	??_main^(0+128),w
  1558  0E61  1283               	bcf	3,5	;RP0=0, select bank0
  1559  0E62  1303               	bcf	3,6	;RP1=0, select bank0
  1560  0E63  00A8               	movwf	PAM@rtc
  1561  0E64  0878               	movf	_parametro,w
  1562  0E65  160A  118A  21F8  120A  158A  	fcall	_PAM
  1563  0E6A  1683               	bsf	3,5	;RP0=1, select bank1
  1564  0E6B  1303               	bcf	3,6	;RP1=0, select bank1
  1565  0E6C  00D6               	movwf	(??_main+1)^(0+128)
  1566  0E6D  0856               	movf	(??_main+1)^(0+128),w
  1567  0E6E  00F8               	movwf	_parametro
  1568  0E6F                     l3413:
  1569                           
  1570                           ;MAIN_M.c: 129:                 year = CONFIGURAR_v2(2,14,parametro,year);
  1571  0E6F  300E               	movlw	14
  1572  0E70  00D5               	movwf	??_main^(0+128)
  1573  0E71  0855               	movf	??_main^(0+128),w
  1574  0E72  00C0               	movwf	CONFIGURAR_v2@y^(0+128)
  1575  0E73  0878               	movf	_parametro,w
  1576  0E74  00D6               	movwf	(??_main+1)^(0+128)
  1577  0E75  0856               	movf	(??_main+1)^(0+128),w
  1578  0E76  00C1               	movwf	CONFIGURAR_v2@parametro^(0+128)
  1579  0E77  0859               	movf	_year^(0+128),w
  1580  0E78  00D7               	movwf	(??_main+2)^(0+128)
  1581  0E79  0857               	movf	(??_main+2)^(0+128),w
  1582  0E7A  00C2               	movwf	CONFIGURAR_v2@rtc^(0+128)
  1583  0E7B  3002               	movlw	2
  1584  0E7C  160A  118A  22D2  120A  158A  	fcall	_CONFIGURAR_v2
  1585  0E81  1683               	bsf	3,5	;RP0=1, select bank1
  1586  0E82  1303               	bcf	3,6	;RP1=0, select bank1
  1587  0E83  00D8               	movwf	(??_main+3)^(0+128)
  1588  0E84  0858               	movf	(??_main+3)^(0+128),w
  1589  0E85  00D9               	movwf	_year^(0+128)
  1590  0E86                     l3415:
  1591                           
  1592                           ;MAIN_M.c: 131:             if(select == 5){
  1593  0E86  3005               	movlw	5
  1594  0E87  0679               	xorwf	_select,w
  1595  0E88  1D03               	btfss	3,2
  1596  0E89  2E8B               	goto	u4331
  1597  0E8A  2E8C               	goto	u4330
  1598  0E8B                     u4331:
  1599  0E8B  2F83               	goto	l3425
  1600  0E8C                     u4330:
  1601  0E8C                     l3417:
  1602                           
  1603                           ;MAIN_M.c: 132:                 RTC_WRITE(0xD0,0x02,hora);
  1604  0E8C  30D0               	movlw	208
  1605  0E8D  1283               	bcf	3,5	;RP0=0, select bank0
  1606  0E8E  1303               	bcf	3,6	;RP1=0, select bank0
  1607  0E8F  00A2               	movwf	RTC_WRITE@I2C
  1608  0E90  3000               	movlw	0
  1609  0E91  00A3               	movwf	RTC_WRITE@I2C+1
  1610  0E92  3002               	movlw	2
  1611  0E93  00A4               	movwf	RTC_WRITE@d
  1612  0E94  3000               	movlw	0
  1613  0E95  00A5               	movwf	RTC_WRITE@d+1
  1614  0E96  1683               	bsf	3,5	;RP0=1, select bank1
  1615  0E97  1303               	bcf	3,6	;RP1=0, select bank1
  1616  0E98  085C               	movf	_hora^(0+128),w
  1617  0E99  00D5               	movwf	??_main^(0+128)
  1618  0E9A  0855               	movf	??_main^(0+128),w
  1619  0E9B  1283               	bcf	3,5	;RP0=0, select bank0
  1620  0E9C  1303               	bcf	3,6	;RP1=0, select bank0
  1621  0E9D  00A6               	movwf	RTC_WRITE@parametro
  1622  0E9E  160A  118A  2307  120A  158A  	fcall	_RTC_WRITE
  1623                           
  1624                           ;MAIN_M.c: 133:                 RTC_WRITE(0xD0,0x01,min);
  1625  0EA3  30D0               	movlw	208
  1626  0EA4  1283               	bcf	3,5	;RP0=0, select bank0
  1627  0EA5  1303               	bcf	3,6	;RP1=0, select bank0
  1628  0EA6  00A2               	movwf	RTC_WRITE@I2C
  1629  0EA7  3000               	movlw	0
  1630  0EA8  00A3               	movwf	RTC_WRITE@I2C+1
  1631  0EA9  3001               	movlw	1
  1632  0EAA  00A4               	movwf	RTC_WRITE@d
  1633  0EAB  3000               	movlw	0
  1634  0EAC  00A5               	movwf	RTC_WRITE@d+1
  1635  0EAD  1683               	bsf	3,5	;RP0=1, select bank1
  1636  0EAE  1303               	bcf	3,6	;RP1=0, select bank1
  1637  0EAF  085D               	movf	_min^(0+128),w
  1638  0EB0  00D5               	movwf	??_main^(0+128)
  1639  0EB1  0855               	movf	??_main^(0+128),w
  1640  0EB2  1283               	bcf	3,5	;RP0=0, select bank0
  1641  0EB3  1303               	bcf	3,6	;RP1=0, select bank0
  1642  0EB4  00A6               	movwf	RTC_WRITE@parametro
  1643  0EB5  160A  118A  2307  120A  158A  	fcall	_RTC_WRITE
  1644                           
  1645                           ;MAIN_M.c: 134:                 RTC_WRITE(0xD0,0x05,mes);
  1646  0EBA  30D0               	movlw	208
  1647  0EBB  1283               	bcf	3,5	;RP0=0, select bank0
  1648  0EBC  1303               	bcf	3,6	;RP1=0, select bank0
  1649  0EBD  00A2               	movwf	RTC_WRITE@I2C
  1650  0EBE  3000               	movlw	0
  1651  0EBF  00A3               	movwf	RTC_WRITE@I2C+1
  1652  0EC0  3005               	movlw	5
  1653  0EC1  00A4               	movwf	RTC_WRITE@d
  1654  0EC2  3000               	movlw	0
  1655  0EC3  00A5               	movwf	RTC_WRITE@d+1
  1656  0EC4  1683               	bsf	3,5	;RP0=1, select bank1
  1657  0EC5  1303               	bcf	3,6	;RP1=0, select bank1
  1658  0EC6  085A               	movf	_mes^(0+128),w
  1659  0EC7  00D5               	movwf	??_main^(0+128)
  1660  0EC8  0855               	movf	??_main^(0+128),w
  1661  0EC9  1283               	bcf	3,5	;RP0=0, select bank0
  1662  0ECA  1303               	bcf	3,6	;RP1=0, select bank0
  1663  0ECB  00A6               	movwf	RTC_WRITE@parametro
  1664  0ECC  160A  118A  2307  120A  158A  	fcall	_RTC_WRITE
  1665                           
  1666                           ;MAIN_M.c: 135:                 RTC_WRITE(0xD0,0x06,year);
  1667  0ED1  30D0               	movlw	208
  1668  0ED2  1283               	bcf	3,5	;RP0=0, select bank0
  1669  0ED3  1303               	bcf	3,6	;RP1=0, select bank0
  1670  0ED4  00A2               	movwf	RTC_WRITE@I2C
  1671  0ED5  3000               	movlw	0
  1672  0ED6  00A3               	movwf	RTC_WRITE@I2C+1
  1673  0ED7  3006               	movlw	6
  1674  0ED8  00A4               	movwf	RTC_WRITE@d
  1675  0ED9  3000               	movlw	0
  1676  0EDA  00A5               	movwf	RTC_WRITE@d+1
  1677  0EDB  1683               	bsf	3,5	;RP0=1, select bank1
  1678  0EDC  1303               	bcf	3,6	;RP1=0, select bank1
  1679  0EDD  0859               	movf	_year^(0+128),w
  1680  0EDE  00D5               	movwf	??_main^(0+128)
  1681  0EDF  0855               	movf	??_main^(0+128),w
  1682  0EE0  1283               	bcf	3,5	;RP0=0, select bank0
  1683  0EE1  1303               	bcf	3,6	;RP1=0, select bank0
  1684  0EE2  00A6               	movwf	RTC_WRITE@parametro
  1685  0EE3  160A  118A  2307  120A  158A  	fcall	_RTC_WRITE
  1686                           
  1687                           ;MAIN_M.c: 136:                 RTC_WRITE(0xD0,0x00,0x00);
  1688  0EE8  30D0               	movlw	208
  1689  0EE9  1283               	bcf	3,5	;RP0=0, select bank0
  1690  0EEA  1303               	bcf	3,6	;RP1=0, select bank0
  1691  0EEB  00A2               	movwf	RTC_WRITE@I2C
  1692  0EEC  3000               	movlw	0
  1693  0EED  00A3               	movwf	RTC_WRITE@I2C+1
  1694  0EEE  3000               	movlw	0
  1695  0EEF  00A4               	movwf	RTC_WRITE@d
  1696  0EF0  00A5               	movwf	RTC_WRITE@d+1
  1697  0EF1  01A6               	clrf	RTC_WRITE@parametro
  1698  0EF2  160A  118A  2307  120A  158A  	fcall	_RTC_WRITE
  1699  0EF7                     l3419:
  1700                           
  1701                           ;MAIN_M.c: 137:                 parametro = 0;
  1702  0EF7  01F8               	clrf	_parametro
  1703  0EF8                     l3421:
  1704                           
  1705                           ;MAIN_M.c: 138:                 select = 0;
  1706  0EF8  01F9               	clrf	_select
  1707  0EF9  2F83               	goto	l3425
  1708  0EFA                     l3423:
  1709                           
  1710                           ;MAIN_M.c: 141:         seg = RTC_READ(0xD0,0x00);
  1711  0EFA  30D0               	movlw	208
  1712  0EFB  1283               	bcf	3,5	;RP0=0, select bank0
  1713  0EFC  1303               	bcf	3,6	;RP1=0, select bank0
  1714  0EFD  00A6               	movwf	RTC_READ@I2C
  1715  0EFE  3000               	movlw	0
  1716  0EFF  00A7               	movwf	RTC_READ@I2C+1
  1717  0F00  3000               	movlw	0
  1718  0F01  00A8               	movwf	RTC_READ@d
  1719  0F02  00A9               	movwf	RTC_READ@d+1
  1720  0F03  160A  118A  25DE  120A  158A  	fcall	_RTC_READ
  1721  0F08  1283               	bcf	3,5	;RP0=0, select bank0
  1722  0F09  1303               	bcf	3,6	;RP1=0, select bank0
  1723  0F0A  0826               	movf	?_RTC_READ,w
  1724  0F0B  1683               	bsf	3,5	;RP0=1, select bank1
  1725  0F0C  1303               	bcf	3,6	;RP1=0, select bank1
  1726  0F0D  00D5               	movwf	??_main^(0+128)
  1727  0F0E  0855               	movf	??_main^(0+128),w
  1728  0F0F  00DE               	movwf	_seg^(0+128)
  1729                           
  1730                           ;MAIN_M.c: 142:         min = RTC_READ(0xD0,0x01);
  1731  0F10  30D0               	movlw	208
  1732  0F11  1283               	bcf	3,5	;RP0=0, select bank0
  1733  0F12  1303               	bcf	3,6	;RP1=0, select bank0
  1734  0F13  00A6               	movwf	RTC_READ@I2C
  1735  0F14  3000               	movlw	0
  1736  0F15  00A7               	movwf	RTC_READ@I2C+1
  1737  0F16  3001               	movlw	1
  1738  0F17  00A8               	movwf	RTC_READ@d
  1739  0F18  3000               	movlw	0
  1740  0F19  00A9               	movwf	RTC_READ@d+1
  1741  0F1A  160A  118A  25DE  120A  158A  	fcall	_RTC_READ
  1742  0F1F  1283               	bcf	3,5	;RP0=0, select bank0
  1743  0F20  1303               	bcf	3,6	;RP1=0, select bank0
  1744  0F21  0826               	movf	?_RTC_READ,w
  1745  0F22  1683               	bsf	3,5	;RP0=1, select bank1
  1746  0F23  1303               	bcf	3,6	;RP1=0, select bank1
  1747  0F24  00D5               	movwf	??_main^(0+128)
  1748  0F25  0855               	movf	??_main^(0+128),w
  1749  0F26  00DD               	movwf	_min^(0+128)
  1750                           
  1751                           ;MAIN_M.c: 143:         hora = RTC_READ(0xD0,0x02);
  1752  0F27  30D0               	movlw	208
  1753  0F28  1283               	bcf	3,5	;RP0=0, select bank0
  1754  0F29  1303               	bcf	3,6	;RP1=0, select bank0
  1755  0F2A  00A6               	movwf	RTC_READ@I2C
  1756  0F2B  3000               	movlw	0
  1757  0F2C  00A7               	movwf	RTC_READ@I2C+1
  1758  0F2D  3002               	movlw	2
  1759  0F2E  00A8               	movwf	RTC_READ@d
  1760  0F2F  3000               	movlw	0
  1761  0F30  00A9               	movwf	RTC_READ@d+1
  1762  0F31  160A  118A  25DE  120A  158A  	fcall	_RTC_READ
  1763  0F36  1283               	bcf	3,5	;RP0=0, select bank0
  1764  0F37  1303               	bcf	3,6	;RP1=0, select bank0
  1765  0F38  0826               	movf	?_RTC_READ,w
  1766  0F39  1683               	bsf	3,5	;RP0=1, select bank1
  1767  0F3A  1303               	bcf	3,6	;RP1=0, select bank1
  1768  0F3B  00D5               	movwf	??_main^(0+128)
  1769  0F3C  0855               	movf	??_main^(0+128),w
  1770  0F3D  00DC               	movwf	_hora^(0+128)
  1771                           
  1772                           ;MAIN_M.c: 144:         dia = RTC_READ(0xD0,0x04);
  1773  0F3E  30D0               	movlw	208
  1774  0F3F  1283               	bcf	3,5	;RP0=0, select bank0
  1775  0F40  1303               	bcf	3,6	;RP1=0, select bank0
  1776  0F41  00A6               	movwf	RTC_READ@I2C
  1777  0F42  3000               	movlw	0
  1778  0F43  00A7               	movwf	RTC_READ@I2C+1
  1779  0F44  3004               	movlw	4
  1780  0F45  00A8               	movwf	RTC_READ@d
  1781  0F46  3000               	movlw	0
  1782  0F47  00A9               	movwf	RTC_READ@d+1
  1783  0F48  160A  118A  25DE  120A  158A  	fcall	_RTC_READ
  1784  0F4D  1283               	bcf	3,5	;RP0=0, select bank0
  1785  0F4E  1303               	bcf	3,6	;RP1=0, select bank0
  1786  0F4F  0826               	movf	?_RTC_READ,w
  1787  0F50  1683               	bsf	3,5	;RP0=1, select bank1
  1788  0F51  1303               	bcf	3,6	;RP1=0, select bank1
  1789  0F52  00D5               	movwf	??_main^(0+128)
  1790  0F53  0855               	movf	??_main^(0+128),w
  1791  0F54  00DB               	movwf	_dia^(0+128)
  1792                           
  1793                           ;MAIN_M.c: 145:         mes = RTC_READ(0xD0,0x05);
  1794  0F55  30D0               	movlw	208
  1795  0F56  1283               	bcf	3,5	;RP0=0, select bank0
  1796  0F57  1303               	bcf	3,6	;RP1=0, select bank0
  1797  0F58  00A6               	movwf	RTC_READ@I2C
  1798  0F59  3000               	movlw	0
  1799  0F5A  00A7               	movwf	RTC_READ@I2C+1
  1800  0F5B  3005               	movlw	5
  1801  0F5C  00A8               	movwf	RTC_READ@d
  1802  0F5D  3000               	movlw	0
  1803  0F5E  00A9               	movwf	RTC_READ@d+1
  1804  0F5F  160A  118A  25DE  120A  158A  	fcall	_RTC_READ
  1805  0F64  1283               	bcf	3,5	;RP0=0, select bank0
  1806  0F65  1303               	bcf	3,6	;RP1=0, select bank0
  1807  0F66  0826               	movf	?_RTC_READ,w
  1808  0F67  1683               	bsf	3,5	;RP0=1, select bank1
  1809  0F68  1303               	bcf	3,6	;RP1=0, select bank1
  1810  0F69  00D5               	movwf	??_main^(0+128)
  1811  0F6A  0855               	movf	??_main^(0+128),w
  1812  0F6B  00DA               	movwf	_mes^(0+128)
  1813                           
  1814                           ;MAIN_M.c: 146:         year = RTC_READ(0xD0,0x06);
  1815  0F6C  30D0               	movlw	208
  1816  0F6D  1283               	bcf	3,5	;RP0=0, select bank0
  1817  0F6E  1303               	bcf	3,6	;RP1=0, select bank0
  1818  0F6F  00A6               	movwf	RTC_READ@I2C
  1819  0F70  3000               	movlw	0
  1820  0F71  00A7               	movwf	RTC_READ@I2C+1
  1821  0F72  3006               	movlw	6
  1822  0F73  00A8               	movwf	RTC_READ@d
  1823  0F74  3000               	movlw	0
  1824  0F75  00A9               	movwf	RTC_READ@d+1
  1825  0F76  160A  118A  25DE  120A  158A  	fcall	_RTC_READ
  1826  0F7B  1283               	bcf	3,5	;RP0=0, select bank0
  1827  0F7C  1303               	bcf	3,6	;RP1=0, select bank0
  1828  0F7D  0826               	movf	?_RTC_READ,w
  1829  0F7E  1683               	bsf	3,5	;RP0=1, select bank1
  1830  0F7F  1303               	bcf	3,6	;RP1=0, select bank1
  1831  0F80  00D5               	movwf	??_main^(0+128)
  1832  0F81  0855               	movf	??_main^(0+128),w
  1833  0F82  00D9               	movwf	_year^(0+128)
  1834  0F83                     l3425:
  1835                           
  1836                           ;MAIN_M.c: 149:         centena = CENTENA(POT);
  1837  0F83  1683               	bsf	3,5	;RP0=1, select bank1
  1838  0F84  1303               	bcf	3,6	;RP1=0, select bank1
  1839  0F85  0862               	movf	_POT^(0+128),w
  1840  0F86  160A  118A  2715  120A  158A  	fcall	_CENTENA
  1841  0F8B  1683               	bsf	3,5	;RP0=1, select bank1
  1842  0F8C  1303               	bcf	3,6	;RP1=0, select bank1
  1843  0F8D  00D5               	movwf	??_main^(0+128)
  1844  0F8E  0855               	movf	??_main^(0+128),w
  1845  0F8F  00DF               	movwf	_centena^(0+128)
  1846  0F90                     l3427:
  1847                           
  1848                           ;MAIN_M.c: 150:         decena = DECENA(POT);
  1849  0F90  0862               	movf	_POT^(0+128),w
  1850  0F91  120A  158A  20D5  120A  158A  	fcall	_DECENA
  1851  0F96  1683               	bsf	3,5	;RP0=1, select bank1
  1852  0F97  1303               	bcf	3,6	;RP1=0, select bank1
  1853  0F98  00D5               	movwf	??_main^(0+128)
  1854  0F99  0855               	movf	??_main^(0+128),w
  1855  0F9A  00E0               	movwf	_decena^(0+128)
  1856  0F9B                     l3429:
  1857                           
  1858                           ;MAIN_M.c: 151:         unidad = UNIDAD(POT);
  1859  0F9B  0862               	movf	_POT^(0+128),w
  1860  0F9C  120A  118A  2627  120A  158A  	fcall	_UNIDAD
  1861  0FA1  1683               	bsf	3,5	;RP0=1, select bank1
  1862  0FA2  1303               	bcf	3,6	;RP1=0, select bank1
  1863  0FA3  00D5               	movwf	??_main^(0+128)
  1864  0FA4  0855               	movf	??_main^(0+128),w
  1865  0FA5  00E1               	movwf	_unidad^(0+128)
  1866  0FA6                     l3431:
  1867                           
  1868                           ;MAIN_M.c: 153:         centena += '0';
  1869  0FA6  3030               	movlw	48
  1870  0FA7  00D5               	movwf	??_main^(0+128)
  1871  0FA8  0855               	movf	??_main^(0+128),w
  1872  0FA9  07DF               	addwf	_centena^(0+128),f
  1873  0FAA                     l3433:
  1874                           
  1875                           ;MAIN_M.c: 154:         decena += '0';
  1876  0FAA  3030               	movlw	48
  1877  0FAB  00D5               	movwf	??_main^(0+128)
  1878  0FAC  0855               	movf	??_main^(0+128),w
  1879  0FAD  07E0               	addwf	_decena^(0+128),f
  1880  0FAE                     l3435:
  1881                           
  1882                           ;MAIN_M.c: 155:         unidad += '0';
  1883  0FAE  3030               	movlw	48
  1884  0FAF  00D5               	movwf	??_main^(0+128)
  1885  0FB0  0855               	movf	??_main^(0+128),w
  1886  0FB1  07E1               	addwf	_unidad^(0+128),f
  1887  0FB2                     l3437:
  1888                           
  1889                           ;MAIN_M.c: 158:         LCD_CLEAR();
  1890  0FB2  160A  118A  212D  120A  158A  	fcall	_LCD_CLEAR
  1891  0FB7                     l3439:
  1892                           
  1893                           ;MAIN_M.c: 159:         LCD_XY(1,0);
  1894  0FB7  1283               	bcf	3,5	;RP0=0, select bank0
  1895  0FB8  1303               	bcf	3,6	;RP1=0, select bank0
  1896  0FB9  01A4               	clrf	LCD_XY@y
  1897  0FBA  3001               	movlw	1
  1898  0FBB  160A  118A  21DA  120A  158A  	fcall	_LCD_XY
  1899  0FC0                     l3441:
  1900                           
  1901                           ;MAIN_M.c: 160:         LCD_STRING("S1:");
  1902  0FC0  3001               	movlw	(low ((STR_1-__stringbase)| (0+32768)))& (0+255)
  1903  0FC1  1283               	bcf	3,5	;RP0=0, select bank0
  1904  0FC2  1303               	bcf	3,6	;RP1=0, select bank0
  1905  0FC3  00A4               	movwf	LCD_STRING@a
  1906  0FC4  3080               	movlw	128
  1907  0FC5  00A5               	movwf	LCD_STRING@a+1
  1908  0FC6  160A  118A  23F1  120A  158A  	fcall	_LCD_STRING
  1909  0FCB                     l3443:
  1910                           
  1911                           ;MAIN_M.c: 161:         LCD_XY(2,0);
  1912  0FCB  1283               	bcf	3,5	;RP0=0, select bank0
  1913  0FCC  1303               	bcf	3,6	;RP1=0, select bank0
  1914  0FCD  01A4               	clrf	LCD_XY@y
  1915  0FCE  3002               	movlw	2
  1916  0FCF  160A  118A  21DA  120A  158A  	fcall	_LCD_XY
  1917  0FD4                     l3445:
  1918                           
  1919                           ;MAIN_M.c: 162:         LCD_CHAR(centena);
  1920  0FD4  1683               	bsf	3,5	;RP0=1, select bank1
  1921  0FD5  1303               	bcf	3,6	;RP1=0, select bank1
  1922  0FD6  085F               	movf	_centena^(0+128),w
  1923  0FD7  160A  118A  21A2  120A  158A  	fcall	_LCD_CHAR
  1924  0FDC                     l3447:
  1925                           
  1926                           ;MAIN_M.c: 163:         LCD_STRING(".");
  1927  0FDC  3008               	movlw	(low ((STR_2-__stringbase)| (0+32768)))& (0+255)
  1928  0FDD  1283               	bcf	3,5	;RP0=0, select bank0
  1929  0FDE  1303               	bcf	3,6	;RP1=0, select bank0
  1930  0FDF  00A4               	movwf	LCD_STRING@a
  1931  0FE0  3080               	movlw	128
  1932  0FE1  00A5               	movwf	LCD_STRING@a+1
  1933  0FE2  160A  118A  23F1  120A  158A  	fcall	_LCD_STRING
  1934  0FE7                     l3449:
  1935                           
  1936                           ;MAIN_M.c: 164:         LCD_CHAR(decena);
  1937  0FE7  1683               	bsf	3,5	;RP0=1, select bank1
  1938  0FE8  1303               	bcf	3,6	;RP1=0, select bank1
  1939  0FE9  0860               	movf	_decena^(0+128),w
  1940  0FEA  160A  118A  21A2  120A  158A  	fcall	_LCD_CHAR
  1941  0FEF                     l3451:
  1942                           
  1943                           ;MAIN_M.c: 165:         LCD_CHAR(unidad);
  1944  0FEF  1683               	bsf	3,5	;RP0=1, select bank1
  1945  0FF0  1303               	bcf	3,6	;RP1=0, select bank1
  1946  0FF1  0861               	movf	_unidad^(0+128),w
  1947  0FF2  160A  118A  21A2  120A  158A  	fcall	_LCD_CHAR
  1948  0FF7                     l3453:
  1949                           
  1950                           ;MAIN_M.c: 167:         RTC_PRINT();
  1951  0FF7  120A  158A  2399  120A  158A  	fcall	_RTC_PRINT
  1952  0FFC  2D90               	goto	l3379
  1953  0FFD  120A  118A  280C   	ljmp	start
  1954  1000                     __end_of_main:
  1955                           
  1956                           	psect	text1
  1957  1437                     __ptext1:	
  1958 ;; *************** function _setup *****************
  1959 ;; Defined at:
  1960 ;;		line 173 in file "MAIN_M.c"
  1961 ;; Parameters:    Size  Location     Type
  1962 ;;		None
  1963 ;; Auto vars:     Size  Location     Type
  1964 ;;		None
  1965 ;; Return value:  Size  Location     Type
  1966 ;;                  1    wreg      void 
  1967 ;; Registers used:
  1968 ;;		wreg, fsr0l, fsr0h, status,2, status,0, pclath, cstack
  1969 ;; Tracked objects:
  1970 ;;		On entry : 0/0
  1971 ;;		On exit  : 0/0
  1972 ;;		Unchanged: 0/0
  1973 ;; Data sizes:     COMMON   BANK0   BANK1   BANK3   BANK2
  1974 ;;      Params:         0       0       0       0       0
  1975 ;;      Locals:         0       0       0       0       0
  1976 ;;      Temps:          0       0       0       0       0
  1977 ;;      Totals:         0       0       0       0       0
  1978 ;;Total ram usage:        0 bytes
  1979 ;; Hardware stack levels used: 1
  1980 ;; Hardware stack levels required when called: 5
  1981 ;; This function calls:
  1982 ;;		_I2C_Master_Init
  1983 ;;		_IOC_INT
  1984 ;;		_LCD_INIT
  1985 ;;		_OSCILLATOR
  1986 ;; This function is called by:
  1987 ;;		_main
  1988 ;; This function uses a non-reentrant model
  1989 ;;
  1990                           
  1991  1437                     _setup:	
  1992                           ;psect for function _setup
  1993                           
  1994  1437                     l3281:	
  1995                           ;incstack = 0
  1996                           ; Regs used in _setup: [wreg-fsr0h+status,2+status,0+pclath+cstack]
  1997                           
  1998                           
  1999                           ;MAIN_M.c: 175:     OSCILLATOR(1);
  2000  1437  3001               	movlw	1
  2001  1438  160A  118A  257C  160A  118A  	fcall	_OSCILLATOR
  2002  143D                     l3283:
  2003                           
  2004                           ;MAIN_M.c: 177:     ANSEL = 0x00;
  2005  143D  1683               	bsf	3,5	;RP0=1, select bank3
  2006  143E  1703               	bsf	3,6	;RP1=1, select bank3
  2007  143F  0188               	clrf	8	;volatile
  2008  1440                     l3285:
  2009                           
  2010                           ;MAIN_M.c: 178:     ANSELH = 0x00;
  2011  1440  0189               	clrf	9	;volatile
  2012  1441                     l3287:
  2013                           
  2014                           ;MAIN_M.c: 180:     TRISD = 0x00;
  2015  1441  1683               	bsf	3,5	;RP0=1, select bank1
  2016  1442  1303               	bcf	3,6	;RP1=0, select bank1
  2017  1443  0188               	clrf	8	;volatile
  2018  1444                     l3289:
  2019                           
  2020                           ;MAIN_M.c: 181:     PORTD = 0x00;
  2021  1444  1283               	bcf	3,5	;RP0=0, select bank0
  2022  1445  1303               	bcf	3,6	;RP1=0, select bank0
  2023  1446  0188               	clrf	8	;volatile
  2024  1447                     l3291:
  2025                           
  2026                           ;MAIN_M.c: 182:     TRISE = 0x00;
  2027  1447  1683               	bsf	3,5	;RP0=1, select bank1
  2028  1448  1303               	bcf	3,6	;RP1=0, select bank1
  2029  1449  0189               	clrf	9	;volatile
  2030  144A                     l3293:
  2031                           
  2032                           ;MAIN_M.c: 183:     PORTE = 0x00;
  2033  144A  1283               	bcf	3,5	;RP0=0, select bank0
  2034  144B  1303               	bcf	3,6	;RP1=0, select bank0
  2035  144C  0189               	clrf	9	;volatile
  2036  144D                     l3295:
  2037                           
  2038                           ;MAIN_M.c: 185:     TRISB = 0b00000011;
  2039  144D  3003               	movlw	3
  2040  144E  1683               	bsf	3,5	;RP0=1, select bank1
  2041  144F  1303               	bcf	3,6	;RP1=0, select bank1
  2042  1450  0086               	movwf	6	;volatile
  2043  1451                     l3297:
  2044                           
  2045                           ;MAIN_M.c: 186:     PORTB = 0x00;
  2046  1451  1283               	bcf	3,5	;RP0=0, select bank0
  2047  1452  1303               	bcf	3,6	;RP1=0, select bank0
  2048  1453  0186               	clrf	6	;volatile
  2049  1454                     l3299:
  2050                           
  2051                           ;MAIN_M.c: 189:     IOC_INT(0b00000011);
  2052  1454  3003               	movlw	3
  2053  1455  160A  118A  215A  160A  118A  	fcall	_IOC_INT
  2054  145A                     l3301:
  2055                           
  2056                           ;MAIN_M.c: 191:     POT = 0;
  2057  145A  1683               	bsf	3,5	;RP0=1, select bank1
  2058  145B  1303               	bcf	3,6	;RP1=0, select bank1
  2059  145C  01E2               	clrf	_POT^(0+128)
  2060  145D                     l3303:
  2061                           
  2062                           ;MAIN_M.c: 192:     unidad = 0;
  2063  145D  01E1               	clrf	_unidad^(0+128)
  2064  145E                     l3305:
  2065                           
  2066                           ;MAIN_M.c: 193:     decena = 0;
  2067  145E  01E0               	clrf	_decena^(0+128)
  2068  145F                     l3307:
  2069                           
  2070                           ;MAIN_M.c: 194:     centena = 0;
  2071  145F  01DF               	clrf	_centena^(0+128)
  2072  1460                     l3309:
  2073                           
  2074                           ;MAIN_M.c: 196:     seg = 0;
  2075  1460  01DE               	clrf	_seg^(0+128)
  2076  1461                     l3311:
  2077                           
  2078                           ;MAIN_M.c: 197:     min = 0;
  2079  1461  01DD               	clrf	_min^(0+128)
  2080  1462                     l3313:
  2081                           
  2082                           ;MAIN_M.c: 198:     hora= 0;
  2083  1462  01DC               	clrf	_hora^(0+128)
  2084  1463                     l3315:
  2085                           
  2086                           ;MAIN_M.c: 199:     dia = 0;
  2087  1463  01DB               	clrf	_dia^(0+128)
  2088  1464                     l3317:
  2089                           
  2090                           ;MAIN_M.c: 200:     mes = 0;
  2091  1464  01DA               	clrf	_mes^(0+128)
  2092  1465                     l3319:
  2093                           
  2094                           ;MAIN_M.c: 201:     year= 0;
  2095  1465  01D9               	clrf	_year^(0+128)
  2096  1466                     l3321:
  2097                           
  2098                           ;MAIN_M.c: 203:     select = 0;
  2099  1466  01F9               	clrf	_select
  2100  1467                     l3323:
  2101                           
  2102                           ;MAIN_M.c: 204:     parametro = 0;
  2103  1467  01F8               	clrf	_parametro
  2104  1468                     l3325:
  2105                           
  2106                           ;MAIN_M.c: 206:     LCD_INIT();
  2107  1468  160A  118A  24CD  160A  118A  	fcall	_LCD_INIT
  2108  146D                     l3327:
  2109                           
  2110                           ;MAIN_M.c: 207:     I2C_Master_Init(100000);
  2111  146D  3000               	movlw	0
  2112  146E  1283               	bcf	3,5	;RP0=0, select bank0
  2113  146F  1303               	bcf	3,6	;RP1=0, select bank0
  2114  1470  00B1               	movwf	I2C_Master_Init@c+3
  2115  1471  3001               	movlw	1
  2116  1472  00B0               	movwf	I2C_Master_Init@c+2
  2117  1473  3086               	movlw	134
  2118  1474  00AF               	movwf	I2C_Master_Init@c+1
  2119  1475  30A0               	movlw	160
  2120  1476  00AE               	movwf	I2C_Master_Init@c
  2121  1477  160A  118A  2379  160A  118A  	fcall	_I2C_Master_Init
  2122  147C                     l136:
  2123  147C  0008               	return
  2124  147D                     __end_of_setup:
  2125                           
  2126                           	psect	text2
  2127  157C                     __ptext2:	
  2128 ;; *************** function _OSCILLATOR *****************
  2129 ;; Defined at:
  2130 ;;		line 40 in file "LCD.c"
  2131 ;; Parameters:    Size  Location     Type
  2132 ;;  f               1    wreg     unsigned char 
  2133 ;; Auto vars:     Size  Location     Type
  2134 ;;  f               1    2[BANK0 ] unsigned char 
  2135 ;; Return value:  Size  Location     Type
  2136 ;;                  1    wreg      void 
  2137 ;; Registers used:
  2138 ;;		wreg, fsr0l, fsr0h, status,2, status,0
  2139 ;; Tracked objects:
  2140 ;;		On entry : 0/0
  2141 ;;		On exit  : 0/0
  2142 ;;		Unchanged: 0/0
  2143 ;; Data sizes:     COMMON   BANK0   BANK1   BANK3   BANK2
  2144 ;;      Params:         0       0       0       0       0
  2145 ;;      Locals:         0       1       0       0       0
  2146 ;;      Temps:          0       2       0       0       0
  2147 ;;      Totals:         0       3       0       0       0
  2148 ;;Total ram usage:        3 bytes
  2149 ;; Hardware stack levels used: 1
  2150 ;; Hardware stack levels required when called: 2
  2151 ;; This function calls:
  2152 ;;		Nothing
  2153 ;; This function is called by:
  2154 ;;		_setup
  2155 ;; This function uses a non-reentrant model
  2156 ;;
  2157                           
  2158  157C                     _OSCILLATOR:	
  2159                           ;psect for function _OSCILLATOR
  2160                           
  2161                           
  2162                           ;incstack = 0
  2163                           ; Regs used in _OSCILLATOR: [wreg-fsr0h+status,2+status,0]
  2164                           ;OSCILLATOR@f stored from wreg
  2165  157C  1283               	bcf	3,5	;RP0=0, select bank0
  2166  157D  1303               	bcf	3,6	;RP1=0, select bank0
  2167  157E  00A2               	movwf	OSCILLATOR@f
  2168  157F                     l2891:
  2169                           
  2170                           ;LCD.c: 41:     OSCCONbits.SCS = 1;
  2171  157F  1683               	bsf	3,5	;RP0=1, select bank1
  2172  1580  1303               	bcf	3,6	;RP1=0, select bank1
  2173  1581  140F               	bsf	15,0	;volatile
  2174                           
  2175                           ;LCD.c: 43:     switch(f){
  2176  1582  2DB9               	goto	l2895
  2177  1583                     l211:	
  2178                           ;LCD.c: 44:         case(1):
  2179                           
  2180                           
  2181                           ;LCD.c: 45:             OSCCONbits.IRCF2 =1;
  2182  1583  1683               	bsf	3,5	;RP0=1, select bank1
  2183  1584  1303               	bcf	3,6	;RP1=0, select bank1
  2184  1585  170F               	bsf	15,6	;volatile
  2185                           
  2186                           ;LCD.c: 46:             OSCCONbits.IRCF1 =1;
  2187  1586  168F               	bsf	15,5	;volatile
  2188                           
  2189                           ;LCD.c: 47:             OSCCONbits.IRCF0 =1;
  2190  1587  160F               	bsf	15,4	;volatile
  2191                           
  2192                           ;LCD.c: 48:             break;
  2193  1588  2DDD               	goto	l221
  2194  1589                     l213:	
  2195                           ;LCD.c: 50:         case(2):
  2196                           
  2197                           
  2198                           ;LCD.c: 51:             OSCCONbits.IRCF2 =1;
  2199  1589  1683               	bsf	3,5	;RP0=1, select bank1
  2200  158A  1303               	bcf	3,6	;RP1=0, select bank1
  2201  158B  170F               	bsf	15,6	;volatile
  2202                           
  2203                           ;LCD.c: 52:             OSCCONbits.IRCF1 =1;
  2204  158C  168F               	bsf	15,5	;volatile
  2205                           
  2206                           ;LCD.c: 53:             OSCCONbits.IRCF0 =0;
  2207  158D  120F               	bcf	15,4	;volatile
  2208                           
  2209                           ;LCD.c: 54:             break;
  2210  158E  2DDD               	goto	l221
  2211  158F                     l214:	
  2212                           ;LCD.c: 56:         case(3):
  2213                           
  2214                           
  2215                           ;LCD.c: 57:             OSCCONbits.IRCF2 =1;
  2216  158F  1683               	bsf	3,5	;RP0=1, select bank1
  2217  1590  1303               	bcf	3,6	;RP1=0, select bank1
  2218  1591  170F               	bsf	15,6	;volatile
  2219                           
  2220                           ;LCD.c: 58:             OSCCONbits.IRCF1 =0;
  2221  1592  128F               	bcf	15,5	;volatile
  2222                           
  2223                           ;LCD.c: 59:             OSCCONbits.IRCF0 =1;
  2224  1593  160F               	bsf	15,4	;volatile
  2225                           
  2226                           ;LCD.c: 60:             break;
  2227  1594  2DDD               	goto	l221
  2228  1595                     l215:	
  2229                           ;LCD.c: 62:         case(4):
  2230                           
  2231                           
  2232                           ;LCD.c: 63:             OSCCONbits.IRCF2 =1;
  2233  1595  1683               	bsf	3,5	;RP0=1, select bank1
  2234  1596  1303               	bcf	3,6	;RP1=0, select bank1
  2235  1597  170F               	bsf	15,6	;volatile
  2236                           
  2237                           ;LCD.c: 64:             OSCCONbits.IRCF1 =0;
  2238  1598  128F               	bcf	15,5	;volatile
  2239                           
  2240                           ;LCD.c: 65:             OSCCONbits.IRCF0 =0;
  2241  1599  120F               	bcf	15,4	;volatile
  2242                           
  2243                           ;LCD.c: 66:             break;
  2244  159A  2DDD               	goto	l221
  2245  159B                     l216:	
  2246                           ;LCD.c: 68:         case(5):
  2247                           
  2248                           
  2249                           ;LCD.c: 69:             OSCCONbits.IRCF2 =0;
  2250  159B  1683               	bsf	3,5	;RP0=1, select bank1
  2251  159C  1303               	bcf	3,6	;RP1=0, select bank1
  2252  159D  130F               	bcf	15,6	;volatile
  2253                           
  2254                           ;LCD.c: 70:             OSCCONbits.IRCF1 =1;
  2255  159E  168F               	bsf	15,5	;volatile
  2256                           
  2257                           ;LCD.c: 71:             OSCCONbits.IRCF0 =1;
  2258  159F  160F               	bsf	15,4	;volatile
  2259                           
  2260                           ;LCD.c: 72:             break;
  2261  15A0  2DDD               	goto	l221
  2262  15A1                     l217:	
  2263                           ;LCD.c: 74:         case(6):
  2264                           
  2265                           
  2266                           ;LCD.c: 75:             OSCCONbits.IRCF2 =0;
  2267  15A1  1683               	bsf	3,5	;RP0=1, select bank1
  2268  15A2  1303               	bcf	3,6	;RP1=0, select bank1
  2269  15A3  130F               	bcf	15,6	;volatile
  2270                           
  2271                           ;LCD.c: 76:             OSCCONbits.IRCF1 =1;
  2272  15A4  168F               	bsf	15,5	;volatile
  2273                           
  2274                           ;LCD.c: 77:             OSCCONbits.IRCF0 =0;
  2275  15A5  120F               	bcf	15,4	;volatile
  2276                           
  2277                           ;LCD.c: 78:             break;
  2278  15A6  2DDD               	goto	l221
  2279  15A7                     l218:	
  2280                           ;LCD.c: 80:         case(7):
  2281                           
  2282                           
  2283                           ;LCD.c: 81:             OSCCONbits.IRCF2 =0;
  2284  15A7  1683               	bsf	3,5	;RP0=1, select bank1
  2285  15A8  1303               	bcf	3,6	;RP1=0, select bank1
  2286  15A9  130F               	bcf	15,6	;volatile
  2287                           
  2288                           ;LCD.c: 82:             OSCCONbits.IRCF1 =0;
  2289  15AA  128F               	bcf	15,5	;volatile
  2290                           
  2291                           ;LCD.c: 83:             OSCCONbits.IRCF0 =1;
  2292  15AB  160F               	bsf	15,4	;volatile
  2293                           
  2294                           ;LCD.c: 84:             break;
  2295  15AC  2DDD               	goto	l221
  2296  15AD                     l219:	
  2297                           ;LCD.c: 86:         case(8):
  2298                           
  2299                           
  2300                           ;LCD.c: 87:             OSCCONbits.IRCF2 =0;
  2301  15AD  1683               	bsf	3,5	;RP0=1, select bank1
  2302  15AE  1303               	bcf	3,6	;RP1=0, select bank1
  2303  15AF  130F               	bcf	15,6	;volatile
  2304                           
  2305                           ;LCD.c: 88:             OSCCONbits.IRCF1 =0;
  2306  15B0  128F               	bcf	15,5	;volatile
  2307                           
  2308                           ;LCD.c: 89:             OSCCONbits.IRCF0 =0;
  2309  15B1  120F               	bcf	15,4	;volatile
  2310                           
  2311                           ;LCD.c: 90:             break;
  2312  15B2  2DDD               	goto	l221
  2313  15B3                     l220:	
  2314                           ;LCD.c: 92:         default:
  2315                           
  2316                           
  2317                           ;LCD.c: 93:             OSCCONbits.IRCF2 =1;
  2318  15B3  1683               	bsf	3,5	;RP0=1, select bank1
  2319  15B4  1303               	bcf	3,6	;RP1=0, select bank1
  2320  15B5  170F               	bsf	15,6	;volatile
  2321                           
  2322                           ;LCD.c: 94:             OSCCONbits.IRCF1 =1;
  2323  15B6  168F               	bsf	15,5	;volatile
  2324                           
  2325                           ;LCD.c: 95:             OSCCONbits.IRCF0 =0;
  2326  15B7  120F               	bcf	15,4	;volatile
  2327                           
  2328                           ;LCD.c: 96:             break;
  2329  15B8  2DDD               	goto	l221
  2330  15B9                     l2895:
  2331  15B9  1283               	bcf	3,5	;RP0=0, select bank0
  2332  15BA  1303               	bcf	3,6	;RP1=0, select bank0
  2333  15BB  0822               	movf	OSCILLATOR@f,w
  2334  15BC  00A0               	movwf	??_OSCILLATOR
  2335  15BD  01A1               	clrf	??_OSCILLATOR+1
  2336                           
  2337                           ; Switch on 2 bytes has been partitioned into a top level switch of size 1, and 1 sub-sw
      +                          itches
  2338                           ; Switch size 1, requested type "simple"
  2339                           ; Number of cases is 1, Range of values is 0 to 0
  2340                           ; switch strategies available:
  2341                           ; Name         Instructions Cycles
  2342                           ; simple_byte            4     3 (average)
  2343                           ; direct_byte           11     8 (fixed)
  2344                           ; jumptable            260     6 (fixed)
  2345                           ;	Chosen strategy is simple_byte
  2346  15BE  0821               	movf	??_OSCILLATOR+1,w
  2347  15BF  3A00               	xorlw	0	; case 0
  2348  15C0  1903               	skipnz
  2349  15C1  2DC3               	goto	l3479
  2350  15C2  2DB3               	goto	l220
  2351  15C3                     l3479:
  2352                           
  2353                           ; Switch size 1, requested type "simple"
  2354                           ; Number of cases is 8, Range of values is 1 to 8
  2355                           ; switch strategies available:
  2356                           ; Name         Instructions Cycles
  2357                           ; simple_byte           25    13 (average)
  2358                           ; direct_byte           35    11 (fixed)
  2359                           ; jumptable            263     9 (fixed)
  2360                           ;	Chosen strategy is simple_byte
  2361  15C3  0820               	movf	??_OSCILLATOR,w
  2362  15C4  3A01               	xorlw	1	; case 1
  2363  15C5  1903               	skipnz
  2364  15C6  2D83               	goto	l211
  2365  15C7  3A03               	xorlw	3	; case 2
  2366  15C8  1903               	skipnz
  2367  15C9  2D89               	goto	l213
  2368  15CA  3A01               	xorlw	1	; case 3
  2369  15CB  1903               	skipnz
  2370  15CC  2D8F               	goto	l214
  2371  15CD  3A07               	xorlw	7	; case 4
  2372  15CE  1903               	skipnz
  2373  15CF  2D95               	goto	l215
  2374  15D0  3A01               	xorlw	1	; case 5
  2375  15D1  1903               	skipnz
  2376  15D2  2D9B               	goto	l216
  2377  15D3  3A03               	xorlw	3	; case 6
  2378  15D4  1903               	skipnz
  2379  15D5  2DA1               	goto	l217
  2380  15D6  3A01               	xorlw	1	; case 7
  2381  15D7  1903               	skipnz
  2382  15D8  2DA7               	goto	l218
  2383  15D9  3A0F               	xorlw	15	; case 8
  2384  15DA  1903               	skipnz
  2385  15DB  2DAD               	goto	l219
  2386  15DC  2DB3               	goto	l220
  2387  15DD                     l221:
  2388  15DD  0008               	return
  2389  15DE                     __end_of_OSCILLATOR:
  2390                           
  2391                           	psect	text3
  2392  14CD                     __ptext3:	
  2393 ;; *************** function _LCD_INIT *****************
  2394 ;; Defined at:
  2395 ;;		line 121 in file "LCD.c"
  2396 ;; Parameters:    Size  Location     Type
  2397 ;;		None
  2398 ;; Auto vars:     Size  Location     Type
  2399 ;;		None
  2400 ;; Return value:  Size  Location     Type
  2401 ;;                  1    wreg      void 
  2402 ;; Registers used:
  2403 ;;		wreg, status,2, status,0, pclath, cstack
  2404 ;; Tracked objects:
  2405 ;;		On entry : 0/0
  2406 ;;		On exit  : 0/0
  2407 ;;		Unchanged: 0/0
  2408 ;; Data sizes:     COMMON   BANK0   BANK1   BANK3   BANK2
  2409 ;;      Params:         0       0       0       0       0
  2410 ;;      Locals:         0       0       0       0       0
  2411 ;;      Temps:          0       2       0       0       0
  2412 ;;      Totals:         0       2       0       0       0
  2413 ;;Total ram usage:        2 bytes
  2414 ;; Hardware stack levels used: 1
  2415 ;; Hardware stack levels required when called: 4
  2416 ;; This function calls:
  2417 ;;		_LCD_COM
  2418 ;;		_LCD_PORT
  2419 ;; This function is called by:
  2420 ;;		_setup
  2421 ;; This function uses a non-reentrant model
  2422 ;;
  2423                           
  2424  14CD                     _LCD_INIT:	
  2425                           ;psect for function _LCD_INIT
  2426                           
  2427  14CD                     l3269:	
  2428                           ;incstack = 0
  2429                           ; Regs used in _LCD_INIT: [wreg+status,2+status,0+pclath+cstack]
  2430                           
  2431                           
  2432                           ;LCD.c: 122:     LCD_PORT(0x00);
  2433  14CD  3000               	movlw	0
  2434  14CE  160A  118A  20F7  160A  118A  	fcall	_LCD_PORT
  2435  14D3                     l3271:
  2436                           
  2437                           ;LCD.c: 123:  RE0 = 0;
  2438  14D3  1283               	bcf	3,5	;RP0=0, select bank0
  2439  14D4  1303               	bcf	3,6	;RP1=0, select bank0
  2440  14D5  1009               	bcf	9,0	;volatile
  2441  14D6                     l3273:
  2442                           
  2443                           ;LCD.c: 124:  _delay((unsigned long)((25)*(8000000/4000.0)));
  2444  14D6  3041               	movlw	65
  2445  14D7  1283               	bcf	3,5	;RP0=0, select bank0
  2446  14D8  1303               	bcf	3,6	;RP1=0, select bank0
  2447  14D9  00A5               	movwf	??_LCD_INIT+1
  2448  14DA  30ED               	movlw	237
  2449  14DB  00A4               	movwf	??_LCD_INIT
  2450  14DC                     u4357:
  2451  14DC  0BA4               	decfsz	??_LCD_INIT,f
  2452  14DD  2CDC               	goto	u4357
  2453  14DE  0BA5               	decfsz	??_LCD_INIT+1,f
  2454  14DF  2CDC               	goto	u4357
  2455  14E0  2CE1               	nop2
  2456  14E1                     l3275:
  2457                           
  2458                           ;LCD.c: 126:     LCD_COM(0x30);
  2459  14E1  3030               	movlw	48
  2460  14E2  160A  118A  2187  160A  118A  	fcall	_LCD_COM
  2461                           
  2462                           ;LCD.c: 127:   _delay((unsigned long)((5)*(8000000/4000.0)));
  2463  14E7  300D               	movlw	13
  2464  14E8  1283               	bcf	3,5	;RP0=0, select bank0
  2465  14E9  1303               	bcf	3,6	;RP1=0, select bank0
  2466  14EA  00A5               	movwf	??_LCD_INIT+1
  2467  14EB  30FB               	movlw	251
  2468  14EC  00A4               	movwf	??_LCD_INIT
  2469  14ED                     u4367:
  2470  14ED  0BA4               	decfsz	??_LCD_INIT,f
  2471  14EE  2CED               	goto	u4367
  2472  14EF  0BA5               	decfsz	??_LCD_INIT+1,f
  2473  14F0  2CED               	goto	u4367
  2474  14F1                     l3277:
  2475                           
  2476                           ;LCD.c: 128:     LCD_COM(0x30);
  2477  14F1  3030               	movlw	48
  2478  14F2  160A  118A  2187  160A  118A  	fcall	_LCD_COM
  2479  14F7                     l3279:
  2480                           
  2481                           ;LCD.c: 129:       _delay((unsigned long)((15)*(8000000/4000.0)));
  2482  14F7  3027               	movlw	39
  2483  14F8  1283               	bcf	3,5	;RP0=0, select bank0
  2484  14F9  1303               	bcf	3,6	;RP1=0, select bank0
  2485  14FA  00A5               	movwf	??_LCD_INIT+1
  2486  14FB  30F4               	movlw	244
  2487  14FC  00A4               	movwf	??_LCD_INIT
  2488  14FD                     u4377:
  2489  14FD  0BA4               	decfsz	??_LCD_INIT,f
  2490  14FE  2CFD               	goto	u4377
  2491  14FF  0BA5               	decfsz	??_LCD_INIT+1,f
  2492  1500  2CFD               	goto	u4377
  2493  1501  0000               	nop
  2494                           
  2495                           ;LCD.c: 130:     LCD_COM(0x30);
  2496  1502  3030               	movlw	48
  2497  1503  160A  118A  2187  160A  118A  	fcall	_LCD_COM
  2498                           
  2499                           ;LCD.c: 132:     LCD_COM(0x38);
  2500  1508  3038               	movlw	56
  2501  1509  160A  118A  2187  160A  118A  	fcall	_LCD_COM
  2502                           
  2503                           ;LCD.c: 133:     LCD_COM(0x0C);
  2504  150E  300C               	movlw	12
  2505  150F  160A  118A  2187  160A  118A  	fcall	_LCD_COM
  2506                           
  2507                           ;LCD.c: 134:     LCD_COM(0x01);
  2508  1514  3001               	movlw	1
  2509  1515  160A  118A  2187  160A  118A  	fcall	_LCD_COM
  2510                           
  2511                           ;LCD.c: 135:     LCD_COM(0x06);
  2512  151A  3006               	movlw	6
  2513  151B  160A  118A  2187  160A  118A  	fcall	_LCD_COM
  2514  1520                     l239:
  2515  1520  0008               	return
  2516  1521                     __end_of_LCD_INIT:
  2517                           
  2518                           	psect	text4
  2519  115A                     __ptext4:	
  2520 ;; *************** function _IOC_INT *****************
  2521 ;; Defined at:
  2522 ;;		line 28 in file "LCD.c"
  2523 ;; Parameters:    Size  Location     Type
  2524 ;;  a               1    wreg     unsigned char 
  2525 ;; Auto vars:     Size  Location     Type
  2526 ;;  a               1    0[BANK0 ] unsigned char 
  2527 ;; Return value:  Size  Location     Type
  2528 ;;                  1    wreg      void 
  2529 ;; Registers used:
  2530 ;;		wreg
  2531 ;; Tracked objects:
  2532 ;;		On entry : 0/0
  2533 ;;		On exit  : 0/0
  2534 ;;		Unchanged: 0/0
  2535 ;; Data sizes:     COMMON   BANK0   BANK1   BANK3   BANK2
  2536 ;;      Params:         0       0       0       0       0
  2537 ;;      Locals:         0       1       0       0       0
  2538 ;;      Temps:          0       0       0       0       0
  2539 ;;      Totals:         0       1       0       0       0
  2540 ;;Total ram usage:        1 bytes
  2541 ;; Hardware stack levels used: 1
  2542 ;; Hardware stack levels required when called: 2
  2543 ;; This function calls:
  2544 ;;		Nothing
  2545 ;; This function is called by:
  2546 ;;		_setup
  2547 ;; This function uses a non-reentrant model
  2548 ;;
  2549                           
  2550  115A                     _IOC_INT:	
  2551                           ;psect for function _IOC_INT
  2552                           
  2553                           
  2554                           ;incstack = 0
  2555                           ; Regs used in _IOC_INT: [wreg]
  2556                           ;IOC_INT@a stored from wreg
  2557  115A  1283               	bcf	3,5	;RP0=0, select bank0
  2558  115B  1303               	bcf	3,6	;RP1=0, select bank0
  2559  115C  00A0               	movwf	IOC_INT@a
  2560  115D                     l3259:
  2561                           
  2562                           ;LCD.c: 31:     OPTION_REGbits.nRBPU = 0;
  2563  115D  1683               	bsf	3,5	;RP0=1, select bank1
  2564  115E  1303               	bcf	3,6	;RP1=0, select bank1
  2565  115F  1381               	bcf	1,7	;volatile
  2566  1160                     l3261:
  2567                           
  2568                           ;LCD.c: 32:     WPUBbits.WPUB = a;
  2569  1160  1283               	bcf	3,5	;RP0=0, select bank0
  2570  1161  1303               	bcf	3,6	;RP1=0, select bank0
  2571  1162  0820               	movf	IOC_INT@a,w
  2572  1163  1683               	bsf	3,5	;RP0=1, select bank1
  2573  1164  1303               	bcf	3,6	;RP1=0, select bank1
  2574  1165  0095               	movwf	21	;volatile
  2575                           
  2576                           ;LCD.c: 33:     IOCBbits.IOCB = a;
  2577  1166  1283               	bcf	3,5	;RP0=0, select bank0
  2578  1167  1303               	bcf	3,6	;RP1=0, select bank0
  2579  1168  0820               	movf	IOC_INT@a,w
  2580  1169  1683               	bsf	3,5	;RP0=1, select bank1
  2581  116A  1303               	bcf	3,6	;RP1=0, select bank1
  2582  116B  0096               	movwf	22	;volatile
  2583  116C                     l3263:
  2584                           
  2585                           ;LCD.c: 34:     INTCONbits.RBIE = 1;
  2586  116C  158B               	bsf	11,3	;volatile
  2587  116D                     l3265:
  2588                           
  2589                           ;LCD.c: 35:     INTCONbits.RBIF = 0;
  2590  116D  100B               	bcf	11,0	;volatile
  2591  116E                     l3267:
  2592                           
  2593                           ;LCD.c: 36:     INTCONbits.GIE = 1;
  2594  116E  178B               	bsf	11,7	;volatile
  2595  116F                     l207:
  2596  116F  0008               	return
  2597  1170                     __end_of_IOC_INT:
  2598                           
  2599                           	psect	text5
  2600  1379                     __ptext5:	
  2601 ;; *************** function _I2C_Master_Init *****************
  2602 ;; Defined at:
  2603 ;;		line 13 in file "I2CM.c"
  2604 ;; Parameters:    Size  Location     Type
  2605 ;;  c               4   14[BANK0 ] const unsigned long 
  2606 ;; Auto vars:     Size  Location     Type
  2607 ;;		None
  2608 ;; Return value:  Size  Location     Type
  2609 ;;                  1    wreg      void 
  2610 ;; Registers used:
  2611 ;;		wreg, status,2, status,0, pclath, cstack
  2612 ;; Tracked objects:
  2613 ;;		On entry : 0/0
  2614 ;;		On exit  : 0/0
  2615 ;;		Unchanged: 0/0
  2616 ;; Data sizes:     COMMON   BANK0   BANK1   BANK3   BANK2
  2617 ;;      Params:         0       4       0       0       0
  2618 ;;      Locals:         0       0       0       0       0
  2619 ;;      Temps:          0       4       0       0       0
  2620 ;;      Totals:         0       8       0       0       0
  2621 ;;Total ram usage:        8 bytes
  2622 ;; Hardware stack levels used: 1
  2623 ;; Hardware stack levels required when called: 3
  2624 ;; This function calls:
  2625 ;;		___lldiv
  2626 ;; This function is called by:
  2627 ;;		_setup
  2628 ;; This function uses a non-reentrant model
  2629 ;;
  2630                           
  2631  1379                     _I2C_Master_Init:	
  2632                           ;psect for function _I2C_Master_Init
  2633                           
  2634  1379                     l2923:	
  2635                           ;incstack = 0
  2636                           ; Regs used in _I2C_Master_Init: [wreg+status,2+status,0+pclath+cstack]
  2637                           
  2638                           
  2639                           ;I2CM.c: 13: void I2C_Master_Init(const unsigned long c);I2CM.c: 14: {;I2CM.c: 15:     S
      +                          SPCON = 0b00101000;
  2640  1379  3028               	movlw	40
  2641  137A  1283               	bcf	3,5	;RP0=0, select bank0
  2642  137B  1303               	bcf	3,6	;RP1=0, select bank0
  2643  137C  0094               	movwf	20	;volatile
  2644  137D                     l2925:
  2645                           
  2646                           ;I2CM.c: 16:     SSPCON2 = 0;
  2647  137D  1683               	bsf	3,5	;RP0=1, select bank1
  2648  137E  1303               	bcf	3,6	;RP1=0, select bank1
  2649  137F  0191               	clrf	17	;volatile
  2650  1380                     l2927:
  2651                           
  2652                           ;I2CM.c: 17:     SSPADD = (8000000/(4*c))-1;
  2653  1380  1283               	bcf	3,5	;RP0=0, select bank0
  2654  1381  1303               	bcf	3,6	;RP1=0, select bank0
  2655  1382  082E               	movf	I2C_Master_Init@c,w
  2656  1383  00B2               	movwf	??_I2C_Master_Init
  2657  1384  082F               	movf	I2C_Master_Init@c+1,w
  2658  1385  00B3               	movwf	??_I2C_Master_Init+1
  2659  1386  0830               	movf	I2C_Master_Init@c+2,w
  2660  1387  00B4               	movwf	??_I2C_Master_Init+2
  2661  1388  0831               	movf	I2C_Master_Init@c+3,w
  2662  1389  00B5               	movwf	??_I2C_Master_Init+3
  2663  138A  3002               	movlw	2
  2664  138B                     u4025:
  2665  138B  1003               	clrc
  2666  138C  0DB2               	rlf	??_I2C_Master_Init,f
  2667  138D  0DB3               	rlf	??_I2C_Master_Init+1,f
  2668  138E  0DB4               	rlf	??_I2C_Master_Init+2,f
  2669  138F  0DB5               	rlf	??_I2C_Master_Init+3,f
  2670  1390                     u4020:
  2671  1390  3EFF               	addlw	-1
  2672  1391  1D03               	skipz
  2673  1392  2B8B               	goto	u4025
  2674  1393  0835               	movf	??_I2C_Master_Init+3,w
  2675  1394  00A3               	movwf	___lldiv@divisor+3
  2676  1395  0834               	movf	??_I2C_Master_Init+2,w
  2677  1396  00A2               	movwf	___lldiv@divisor+2
  2678  1397  0833               	movf	??_I2C_Master_Init+1,w
  2679  1398  00A1               	movwf	___lldiv@divisor+1
  2680  1399  0832               	movf	??_I2C_Master_Init,w
  2681  139A  00A0               	movwf	___lldiv@divisor
  2682  139B  3000               	movlw	0
  2683  139C  00A7               	movwf	___lldiv@dividend+3
  2684  139D  307A               	movlw	122
  2685  139E  00A6               	movwf	___lldiv@dividend+2
  2686  139F  3012               	movlw	18
  2687  13A0  00A5               	movwf	___lldiv@dividend+1
  2688  13A1  3000               	movlw	0
  2689  13A2  00A4               	movwf	___lldiv@dividend
  2690  13A3  160A  118A  2644  160A  118A  	fcall	___lldiv
  2691  13A8  1283               	bcf	3,5	;RP0=0, select bank0
  2692  13A9  1303               	bcf	3,6	;RP1=0, select bank0
  2693  13AA  0820               	movf	?___lldiv,w
  2694  13AB  3EFF               	addlw	255
  2695  13AC  1683               	bsf	3,5	;RP0=1, select bank1
  2696  13AD  1303               	bcf	3,6	;RP1=0, select bank1
  2697  13AE  0093               	movwf	19	;volatile
  2698  13AF                     l2929:
  2699                           
  2700                           ;I2CM.c: 18:     SSPSTAT = 0;
  2701  13AF  0194               	clrf	20	;volatile
  2702  13B0                     l2931:
  2703                           
  2704                           ;I2CM.c: 19:     TRISCbits.TRISC3 = 1;
  2705  13B0  1587               	bsf	7,3	;volatile
  2706  13B1                     l2933:
  2707                           
  2708                           ;I2CM.c: 20:     TRISCbits.TRISC4 = 1;
  2709  13B1  1607               	bsf	7,4	;volatile
  2710  13B2                     l275:
  2711  13B2  0008               	return
  2712  13B3                     __end_of_I2C_Master_Init:
  2713                           
  2714                           	psect	text6
  2715  1644                     __ptext6:	
  2716 ;; *************** function ___lldiv *****************
  2717 ;; Defined at:
  2718 ;;		line 5 in file "C:\Program Files\Microchip\xc8\v2.35\pic\sources\c90\common\__lldiv.c"
  2719 ;; Parameters:    Size  Location     Type
  2720 ;;  divisor         4    0[BANK0 ] unsigned long 
  2721 ;;  dividend        4    4[BANK0 ] unsigned long 
  2722 ;; Auto vars:     Size  Location     Type
  2723 ;;  quotient        4    9[BANK0 ] unsigned long 
  2724 ;;  counter         1   13[BANK0 ] unsigned char 
  2725 ;; Return value:  Size  Location     Type
  2726 ;;                  4    0[BANK0 ] unsigned long 
  2727 ;; Registers used:
  2728 ;;		wreg, status,2, status,0
  2729 ;; Tracked objects:
  2730 ;;		On entry : 0/0
  2731 ;;		On exit  : 0/0
  2732 ;;		Unchanged: 0/0
  2733 ;; Data sizes:     COMMON   BANK0   BANK1   BANK3   BANK2
  2734 ;;      Params:         0       8       0       0       0
  2735 ;;      Locals:         0       5       0       0       0
  2736 ;;      Temps:          0       1       0       0       0
  2737 ;;      Totals:         0      14       0       0       0
  2738 ;;Total ram usage:       14 bytes
  2739 ;; Hardware stack levels used: 1
  2740 ;; Hardware stack levels required when called: 2
  2741 ;; This function calls:
  2742 ;;		Nothing
  2743 ;; This function is called by:
  2744 ;;		_I2C_Master_Init
  2745 ;; This function uses a non-reentrant model
  2746 ;;
  2747                           
  2748  1644                     ___lldiv:	
  2749                           ;psect for function ___lldiv
  2750                           
  2751  1644                     l2703:	
  2752                           ;incstack = 0
  2753                           ; Regs used in ___lldiv: [wreg+status,2+status,0]
  2754                           
  2755  1644  3000               	movlw	0
  2756  1645  1283               	bcf	3,5	;RP0=0, select bank0
  2757  1646  1303               	bcf	3,6	;RP1=0, select bank0
  2758  1647  00AC               	movwf	___lldiv@quotient+3
  2759  1648  3000               	movlw	0
  2760  1649  00AB               	movwf	___lldiv@quotient+2
  2761  164A  3000               	movlw	0
  2762  164B  00AA               	movwf	___lldiv@quotient+1
  2763  164C  3000               	movlw	0
  2764  164D  00A9               	movwf	___lldiv@quotient
  2765  164E  0823               	movf	___lldiv@divisor+3,w
  2766  164F  0422               	iorwf	___lldiv@divisor+2,w
  2767  1650  0421               	iorwf	___lldiv@divisor+1,w
  2768  1651  0420               	iorwf	___lldiv@divisor,w
  2769  1652  1903               	skipnz
  2770  1653  2E55               	goto	u3661
  2771  1654  2E56               	goto	u3660
  2772  1655                     u3661:
  2773  1655  2EA3               	goto	l2723
  2774  1656                     u3660:
  2775  1656                     l2705:
  2776  1656  01AD               	clrf	___lldiv@counter
  2777  1657  0AAD               	incf	___lldiv@counter,f
  2778  1658  2E66               	goto	l2709
  2779  1659                     l2707:
  2780  1659  3001               	movlw	1
  2781  165A  00A8               	movwf	??___lldiv
  2782  165B                     u3675:
  2783  165B  1003               	clrc
  2784  165C  0DA0               	rlf	___lldiv@divisor,f
  2785  165D  0DA1               	rlf	___lldiv@divisor+1,f
  2786  165E  0DA2               	rlf	___lldiv@divisor+2,f
  2787  165F  0DA3               	rlf	___lldiv@divisor+3,f
  2788  1660  0BA8               	decfsz	??___lldiv,f
  2789  1661  2E5B               	goto	u3675
  2790  1662  3001               	movlw	1
  2791  1663  00A8               	movwf	??___lldiv
  2792  1664  0828               	movf	??___lldiv,w
  2793  1665  07AD               	addwf	___lldiv@counter,f
  2794  1666                     l2709:
  2795  1666  1FA3               	btfss	___lldiv@divisor+3,7
  2796  1667  2E69               	goto	u3681
  2797  1668  2E6A               	goto	u3680
  2798  1669                     u3681:
  2799  1669  2E59               	goto	l2707
  2800  166A                     u3680:
  2801  166A                     l2711:
  2802  166A  3001               	movlw	1
  2803  166B  00A8               	movwf	??___lldiv
  2804  166C                     u3695:
  2805  166C  1003               	clrc
  2806  166D  0DA9               	rlf	___lldiv@quotient,f
  2807  166E  0DAA               	rlf	___lldiv@quotient+1,f
  2808  166F  0DAB               	rlf	___lldiv@quotient+2,f
  2809  1670  0DAC               	rlf	___lldiv@quotient+3,f
  2810  1671  0BA8               	decfsz	??___lldiv,f
  2811  1672  2E6C               	goto	u3695
  2812  1673                     l2713:
  2813  1673  0823               	movf	___lldiv@divisor+3,w
  2814  1674  0227               	subwf	___lldiv@dividend+3,w
  2815  1675  1D03               	skipz
  2816  1676  2E81               	goto	u3705
  2817  1677  0822               	movf	___lldiv@divisor+2,w
  2818  1678  0226               	subwf	___lldiv@dividend+2,w
  2819  1679  1D03               	skipz
  2820  167A  2E81               	goto	u3705
  2821  167B  0821               	movf	___lldiv@divisor+1,w
  2822  167C  0225               	subwf	___lldiv@dividend+1,w
  2823  167D  1D03               	skipz
  2824  167E  2E81               	goto	u3705
  2825  167F  0820               	movf	___lldiv@divisor,w
  2826  1680  0224               	subwf	___lldiv@dividend,w
  2827  1681                     u3705:
  2828  1681  1C03               	skipc
  2829  1682  2E84               	goto	u3701
  2830  1683  2E85               	goto	u3700
  2831  1684                     u3701:
  2832  1684  2E94               	goto	l2719
  2833  1685                     u3700:
  2834  1685                     l2715:
  2835  1685  0820               	movf	___lldiv@divisor,w
  2836  1686  02A4               	subwf	___lldiv@dividend,f
  2837  1687  0821               	movf	___lldiv@divisor+1,w
  2838  1688  1C03               	skipc
  2839  1689  0F21               	incfsz	___lldiv@divisor+1,w
  2840  168A  02A5               	subwf	___lldiv@dividend+1,f
  2841  168B  0822               	movf	___lldiv@divisor+2,w
  2842  168C  1C03               	skipc
  2843  168D  0F22               	incfsz	___lldiv@divisor+2,w
  2844  168E  02A6               	subwf	___lldiv@dividend+2,f
  2845  168F  0823               	movf	___lldiv@divisor+3,w
  2846  1690  1C03               	skipc
  2847  1691  0F23               	incfsz	___lldiv@divisor+3,w
  2848  1692  02A7               	subwf	___lldiv@dividend+3,f
  2849  1693                     l2717:
  2850  1693  1429               	bsf	___lldiv@quotient,0
  2851  1694                     l2719:
  2852  1694  3001               	movlw	1
  2853  1695                     u3715:
  2854  1695  1003               	clrc
  2855  1696  0CA3               	rrf	___lldiv@divisor+3,f
  2856  1697  0CA2               	rrf	___lldiv@divisor+2,f
  2857  1698  0CA1               	rrf	___lldiv@divisor+1,f
  2858  1699  0CA0               	rrf	___lldiv@divisor,f
  2859  169A  3EFF               	addlw	-1
  2860  169B  1D03               	skipz
  2861  169C  2E95               	goto	u3715
  2862  169D                     l2721:
  2863  169D  3001               	movlw	1
  2864  169E  02AD               	subwf	___lldiv@counter,f
  2865  169F  1D03               	btfss	3,2
  2866  16A0  2EA2               	goto	u3721
  2867  16A1  2EA3               	goto	u3720
  2868  16A2                     u3721:
  2869  16A2  2E6A               	goto	l2711
  2870  16A3                     u3720:
  2871  16A3                     l2723:
  2872  16A3  082C               	movf	___lldiv@quotient+3,w
  2873  16A4  00A3               	movwf	?___lldiv+3
  2874  16A5  082B               	movf	___lldiv@quotient+2,w
  2875  16A6  00A2               	movwf	?___lldiv+2
  2876  16A7  082A               	movf	___lldiv@quotient+1,w
  2877  16A8  00A1               	movwf	?___lldiv+1
  2878  16A9  0829               	movf	___lldiv@quotient,w
  2879  16AA  00A0               	movwf	?___lldiv
  2880  16AB                     l423:
  2881  16AB  0008               	return
  2882  16AC                     __end_of___lldiv:
  2883                           
  2884                           	psect	text7
  2885  0627                     __ptext7:	
  2886 ;; *************** function _UNIDAD *****************
  2887 ;; Defined at:
  2888 ;;		line 22 in file "LCD.c"
  2889 ;; Parameters:    Size  Location     Type
  2890 ;;  c               1    wreg     unsigned char 
  2891 ;; Auto vars:     Size  Location     Type
  2892 ;;  c               1   52[BANK1 ] unsigned char 
  2893 ;; Return value:  Size  Location     Type
  2894 ;;                  1    wreg      unsigned char 
  2895 ;; Registers used:
  2896 ;;		wreg, status,2, status,0, btemp+1, pclath, cstack
  2897 ;; Tracked objects:
  2898 ;;		On entry : 0/0
  2899 ;;		On exit  : 0/0
  2900 ;;		Unchanged: 0/0
  2901 ;; Data sizes:     COMMON   BANK0   BANK1   BANK3   BANK2
  2902 ;;      Params:         0       0       0       0       0
  2903 ;;      Locals:         0       0      11       0       0
  2904 ;;      Temps:          0       0       4       0       0
  2905 ;;      Totals:         0       0      15       0       0
  2906 ;;Total ram usage:       15 bytes
  2907 ;; Hardware stack levels used: 1
  2908 ;; Hardware stack levels required when called: 6
  2909 ;; This function calls:
  2910 ;;		_CENTENA
  2911 ;;		_DECENA
  2912 ;;		___flmul
  2913 ;;		___flsub
  2914 ;;		___fltol
  2915 ;;		___wmul
  2916 ;;		___xxtofl
  2917 ;; This function is called by:
  2918 ;;		_main
  2919 ;; This function uses a non-reentrant model
  2920 ;;
  2921                           
  2922  0627                     _UNIDAD:	
  2923                           ;psect for function _UNIDAD
  2924                           
  2925                           
  2926                           ;incstack = 0
  2927                           ; Regs used in _UNIDAD: [wreg+status,2+status,0+btemp+1+pclath+cstack]
  2928                           ;UNIDAD@c stored from wreg
  2929  0627  1683               	bsf	3,5	;RP0=1, select bank1
  2930  0628  1303               	bcf	3,6	;RP1=0, select bank1
  2931  0629  00D4               	movwf	UNIDAD@c^(0+128)
  2932  062A                     l3361:
  2933                           
  2934                           ;LCD.c: 23:     c = (uint8_t)((c*1.9607) - CENTENA(c)*100 - DECENA(c)*10);
  2935  062A  3064               	movlw	100
  2936  062B  00A7               	movwf	___wmul@multiplicand^(0+128)
  2937  062C  3000               	movlw	0
  2938  062D  00A8               	movwf	(___wmul@multiplicand^(0+128)+1)
  2939  062E  0854               	movf	UNIDAD@c^(0+128),w
  2940  062F  160A  118A  2715  120A  118A  	fcall	_CENTENA
  2941  0634  1683               	bsf	3,5	;RP0=1, select bank1
  2942  0635  1303               	bcf	3,6	;RP1=0, select bank1
  2943  0636  00C6               	movwf	??_UNIDAD^(0+128)
  2944  0637  01C7               	clrf	(??_UNIDAD^(0+128)+1)
  2945  0638  0846               	movf	??_UNIDAD^(0+128),w
  2946  0639  00A5               	movwf	___wmul@multiplier^(0+128)
  2947  063A  0847               	movf	(??_UNIDAD+1)^(0+128),w
  2948  063B  00A6               	movwf	(___wmul@multiplier+1)^(0+128)
  2949  063C  160A  118A  2340  120A  118A  	fcall	___wmul
  2950  0641  1683               	bsf	3,5	;RP0=1, select bank1
  2951  0642  1303               	bcf	3,6	;RP1=0, select bank1
  2952  0643  0825               	movf	?___wmul^(0+128),w
  2953  0644  00CA               	movwf	_UNIDAD$1174^(0+128)
  2954  0645  0826               	movf	(?___wmul+1)^(0+128),w
  2955  0646  00CB               	movwf	(_UNIDAD$1174+1)^(0+128)
  2956  0647  3000               	movlw	0
  2957  0648  1BCB               	btfsc	(_UNIDAD$1174+1)^(0+128),7
  2958  0649  30FF               	movlw	255
  2959  064A  00CC               	movwf	(_UNIDAD$1174+2)^(0+128)
  2960  064B  00CD               	movwf	(_UNIDAD$1174+3)^(0+128)
  2961                           
  2962                           ;LCD.c: 23:     c = (uint8_t)((c*1.9607) - CENTENA(c)*100 - DECENA(c)*10);
  2963  064C  0854               	movf	UNIDAD@c^(0+128),w
  2964  064D  120A  158A  20D5  120A  118A  	fcall	_DECENA
  2965  0652  1683               	bsf	3,5	;RP0=1, select bank1
  2966  0653  1303               	bcf	3,6	;RP1=0, select bank1
  2967  0654  00C6               	movwf	??_UNIDAD^(0+128)
  2968  0655  01C7               	clrf	(??_UNIDAD^(0+128)+1)
  2969  0656  0846               	movf	??_UNIDAD^(0+128),w
  2970  0657  00D2               	movwf	_UNIDAD$1175^(0+128)
  2971  0658  0847               	movf	(??_UNIDAD+1)^(0+128),w
  2972  0659  00D3               	movwf	(_UNIDAD$1175+1)^(0+128)
  2973                           
  2974                           ;LCD.c: 23:     c = (uint8_t)((c*1.9607) - CENTENA(c)*100 - DECENA(c)*10);
  2975  065A  0854               	movf	UNIDAD@c^(0+128),w
  2976  065B  00C6               	movwf	??_UNIDAD^(0+128)
  2977  065C  01C7               	clrf	(??_UNIDAD^(0+128)+1)
  2978  065D  01C8               	clrf	(??_UNIDAD^(0+128)+2)
  2979  065E  01C9               	clrf	(??_UNIDAD^(0+128)+3)
  2980  065F  0849               	movf	(??_UNIDAD+3)^(0+128),w
  2981  0660  1283               	bcf	3,5	;RP0=0, select bank0
  2982  0661  1303               	bcf	3,6	;RP1=0, select bank0
  2983  0662  00A3               	movwf	___xxtofl@val+3
  2984  0663  1683               	bsf	3,5	;RP0=1, select bank1
  2985  0664  1303               	bcf	3,6	;RP1=0, select bank1
  2986  0665  0848               	movf	(??_UNIDAD+2)^(0+128),w
  2987  0666  1283               	bcf	3,5	;RP0=0, select bank0
  2988  0667  1303               	bcf	3,6	;RP1=0, select bank0
  2989  0668  00A2               	movwf	___xxtofl@val+2
  2990  0669  1683               	bsf	3,5	;RP0=1, select bank1
  2991  066A  1303               	bcf	3,6	;RP1=0, select bank1
  2992  066B  0847               	movf	(??_UNIDAD+1)^(0+128),w
  2993  066C  1283               	bcf	3,5	;RP0=0, select bank0
  2994  066D  1303               	bcf	3,6	;RP1=0, select bank0
  2995  066E  00A1               	movwf	___xxtofl@val+1
  2996  066F  1683               	bsf	3,5	;RP0=1, select bank1
  2997  0670  1303               	bcf	3,6	;RP1=0, select bank1
  2998  0671  0846               	movf	??_UNIDAD^(0+128),w
  2999  0672  1283               	bcf	3,5	;RP0=0, select bank0
  3000  0673  1303               	bcf	3,6	;RP1=0, select bank0
  3001  0674  00A0               	movwf	___xxtofl@val
  3002  0675  3001               	movlw	1
  3003  0676  120A  158A  2019  120A  118A  	fcall	___xxtofl
  3004  067B  1283               	bcf	3,5	;RP0=0, select bank0
  3005  067C  1303               	bcf	3,6	;RP1=0, select bank0
  3006  067D  0823               	movf	?___xxtofl+3,w
  3007  067E  00B5               	movwf	___flmul@a+3
  3008  067F  0822               	movf	?___xxtofl+2,w
  3009  0680  00B4               	movwf	___flmul@a+2
  3010  0681  0821               	movf	?___xxtofl+1,w
  3011  0682  00B3               	movwf	___flmul@a+1
  3012  0683  0820               	movf	?___xxtofl,w
  3013  0684  00B2               	movwf	___flmul@a
  3014  0685  303F               	movlw	63
  3015  0686  00B1               	movwf	___flmul@b+3
  3016  0687  30FA               	movlw	250
  3017  0688  00B0               	movwf	___flmul@b+2
  3018  0689  30F8               	movlw	248
  3019  068A  00AF               	movwf	___flmul@b+1
  3020  068B  3038               	movlw	56
  3021  068C  00AE               	movwf	___flmul@b
  3022  068D  120A  118A  203E  120A  118A  	fcall	___flmul
  3023  0692  1283               	bcf	3,5	;RP0=0, select bank0
  3024  0693  1303               	bcf	3,6	;RP1=0, select bank0
  3025  0694  0831               	movf	?___flmul+3,w
  3026  0695  1683               	bsf	3,5	;RP0=1, select bank1
  3027  0696  1303               	bcf	3,6	;RP1=0, select bank1
  3028  0697  00B0               	movwf	(___flsub@b+3)^(0+128)
  3029  0698  1283               	bcf	3,5	;RP0=0, select bank0
  3030  0699  1303               	bcf	3,6	;RP1=0, select bank0
  3031  069A  0830               	movf	?___flmul+2,w
  3032  069B  1683               	bsf	3,5	;RP0=1, select bank1
  3033  069C  1303               	bcf	3,6	;RP1=0, select bank1
  3034  069D  00AF               	movwf	(___flsub@b+2)^(0+128)
  3035  069E  1283               	bcf	3,5	;RP0=0, select bank0
  3036  069F  1303               	bcf	3,6	;RP1=0, select bank0
  3037  06A0  082F               	movf	?___flmul+1,w
  3038  06A1  1683               	bsf	3,5	;RP0=1, select bank1
  3039  06A2  1303               	bcf	3,6	;RP1=0, select bank1
  3040  06A3  00AE               	movwf	(___flsub@b+1)^(0+128)
  3041  06A4  1283               	bcf	3,5	;RP0=0, select bank0
  3042  06A5  1303               	bcf	3,6	;RP1=0, select bank0
  3043  06A6  082E               	movf	?___flmul,w
  3044  06A7  1683               	bsf	3,5	;RP0=1, select bank1
  3045  06A8  1303               	bcf	3,6	;RP1=0, select bank1
  3046  06A9  00AD               	movwf	___flsub@b^(0+128)
  3047  06AA  084D               	movf	(_UNIDAD$1174+3)^(0+128),w
  3048  06AB  1283               	bcf	3,5	;RP0=0, select bank0
  3049  06AC  1303               	bcf	3,6	;RP1=0, select bank0
  3050  06AD  00A3               	movwf	___xxtofl@val+3
  3051  06AE  1683               	bsf	3,5	;RP0=1, select bank1
  3052  06AF  1303               	bcf	3,6	;RP1=0, select bank1
  3053  06B0  084C               	movf	(_UNIDAD$1174+2)^(0+128),w
  3054  06B1  1283               	bcf	3,5	;RP0=0, select bank0
  3055  06B2  1303               	bcf	3,6	;RP1=0, select bank0
  3056  06B3  00A2               	movwf	___xxtofl@val+2
  3057  06B4  1683               	bsf	3,5	;RP0=1, select bank1
  3058  06B5  1303               	bcf	3,6	;RP1=0, select bank1
  3059  06B6  084B               	movf	(_UNIDAD$1174+1)^(0+128),w
  3060  06B7  1283               	bcf	3,5	;RP0=0, select bank0
  3061  06B8  1303               	bcf	3,6	;RP1=0, select bank0
  3062  06B9  00A1               	movwf	___xxtofl@val+1
  3063  06BA  1683               	bsf	3,5	;RP0=1, select bank1
  3064  06BB  1303               	bcf	3,6	;RP1=0, select bank1
  3065  06BC  084A               	movf	_UNIDAD$1174^(0+128),w
  3066  06BD  1283               	bcf	3,5	;RP0=0, select bank0
  3067  06BE  1303               	bcf	3,6	;RP1=0, select bank0
  3068  06BF  00A0               	movwf	___xxtofl@val
  3069  06C0  3001               	movlw	1
  3070  06C1  120A  158A  2019  120A  118A  	fcall	___xxtofl
  3071  06C6  1283               	bcf	3,5	;RP0=0, select bank0
  3072  06C7  1303               	bcf	3,6	;RP1=0, select bank0
  3073  06C8  0823               	movf	?___xxtofl+3,w
  3074  06C9  1683               	bsf	3,5	;RP0=1, select bank1
  3075  06CA  1303               	bcf	3,6	;RP1=0, select bank1
  3076  06CB  00AC               	movwf	(___flsub@a+3)^(0+128)
  3077  06CC  1283               	bcf	3,5	;RP0=0, select bank0
  3078  06CD  1303               	bcf	3,6	;RP1=0, select bank0
  3079  06CE  0822               	movf	?___xxtofl+2,w
  3080  06CF  1683               	bsf	3,5	;RP0=1, select bank1
  3081  06D0  1303               	bcf	3,6	;RP1=0, select bank1
  3082  06D1  00AB               	movwf	(___flsub@a+2)^(0+128)
  3083  06D2  1283               	bcf	3,5	;RP0=0, select bank0
  3084  06D3  1303               	bcf	3,6	;RP1=0, select bank0
  3085  06D4  0821               	movf	?___xxtofl+1,w
  3086  06D5  1683               	bsf	3,5	;RP0=1, select bank1
  3087  06D6  1303               	bcf	3,6	;RP1=0, select bank1
  3088  06D7  00AA               	movwf	(___flsub@a+1)^(0+128)
  3089  06D8  1283               	bcf	3,5	;RP0=0, select bank0
  3090  06D9  1303               	bcf	3,6	;RP1=0, select bank0
  3091  06DA  0820               	movf	?___xxtofl,w
  3092  06DB  1683               	bsf	3,5	;RP0=1, select bank1
  3093  06DC  1303               	bcf	3,6	;RP1=0, select bank1
  3094  06DD  00A9               	movwf	___flsub@a^(0+128)
  3095  06DE  160A  118A  247D  120A  118A  	fcall	___flsub
  3096  06E3  1683               	bsf	3,5	;RP0=1, select bank1
  3097  06E4  1303               	bcf	3,6	;RP1=0, select bank1
  3098  06E5  082C               	movf	(?___flsub+3)^(0+128),w
  3099  06E6  00D1               	movwf	(_UNIDAD$1176+3)^(0+128)
  3100  06E7  082B               	movf	(?___flsub+2)^(0+128),w
  3101  06E8  00D0               	movwf	(_UNIDAD$1176+2)^(0+128)
  3102  06E9  082A               	movf	(?___flsub+1)^(0+128),w
  3103  06EA  00CF               	movwf	(_UNIDAD$1176+1)^(0+128)
  3104  06EB  0829               	movf	?___flsub^(0+128),w
  3105  06EC  00CE               	movwf	_UNIDAD$1176^(0+128)
  3106                           
  3107                           ;LCD.c: 23:     c = (uint8_t)((c*1.9607) - CENTENA(c)*100 - DECENA(c)*10);
  3108  06ED  0851               	movf	(_UNIDAD$1176+3)^(0+128),w
  3109  06EE  00B0               	movwf	(___flsub@b+3)^(0+128)
  3110  06EF  0850               	movf	(_UNIDAD$1176+2)^(0+128),w
  3111  06F0  00AF               	movwf	(___flsub@b+2)^(0+128)
  3112  06F1  084F               	movf	(_UNIDAD$1176+1)^(0+128),w
  3113  06F2  00AE               	movwf	(___flsub@b+1)^(0+128)
  3114  06F3  084E               	movf	_UNIDAD$1176^(0+128),w
  3115  06F4  00AD               	movwf	___flsub@b^(0+128)
  3116  06F5  300A               	movlw	10
  3117  06F6  00A7               	movwf	___wmul@multiplicand^(0+128)
  3118  06F7  3000               	movlw	0
  3119  06F8  00A8               	movwf	(___wmul@multiplicand^(0+128)+1)
  3120  06F9  0853               	movf	(_UNIDAD$1175+1)^(0+128),w
  3121  06FA  00A6               	movwf	(___wmul@multiplier+1)^(0+128)
  3122  06FB  0852               	movf	_UNIDAD$1175^(0+128),w
  3123  06FC  00A5               	movwf	___wmul@multiplier^(0+128)
  3124  06FD  160A  118A  2340  120A  118A  	fcall	___wmul
  3125  0702  1683               	bsf	3,5	;RP0=1, select bank1
  3126  0703  1303               	bcf	3,6	;RP1=0, select bank1
  3127  0704  0825               	movf	?___wmul^(0+128),w
  3128  0705  1283               	bcf	3,5	;RP0=0, select bank0
  3129  0706  1303               	bcf	3,6	;RP1=0, select bank0
  3130  0707  00A0               	movwf	___xxtofl@val
  3131  0708  1683               	bsf	3,5	;RP0=1, select bank1
  3132  0709  1303               	bcf	3,6	;RP1=0, select bank1
  3133  070A  0826               	movf	(?___wmul+1)^(0+128),w
  3134  070B  1283               	bcf	3,5	;RP0=0, select bank0
  3135  070C  1303               	bcf	3,6	;RP1=0, select bank0
  3136  070D  00A1               	movwf	___xxtofl@val+1
  3137  070E  3000               	movlw	0
  3138  070F  1BA1               	btfsc	___xxtofl@val+1,7
  3139  0710  30FF               	movlw	255
  3140  0711  00A2               	movwf	___xxtofl@val+2
  3141  0712  00A3               	movwf	___xxtofl@val+3
  3142  0713  3001               	movlw	1
  3143  0714  120A  158A  2019  120A  118A  	fcall	___xxtofl
  3144  0719  1283               	bcf	3,5	;RP0=0, select bank0
  3145  071A  1303               	bcf	3,6	;RP1=0, select bank0
  3146  071B  0823               	movf	?___xxtofl+3,w
  3147  071C  1683               	bsf	3,5	;RP0=1, select bank1
  3148  071D  1303               	bcf	3,6	;RP1=0, select bank1
  3149  071E  00AC               	movwf	(___flsub@a+3)^(0+128)
  3150  071F  1283               	bcf	3,5	;RP0=0, select bank0
  3151  0720  1303               	bcf	3,6	;RP1=0, select bank0
  3152  0721  0822               	movf	?___xxtofl+2,w
  3153  0722  1683               	bsf	3,5	;RP0=1, select bank1
  3154  0723  1303               	bcf	3,6	;RP1=0, select bank1
  3155  0724  00AB               	movwf	(___flsub@a+2)^(0+128)
  3156  0725  1283               	bcf	3,5	;RP0=0, select bank0
  3157  0726  1303               	bcf	3,6	;RP1=0, select bank0
  3158  0727  0821               	movf	?___xxtofl+1,w
  3159  0728  1683               	bsf	3,5	;RP0=1, select bank1
  3160  0729  1303               	bcf	3,6	;RP1=0, select bank1
  3161  072A  00AA               	movwf	(___flsub@a+1)^(0+128)
  3162  072B  1283               	bcf	3,5	;RP0=0, select bank0
  3163  072C  1303               	bcf	3,6	;RP1=0, select bank0
  3164  072D  0820               	movf	?___xxtofl,w
  3165  072E  1683               	bsf	3,5	;RP0=1, select bank1
  3166  072F  1303               	bcf	3,6	;RP1=0, select bank1
  3167  0730  00A9               	movwf	___flsub@a^(0+128)
  3168  0731  160A  118A  247D  120A  118A  	fcall	___flsub
  3169  0736  1683               	bsf	3,5	;RP0=1, select bank1
  3170  0737  1303               	bcf	3,6	;RP1=0, select bank1
  3171  0738  082C               	movf	(?___flsub+3)^(0+128),w
  3172  0739  1283               	bcf	3,5	;RP0=0, select bank0
  3173  073A  1303               	bcf	3,6	;RP1=0, select bank0
  3174  073B  00E5               	movwf	___fltol@f1+3
  3175  073C  1683               	bsf	3,5	;RP0=1, select bank1
  3176  073D  1303               	bcf	3,6	;RP1=0, select bank1
  3177  073E  082B               	movf	(?___flsub+2)^(0+128),w
  3178  073F  1283               	bcf	3,5	;RP0=0, select bank0
  3179  0740  1303               	bcf	3,6	;RP1=0, select bank0
  3180  0741  00E4               	movwf	___fltol@f1+2
  3181  0742  1683               	bsf	3,5	;RP0=1, select bank1
  3182  0743  1303               	bcf	3,6	;RP1=0, select bank1
  3183  0744  082A               	movf	(?___flsub+1)^(0+128),w
  3184  0745  1283               	bcf	3,5	;RP0=0, select bank0
  3185  0746  1303               	bcf	3,6	;RP1=0, select bank0
  3186  0747  00E3               	movwf	___fltol@f1+1
  3187  0748  1683               	bsf	3,5	;RP0=1, select bank1
  3188  0749  1303               	bcf	3,6	;RP1=0, select bank1
  3189  074A  0829               	movf	?___flsub^(0+128),w
  3190  074B  1283               	bcf	3,5	;RP0=0, select bank0
  3191  074C  1303               	bcf	3,6	;RP1=0, select bank0
  3192  074D  00E2               	movwf	___fltol@f1
  3193  074E  160A  118A  2784  120A  118A  	fcall	___fltol
  3194  0753  1283               	bcf	3,5	;RP0=0, select bank0
  3195  0754  1303               	bcf	3,6	;RP1=0, select bank0
  3196  0755  0862               	movf	?___fltol,w
  3197  0756  1683               	bsf	3,5	;RP0=1, select bank1
  3198  0757  1303               	bcf	3,6	;RP1=0, select bank1
  3199  0758  00C6               	movwf	??_UNIDAD^(0+128)
  3200  0759  0846               	movf	??_UNIDAD^(0+128),w
  3201  075A  00D4               	movwf	UNIDAD@c^(0+128)
  3202  075B                     l3363:
  3203                           
  3204                           ;LCD.c: 24:     return c;
  3205  075B  0854               	movf	UNIDAD@c^(0+128),w
  3206  075C                     l204:
  3207  075C  0008               	return
  3208  075D                     __end_of_UNIDAD:
  3209                           
  3210                           	psect	text8
  3211  08D5                     __ptext8:	
  3212 ;; *************** function _DECENA *****************
  3213 ;; Defined at:
  3214 ;;		line 17 in file "LCD.c"
  3215 ;; Parameters:    Size  Location     Type
  3216 ;;  c               1    wreg     unsigned char 
  3217 ;; Auto vars:     Size  Location     Type
  3218 ;;  c               1   37[BANK1 ] unsigned char 
  3219 ;; Return value:  Size  Location     Type
  3220 ;;                  1    wreg      unsigned char 
  3221 ;; Registers used:
  3222 ;;		wreg, status,2, status,0, btemp+1, pclath, cstack
  3223 ;; Tracked objects:
  3224 ;;		On entry : 0/0
  3225 ;;		On exit  : 0/0
  3226 ;;		Unchanged: 0/0
  3227 ;; Data sizes:     COMMON   BANK0   BANK1   BANK3   BANK2
  3228 ;;      Params:         0       0       0       0       0
  3229 ;;      Locals:         0       0       5       0       0
  3230 ;;      Temps:          0       0       7       0       0
  3231 ;;      Totals:         0       0      12       0       0
  3232 ;;Total ram usage:       12 bytes
  3233 ;; Hardware stack levels used: 1
  3234 ;; Hardware stack levels required when called: 5
  3235 ;; This function calls:
  3236 ;;		_CENTENA
  3237 ;;		___awdiv
  3238 ;;		___flmul
  3239 ;;		___flsub
  3240 ;;		___fltol
  3241 ;;		___wmul
  3242 ;;		___xxtofl
  3243 ;; This function is called by:
  3244 ;;		_main
  3245 ;;		_UNIDAD
  3246 ;; This function uses a non-reentrant model
  3247 ;;
  3248                           
  3249  08D5                     _DECENA:	
  3250                           ;psect for function _DECENA
  3251                           
  3252                           
  3253                           ;incstack = 0
  3254                           ; Regs used in _DECENA: [wreg+status,2+status,0+btemp+1+pclath+cstack]
  3255                           ;DECENA@c stored from wreg
  3256  08D5  1683               	bsf	3,5	;RP0=1, select bank1
  3257  08D6  1303               	bcf	3,6	;RP1=0, select bank1
  3258  08D7  00C5               	movwf	DECENA@c^(0+128)
  3259  08D8                     l3237:
  3260                           
  3261                           ;LCD.c: 18:     c = (uint8_t)((c*1.9607) - CENTENA(c)*100)/10;
  3262  08D8  3064               	movlw	100
  3263  08D9  00A7               	movwf	___wmul@multiplicand^(0+128)
  3264  08DA  3000               	movlw	0
  3265  08DB  00A8               	movwf	(___wmul@multiplicand^(0+128)+1)
  3266  08DC  0845               	movf	DECENA@c^(0+128),w
  3267  08DD  160A  118A  2715  120A  158A  	fcall	_CENTENA
  3268  08E2  1683               	bsf	3,5	;RP0=1, select bank1
  3269  08E3  1303               	bcf	3,6	;RP1=0, select bank1
  3270  08E4  00BA               	movwf	??_DECENA^(0+128)
  3271  08E5  01BB               	clrf	(??_DECENA^(0+128)+1)
  3272  08E6  083A               	movf	??_DECENA^(0+128),w
  3273  08E7  00A5               	movwf	___wmul@multiplier^(0+128)
  3274  08E8  083B               	movf	(??_DECENA+1)^(0+128),w
  3275  08E9  00A6               	movwf	(___wmul@multiplier+1)^(0+128)
  3276  08EA  160A  118A  2340  120A  158A  	fcall	___wmul
  3277  08EF  1683               	bsf	3,5	;RP0=1, select bank1
  3278  08F0  1303               	bcf	3,6	;RP1=0, select bank1
  3279  08F1  0825               	movf	?___wmul^(0+128),w
  3280  08F2  00C1               	movwf	_DECENA$1173^(0+128)
  3281  08F3  0826               	movf	(?___wmul+1)^(0+128),w
  3282  08F4  00C2               	movwf	(_DECENA$1173+1)^(0+128)
  3283  08F5  3000               	movlw	0
  3284  08F6  1BC2               	btfsc	(_DECENA$1173+1)^(0+128),7
  3285  08F7  30FF               	movlw	255
  3286  08F8  00C3               	movwf	(_DECENA$1173+2)^(0+128)
  3287  08F9  00C4               	movwf	(_DECENA$1173+3)^(0+128)
  3288                           
  3289                           ;LCD.c: 18:     c = (uint8_t)((c*1.9607) - CENTENA(c)*100)/10;
  3290  08FA  300A               	movlw	10
  3291  08FB  00B1               	movwf	___awdiv@divisor^(0+128)
  3292  08FC  3000               	movlw	0
  3293  08FD  00B2               	movwf	(___awdiv@divisor^(0+128)+1)
  3294  08FE  0845               	movf	DECENA@c^(0+128),w
  3295  08FF  00BA               	movwf	??_DECENA^(0+128)
  3296  0900  01BB               	clrf	(??_DECENA^(0+128)+1)
  3297  0901  01BC               	clrf	(??_DECENA^(0+128)+2)
  3298  0902  01BD               	clrf	(??_DECENA^(0+128)+3)
  3299  0903  083D               	movf	(??_DECENA+3)^(0+128),w
  3300  0904  1283               	bcf	3,5	;RP0=0, select bank0
  3301  0905  1303               	bcf	3,6	;RP1=0, select bank0
  3302  0906  00A3               	movwf	___xxtofl@val+3
  3303  0907  1683               	bsf	3,5	;RP0=1, select bank1
  3304  0908  1303               	bcf	3,6	;RP1=0, select bank1
  3305  0909  083C               	movf	(??_DECENA+2)^(0+128),w
  3306  090A  1283               	bcf	3,5	;RP0=0, select bank0
  3307  090B  1303               	bcf	3,6	;RP1=0, select bank0
  3308  090C  00A2               	movwf	___xxtofl@val+2
  3309  090D  1683               	bsf	3,5	;RP0=1, select bank1
  3310  090E  1303               	bcf	3,6	;RP1=0, select bank1
  3311  090F  083B               	movf	(??_DECENA+1)^(0+128),w
  3312  0910  1283               	bcf	3,5	;RP0=0, select bank0
  3313  0911  1303               	bcf	3,6	;RP1=0, select bank0
  3314  0912  00A1               	movwf	___xxtofl@val+1
  3315  0913  1683               	bsf	3,5	;RP0=1, select bank1
  3316  0914  1303               	bcf	3,6	;RP1=0, select bank1
  3317  0915  083A               	movf	??_DECENA^(0+128),w
  3318  0916  1283               	bcf	3,5	;RP0=0, select bank0
  3319  0917  1303               	bcf	3,6	;RP1=0, select bank0
  3320  0918  00A0               	movwf	___xxtofl@val
  3321  0919  3001               	movlw	1
  3322  091A  120A  158A  2019  120A  158A  	fcall	___xxtofl
  3323  091F  1283               	bcf	3,5	;RP0=0, select bank0
  3324  0920  1303               	bcf	3,6	;RP1=0, select bank0
  3325  0921  0823               	movf	?___xxtofl+3,w
  3326  0922  00B5               	movwf	___flmul@a+3
  3327  0923  0822               	movf	?___xxtofl+2,w
  3328  0924  00B4               	movwf	___flmul@a+2
  3329  0925  0821               	movf	?___xxtofl+1,w
  3330  0926  00B3               	movwf	___flmul@a+1
  3331  0927  0820               	movf	?___xxtofl,w
  3332  0928  00B2               	movwf	___flmul@a
  3333  0929  303F               	movlw	63
  3334  092A  00B1               	movwf	___flmul@b+3
  3335  092B  30FA               	movlw	250
  3336  092C  00B0               	movwf	___flmul@b+2
  3337  092D  30F8               	movlw	248
  3338  092E  00AF               	movwf	___flmul@b+1
  3339  092F  3038               	movlw	56
  3340  0930  00AE               	movwf	___flmul@b
  3341  0931  120A  118A  203E  120A  158A  	fcall	___flmul
  3342  0936  1283               	bcf	3,5	;RP0=0, select bank0
  3343  0937  1303               	bcf	3,6	;RP1=0, select bank0
  3344  0938  0831               	movf	?___flmul+3,w
  3345  0939  1683               	bsf	3,5	;RP0=1, select bank1
  3346  093A  1303               	bcf	3,6	;RP1=0, select bank1
  3347  093B  00B0               	movwf	(___flsub@b+3)^(0+128)
  3348  093C  1283               	bcf	3,5	;RP0=0, select bank0
  3349  093D  1303               	bcf	3,6	;RP1=0, select bank0
  3350  093E  0830               	movf	?___flmul+2,w
  3351  093F  1683               	bsf	3,5	;RP0=1, select bank1
  3352  0940  1303               	bcf	3,6	;RP1=0, select bank1
  3353  0941  00AF               	movwf	(___flsub@b+2)^(0+128)
  3354  0942  1283               	bcf	3,5	;RP0=0, select bank0
  3355  0943  1303               	bcf	3,6	;RP1=0, select bank0
  3356  0944  082F               	movf	?___flmul+1,w
  3357  0945  1683               	bsf	3,5	;RP0=1, select bank1
  3358  0946  1303               	bcf	3,6	;RP1=0, select bank1
  3359  0947  00AE               	movwf	(___flsub@b+1)^(0+128)
  3360  0948  1283               	bcf	3,5	;RP0=0, select bank0
  3361  0949  1303               	bcf	3,6	;RP1=0, select bank0
  3362  094A  082E               	movf	?___flmul,w
  3363  094B  1683               	bsf	3,5	;RP0=1, select bank1
  3364  094C  1303               	bcf	3,6	;RP1=0, select bank1
  3365  094D  00AD               	movwf	___flsub@b^(0+128)
  3366  094E  0844               	movf	(_DECENA$1173+3)^(0+128),w
  3367  094F  1283               	bcf	3,5	;RP0=0, select bank0
  3368  0950  1303               	bcf	3,6	;RP1=0, select bank0
  3369  0951  00A3               	movwf	___xxtofl@val+3
  3370  0952  1683               	bsf	3,5	;RP0=1, select bank1
  3371  0953  1303               	bcf	3,6	;RP1=0, select bank1
  3372  0954  0843               	movf	(_DECENA$1173+2)^(0+128),w
  3373  0955  1283               	bcf	3,5	;RP0=0, select bank0
  3374  0956  1303               	bcf	3,6	;RP1=0, select bank0
  3375  0957  00A2               	movwf	___xxtofl@val+2
  3376  0958  1683               	bsf	3,5	;RP0=1, select bank1
  3377  0959  1303               	bcf	3,6	;RP1=0, select bank1
  3378  095A  0842               	movf	(_DECENA$1173+1)^(0+128),w
  3379  095B  1283               	bcf	3,5	;RP0=0, select bank0
  3380  095C  1303               	bcf	3,6	;RP1=0, select bank0
  3381  095D  00A1               	movwf	___xxtofl@val+1
  3382  095E  1683               	bsf	3,5	;RP0=1, select bank1
  3383  095F  1303               	bcf	3,6	;RP1=0, select bank1
  3384  0960  0841               	movf	_DECENA$1173^(0+128),w
  3385  0961  1283               	bcf	3,5	;RP0=0, select bank0
  3386  0962  1303               	bcf	3,6	;RP1=0, select bank0
  3387  0963  00A0               	movwf	___xxtofl@val
  3388  0964  3001               	movlw	1
  3389  0965  120A  158A  2019  120A  158A  	fcall	___xxtofl
  3390  096A  1283               	bcf	3,5	;RP0=0, select bank0
  3391  096B  1303               	bcf	3,6	;RP1=0, select bank0
  3392  096C  0823               	movf	?___xxtofl+3,w
  3393  096D  1683               	bsf	3,5	;RP0=1, select bank1
  3394  096E  1303               	bcf	3,6	;RP1=0, select bank1
  3395  096F  00AC               	movwf	(___flsub@a+3)^(0+128)
  3396  0970  1283               	bcf	3,5	;RP0=0, select bank0
  3397  0971  1303               	bcf	3,6	;RP1=0, select bank0
  3398  0972  0822               	movf	?___xxtofl+2,w
  3399  0973  1683               	bsf	3,5	;RP0=1, select bank1
  3400  0974  1303               	bcf	3,6	;RP1=0, select bank1
  3401  0975  00AB               	movwf	(___flsub@a+2)^(0+128)
  3402  0976  1283               	bcf	3,5	;RP0=0, select bank0
  3403  0977  1303               	bcf	3,6	;RP1=0, select bank0
  3404  0978  0821               	movf	?___xxtofl+1,w
  3405  0979  1683               	bsf	3,5	;RP0=1, select bank1
  3406  097A  1303               	bcf	3,6	;RP1=0, select bank1
  3407  097B  00AA               	movwf	(___flsub@a+1)^(0+128)
  3408  097C  1283               	bcf	3,5	;RP0=0, select bank0
  3409  097D  1303               	bcf	3,6	;RP1=0, select bank0
  3410  097E  0820               	movf	?___xxtofl,w
  3411  097F  1683               	bsf	3,5	;RP0=1, select bank1
  3412  0980  1303               	bcf	3,6	;RP1=0, select bank1
  3413  0981  00A9               	movwf	___flsub@a^(0+128)
  3414  0982  160A  118A  247D  120A  158A  	fcall	___flsub
  3415  0987  1683               	bsf	3,5	;RP0=1, select bank1
  3416  0988  1303               	bcf	3,6	;RP1=0, select bank1
  3417  0989  082C               	movf	(?___flsub+3)^(0+128),w
  3418  098A  1283               	bcf	3,5	;RP0=0, select bank0
  3419  098B  1303               	bcf	3,6	;RP1=0, select bank0
  3420  098C  00E5               	movwf	___fltol@f1+3
  3421  098D  1683               	bsf	3,5	;RP0=1, select bank1
  3422  098E  1303               	bcf	3,6	;RP1=0, select bank1
  3423  098F  082B               	movf	(?___flsub+2)^(0+128),w
  3424  0990  1283               	bcf	3,5	;RP0=0, select bank0
  3425  0991  1303               	bcf	3,6	;RP1=0, select bank0
  3426  0992  00E4               	movwf	___fltol@f1+2
  3427  0993  1683               	bsf	3,5	;RP0=1, select bank1
  3428  0994  1303               	bcf	3,6	;RP1=0, select bank1
  3429  0995  082A               	movf	(?___flsub+1)^(0+128),w
  3430  0996  1283               	bcf	3,5	;RP0=0, select bank0
  3431  0997  1303               	bcf	3,6	;RP1=0, select bank0
  3432  0998  00E3               	movwf	___fltol@f1+1
  3433  0999  1683               	bsf	3,5	;RP0=1, select bank1
  3434  099A  1303               	bcf	3,6	;RP1=0, select bank1
  3435  099B  0829               	movf	?___flsub^(0+128),w
  3436  099C  1283               	bcf	3,5	;RP0=0, select bank0
  3437  099D  1303               	bcf	3,6	;RP1=0, select bank0
  3438  099E  00E2               	movwf	___fltol@f1
  3439  099F  160A  118A  2784  120A  158A  	fcall	___fltol
  3440  09A4  1283               	bcf	3,5	;RP0=0, select bank0
  3441  09A5  1303               	bcf	3,6	;RP1=0, select bank0
  3442  09A6  0862               	movf	?___fltol,w
  3443  09A7  1683               	bsf	3,5	;RP0=1, select bank1
  3444  09A8  1303               	bcf	3,6	;RP1=0, select bank1
  3445  09A9  00BE               	movwf	(??_DECENA+4)^(0+128)
  3446  09AA  01BF               	clrf	((??_DECENA+4)^(0+128)+1)
  3447  09AB  083E               	movf	(??_DECENA+4)^(0+128),w
  3448  09AC  00B3               	movwf	___awdiv@dividend^(0+128)
  3449  09AD  083F               	movf	(??_DECENA+5)^(0+128),w
  3450  09AE  00B4               	movwf	(___awdiv@dividend+1)^(0+128)
  3451  09AF  160A  118A  26AC  120A  158A  	fcall	___awdiv
  3452  09B4  1683               	bsf	3,5	;RP0=1, select bank1
  3453  09B5  1303               	bcf	3,6	;RP1=0, select bank1
  3454  09B6  0831               	movf	?___awdiv^(0+128),w
  3455  09B7  00C0               	movwf	(??_DECENA+6)^(0+128)
  3456  09B8  0840               	movf	(??_DECENA+6)^(0+128),w
  3457  09B9  00C5               	movwf	DECENA@c^(0+128)
  3458  09BA                     l3239:
  3459                           
  3460                           ;LCD.c: 19:     return c;
  3461  09BA  0845               	movf	DECENA@c^(0+128),w
  3462  09BB                     l201:
  3463  09BB  0008               	return
  3464  09BC                     __end_of_DECENA:
  3465                           
  3466                           	psect	text9
  3467  1340                     __ptext9:	
  3468 ;; *************** function ___wmul *****************
  3469 ;; Defined at:
  3470 ;;		line 15 in file "C:\Program Files\Microchip\xc8\v2.35\pic\sources\c90\common\Umul16.c"
  3471 ;; Parameters:    Size  Location     Type
  3472 ;;  multiplier      2    5[BANK1 ] unsigned int 
  3473 ;;  multiplicand    2    7[BANK1 ] unsigned int 
  3474 ;; Auto vars:     Size  Location     Type
  3475 ;;  product         2   78[BANK0 ] unsigned int 
  3476 ;; Return value:  Size  Location     Type
  3477 ;;                  2    5[BANK1 ] unsigned int 
  3478 ;; Registers used:
  3479 ;;		wreg, status,2, status,0
  3480 ;; Tracked objects:
  3481 ;;		On entry : 0/0
  3482 ;;		On exit  : 0/0
  3483 ;;		Unchanged: 0/0
  3484 ;; Data sizes:     COMMON   BANK0   BANK1   BANK3   BANK2
  3485 ;;      Params:         0       0       4       0       0
  3486 ;;      Locals:         0       2       0       0       0
  3487 ;;      Temps:          0       0       0       0       0
  3488 ;;      Totals:         0       2       4       0       0
  3489 ;;Total ram usage:        6 bytes
  3490 ;; Hardware stack levels used: 1
  3491 ;; Hardware stack levels required when called: 2
  3492 ;; This function calls:
  3493 ;;		Nothing
  3494 ;; This function is called by:
  3495 ;;		_DECENA
  3496 ;;		_UNIDAD
  3497 ;; This function uses a non-reentrant model
  3498 ;;
  3499                           
  3500  1340                     ___wmul:	
  3501                           ;psect for function ___wmul
  3502                           
  3503  1340                     l3189:	
  3504                           ;incstack = 0
  3505                           ; Regs used in ___wmul: [wreg+status,2+status,0]
  3506                           
  3507  1340  1283               	bcf	3,5	;RP0=0, select bank0
  3508  1341  1303               	bcf	3,6	;RP1=0, select bank0
  3509  1342  01EE               	clrf	___wmul@product
  3510  1343  01EF               	clrf	___wmul@product+1
  3511  1344                     l3191:
  3512  1344  1683               	bsf	3,5	;RP0=1, select bank1
  3513  1345  1303               	bcf	3,6	;RP1=0, select bank1
  3514  1346  1C25               	btfss	___wmul@multiplier^(0+128),0
  3515  1347  2B49               	goto	u4181
  3516  1348  2B4A               	goto	u4180
  3517  1349                     u4181:
  3518  1349  2B56               	goto	l387
  3519  134A                     u4180:
  3520  134A                     l3193:
  3521  134A  0827               	movf	___wmul@multiplicand^(0+128),w
  3522  134B  1283               	bcf	3,5	;RP0=0, select bank0
  3523  134C  1303               	bcf	3,6	;RP1=0, select bank0
  3524  134D  07EE               	addwf	___wmul@product,f
  3525  134E  1803               	skipnc
  3526  134F  0AEF               	incf	___wmul@product+1,f
  3527  1350  1683               	bsf	3,5	;RP0=1, select bank1
  3528  1351  1303               	bcf	3,6	;RP1=0, select bank1
  3529  1352  0828               	movf	(___wmul@multiplicand+1)^(0+128),w
  3530  1353  1283               	bcf	3,5	;RP0=0, select bank0
  3531  1354  1303               	bcf	3,6	;RP1=0, select bank0
  3532  1355  07EF               	addwf	___wmul@product+1,f
  3533  1356                     l387:
  3534  1356  3001               	movlw	1
  3535  1357  1683               	bsf	3,5	;RP0=1, select bank1
  3536  1358  1303               	bcf	3,6	;RP1=0, select bank1
  3537  1359                     u4195:
  3538  1359  1003               	clrc
  3539  135A  0DA7               	rlf	___wmul@multiplicand^(0+128),f
  3540  135B  0DA8               	rlf	(___wmul@multiplicand+1)^(0+128),f
  3541  135C  3EFF               	addlw	-1
  3542  135D  1D03               	skipz
  3543  135E  2B59               	goto	u4195
  3544  135F                     l3195:
  3545  135F  3001               	movlw	1
  3546  1360                     u4205:
  3547  1360  1003               	clrc
  3548  1361  0CA6               	rrf	(___wmul@multiplier+1)^(0+128),f
  3549  1362  0CA5               	rrf	___wmul@multiplier^(0+128),f
  3550  1363  3EFF               	addlw	-1
  3551  1364  1D03               	skipz
  3552  1365  2B60               	goto	u4205
  3553  1366                     l3197:
  3554  1366  0825               	movf	___wmul@multiplier^(0+128),w
  3555  1367  0426               	iorwf	(___wmul@multiplier+1)^(0+128),w
  3556  1368  1D03               	btfss	3,2
  3557  1369  2B6B               	goto	u4211
  3558  136A  2B6C               	goto	u4210
  3559  136B                     u4211:
  3560  136B  2B44               	goto	l3191
  3561  136C                     u4210:
  3562  136C                     l3199:
  3563  136C  1283               	bcf	3,5	;RP0=0, select bank0
  3564  136D  1303               	bcf	3,6	;RP1=0, select bank0
  3565  136E  086F               	movf	___wmul@product+1,w
  3566  136F  1683               	bsf	3,5	;RP0=1, select bank1
  3567  1370  1303               	bcf	3,6	;RP1=0, select bank1
  3568  1371  00A6               	movwf	(?___wmul+1)^(0+128)
  3569  1372  1283               	bcf	3,5	;RP0=0, select bank0
  3570  1373  1303               	bcf	3,6	;RP1=0, select bank0
  3571  1374  086E               	movf	___wmul@product,w
  3572  1375  1683               	bsf	3,5	;RP0=1, select bank1
  3573  1376  1303               	bcf	3,6	;RP1=0, select bank1
  3574  1377  00A5               	movwf	?___wmul^(0+128)
  3575  1378                     l389:
  3576  1378  0008               	return
  3577  1379                     __end_of___wmul:
  3578                           
  3579                           	psect	text10
  3580  147D                     __ptext10:	
  3581 ;; *************** function ___flsub *****************
  3582 ;; Defined at:
  3583 ;;		line 242 in file "C:\Program Files\Microchip\xc8\v2.35\pic\sources\c90\common\sprcadd.c"
  3584 ;; Parameters:    Size  Location     Type
  3585 ;;  a               4    9[BANK1 ] unsigned int 
  3586 ;;  b               4   13[BANK1 ] unsigned int 
  3587 ;; Auto vars:     Size  Location     Type
  3588 ;;		None
  3589 ;; Return value:  Size  Location     Type
  3590 ;;                  4    9[BANK1 ] unsigned int 
  3591 ;; Registers used:
  3592 ;;		wreg, status,2, status,0, btemp+1, pclath, cstack
  3593 ;; Tracked objects:
  3594 ;;		On entry : 0/0
  3595 ;;		On exit  : 0/0
  3596 ;;		Unchanged: 0/0
  3597 ;; Data sizes:     COMMON   BANK0   BANK1   BANK3   BANK2
  3598 ;;      Params:         0       0       8       0       0
  3599 ;;      Locals:         0       0       0       0       0
  3600 ;;      Temps:          0       0       0       0       0
  3601 ;;      Totals:         0       0       8       0       0
  3602 ;;Total ram usage:        8 bytes
  3603 ;; Hardware stack levels used: 1
  3604 ;; Hardware stack levels required when called: 3
  3605 ;; This function calls:
  3606 ;;		___fladd
  3607 ;; This function is called by:
  3608 ;;		_DECENA
  3609 ;;		_UNIDAD
  3610 ;; This function uses a non-reentrant model
  3611 ;;
  3612                           
  3613  147D                     ___flsub:	
  3614                           ;psect for function ___flsub
  3615                           
  3616  147D                     l3203:	
  3617                           ;incstack = 0
  3618                           ; Regs used in ___flsub: [wreg+status,2+status,0+btemp+1+pclath+cstack]
  3619                           
  3620  147D  3080               	movlw	128
  3621  147E  1683               	bsf	3,5	;RP0=1, select bank1
  3622  147F  1303               	bcf	3,6	;RP1=0, select bank1
  3623  1480  06AC               	xorwf	(___flsub@a+3)^(0+128),f
  3624  1481                     l3205:
  3625  1481  0830               	movf	(___flsub@b+3)^(0+128),w
  3626  1482  1283               	bcf	3,5	;RP0=0, select bank0
  3627  1483  1303               	bcf	3,6	;RP1=0, select bank0
  3628  1484  00A3               	movwf	___fladd@b+3
  3629  1485  1683               	bsf	3,5	;RP0=1, select bank1
  3630  1486  1303               	bcf	3,6	;RP1=0, select bank1
  3631  1487  082F               	movf	(___flsub@b+2)^(0+128),w
  3632  1488  1283               	bcf	3,5	;RP0=0, select bank0
  3633  1489  1303               	bcf	3,6	;RP1=0, select bank0
  3634  148A  00A2               	movwf	___fladd@b+2
  3635  148B  1683               	bsf	3,5	;RP0=1, select bank1
  3636  148C  1303               	bcf	3,6	;RP1=0, select bank1
  3637  148D  082E               	movf	(___flsub@b+1)^(0+128),w
  3638  148E  1283               	bcf	3,5	;RP0=0, select bank0
  3639  148F  1303               	bcf	3,6	;RP1=0, select bank0
  3640  1490  00A1               	movwf	___fladd@b+1
  3641  1491  1683               	bsf	3,5	;RP0=1, select bank1
  3642  1492  1303               	bcf	3,6	;RP1=0, select bank1
  3643  1493  082D               	movf	___flsub@b^(0+128),w
  3644  1494  1283               	bcf	3,5	;RP0=0, select bank0
  3645  1495  1303               	bcf	3,6	;RP1=0, select bank0
  3646  1496  00A0               	movwf	___fladd@b
  3647  1497  1683               	bsf	3,5	;RP0=1, select bank1
  3648  1498  1303               	bcf	3,6	;RP1=0, select bank1
  3649  1499  082C               	movf	(___flsub@a+3)^(0+128),w
  3650  149A  1283               	bcf	3,5	;RP0=0, select bank0
  3651  149B  1303               	bcf	3,6	;RP1=0, select bank0
  3652  149C  00A7               	movwf	___fladd@a+3
  3653  149D  1683               	bsf	3,5	;RP0=1, select bank1
  3654  149E  1303               	bcf	3,6	;RP1=0, select bank1
  3655  149F  082B               	movf	(___flsub@a+2)^(0+128),w
  3656  14A0  1283               	bcf	3,5	;RP0=0, select bank0
  3657  14A1  1303               	bcf	3,6	;RP1=0, select bank0
  3658  14A2  00A6               	movwf	___fladd@a+2
  3659  14A3  1683               	bsf	3,5	;RP0=1, select bank1
  3660  14A4  1303               	bcf	3,6	;RP1=0, select bank1
  3661  14A5  082A               	movf	(___flsub@a+1)^(0+128),w
  3662  14A6  1283               	bcf	3,5	;RP0=0, select bank0
  3663  14A7  1303               	bcf	3,6	;RP1=0, select bank0
  3664  14A8  00A5               	movwf	___fladd@a+1
  3665  14A9  1683               	bsf	3,5	;RP0=1, select bank1
  3666  14AA  1303               	bcf	3,6	;RP1=0, select bank1
  3667  14AB  0829               	movf	___flsub@a^(0+128),w
  3668  14AC  1283               	bcf	3,5	;RP0=0, select bank0
  3669  14AD  1303               	bcf	3,6	;RP1=0, select bank0
  3670  14AE  00A4               	movwf	___fladd@a
  3671  14AF  120A  118A  239F  160A  118A  	fcall	___fladd
  3672  14B4  1283               	bcf	3,5	;RP0=0, select bank0
  3673  14B5  1303               	bcf	3,6	;RP1=0, select bank0
  3674  14B6  0823               	movf	?___fladd+3,w
  3675  14B7  1683               	bsf	3,5	;RP0=1, select bank1
  3676  14B8  1303               	bcf	3,6	;RP1=0, select bank1
  3677  14B9  00AC               	movwf	(?___flsub+3)^(0+128)
  3678  14BA  1283               	bcf	3,5	;RP0=0, select bank0
  3679  14BB  1303               	bcf	3,6	;RP1=0, select bank0
  3680  14BC  0822               	movf	?___fladd+2,w
  3681  14BD  1683               	bsf	3,5	;RP0=1, select bank1
  3682  14BE  1303               	bcf	3,6	;RP1=0, select bank1
  3683  14BF  00AB               	movwf	(?___flsub+2)^(0+128)
  3684  14C0  1283               	bcf	3,5	;RP0=0, select bank0
  3685  14C1  1303               	bcf	3,6	;RP1=0, select bank0
  3686  14C2  0821               	movf	?___fladd+1,w
  3687  14C3  1683               	bsf	3,5	;RP0=1, select bank1
  3688  14C4  1303               	bcf	3,6	;RP1=0, select bank1
  3689  14C5  00AA               	movwf	(?___flsub+1)^(0+128)
  3690  14C6  1283               	bcf	3,5	;RP0=0, select bank0
  3691  14C7  1303               	bcf	3,6	;RP1=0, select bank0
  3692  14C8  0820               	movf	?___fladd,w
  3693  14C9  1683               	bsf	3,5	;RP0=1, select bank1
  3694  14CA  1303               	bcf	3,6	;RP1=0, select bank1
  3695  14CB  00A9               	movwf	?___flsub^(0+128)
  3696  14CC                     l726:
  3697  14CC  0008               	return
  3698  14CD                     __end_of___flsub:
  3699                           
  3700                           	psect	text11
  3701  039F                     __ptext11:	
  3702 ;; *************** function ___fladd *****************
  3703 ;; Defined at:
  3704 ;;		line 10 in file "C:\Program Files\Microchip\xc8\v2.35\pic\sources\c90\common\sprcadd.c"
  3705 ;; Parameters:    Size  Location     Type
  3706 ;;  b               4    0[BANK0 ] unsigned int 
  3707 ;;  a               4    4[BANK0 ] unsigned int 
  3708 ;; Auto vars:     Size  Location     Type
  3709 ;;  grs             1   19[BANK0 ] unsigned char 
  3710 ;;  bexp            1   18[BANK0 ] unsigned char 
  3711 ;;  aexp            1   17[BANK0 ] unsigned char 
  3712 ;;  signs           1   16[BANK0 ] unsigned char 
  3713 ;; Return value:  Size  Location     Type
  3714 ;;                  4    0[BANK0 ] unsigned char 
  3715 ;; Registers used:
  3716 ;;		wreg, status,2, status,0, btemp+1
  3717 ;; Tracked objects:
  3718 ;;		On entry : 0/0
  3719 ;;		On exit  : 0/0
  3720 ;;		Unchanged: 0/0
  3721 ;; Data sizes:     COMMON   BANK0   BANK1   BANK3   BANK2
  3722 ;;      Params:         0       8       0       0       0
  3723 ;;      Locals:         0       4       0       0       0
  3724 ;;      Temps:          0       8       0       0       0
  3725 ;;      Totals:         0      20       0       0       0
  3726 ;;Total ram usage:       20 bytes
  3727 ;; Hardware stack levels used: 1
  3728 ;; Hardware stack levels required when called: 2
  3729 ;; This function calls:
  3730 ;;		Nothing
  3731 ;; This function is called by:
  3732 ;;		___flsub
  3733 ;; This function uses a non-reentrant model
  3734 ;;
  3735                           
  3736  039F                     ___fladd:	
  3737                           ;psect for function ___fladd
  3738                           
  3739  039F                     l2125:	
  3740                           ;incstack = 0
  3741                           ; Regs used in ___fladd: [wreg+status,2+status,0+btemp+1]
  3742                           
  3743  039F  1283               	bcf	3,5	;RP0=0, select bank0
  3744  03A0  1303               	bcf	3,6	;RP1=0, select bank0
  3745  03A1  0823               	movf	___fladd@b+3,w
  3746  03A2  3980               	andlw	128
  3747  03A3  00A8               	movwf	??___fladd
  3748  03A4  0828               	movf	??___fladd,w
  3749  03A5  00B0               	movwf	___fladd@signs
  3750  03A6                     l2127:
  3751  03A6  0823               	movf	___fladd@b+3,w
  3752  03A7  00A8               	movwf	??___fladd
  3753  03A8  0728               	addwf	??___fladd,w
  3754  03A9  00A9               	movwf	??___fladd+1
  3755  03AA  0829               	movf	??___fladd+1,w
  3756  03AB  00B2               	movwf	___fladd@bexp
  3757  03AC                     l2129:
  3758  03AC  1FA2               	btfss	___fladd@b+2,7
  3759  03AD  2BAF               	goto	u2321
  3760  03AE  2BB0               	goto	u2320
  3761  03AF                     u2321:
  3762  03AF  2BB1               	goto	l2133
  3763  03B0                     u2320:
  3764  03B0                     l2131:
  3765  03B0  1432               	bsf	___fladd@bexp,0
  3766  03B1                     l2133:
  3767  03B1  0832               	movf	___fladd@bexp,w
  3768  03B2  1903               	btfsc	3,2
  3769  03B3  2BB5               	goto	u2331
  3770  03B4  2BB6               	goto	u2330
  3771  03B5                     u2331:
  3772  03B5  2BC6               	goto	l2143
  3773  03B6                     u2330:
  3774  03B6                     l2135:
  3775  03B6  0A32               	incf	___fladd@bexp,w
  3776  03B7  1D03               	btfss	3,2
  3777  03B8  2BBA               	goto	u2341
  3778  03B9  2BBB               	goto	u2340
  3779  03BA                     u2341:
  3780  03BA  2BC3               	goto	l2139
  3781  03BB                     u2340:
  3782  03BB                     l2137:
  3783  03BB  3000               	movlw	0
  3784  03BC  00A3               	movwf	___fladd@b+3
  3785  03BD  3000               	movlw	0
  3786  03BE  00A2               	movwf	___fladd@b+2
  3787  03BF  3000               	movlw	0
  3788  03C0  00A1               	movwf	___fladd@b+1
  3789  03C1  3000               	movlw	0
  3790  03C2  00A0               	movwf	___fladd@b
  3791  03C3                     l2139:
  3792  03C3  17A2               	bsf	___fladd@b+2,7
  3793  03C4                     l2141:
  3794  03C4  01A3               	clrf	___fladd@b+3
  3795  03C5  2BCE               	goto	l2145
  3796  03C6                     l2143:
  3797  03C6  3000               	movlw	0
  3798  03C7  00A3               	movwf	___fladd@b+3
  3799  03C8  3000               	movlw	0
  3800  03C9  00A2               	movwf	___fladd@b+2
  3801  03CA  3000               	movlw	0
  3802  03CB  00A1               	movwf	___fladd@b+1
  3803  03CC  3000               	movlw	0
  3804  03CD  00A0               	movwf	___fladd@b
  3805  03CE                     l2145:
  3806  03CE  0827               	movf	___fladd@a+3,w
  3807  03CF  3980               	andlw	128
  3808  03D0  00A8               	movwf	??___fladd
  3809  03D1  0828               	movf	??___fladd,w
  3810  03D2  00B1               	movwf	___fladd@aexp
  3811  03D3                     l2147:
  3812  03D3  0831               	movf	___fladd@aexp,w
  3813  03D4  0630               	xorwf	___fladd@signs,w
  3814  03D5  1903               	skipnz
  3815  03D6  2BD8               	goto	u2351
  3816  03D7  2BD9               	goto	u2350
  3817  03D8                     u2351:
  3818  03D8  2BDA               	goto	l2151
  3819  03D9                     u2350:
  3820  03D9                     l2149:
  3821  03D9  1730               	bsf	___fladd@signs,6
  3822  03DA                     l2151:
  3823  03DA  0827               	movf	___fladd@a+3,w
  3824  03DB  00A8               	movwf	??___fladd
  3825  03DC  0728               	addwf	??___fladd,w
  3826  03DD  00A9               	movwf	??___fladd+1
  3827  03DE  0829               	movf	??___fladd+1,w
  3828  03DF  00B1               	movwf	___fladd@aexp
  3829  03E0                     l2153:
  3830  03E0  1FA6               	btfss	___fladd@a+2,7
  3831  03E1  2BE3               	goto	u2361
  3832  03E2  2BE4               	goto	u2360
  3833  03E3                     u2361:
  3834  03E3  2BE5               	goto	l2157
  3835  03E4                     u2360:
  3836  03E4                     l2155:
  3837  03E4  1431               	bsf	___fladd@aexp,0
  3838  03E5                     l2157:
  3839  03E5  0831               	movf	___fladd@aexp,w
  3840  03E6  1903               	btfsc	3,2
  3841  03E7  2BE9               	goto	u2371
  3842  03E8  2BEA               	goto	u2370
  3843  03E9                     u2371:
  3844  03E9  2BFA               	goto	l2167
  3845  03EA                     u2370:
  3846  03EA                     l2159:
  3847  03EA  0A31               	incf	___fladd@aexp,w
  3848  03EB  1D03               	btfss	3,2
  3849  03EC  2BEE               	goto	u2381
  3850  03ED  2BEF               	goto	u2380
  3851  03EE                     u2381:
  3852  03EE  2BF7               	goto	l2163
  3853  03EF                     u2380:
  3854  03EF                     l2161:
  3855  03EF  3000               	movlw	0
  3856  03F0  00A7               	movwf	___fladd@a+3
  3857  03F1  3000               	movlw	0
  3858  03F2  00A6               	movwf	___fladd@a+2
  3859  03F3  3000               	movlw	0
  3860  03F4  00A5               	movwf	___fladd@a+1
  3861  03F5  3000               	movlw	0
  3862  03F6  00A4               	movwf	___fladd@a
  3863  03F7                     l2163:
  3864  03F7  17A6               	bsf	___fladd@a+2,7
  3865  03F8                     l2165:
  3866  03F8  01A7               	clrf	___fladd@a+3
  3867  03F9  2C02               	goto	l680
  3868  03FA                     l2167:
  3869  03FA  3000               	movlw	0
  3870  03FB  00A7               	movwf	___fladd@a+3
  3871  03FC  3000               	movlw	0
  3872  03FD  00A6               	movwf	___fladd@a+2
  3873  03FE  3000               	movlw	0
  3874  03FF  00A5               	movwf	___fladd@a+1
  3875  0400  3000               	movlw	0
  3876  0401  00A4               	movwf	___fladd@a
  3877  0402                     l680:
  3878  0402  0832               	movf	___fladd@bexp,w
  3879  0403  0231               	subwf	___fladd@aexp,w
  3880  0404  1803               	skipnc
  3881  0405  2C07               	goto	u2391
  3882  0406  2C08               	goto	u2390
  3883  0407                     u2391:
  3884  0407  2C4C               	goto	l2203
  3885  0408                     u2390:
  3886  0408                     l2169:
  3887  0408  1F30               	btfss	___fladd@signs,6
  3888  0409  2C0B               	goto	u2401
  3889  040A  2C0C               	goto	u2400
  3890  040B                     u2401:
  3891  040B  2C10               	goto	l2173
  3892  040C                     u2400:
  3893  040C                     l2171:
  3894  040C  3080               	movlw	128
  3895  040D  00A8               	movwf	??___fladd
  3896  040E  0828               	movf	??___fladd,w
  3897  040F  06B0               	xorwf	___fladd@signs,f
  3898  0410                     l2173:
  3899  0410  0832               	movf	___fladd@bexp,w
  3900  0411  00A8               	movwf	??___fladd
  3901  0412  0828               	movf	??___fladd,w
  3902  0413  00B3               	movwf	___fladd@grs
  3903  0414                     l2175:
  3904  0414  0831               	movf	___fladd@aexp,w
  3905  0415  00A8               	movwf	??___fladd
  3906  0416  0828               	movf	??___fladd,w
  3907  0417  00B2               	movwf	___fladd@bexp
  3908  0418                     l2177:
  3909  0418  0833               	movf	___fladd@grs,w
  3910  0419  00A8               	movwf	??___fladd
  3911  041A  0828               	movf	??___fladd,w
  3912  041B  00B1               	movwf	___fladd@aexp
  3913  041C                     l2179:
  3914  041C  0820               	movf	___fladd@b,w
  3915  041D  00A8               	movwf	??___fladd
  3916  041E  0828               	movf	??___fladd,w
  3917  041F  00B3               	movwf	___fladd@grs
  3918  0420                     l2181:
  3919  0420  0824               	movf	___fladd@a,w
  3920  0421  00A8               	movwf	??___fladd
  3921  0422  0828               	movf	??___fladd,w
  3922  0423  00A0               	movwf	___fladd@b
  3923  0424                     l2183:
  3924  0424  0833               	movf	___fladd@grs,w
  3925  0425  00A8               	movwf	??___fladd
  3926  0426  0828               	movf	??___fladd,w
  3927  0427  00A4               	movwf	___fladd@a
  3928  0428                     l2185:
  3929  0428  0821               	movf	___fladd@b+1,w
  3930  0429  00A8               	movwf	??___fladd
  3931  042A  0828               	movf	??___fladd,w
  3932  042B  00B3               	movwf	___fladd@grs
  3933  042C                     l2187:
  3934  042C  0825               	movf	___fladd@a+1,w
  3935  042D  00A8               	movwf	??___fladd
  3936  042E  0828               	movf	??___fladd,w
  3937  042F  00A1               	movwf	___fladd@b+1
  3938  0430                     l2189:
  3939  0430  0833               	movf	___fladd@grs,w
  3940  0431  00A8               	movwf	??___fladd
  3941  0432  0828               	movf	??___fladd,w
  3942  0433  00A5               	movwf	___fladd@a+1
  3943  0434                     l2191:
  3944  0434  0822               	movf	___fladd@b+2,w
  3945  0435  00A8               	movwf	??___fladd
  3946  0436  0828               	movf	??___fladd,w
  3947  0437  00B3               	movwf	___fladd@grs
  3948  0438                     l2193:
  3949  0438  0826               	movf	___fladd@a+2,w
  3950  0439  00A8               	movwf	??___fladd
  3951  043A  0828               	movf	??___fladd,w
  3952  043B  00A2               	movwf	___fladd@b+2
  3953  043C                     l2195:
  3954  043C  0833               	movf	___fladd@grs,w
  3955  043D  00A8               	movwf	??___fladd
  3956  043E  0828               	movf	??___fladd,w
  3957  043F  00A6               	movwf	___fladd@a+2
  3958  0440                     l2197:
  3959  0440  0823               	movf	___fladd@b+3,w
  3960  0441  00A8               	movwf	??___fladd
  3961  0442  0828               	movf	??___fladd,w
  3962  0443  00B3               	movwf	___fladd@grs
  3963  0444                     l2199:
  3964  0444  0827               	movf	___fladd@a+3,w
  3965  0445  00A8               	movwf	??___fladd
  3966  0446  0828               	movf	??___fladd,w
  3967  0447  00A3               	movwf	___fladd@b+3
  3968  0448                     l2201:
  3969  0448  0833               	movf	___fladd@grs,w
  3970  0449  00A8               	movwf	??___fladd
  3971  044A  0828               	movf	??___fladd,w
  3972  044B  00A7               	movwf	___fladd@a+3
  3973  044C                     l2203:
  3974  044C  01B3               	clrf	___fladd@grs
  3975  044D                     l2205:
  3976  044D  0831               	movf	___fladd@aexp,w
  3977  044E  00A8               	movwf	??___fladd
  3978  044F  01A9               	clrf	??___fladd+1
  3979  0450  0829               	movf	??___fladd+1,w
  3980  0451  00AB               	movwf	??___fladd+3
  3981  0452  0832               	movf	___fladd@bexp,w
  3982  0453  0228               	subwf	??___fladd,w
  3983  0454  00AA               	movwf	??___fladd+2
  3984  0455  1C03               	skipc
  3985  0456  03AB               	decf	??___fladd+3,f
  3986  0457  082B               	movf	??___fladd+3,w
  3987  0458  3A80               	xorlw	128
  3988  0459  00FF               	movwf	btemp+1
  3989  045A  3080               	movlw	128
  3990  045B  027F               	subwf	btemp+1,w
  3991  045C  1D03               	skipz
  3992  045D  2C60               	goto	u2415
  3993  045E  301A               	movlw	26
  3994  045F  022A               	subwf	??___fladd+2,w
  3995  0460                     u2415:
  3996  0460  1C03               	skipc
  3997  0461  2C63               	goto	u2411
  3998  0462  2C64               	goto	u2410
  3999  0463                     u2411:
  4000  0463  2CA1               	goto	l2221
  4001  0464                     u2410:
  4002  0464                     l2207:
  4003  0464  1283               	bcf	3,5	;RP0=0, select bank0
  4004  0465  1303               	bcf	3,6	;RP1=0, select bank0
  4005  0466  0823               	movf	___fladd@b+3,w
  4006  0467  0422               	iorwf	___fladd@b+2,w
  4007  0468  0421               	iorwf	___fladd@b+1,w
  4008  0469  0420               	iorwf	___fladd@b,w
  4009  046A  1D03               	skipz
  4010  046B  2C6D               	goto	u2421
  4011  046C  2C6F               	goto	u2420
  4012  046D                     u2421:
  4013  046D  3001               	movlw	1
  4014  046E  2C70               	goto	u2430
  4015  046F                     u2420:
  4016  046F  3000               	movlw	0
  4017  0470                     u2430:
  4018  0470  00A8               	movwf	??___fladd
  4019  0471  0828               	movf	??___fladd,w
  4020  0472  00B3               	movwf	___fladd@grs
  4021  0473  3000               	movlw	0
  4022  0474  00A3               	movwf	___fladd@b+3
  4023  0475  3000               	movlw	0
  4024  0476  00A2               	movwf	___fladd@b+2
  4025  0477  3000               	movlw	0
  4026  0478  00A1               	movwf	___fladd@b+1
  4027  0479  3000               	movlw	0
  4028  047A  00A0               	movwf	___fladd@b
  4029  047B  0831               	movf	___fladd@aexp,w
  4030  047C  00A8               	movwf	??___fladd
  4031  047D  0828               	movf	??___fladd,w
  4032  047E  00B2               	movwf	___fladd@bexp
  4033  047F  2CA9               	goto	l684
  4034  0480                     l686:
  4035  0480  1C33               	btfss	___fladd@grs,0
  4036  0481  2C83               	goto	u2441
  4037  0482  2C84               	goto	u2440
  4038  0483                     u2441:
  4039  0483  2C8D               	goto	l2211
  4040  0484                     u2440:
  4041  0484                     l2209:
  4042  0484  0833               	movf	___fladd@grs,w
  4043  0485  00A8               	movwf	??___fladd
  4044  0486  1003               	clrc
  4045  0487  0C28               	rrf	??___fladd,w
  4046  0488  3801               	iorlw	1
  4047  0489  00A9               	movwf	??___fladd+1
  4048  048A  0829               	movf	??___fladd+1,w
  4049  048B  00B3               	movwf	___fladd@grs
  4050  048C  2C8F               	goto	l2213
  4051  048D                     l2211:
  4052  048D  1003               	clrc
  4053  048E  0CB3               	rrf	___fladd@grs,f
  4054  048F                     l2213:
  4055  048F  1C20               	btfss	___fladd@b,0
  4056  0490  2C92               	goto	u2451
  4057  0491  2C93               	goto	u2450
  4058  0492                     u2451:
  4059  0492  2C94               	goto	l2217
  4060  0493                     u2450:
  4061  0493                     l2215:
  4062  0493  17B3               	bsf	___fladd@grs,7
  4063  0494                     l2217:
  4064  0494  3001               	movlw	1
  4065  0495  00A8               	movwf	??___fladd
  4066  0496                     u2465:
  4067  0496  0D23               	rlf	___fladd@b+3,w
  4068  0497  0CA3               	rrf	___fladd@b+3,f
  4069  0498  0CA2               	rrf	___fladd@b+2,f
  4070  0499  0CA1               	rrf	___fladd@b+1,f
  4071  049A  0CA0               	rrf	___fladd@b,f
  4072  049B  0BA8               	decfsz	??___fladd& (0+127),f
  4073  049C  2C96               	goto	u2465
  4074  049D                     l2219:
  4075  049D  3001               	movlw	1
  4076  049E  00A8               	movwf	??___fladd
  4077  049F  0828               	movf	??___fladd,w
  4078  04A0  07B2               	addwf	___fladd@bexp,f
  4079  04A1                     l2221:
  4080  04A1  1283               	bcf	3,5	;RP0=0, select bank0
  4081  04A2  1303               	bcf	3,6	;RP1=0, select bank0
  4082  04A3  0831               	movf	___fladd@aexp,w
  4083  04A4  0232               	subwf	___fladd@bexp,w
  4084  04A5  1C03               	skipc
  4085  04A6  2CA8               	goto	u2471
  4086  04A7  2CA9               	goto	u2470
  4087  04A8                     u2471:
  4088  04A8  2C80               	goto	l686
  4089  04A9                     u2470:
  4090  04A9                     l684:
  4091  04A9  1B30               	btfsc	___fladd@signs,6
  4092  04AA  2CAC               	goto	u2481
  4093  04AB  2CAD               	goto	u2480
  4094  04AC                     u2481:
  4095  04AC  2CF8               	goto	l2247
  4096  04AD                     u2480:
  4097  04AD                     l2223:
  4098  04AD  0832               	movf	___fladd@bexp,w
  4099  04AE  1D03               	btfss	3,2
  4100  04AF  2CB1               	goto	u2491
  4101  04B0  2CB2               	goto	u2490
  4102  04B1                     u2491:
  4103  04B1  2CBB               	goto	l2229
  4104  04B2                     u2490:
  4105  04B2                     l2225:
  4106  04B2  3000               	movlw	0
  4107  04B3  00A3               	movwf	?___fladd+3
  4108  04B4  3000               	movlw	0
  4109  04B5  00A2               	movwf	?___fladd+2
  4110  04B6  3000               	movlw	0
  4111  04B7  00A1               	movwf	?___fladd+1
  4112  04B8  3000               	movlw	0
  4113  04B9  00A0               	movwf	?___fladd
  4114  04BA  2E26               	goto	l693
  4115  04BB                     l2229:
  4116  04BB  0824               	movf	___fladd@a,w
  4117  04BC  07A0               	addwf	___fladd@b,f
  4118  04BD  0825               	movf	___fladd@a+1,w
  4119  04BE  1103               	clrz
  4120  04BF  1803               	skipnc
  4121  04C0  3E01               	addlw	1
  4122  04C1  1903               	skipnz
  4123  04C2  2CC4               	goto	u2501
  4124  04C3  07A1               	addwf	___fladd@b+1,f
  4125  04C4                     u2501:
  4126  04C4  0826               	movf	___fladd@a+2,w
  4127  04C5  1103               	clrz
  4128  04C6  1803               	skipnc
  4129  04C7  3E01               	addlw	1
  4130  04C8  1903               	skipnz
  4131  04C9  2CCB               	goto	u2502
  4132  04CA  07A2               	addwf	___fladd@b+2,f
  4133  04CB                     u2502:
  4134  04CB  0827               	movf	___fladd@a+3,w
  4135  04CC  1103               	clrz
  4136  04CD  1803               	skipnc
  4137  04CE  3E01               	addlw	1
  4138  04CF  1903               	skipnz
  4139  04D0  2CD2               	goto	u2503
  4140  04D1  07A3               	addwf	___fladd@b+3,f
  4141  04D2                     u2503:
  4142  04D2                     l2231:
  4143  04D2  1C23               	btfss	___fladd@b+3,0
  4144  04D3  2CD5               	goto	u2511
  4145  04D4  2CD6               	goto	u2510
  4146  04D5                     u2511:
  4147  04D5  2DAC               	goto	l2281
  4148  04D6                     u2510:
  4149  04D6                     l2233:
  4150  04D6  1C33               	btfss	___fladd@grs,0
  4151  04D7  2CD9               	goto	u2521
  4152  04D8  2CDA               	goto	u2520
  4153  04D9                     u2521:
  4154  04D9  2CE3               	goto	l2237
  4155  04DA                     u2520:
  4156  04DA                     l2235:
  4157  04DA  0833               	movf	___fladd@grs,w
  4158  04DB  00A8               	movwf	??___fladd
  4159  04DC  1003               	clrc
  4160  04DD  0C28               	rrf	??___fladd,w
  4161  04DE  3801               	iorlw	1
  4162  04DF  00A9               	movwf	??___fladd+1
  4163  04E0  0829               	movf	??___fladd+1,w
  4164  04E1  00B3               	movwf	___fladd@grs
  4165  04E2  2CE5               	goto	l2239
  4166  04E3                     l2237:
  4167  04E3  1003               	clrc
  4168  04E4  0CB3               	rrf	___fladd@grs,f
  4169  04E5                     l2239:
  4170  04E5  1C20               	btfss	___fladd@b,0
  4171  04E6  2CE8               	goto	u2531
  4172  04E7  2CE9               	goto	u2530
  4173  04E8                     u2531:
  4174  04E8  2CEA               	goto	l2243
  4175  04E9                     u2530:
  4176  04E9                     l2241:
  4177  04E9  17B3               	bsf	___fladd@grs,7
  4178  04EA                     l2243:
  4179  04EA  3001               	movlw	1
  4180  04EB  00A8               	movwf	??___fladd
  4181  04EC                     u2545:
  4182  04EC  0D23               	rlf	___fladd@b+3,w
  4183  04ED  0CA3               	rrf	___fladd@b+3,f
  4184  04EE  0CA2               	rrf	___fladd@b+2,f
  4185  04EF  0CA1               	rrf	___fladd@b+1,f
  4186  04F0  0CA0               	rrf	___fladd@b,f
  4187  04F1  0BA8               	decfsz	??___fladd& (0+127),f
  4188  04F2  2CEC               	goto	u2545
  4189  04F3                     l2245:
  4190  04F3  3001               	movlw	1
  4191  04F4  00A8               	movwf	??___fladd
  4192  04F5  0828               	movf	??___fladd,w
  4193  04F6  07B2               	addwf	___fladd@bexp,f
  4194  04F7  2DAC               	goto	l2281
  4195  04F8                     l2247:
  4196  04F8  0823               	movf	___fladd@b+3,w
  4197  04F9  3A80               	xorlw	128
  4198  04FA  00FF               	movwf	btemp+1
  4199  04FB  0827               	movf	___fladd@a+3,w
  4200  04FC  3A80               	xorlw	128
  4201  04FD  027F               	subwf	btemp+1,w
  4202  04FE  1D03               	skipz
  4203  04FF  2D0A               	goto	u2553
  4204  0500  0826               	movf	___fladd@a+2,w
  4205  0501  0222               	subwf	___fladd@b+2,w
  4206  0502  1D03               	skipz
  4207  0503  2D0A               	goto	u2553
  4208  0504  0825               	movf	___fladd@a+1,w
  4209  0505  0221               	subwf	___fladd@b+1,w
  4210  0506  1D03               	skipz
  4211  0507  2D0A               	goto	u2553
  4212  0508  0824               	movf	___fladd@a,w
  4213  0509  0220               	subwf	___fladd@b,w
  4214  050A                     u2553:
  4215  050A  1803               	skipnc
  4216  050B  2D0D               	goto	u2551
  4217  050C  2D0E               	goto	u2550
  4218  050D                     u2551:
  4219  050D  2D66               	goto	l2257
  4220  050E                     u2550:
  4221  050E                     l2249:
  4222  050E  30FF               	movlw	255
  4223  050F  00A8               	movwf	??___fladd
  4224  0510  30FF               	movlw	255
  4225  0511  00A9               	movwf	??___fladd+1
  4226  0512  30FF               	movlw	255
  4227  0513  00AA               	movwf	??___fladd+2
  4228  0514  30FF               	movlw	255
  4229  0515  00AB               	movwf	??___fladd+3
  4230  0516  0824               	movf	___fladd@a,w
  4231  0517  00AC               	movwf	??___fladd+4
  4232  0518  0825               	movf	___fladd@a+1,w
  4233  0519  00AD               	movwf	??___fladd+5
  4234  051A  0826               	movf	___fladd@a+2,w
  4235  051B  00AE               	movwf	??___fladd+6
  4236  051C  0827               	movf	___fladd@a+3,w
  4237  051D  00AF               	movwf	??___fladd+7
  4238  051E  0820               	movf	___fladd@b,w
  4239  051F  02AC               	subwf	??___fladd+4,f
  4240  0520  0821               	movf	___fladd@b+1,w
  4241  0521  1C03               	skipc
  4242  0522  0F21               	incfsz	___fladd@b+1,w
  4243  0523  2D25               	goto	u2561
  4244  0524  2D26               	goto	u2562
  4245  0525                     u2561:
  4246  0525  02AD               	subwf	??___fladd+5,f
  4247  0526                     u2562:
  4248  0526  0822               	movf	___fladd@b+2,w
  4249  0527  1C03               	skipc
  4250  0528  0F22               	incfsz	___fladd@b+2,w
  4251  0529  2D2B               	goto	u2563
  4252  052A  2D2C               	goto	u2564
  4253  052B                     u2563:
  4254  052B  02AE               	subwf	??___fladd+6,f
  4255  052C                     u2564:
  4256  052C  0823               	movf	___fladd@b+3,w
  4257  052D  1C03               	skipc
  4258  052E  0F23               	incfsz	___fladd@b+3,w
  4259  052F  2D31               	goto	u2565
  4260  0530  2D32               	goto	u2566
  4261  0531                     u2565:
  4262  0531  02AF               	subwf	??___fladd+7,f
  4263  0532                     u2566:
  4264  0532  082C               	movf	??___fladd+4,w
  4265  0533  07A8               	addwf	??___fladd,f
  4266  0534  082D               	movf	??___fladd+5,w
  4267  0535  1803               	skipnc
  4268  0536  0F2D               	incfsz	??___fladd+5,w
  4269  0537  2D39               	goto	u2570
  4270  0538  2D3A               	goto	u2571
  4271  0539                     u2570:
  4272  0539  07A9               	addwf	??___fladd+1,f
  4273  053A                     u2571:
  4274  053A  082E               	movf	??___fladd+6,w
  4275  053B  1803               	skipnc
  4276  053C  0F2E               	incfsz	??___fladd+6,w
  4277  053D  2D3F               	goto	u2572
  4278  053E  2D40               	goto	u2573
  4279  053F                     u2572:
  4280  053F  07AA               	addwf	??___fladd+2,f
  4281  0540                     u2573:
  4282  0540  082F               	movf	??___fladd+7,w
  4283  0541  1803               	skipnc
  4284  0542  0A2F               	incf	??___fladd+7,w
  4285  0543  07AB               	addwf	??___fladd+3,f
  4286  0544  082B               	movf	??___fladd+3,w
  4287  0545  00A3               	movwf	___fladd@b+3
  4288  0546  082A               	movf	??___fladd+2,w
  4289  0547  00A2               	movwf	___fladd@b+2
  4290  0548  0829               	movf	??___fladd+1,w
  4291  0549  00A1               	movwf	___fladd@b+1
  4292  054A  0828               	movf	??___fladd,w
  4293  054B  00A0               	movwf	___fladd@b
  4294  054C                     l2251:
  4295  054C  3080               	movlw	128
  4296  054D  00A8               	movwf	??___fladd
  4297  054E  0828               	movf	??___fladd,w
  4298  054F  06B0               	xorwf	___fladd@signs,f
  4299  0550  09B3               	comf	___fladd@grs,f
  4300  0551  0AB3               	incf	___fladd@grs,f
  4301  0552                     l2253:
  4302  0552  0833               	movf	___fladd@grs,w
  4303  0553  1D03               	btfss	3,2
  4304  0554  2D56               	goto	u2581
  4305  0555  2D57               	goto	u2580
  4306  0556                     u2581:
  4307  0556  2D74               	goto	l701
  4308  0557                     u2580:
  4309  0557                     l2255:
  4310  0557  3001               	movlw	1
  4311  0558  07A0               	addwf	___fladd@b,f
  4312  0559  3000               	movlw	0
  4313  055A  1803               	skipnc
  4314  055B  3001               	movlw	1
  4315  055C  07A1               	addwf	___fladd@b+1,f
  4316  055D  3000               	movlw	0
  4317  055E  1803               	skipnc
  4318  055F  3001               	movlw	1
  4319  0560  07A2               	addwf	___fladd@b+2,f
  4320  0561  3000               	movlw	0
  4321  0562  1803               	skipnc
  4322  0563  3001               	movlw	1
  4323  0564  07A3               	addwf	___fladd@b+3,f
  4324  0565  2D74               	goto	l701
  4325  0566                     l2257:
  4326  0566  0824               	movf	___fladd@a,w
  4327  0567  02A0               	subwf	___fladd@b,f
  4328  0568  0825               	movf	___fladd@a+1,w
  4329  0569  1C03               	skipc
  4330  056A  0F25               	incfsz	___fladd@a+1,w
  4331  056B  02A1               	subwf	___fladd@b+1,f
  4332  056C  0826               	movf	___fladd@a+2,w
  4333  056D  1C03               	skipc
  4334  056E  0F26               	incfsz	___fladd@a+2,w
  4335  056F  02A2               	subwf	___fladd@b+2,f
  4336  0570  0827               	movf	___fladd@a+3,w
  4337  0571  1C03               	skipc
  4338  0572  0F27               	incfsz	___fladd@a+3,w
  4339  0573  02A3               	subwf	___fladd@b+3,f
  4340  0574                     l701:
  4341  0574  0823               	movf	___fladd@b+3,w
  4342  0575  0422               	iorwf	___fladd@b+2,w
  4343  0576  0421               	iorwf	___fladd@b+1,w
  4344  0577  0420               	iorwf	___fladd@b,w
  4345  0578  1D03               	skipz
  4346  0579  2D7B               	goto	u2591
  4347  057A  2D7C               	goto	u2590
  4348  057B                     u2591:
  4349  057B  2DA8               	goto	l2279
  4350  057C                     u2590:
  4351  057C                     l2259:
  4352  057C  0833               	movf	___fladd@grs,w
  4353  057D  1D03               	btfss	3,2
  4354  057E  2D80               	goto	u2601
  4355  057F  2D81               	goto	u2600
  4356  0580                     u2601:
  4357  0580  2DA8               	goto	l2279
  4358  0581                     u2600:
  4359  0581                     l2261:
  4360  0581  3000               	movlw	0
  4361  0582  00A3               	movwf	?___fladd+3
  4362  0583  3000               	movlw	0
  4363  0584  00A2               	movwf	?___fladd+2
  4364  0585  3000               	movlw	0
  4365  0586  00A1               	movwf	?___fladd+1
  4366  0587  3000               	movlw	0
  4367  0588  00A0               	movwf	?___fladd
  4368  0589  2E26               	goto	l693
  4369  058A                     l2265:
  4370  058A  3001               	movlw	1
  4371  058B  00A8               	movwf	??___fladd
  4372  058C                     u2615:
  4373  058C  1003               	clrc
  4374  058D  0DA0               	rlf	___fladd@b,f
  4375  058E  0DA1               	rlf	___fladd@b+1,f
  4376  058F  0DA2               	rlf	___fladd@b+2,f
  4377  0590  0DA3               	rlf	___fladd@b+3,f
  4378  0591  0BA8               	decfsz	??___fladd,f
  4379  0592  2D8C               	goto	u2615
  4380  0593                     l2267:
  4381  0593  1FB3               	btfss	___fladd@grs,7
  4382  0594  2D96               	goto	u2621
  4383  0595  2D97               	goto	u2620
  4384  0596                     u2621:
  4385  0596  2D98               	goto	l705
  4386  0597                     u2620:
  4387  0597                     l2269:
  4388  0597  1420               	bsf	___fladd@b,0
  4389  0598                     l705:
  4390  0598  1C33               	btfss	___fladd@grs,0
  4391  0599  2D9B               	goto	u2631
  4392  059A  2D9C               	goto	u2630
  4393  059B                     u2631:
  4394  059B  2D9F               	goto	l2273
  4395  059C                     u2630:
  4396  059C                     l2271:
  4397  059C  1403               	setc
  4398  059D  0DB3               	rlf	___fladd@grs,f
  4399  059E  2DA1               	goto	l2275
  4400  059F                     l2273:
  4401  059F  1003               	clrc
  4402  05A0  0DB3               	rlf	___fladd@grs,f
  4403  05A1                     l2275:
  4404  05A1  0832               	movf	___fladd@bexp,w
  4405  05A2  1903               	btfsc	3,2
  4406  05A3  2DA5               	goto	u2641
  4407  05A4  2DA6               	goto	u2640
  4408  05A5                     u2641:
  4409  05A5  2DA8               	goto	l2279
  4410  05A6                     u2640:
  4411  05A6                     l2277:
  4412  05A6  3001               	movlw	1
  4413  05A7  02B2               	subwf	___fladd@bexp,f
  4414  05A8                     l2279:
  4415  05A8  1FA2               	btfss	___fladd@b+2,7
  4416  05A9  2DAB               	goto	u2651
  4417  05AA  2DAC               	goto	u2650
  4418  05AB                     u2651:
  4419  05AB  2D8A               	goto	l2265
  4420  05AC                     u2650:
  4421  05AC                     l2281:
  4422  05AC  01B1               	clrf	___fladd@aexp
  4423  05AD                     l2283:
  4424  05AD  1FB3               	btfss	___fladd@grs,7
  4425  05AE  2DB0               	goto	u2661
  4426  05AF  2DB1               	goto	u2660
  4427  05B0                     u2661:
  4428  05B0  2DBF               	goto	l2291
  4429  05B1                     u2660:
  4430  05B1                     l2285:
  4431  05B1  0833               	movf	___fladd@grs,w
  4432  05B2  397F               	andlw	127
  4433  05B3  1903               	btfsc	3,2
  4434  05B4  2DB6               	goto	u2671
  4435  05B5  2DB7               	goto	u2670
  4436  05B6                     u2671:
  4437  05B6  2DBA               	goto	l711
  4438  05B7                     u2670:
  4439  05B7                     l2287:
  4440  05B7  01B1               	clrf	___fladd@aexp
  4441  05B8  0AB1               	incf	___fladd@aexp,f
  4442  05B9  2DBF               	goto	l2291
  4443  05BA                     l711:
  4444  05BA  1C20               	btfss	___fladd@b,0
  4445  05BB  2DBD               	goto	u2681
  4446  05BC  2DBE               	goto	u2680
  4447  05BD                     u2681:
  4448  05BD  2DBF               	goto	l2291
  4449  05BE                     u2680:
  4450  05BE  2DB7               	goto	l2287
  4451  05BF                     l2291:
  4452  05BF  0831               	movf	___fladd@aexp,w
  4453  05C0  1903               	btfsc	3,2
  4454  05C1  2DC3               	goto	u2691
  4455  05C2  2DC4               	goto	u2690
  4456  05C3                     u2691:
  4457  05C3  2DF8               	goto	l714
  4458  05C4                     u2690:
  4459  05C4                     l2293:
  4460  05C4  3001               	movlw	1
  4461  05C5  07A0               	addwf	___fladd@b,f
  4462  05C6  3000               	movlw	0
  4463  05C7  1803               	skipnc
  4464  05C8  3001               	movlw	1
  4465  05C9  07A1               	addwf	___fladd@b+1,f
  4466  05CA  3000               	movlw	0
  4467  05CB  1803               	skipnc
  4468  05CC  3001               	movlw	1
  4469  05CD  07A2               	addwf	___fladd@b+2,f
  4470  05CE  3000               	movlw	0
  4471  05CF  1803               	skipnc
  4472  05D0  3001               	movlw	1
  4473  05D1  07A3               	addwf	___fladd@b+3,f
  4474  05D2                     l2295:
  4475  05D2  1C23               	btfss	___fladd@b+3,0
  4476  05D3  2DD5               	goto	u2701
  4477  05D4  2DD6               	goto	u2700
  4478  05D5                     u2701:
  4479  05D5  2DF8               	goto	l714
  4480  05D6                     u2700:
  4481  05D6                     l2297:
  4482  05D6  0820               	movf	___fladd@b,w
  4483  05D7  00A8               	movwf	??___fladd
  4484  05D8  0821               	movf	___fladd@b+1,w
  4485  05D9  00A9               	movwf	??___fladd+1
  4486  05DA  0822               	movf	___fladd@b+2,w
  4487  05DB  00AA               	movwf	??___fladd+2
  4488  05DC  0823               	movf	___fladd@b+3,w
  4489  05DD  00AB               	movwf	??___fladd+3
  4490  05DE  3001               	movlw	1
  4491  05DF  00AC               	movwf	??___fladd+4
  4492  05E0                     u2715:
  4493  05E0  0D2B               	rlf	??___fladd+3,w
  4494  05E1  0CAB               	rrf	??___fladd+3,f
  4495  05E2  0CAA               	rrf	??___fladd+2,f
  4496  05E3  0CA9               	rrf	??___fladd+1,f
  4497  05E4  0CA8               	rrf	??___fladd,f
  4498  05E5                     u2710:
  4499  05E5  0BAC               	decfsz	??___fladd+4,f
  4500  05E6  2DE0               	goto	u2715
  4501  05E7  082B               	movf	??___fladd+3,w
  4502  05E8  00A3               	movwf	___fladd@b+3
  4503  05E9  082A               	movf	??___fladd+2,w
  4504  05EA  00A2               	movwf	___fladd@b+2
  4505  05EB  0829               	movf	??___fladd+1,w
  4506  05EC  00A1               	movwf	___fladd@b+1
  4507  05ED  0828               	movf	??___fladd,w
  4508  05EE  00A0               	movwf	___fladd@b
  4509  05EF  0A32               	incf	___fladd@bexp,w
  4510  05F0  1903               	btfsc	3,2
  4511  05F1  2DF3               	goto	u2721
  4512  05F2  2DF4               	goto	u2720
  4513  05F3                     u2721:
  4514  05F3  2DF8               	goto	l714
  4515  05F4                     u2720:
  4516  05F4                     l2299:
  4517  05F4  3001               	movlw	1
  4518  05F5  00A8               	movwf	??___fladd
  4519  05F6  0828               	movf	??___fladd,w
  4520  05F7  07B2               	addwf	___fladd@bexp,f
  4521  05F8                     l714:
  4522  05F8  0A32               	incf	___fladd@bexp,w
  4523  05F9  1903               	btfsc	3,2
  4524  05FA  2DFC               	goto	u2731
  4525  05FB  2DFD               	goto	u2730
  4526  05FC                     u2731:
  4527  05FC  2E02               	goto	l2303
  4528  05FD                     u2730:
  4529  05FD                     l2301:
  4530  05FD  0832               	movf	___fladd@bexp,w
  4531  05FE  1D03               	btfss	3,2
  4532  05FF  2E01               	goto	u2741
  4533  0600  2E02               	goto	u2740
  4534  0601                     u2741:
  4535  0601  2E10               	goto	l2309
  4536  0602                     u2740:
  4537  0602                     l2303:
  4538  0602  3000               	movlw	0
  4539  0603  00A3               	movwf	___fladd@b+3
  4540  0604  3000               	movlw	0
  4541  0605  00A2               	movwf	___fladd@b+2
  4542  0606  3000               	movlw	0
  4543  0607  00A1               	movwf	___fladd@b+1
  4544  0608  3000               	movlw	0
  4545  0609  00A0               	movwf	___fladd@b
  4546  060A                     l2305:
  4547  060A  0832               	movf	___fladd@bexp,w
  4548  060B  1D03               	btfss	3,2
  4549  060C  2E0E               	goto	u2751
  4550  060D  2E0F               	goto	u2750
  4551  060E                     u2751:
  4552  060E  2E10               	goto	l2309
  4553  060F                     u2750:
  4554  060F                     l2307:
  4555  060F  01B0               	clrf	___fladd@signs
  4556  0610                     l2309:
  4557  0610  1C32               	btfss	___fladd@bexp,0
  4558  0611  2E13               	goto	u2761
  4559  0612  2E14               	goto	u2760
  4560  0613                     u2761:
  4561  0613  2E16               	goto	l2313
  4562  0614                     u2760:
  4563  0614                     l2311:
  4564  0614  17A2               	bsf	___fladd@b+2,7
  4565  0615  2E1A               	goto	l722
  4566  0616                     l2313:
  4567  0616  307F               	movlw	127
  4568  0617  00A8               	movwf	??___fladd
  4569  0618  0828               	movf	??___fladd,w
  4570  0619  05A2               	andwf	___fladd@b+2,f
  4571  061A                     l722:
  4572  061A  0832               	movf	___fladd@bexp,w
  4573  061B  00A8               	movwf	??___fladd
  4574  061C  1003               	clrc
  4575  061D  0C28               	rrf	??___fladd,w
  4576  061E  00A9               	movwf	??___fladd+1
  4577  061F  0829               	movf	??___fladd+1,w
  4578  0620  00A3               	movwf	___fladd@b+3
  4579  0621                     l2315:
  4580  0621  1FB0               	btfss	___fladd@signs,7
  4581  0622  2E24               	goto	u2771
  4582  0623  2E25               	goto	u2770
  4583  0624                     u2771:
  4584  0624  2E26               	goto	l723
  4585  0625                     u2770:
  4586  0625                     l2317:
  4587  0625  17A3               	bsf	___fladd@b+3,7
  4588  0626                     l723:
  4589  0626                     l693:
  4590  0626  0008               	return
  4591  0627                     __end_of___fladd:
  4592                           
  4593                           	psect	text12
  4594  1715                     __ptext12:	
  4595 ;; *************** function _CENTENA *****************
  4596 ;; Defined at:
  4597 ;;		line 13 in file "LCD.c"
  4598 ;; Parameters:    Size  Location     Type
  4599 ;;  c               1    wreg     unsigned char 
  4600 ;; Auto vars:     Size  Location     Type
  4601 ;;  c               1   77[BANK0 ] unsigned char 
  4602 ;; Return value:  Size  Location     Type
  4603 ;;                  1    wreg      unsigned char 
  4604 ;; Registers used:
  4605 ;;		wreg, status,2, status,0, btemp+1, pclath, cstack
  4606 ;; Tracked objects:
  4607 ;;		On entry : 0/0
  4608 ;;		On exit  : 0/0
  4609 ;;		Unchanged: 0/0
  4610 ;; Data sizes:     COMMON   BANK0   BANK1   BANK3   BANK2
  4611 ;;      Params:         0       0       0       0       0
  4612 ;;      Locals:         0       1       0       0       0
  4613 ;;      Temps:          0       0       5       0       0
  4614 ;;      Totals:         0       1       5       0       0
  4615 ;;Total ram usage:        6 bytes
  4616 ;; Hardware stack levels used: 1
  4617 ;; Hardware stack levels required when called: 4
  4618 ;; This function calls:
  4619 ;;		___fldiv
  4620 ;;		___flmul
  4621 ;;		___fltol
  4622 ;;		___xxtofl
  4623 ;; This function is called by:
  4624 ;;		_main
  4625 ;;		_DECENA
  4626 ;;		_UNIDAD
  4627 ;; This function uses a non-reentrant model
  4628 ;;
  4629                           
  4630  1715                     _CENTENA:	
  4631                           ;psect for function _CENTENA
  4632                           
  4633                           
  4634                           ;incstack = 0
  4635                           ; Regs used in _CENTENA: [wreg+status,2+status,0+btemp+1+pclath+cstack]
  4636                           ;CENTENA@c stored from wreg
  4637  1715  1283               	bcf	3,5	;RP0=0, select bank0
  4638  1716  1303               	bcf	3,6	;RP1=0, select bank0
  4639  1717  00ED               	movwf	CENTENA@c
  4640  1718                     l2645:
  4641                           
  4642                           ;LCD.c: 14:     c = (uint8_t)((c*1.9607)/100);
  4643  1718  086D               	movf	CENTENA@c,w
  4644  1719  1683               	bsf	3,5	;RP0=1, select bank1
  4645  171A  1303               	bcf	3,6	;RP1=0, select bank1
  4646  171B  00A0               	movwf	??_CENTENA^(0+128)
  4647  171C  01A1               	clrf	(??_CENTENA^(0+128)+1)
  4648  171D  01A2               	clrf	(??_CENTENA^(0+128)+2)
  4649  171E  01A3               	clrf	(??_CENTENA^(0+128)+3)
  4650  171F  0823               	movf	(??_CENTENA+3)^(0+128),w
  4651  1720  1283               	bcf	3,5	;RP0=0, select bank0
  4652  1721  1303               	bcf	3,6	;RP1=0, select bank0
  4653  1722  00A3               	movwf	___xxtofl@val+3
  4654  1723  1683               	bsf	3,5	;RP0=1, select bank1
  4655  1724  1303               	bcf	3,6	;RP1=0, select bank1
  4656  1725  0822               	movf	(??_CENTENA+2)^(0+128),w
  4657  1726  1283               	bcf	3,5	;RP0=0, select bank0
  4658  1727  1303               	bcf	3,6	;RP1=0, select bank0
  4659  1728  00A2               	movwf	___xxtofl@val+2
  4660  1729  1683               	bsf	3,5	;RP0=1, select bank1
  4661  172A  1303               	bcf	3,6	;RP1=0, select bank1
  4662  172B  0821               	movf	(??_CENTENA+1)^(0+128),w
  4663  172C  1283               	bcf	3,5	;RP0=0, select bank0
  4664  172D  1303               	bcf	3,6	;RP1=0, select bank0
  4665  172E  00A1               	movwf	___xxtofl@val+1
  4666  172F  1683               	bsf	3,5	;RP0=1, select bank1
  4667  1730  1303               	bcf	3,6	;RP1=0, select bank1
  4668  1731  0820               	movf	??_CENTENA^(0+128),w
  4669  1732  1283               	bcf	3,5	;RP0=0, select bank0
  4670  1733  1303               	bcf	3,6	;RP1=0, select bank0
  4671  1734  00A0               	movwf	___xxtofl@val
  4672  1735  3001               	movlw	1
  4673  1736  120A  158A  2019  160A  118A  	fcall	___xxtofl
  4674  173B  1283               	bcf	3,5	;RP0=0, select bank0
  4675  173C  1303               	bcf	3,6	;RP1=0, select bank0
  4676  173D  0823               	movf	?___xxtofl+3,w
  4677  173E  00B5               	movwf	___flmul@a+3
  4678  173F  0822               	movf	?___xxtofl+2,w
  4679  1740  00B4               	movwf	___flmul@a+2
  4680  1741  0821               	movf	?___xxtofl+1,w
  4681  1742  00B3               	movwf	___flmul@a+1
  4682  1743  0820               	movf	?___xxtofl,w
  4683  1744  00B2               	movwf	___flmul@a
  4684  1745  303F               	movlw	63
  4685  1746  00B1               	movwf	___flmul@b+3
  4686  1747  30FA               	movlw	250
  4687  1748  00B0               	movwf	___flmul@b+2
  4688  1749  30F8               	movlw	248
  4689  174A  00AF               	movwf	___flmul@b+1
  4690  174B  3038               	movlw	56
  4691  174C  00AE               	movwf	___flmul@b
  4692  174D  120A  118A  203E  160A  118A  	fcall	___flmul
  4693  1752  1283               	bcf	3,5	;RP0=0, select bank0
  4694  1753  1303               	bcf	3,6	;RP1=0, select bank0
  4695  1754  0831               	movf	?___flmul+3,w
  4696  1755  00CF               	movwf	___fldiv@b+3
  4697  1756  0830               	movf	?___flmul+2,w
  4698  1757  00CE               	movwf	___fldiv@b+2
  4699  1758  082F               	movf	?___flmul+1,w
  4700  1759  00CD               	movwf	___fldiv@b+1
  4701  175A  082E               	movf	?___flmul,w
  4702  175B  00CC               	movwf	___fldiv@b
  4703  175C  3042               	movlw	66
  4704  175D  00CB               	movwf	___fldiv@a+3
  4705  175E  30C8               	movlw	200
  4706  175F  00CA               	movwf	___fldiv@a+2
  4707  1760  3000               	movlw	0
  4708  1761  00C9               	movwf	___fldiv@a+1
  4709  1762  3000               	movlw	0
  4710  1763  00C8               	movwf	___fldiv@a
  4711  1764  120A  158A  21BC  160A  118A  	fcall	___fldiv
  4712  1769  1283               	bcf	3,5	;RP0=0, select bank0
  4713  176A  1303               	bcf	3,6	;RP1=0, select bank0
  4714  176B  084B               	movf	?___fldiv+3,w
  4715  176C  00E5               	movwf	___fltol@f1+3
  4716  176D  084A               	movf	?___fldiv+2,w
  4717  176E  00E4               	movwf	___fltol@f1+2
  4718  176F  0849               	movf	?___fldiv+1,w
  4719  1770  00E3               	movwf	___fltol@f1+1
  4720  1771  0848               	movf	?___fldiv,w
  4721  1772  00E2               	movwf	___fltol@f1
  4722  1773  160A  118A  2784  160A  118A  	fcall	___fltol
  4723  1778  1283               	bcf	3,5	;RP0=0, select bank0
  4724  1779  1303               	bcf	3,6	;RP1=0, select bank0
  4725  177A  0862               	movf	?___fltol,w
  4726  177B  1683               	bsf	3,5	;RP0=1, select bank1
  4727  177C  1303               	bcf	3,6	;RP1=0, select bank1
  4728  177D  00A4               	movwf	(??_CENTENA+4)^(0+128)
  4729  177E  0824               	movf	(??_CENTENA+4)^(0+128),w
  4730  177F  1283               	bcf	3,5	;RP0=0, select bank0
  4731  1780  1303               	bcf	3,6	;RP1=0, select bank0
  4732  1781  00ED               	movwf	CENTENA@c
  4733  1782                     l2647:
  4734                           
  4735                           ;LCD.c: 15:     return c;
  4736  1782  086D               	movf	CENTENA@c,w
  4737  1783                     l198:
  4738  1783  0008               	return
  4739  1784                     __end_of_CENTENA:
  4740                           
  4741                           	psect	text13
  4742  0819                     __ptext13:	
  4743 ;; *************** function ___xxtofl *****************
  4744 ;; Defined at:
  4745 ;;		line 10 in file "C:\Program Files\Microchip\xc8\v2.35\pic\sources\c90\common\xxtofl.c"
  4746 ;; Parameters:    Size  Location     Type
  4747 ;;  sign            1    wreg     unsigned char 
  4748 ;;  val             4    0[BANK0 ] long 
  4749 ;; Auto vars:     Size  Location     Type
  4750 ;;  sign            1    8[BANK0 ] unsigned char 
  4751 ;;  arg             4   10[BANK0 ] unsigned long 
  4752 ;;  exp             1    9[BANK0 ] unsigned char 
  4753 ;; Return value:  Size  Location     Type
  4754 ;;                  4    0[BANK0 ] unsigned char 
  4755 ;; Registers used:
  4756 ;;		wreg, status,2, status,0
  4757 ;; Tracked objects:
  4758 ;;		On entry : 0/0
  4759 ;;		On exit  : 0/0
  4760 ;;		Unchanged: 0/0
  4761 ;; Data sizes:     COMMON   BANK0   BANK1   BANK3   BANK2
  4762 ;;      Params:         0       4       0       0       0
  4763 ;;      Locals:         0       6       0       0       0
  4764 ;;      Temps:          0       4       0       0       0
  4765 ;;      Totals:         0      14       0       0       0
  4766 ;;Total ram usage:       14 bytes
  4767 ;; Hardware stack levels used: 1
  4768 ;; Hardware stack levels required when called: 2
  4769 ;; This function calls:
  4770 ;;		Nothing
  4771 ;; This function is called by:
  4772 ;;		_CENTENA
  4773 ;;		_DECENA
  4774 ;;		_UNIDAD
  4775 ;; This function uses a non-reentrant model
  4776 ;;
  4777                           
  4778  0819                     ___xxtofl:	
  4779                           ;psect for function ___xxtofl
  4780                           
  4781                           
  4782                           ;incstack = 0
  4783                           ; Regs used in ___xxtofl: [wreg+status,2+status,0]
  4784                           ;___xxtofl@sign stored from wreg
  4785  0819  1283               	bcf	3,5	;RP0=0, select bank0
  4786  081A  1303               	bcf	3,6	;RP1=0, select bank0
  4787  081B  00A8               	movwf	___xxtofl@sign
  4788  081C                     l2601:
  4789  081C  0828               	movf	___xxtofl@sign,w
  4790  081D  1903               	btfsc	3,2
  4791  081E  2820               	goto	u3441
  4792  081F  2821               	goto	u3440
  4793  0820                     u3441:
  4794  0820  2835               	goto	l2607
  4795  0821                     u3440:
  4796  0821                     l2603:
  4797  0821  1FA3               	btfss	___xxtofl@val+3,7
  4798  0822  2824               	goto	u3451
  4799  0823  2825               	goto	u3450
  4800  0824                     u3451:
  4801  0824  2835               	goto	l2607
  4802  0825                     u3450:
  4803  0825                     l2605:
  4804  0825  0920               	comf	___xxtofl@val,w
  4805  0826  00AA               	movwf	___xxtofl@arg
  4806  0827  0921               	comf	___xxtofl@val+1,w
  4807  0828  00AB               	movwf	___xxtofl@arg+1
  4808  0829  0922               	comf	___xxtofl@val+2,w
  4809  082A  00AC               	movwf	___xxtofl@arg+2
  4810  082B  0923               	comf	___xxtofl@val+3,w
  4811  082C  00AD               	movwf	___xxtofl@arg+3
  4812  082D  0AAA               	incf	___xxtofl@arg,f
  4813  082E  1903               	skipnz
  4814  082F  0AAB               	incf	___xxtofl@arg+1,f
  4815  0830  1903               	skipnz
  4816  0831  0AAC               	incf	___xxtofl@arg+2,f
  4817  0832  1903               	skipnz
  4818  0833  0AAD               	incf	___xxtofl@arg+3,f
  4819  0834  283D               	goto	l820
  4820  0835                     l2607:
  4821  0835  0823               	movf	___xxtofl@val+3,w
  4822  0836  00AD               	movwf	___xxtofl@arg+3
  4823  0837  0822               	movf	___xxtofl@val+2,w
  4824  0838  00AC               	movwf	___xxtofl@arg+2
  4825  0839  0821               	movf	___xxtofl@val+1,w
  4826  083A  00AB               	movwf	___xxtofl@arg+1
  4827  083B  0820               	movf	___xxtofl@val,w
  4828  083C  00AA               	movwf	___xxtofl@arg
  4829  083D                     l820:
  4830  083D  0823               	movf	___xxtofl@val+3,w
  4831  083E  0422               	iorwf	___xxtofl@val+2,w
  4832  083F  0421               	iorwf	___xxtofl@val+1,w
  4833  0840  0420               	iorwf	___xxtofl@val,w
  4834  0841  1D03               	skipz
  4835  0842  2844               	goto	u3461
  4836  0843  2845               	goto	u3460
  4837  0844                     u3461:
  4838  0844  284E               	goto	l2613
  4839  0845                     u3460:
  4840  0845                     l2609:
  4841  0845  3000               	movlw	0
  4842  0846  00A3               	movwf	?___xxtofl+3
  4843  0847  3000               	movlw	0
  4844  0848  00A2               	movwf	?___xxtofl+2
  4845  0849  3000               	movlw	0
  4846  084A  00A1               	movwf	?___xxtofl+1
  4847  084B  3000               	movlw	0
  4848  084C  00A0               	movwf	?___xxtofl
  4849  084D  28D4               	goto	l822
  4850  084E                     l2613:
  4851  084E  3096               	movlw	150
  4852  084F  00A4               	movwf	??___xxtofl
  4853  0850  0824               	movf	??___xxtofl,w
  4854  0851  00A9               	movwf	___xxtofl@exp
  4855  0852  2860               	goto	l2617
  4856  0853                     l2615:
  4857  0853  3001               	movlw	1
  4858  0854  00A4               	movwf	??___xxtofl
  4859  0855  0824               	movf	??___xxtofl,w
  4860  0856  07A9               	addwf	___xxtofl@exp,f
  4861  0857  3001               	movlw	1
  4862  0858                     u3475:
  4863  0858  1003               	clrc
  4864  0859  0CAD               	rrf	___xxtofl@arg+3,f
  4865  085A  0CAC               	rrf	___xxtofl@arg+2,f
  4866  085B  0CAB               	rrf	___xxtofl@arg+1,f
  4867  085C  0CAA               	rrf	___xxtofl@arg,f
  4868  085D  3EFF               	addlw	-1
  4869  085E  1D03               	skipz
  4870  085F  2858               	goto	u3475
  4871  0860                     l2617:
  4872  0860  30FE               	movlw	254
  4873  0861  052D               	andwf	___xxtofl@arg+3,w
  4874  0862  1D03               	btfss	3,2
  4875  0863  2865               	goto	u3481
  4876  0864  2866               	goto	u3480
  4877  0865                     u3481:
  4878  0865  2853               	goto	l2615
  4879  0866                     u3480:
  4880  0866  2882               	goto	l826
  4881  0867                     l2619:
  4882  0867  3001               	movlw	1
  4883  0868  00A4               	movwf	??___xxtofl
  4884  0869  0824               	movf	??___xxtofl,w
  4885  086A  07A9               	addwf	___xxtofl@exp,f
  4886  086B                     l2621:
  4887  086B  3001               	movlw	1
  4888  086C  07AA               	addwf	___xxtofl@arg,f
  4889  086D  3000               	movlw	0
  4890  086E  1803               	skipnc
  4891  086F  3001               	movlw	1
  4892  0870  07AB               	addwf	___xxtofl@arg+1,f
  4893  0871  3000               	movlw	0
  4894  0872  1803               	skipnc
  4895  0873  3001               	movlw	1
  4896  0874  07AC               	addwf	___xxtofl@arg+2,f
  4897  0875  3000               	movlw	0
  4898  0876  1803               	skipnc
  4899  0877  3001               	movlw	1
  4900  0878  07AD               	addwf	___xxtofl@arg+3,f
  4901  0879                     l2623:
  4902  0879  3001               	movlw	1
  4903  087A                     u3495:
  4904  087A  1003               	clrc
  4905  087B  0CAD               	rrf	___xxtofl@arg+3,f
  4906  087C  0CAC               	rrf	___xxtofl@arg+2,f
  4907  087D  0CAB               	rrf	___xxtofl@arg+1,f
  4908  087E  0CAA               	rrf	___xxtofl@arg,f
  4909  087F  3EFF               	addlw	-1
  4910  0880  1D03               	skipz
  4911  0881  287A               	goto	u3495
  4912  0882                     l826:
  4913  0882  30FF               	movlw	255
  4914  0883  052D               	andwf	___xxtofl@arg+3,w
  4915  0884  1D03               	btfss	3,2
  4916  0885  2887               	goto	u3501
  4917  0886  2888               	goto	u3500
  4918  0887                     u3501:
  4919  0887  2867               	goto	l2619
  4920  0888                     u3500:
  4921  0888  2894               	goto	l2627
  4922  0889                     l2625:
  4923  0889  3001               	movlw	1
  4924  088A  02A9               	subwf	___xxtofl@exp,f
  4925  088B  3001               	movlw	1
  4926  088C  00A4               	movwf	??___xxtofl
  4927  088D                     u3515:
  4928  088D  1003               	clrc
  4929  088E  0DAA               	rlf	___xxtofl@arg,f
  4930  088F  0DAB               	rlf	___xxtofl@arg+1,f
  4931  0890  0DAC               	rlf	___xxtofl@arg+2,f
  4932  0891  0DAD               	rlf	___xxtofl@arg+3,f
  4933  0892  0BA4               	decfsz	??___xxtofl,f
  4934  0893  288D               	goto	u3515
  4935  0894                     l2627:
  4936  0894  1BAC               	btfsc	___xxtofl@arg+2,7
  4937  0895  2897               	goto	u3521
  4938  0896  2898               	goto	u3520
  4939  0897                     u3521:
  4940  0897  289E               	goto	l833
  4941  0898                     u3520:
  4942  0898                     l2629:
  4943  0898  3002               	movlw	2
  4944  0899  0229               	subwf	___xxtofl@exp,w
  4945  089A  1803               	skipnc
  4946  089B  289D               	goto	u3531
  4947  089C  289E               	goto	u3530
  4948  089D                     u3531:
  4949  089D  2889               	goto	l2625
  4950  089E                     u3530:
  4951  089E                     l833:
  4952  089E  1829               	btfsc	___xxtofl@exp,0
  4953  089F  28A1               	goto	u3541
  4954  08A0  28A2               	goto	u3540
  4955  08A1                     u3541:
  4956  08A1  28AA               	goto	l834
  4957  08A2                     u3540:
  4958  08A2                     l2631:
  4959  08A2  30FF               	movlw	255
  4960  08A3  05AA               	andwf	___xxtofl@arg,f
  4961  08A4  30FF               	movlw	255
  4962  08A5  05AB               	andwf	___xxtofl@arg+1,f
  4963  08A6  307F               	movlw	127
  4964  08A7  05AC               	andwf	___xxtofl@arg+2,f
  4965  08A8  30FF               	movlw	255
  4966  08A9  05AD               	andwf	___xxtofl@arg+3,f
  4967  08AA                     l834:
  4968  08AA  1003               	clrc
  4969  08AB  0CA9               	rrf	___xxtofl@exp,f
  4970  08AC                     l2633:
  4971  08AC  0829               	movf	___xxtofl@exp,w
  4972  08AD  00A4               	movwf	??___xxtofl
  4973  08AE  01A5               	clrf	??___xxtofl+1
  4974  08AF  01A6               	clrf	??___xxtofl+2
  4975  08B0  01A7               	clrf	??___xxtofl+3
  4976  08B1  3018               	movlw	24
  4977  08B2                     u3555:
  4978  08B2  1003               	clrc
  4979  08B3  0DA4               	rlf	??___xxtofl,f
  4980  08B4  0DA5               	rlf	??___xxtofl+1,f
  4981  08B5  0DA6               	rlf	??___xxtofl+2,f
  4982  08B6  0DA7               	rlf	??___xxtofl+3,f
  4983  08B7                     u3550:
  4984  08B7  3EFF               	addlw	-1
  4985  08B8  1D03               	skipz
  4986  08B9  28B2               	goto	u3555
  4987  08BA  0824               	movf	??___xxtofl,w
  4988  08BB  04AA               	iorwf	___xxtofl@arg,f
  4989  08BC  0825               	movf	??___xxtofl+1,w
  4990  08BD  04AB               	iorwf	___xxtofl@arg+1,f
  4991  08BE  0826               	movf	??___xxtofl+2,w
  4992  08BF  04AC               	iorwf	___xxtofl@arg+2,f
  4993  08C0  0827               	movf	??___xxtofl+3,w
  4994  08C1  04AD               	iorwf	___xxtofl@arg+3,f
  4995  08C2                     l2635:
  4996  08C2  0828               	movf	___xxtofl@sign,w
  4997  08C3  1903               	btfsc	3,2
  4998  08C4  28C6               	goto	u3561
  4999  08C5  28C7               	goto	u3560
  5000  08C6                     u3561:
  5001  08C6  28CC               	goto	l2641
  5002  08C7                     u3560:
  5003  08C7                     l2637:
  5004  08C7  1FA3               	btfss	___xxtofl@val+3,7
  5005  08C8  28CA               	goto	u3571
  5006  08C9  28CB               	goto	u3570
  5007  08CA                     u3571:
  5008  08CA  28CC               	goto	l2641
  5009  08CB                     u3570:
  5010  08CB                     l2639:
  5011  08CB  17AD               	bsf	___xxtofl@arg+3,7
  5012  08CC                     l2641:
  5013  08CC  082D               	movf	___xxtofl@arg+3,w
  5014  08CD  00A3               	movwf	?___xxtofl+3
  5015  08CE  082C               	movf	___xxtofl@arg+2,w
  5016  08CF  00A2               	movwf	?___xxtofl+2
  5017  08D0  082B               	movf	___xxtofl@arg+1,w
  5018  08D1  00A1               	movwf	?___xxtofl+1
  5019  08D2  082A               	movf	___xxtofl@arg,w
  5020  08D3  00A0               	movwf	?___xxtofl
  5021  08D4                     l822:
  5022  08D4  0008               	return
  5023  08D5                     __end_of___xxtofl:
  5024                           
  5025                           	psect	text14
  5026  1784                     __ptext14:	
  5027 ;; *************** function ___fltol *****************
  5028 ;; Defined at:
  5029 ;;		line 43 in file "C:\Program Files\Microchip\xc8\v2.35\pic\sources\c90\common\fltol.c"
  5030 ;; Parameters:    Size  Location     Type
  5031 ;;  f1              4   66[BANK0 ] unsigned char 
  5032 ;; Auto vars:     Size  Location     Type
  5033 ;;  exp1            1   76[BANK0 ] unsigned char 
  5034 ;;  sign1           1   75[BANK0 ] unsigned char 
  5035 ;; Return value:  Size  Location     Type
  5036 ;;                  4   66[BANK0 ] long 
  5037 ;; Registers used:
  5038 ;;		wreg, status,2, status,0
  5039 ;; Tracked objects:
  5040 ;;		On entry : 0/0
  5041 ;;		On exit  : 0/0
  5042 ;;		Unchanged: 0/0
  5043 ;; Data sizes:     COMMON   BANK0   BANK1   BANK3   BANK2
  5044 ;;      Params:         0       4       0       0       0
  5045 ;;      Locals:         0       2       0       0       0
  5046 ;;      Temps:          0       5       0       0       0
  5047 ;;      Totals:         0      11       0       0       0
  5048 ;;Total ram usage:       11 bytes
  5049 ;; Hardware stack levels used: 1
  5050 ;; Hardware stack levels required when called: 2
  5051 ;; This function calls:
  5052 ;;		Nothing
  5053 ;; This function is called by:
  5054 ;;		_CENTENA
  5055 ;;		_DECENA
  5056 ;;		_UNIDAD
  5057 ;; This function uses a non-reentrant model
  5058 ;;
  5059                           
  5060  1784                     ___fltol:	
  5061                           ;psect for function ___fltol
  5062                           
  5063  1784                     l2089:	
  5064                           ;incstack = 0
  5065                           ; Regs used in ___fltol: [wreg+status,2+status,0]
  5066                           
  5067  1784  1003               	clrc
  5068  1785  1283               	bcf	3,5	;RP0=0, select bank0
  5069  1786  1303               	bcf	3,6	;RP1=0, select bank0
  5070  1787  0D64               	rlf	___fltol@f1+2,w
  5071  1788  0D65               	rlf	___fltol@f1+3,w
  5072  1789  00E6               	movwf	??___fltol
  5073  178A  0866               	movf	??___fltol,w
  5074  178B  00EC               	movwf	___fltol@exp1
  5075  178C  086C               	movf	___fltol@exp1,w
  5076  178D  1D03               	btfss	3,2
  5077  178E  2F90               	goto	u2221
  5078  178F  2F91               	goto	u2220
  5079  1790                     u2221:
  5080  1790  2F9A               	goto	l2095
  5081  1791                     u2220:
  5082  1791                     l2091:
  5083  1791  3000               	movlw	0
  5084  1792  00E5               	movwf	?___fltol+3
  5085  1793  3000               	movlw	0
  5086  1794  00E4               	movwf	?___fltol+2
  5087  1795  3000               	movlw	0
  5088  1796  00E3               	movwf	?___fltol+1
  5089  1797  3000               	movlw	0
  5090  1798  00E2               	movwf	?___fltol
  5091  1799  2FFF               	goto	l573
  5092  179A                     l2095:
  5093  179A  0862               	movf	___fltol@f1,w
  5094  179B  00E6               	movwf	??___fltol
  5095  179C  0863               	movf	___fltol@f1+1,w
  5096  179D  00E7               	movwf	??___fltol+1
  5097  179E  0864               	movf	___fltol@f1+2,w
  5098  179F  00E8               	movwf	??___fltol+2
  5099  17A0  0865               	movf	___fltol@f1+3,w
  5100  17A1  00E9               	movwf	??___fltol+3
  5101  17A2  301F               	movlw	31
  5102  17A3                     u2235:
  5103  17A3  1003               	clrc
  5104  17A4  0CE9               	rrf	??___fltol+3,f
  5105  17A5  0CE8               	rrf	??___fltol+2,f
  5106  17A6  0CE7               	rrf	??___fltol+1,f
  5107  17A7  0CE6               	rrf	??___fltol,f
  5108  17A8                     u2230:
  5109  17A8  3EFF               	addlw	-1
  5110  17A9  1D03               	skipz
  5111  17AA  2FA3               	goto	u2235
  5112  17AB  0866               	movf	??___fltol,w
  5113  17AC  00EA               	movwf	??___fltol+4
  5114  17AD  086A               	movf	??___fltol+4,w
  5115  17AE  00EB               	movwf	___fltol@sign1
  5116  17AF                     l2097:
  5117  17AF  17E4               	bsf	___fltol@f1+2,7
  5118  17B0                     l2099:
  5119  17B0  30FF               	movlw	255
  5120  17B1  05E2               	andwf	___fltol@f1,f
  5121  17B2  30FF               	movlw	255
  5122  17B3  05E3               	andwf	___fltol@f1+1,f
  5123  17B4  30FF               	movlw	255
  5124  17B5  05E4               	andwf	___fltol@f1+2,f
  5125  17B6  3000               	movlw	0
  5126  17B7  05E5               	andwf	___fltol@f1+3,f
  5127  17B8                     l2101:
  5128  17B8  3096               	movlw	150
  5129  17B9  02EC               	subwf	___fltol@exp1,f
  5130  17BA                     l2103:
  5131  17BA  1FEC               	btfss	___fltol@exp1,7
  5132  17BB  2FBD               	goto	u2241
  5133  17BC  2FBE               	goto	u2240
  5134  17BD                     u2241:
  5135  17BD  2FD8               	goto	l2113
  5136  17BE                     u2240:
  5137  17BE                     l2105:
  5138  17BE  086C               	movf	___fltol@exp1,w
  5139  17BF  3A80               	xorlw	128
  5140  17C0  3E97               	addlw	151
  5141  17C1  1803               	skipnc
  5142  17C2  2FC4               	goto	u2251
  5143  17C3  2FC5               	goto	u2250
  5144  17C4                     u2251:
  5145  17C4  2FC6               	goto	l2111
  5146  17C5                     u2250:
  5147  17C5  2F91               	goto	l2091
  5148  17C6                     l2111:
  5149  17C6  3001               	movlw	1
  5150  17C7                     u2265:
  5151  17C7  1003               	clrc
  5152  17C8  0CE5               	rrf	___fltol@f1+3,f
  5153  17C9  0CE4               	rrf	___fltol@f1+2,f
  5154  17CA  0CE3               	rrf	___fltol@f1+1,f
  5155  17CB  0CE2               	rrf	___fltol@f1,f
  5156  17CC  3EFF               	addlw	-1
  5157  17CD  1D03               	skipz
  5158  17CE  2FC7               	goto	u2265
  5159  17CF  3001               	movlw	1
  5160  17D0  00E6               	movwf	??___fltol
  5161  17D1  0866               	movf	??___fltol,w
  5162  17D2  07EC               	addwf	___fltol@exp1,f
  5163  17D3  1D03               	btfss	3,2
  5164  17D4  2FD6               	goto	u2271
  5165  17D5  2FD7               	goto	u2270
  5166  17D6                     u2271:
  5167  17D6  2FC6               	goto	l2111
  5168  17D7                     u2270:
  5169  17D7  2FEF               	goto	l2121
  5170  17D8                     l2113:
  5171  17D8  3020               	movlw	32
  5172  17D9  026C               	subwf	___fltol@exp1,w
  5173  17DA  1C03               	skipc
  5174  17DB  2FDD               	goto	u2281
  5175  17DC  2FDE               	goto	u2280
  5176  17DD                     u2281:
  5177  17DD  2FEA               	goto	l580
  5178  17DE                     u2280:
  5179  17DE  2F91               	goto	l2091
  5180  17DF                     l2119:
  5181  17DF  3001               	movlw	1
  5182  17E0  00E6               	movwf	??___fltol
  5183  17E1                     u2295:
  5184  17E1  1003               	clrc
  5185  17E2  0DE2               	rlf	___fltol@f1,f
  5186  17E3  0DE3               	rlf	___fltol@f1+1,f
  5187  17E4  0DE4               	rlf	___fltol@f1+2,f
  5188  17E5  0DE5               	rlf	___fltol@f1+3,f
  5189  17E6  0BE6               	decfsz	??___fltol,f
  5190  17E7  2FE1               	goto	u2295
  5191  17E8  3001               	movlw	1
  5192  17E9  02EC               	subwf	___fltol@exp1,f
  5193  17EA                     l580:
  5194  17EA  086C               	movf	___fltol@exp1,w
  5195  17EB  1D03               	btfss	3,2
  5196  17EC  2FEE               	goto	u2301
  5197  17ED  2FEF               	goto	u2300
  5198  17EE                     u2301:
  5199  17EE  2FDF               	goto	l2119
  5200  17EF                     u2300:
  5201  17EF                     l2121:
  5202  17EF  086B               	movf	___fltol@sign1,w
  5203  17F0  1903               	btfsc	3,2
  5204  17F1  2FF3               	goto	u2311
  5205  17F2  2FF4               	goto	u2310
  5206  17F3                     u2311:
  5207  17F3  2FFF               	goto	l583
  5208  17F4                     u2310:
  5209  17F4                     l2123:
  5210  17F4  09E2               	comf	___fltol@f1,f
  5211  17F5  09E3               	comf	___fltol@f1+1,f
  5212  17F6  09E4               	comf	___fltol@f1+2,f
  5213  17F7  09E5               	comf	___fltol@f1+3,f
  5214  17F8  0AE2               	incf	___fltol@f1,f
  5215  17F9  1903               	skipnz
  5216  17FA  0AE3               	incf	___fltol@f1+1,f
  5217  17FB  1903               	skipnz
  5218  17FC  0AE4               	incf	___fltol@f1+2,f
  5219  17FD  1903               	skipnz
  5220  17FE  0AE5               	incf	___fltol@f1+3,f
  5221  17FF                     l583:
  5222  17FF                     l573:
  5223  17FF  0008               	return
  5224  1800                     __end_of___fltol:
  5225                           
  5226                           	psect	text15
  5227  003E                     __ptext15:	
  5228 ;; *************** function ___flmul *****************
  5229 ;; Defined at:
  5230 ;;		line 8 in file "C:\Program Files\Microchip\xc8\v2.35\pic\sources\c90\common\sprcmul.c"
  5231 ;; Parameters:    Size  Location     Type
  5232 ;;  b               4   14[BANK0 ] long 
  5233 ;;  a               4   18[BANK0 ] long 
  5234 ;; Auto vars:     Size  Location     Type
  5235 ;;  prod            4   34[BANK0 ] struct .
  5236 ;;  grs             4   28[BANK0 ] unsigned long 
  5237 ;;  temp            2   38[BANK0 ] struct .
  5238 ;;  bexp            1   33[BANK0 ] unsigned char 
  5239 ;;  aexp            1   32[BANK0 ] unsigned char 
  5240 ;;  sign            1   27[BANK0 ] unsigned char 
  5241 ;; Return value:  Size  Location     Type
  5242 ;;                  4   14[BANK0 ] unsigned char 
  5243 ;; Registers used:
  5244 ;;		wreg, status,2, status,0, btemp+1, pclath, cstack
  5245 ;; Tracked objects:
  5246 ;;		On entry : 0/0
  5247 ;;		On exit  : 0/0
  5248 ;;		Unchanged: 0/0
  5249 ;; Data sizes:     COMMON   BANK0   BANK1   BANK3   BANK2
  5250 ;;      Params:         0       8       0       0       0
  5251 ;;      Locals:         0      13       0       0       0
  5252 ;;      Temps:          0       5       0       0       0
  5253 ;;      Totals:         0      26       0       0       0
  5254 ;;Total ram usage:       26 bytes
  5255 ;; Hardware stack levels used: 1
  5256 ;; Hardware stack levels required when called: 3
  5257 ;; This function calls:
  5258 ;;		__Umul8_16
  5259 ;; This function is called by:
  5260 ;;		_CENTENA
  5261 ;;		_DECENA
  5262 ;;		_UNIDAD
  5263 ;; This function uses a non-reentrant model
  5264 ;;
  5265                           
  5266  003E                     ___flmul:	
  5267                           ;psect for function ___flmul
  5268                           
  5269  003E                     l2461:	
  5270                           ;incstack = 0
  5271                           ; Regs used in ___flmul: [wreg+status,2+status,0+btemp+1+pclath+cstack]
  5272                           
  5273  003E  1283               	bcf	3,5	;RP0=0, select bank0
  5274  003F  1303               	bcf	3,6	;RP1=0, select bank0
  5275  0040  0831               	movf	___flmul@b+3,w
  5276  0041  3980               	andlw	128
  5277  0042  00B6               	movwf	??___flmul
  5278  0043  0836               	movf	??___flmul,w
  5279  0044  00BB               	movwf	___flmul@sign
  5280  0045                     l2463:
  5281  0045  0831               	movf	___flmul@b+3,w
  5282  0046  00B6               	movwf	??___flmul
  5283  0047  0736               	addwf	??___flmul,w
  5284  0048  00B7               	movwf	??___flmul+1
  5285  0049  0837               	movf	??___flmul+1,w
  5286  004A  00C1               	movwf	___flmul@bexp
  5287  004B                     l2465:
  5288  004B  1FB0               	btfss	___flmul@b+2,7
  5289  004C  284E               	goto	u3071
  5290  004D  284F               	goto	u3070
  5291  004E                     u3071:
  5292  004E  2850               	goto	l2469
  5293  004F                     u3070:
  5294  004F                     l2467:
  5295  004F  1441               	bsf	___flmul@bexp,0
  5296  0050                     l2469:
  5297  0050  0841               	movf	___flmul@bexp,w
  5298  0051  1903               	btfsc	3,2
  5299  0052  2854               	goto	u3081
  5300  0053  2855               	goto	u3080
  5301  0054                     u3081:
  5302  0054  2864               	goto	l2477
  5303  0055                     u3080:
  5304  0055                     l2471:
  5305  0055  0A41               	incf	___flmul@bexp,w
  5306  0056  1D03               	btfss	3,2
  5307  0057  2859               	goto	u3091
  5308  0058  285A               	goto	u3090
  5309  0059                     u3091:
  5310  0059  2862               	goto	l2475
  5311  005A                     u3090:
  5312  005A                     l2473:
  5313  005A  3000               	movlw	0
  5314  005B  00B1               	movwf	___flmul@b+3
  5315  005C  3000               	movlw	0
  5316  005D  00B0               	movwf	___flmul@b+2
  5317  005E  3000               	movlw	0
  5318  005F  00AF               	movwf	___flmul@b+1
  5319  0060  3000               	movlw	0
  5320  0061  00AE               	movwf	___flmul@b
  5321  0062                     l2475:
  5322  0062  17B0               	bsf	___flmul@b+2,7
  5323  0063  286C               	goto	l2479
  5324  0064                     l2477:
  5325  0064  3000               	movlw	0
  5326  0065  00B1               	movwf	___flmul@b+3
  5327  0066  3000               	movlw	0
  5328  0067  00B0               	movwf	___flmul@b+2
  5329  0068  3000               	movlw	0
  5330  0069  00AF               	movwf	___flmul@b+1
  5331  006A  3000               	movlw	0
  5332  006B  00AE               	movwf	___flmul@b
  5333  006C                     l2479:
  5334  006C  0835               	movf	___flmul@a+3,w
  5335  006D  3980               	andlw	128
  5336  006E  00B6               	movwf	??___flmul
  5337  006F  0836               	movf	??___flmul,w
  5338  0070  06BB               	xorwf	___flmul@sign,f
  5339  0071                     l2481:
  5340  0071  0835               	movf	___flmul@a+3,w
  5341  0072  00B6               	movwf	??___flmul
  5342  0073  0736               	addwf	??___flmul,w
  5343  0074  00B7               	movwf	??___flmul+1
  5344  0075  0837               	movf	??___flmul+1,w
  5345  0076  00C0               	movwf	___flmul@aexp
  5346  0077                     l2483:
  5347  0077  1FB4               	btfss	___flmul@a+2,7
  5348  0078  287A               	goto	u3101
  5349  0079  287B               	goto	u3100
  5350  007A                     u3101:
  5351  007A  287C               	goto	l2487
  5352  007B                     u3100:
  5353  007B                     l2485:
  5354  007B  1440               	bsf	___flmul@aexp,0
  5355  007C                     l2487:
  5356  007C  0840               	movf	___flmul@aexp,w
  5357  007D  1903               	btfsc	3,2
  5358  007E  2880               	goto	u3111
  5359  007F  2881               	goto	u3110
  5360  0080                     u3111:
  5361  0080  2890               	goto	l2495
  5362  0081                     u3110:
  5363  0081                     l2489:
  5364  0081  0A40               	incf	___flmul@aexp,w
  5365  0082  1D03               	btfss	3,2
  5366  0083  2885               	goto	u3121
  5367  0084  2886               	goto	u3120
  5368  0085                     u3121:
  5369  0085  288E               	goto	l2493
  5370  0086                     u3120:
  5371  0086                     l2491:
  5372  0086  3000               	movlw	0
  5373  0087  00B5               	movwf	___flmul@a+3
  5374  0088  3000               	movlw	0
  5375  0089  00B4               	movwf	___flmul@a+2
  5376  008A  3000               	movlw	0
  5377  008B  00B3               	movwf	___flmul@a+1
  5378  008C  3000               	movlw	0
  5379  008D  00B2               	movwf	___flmul@a
  5380  008E                     l2493:
  5381  008E  17B4               	bsf	___flmul@a+2,7
  5382  008F  2898               	goto	l2497
  5383  0090                     l2495:
  5384  0090  3000               	movlw	0
  5385  0091  00B5               	movwf	___flmul@a+3
  5386  0092  3000               	movlw	0
  5387  0093  00B4               	movwf	___flmul@a+2
  5388  0094  3000               	movlw	0
  5389  0095  00B3               	movwf	___flmul@a+1
  5390  0096  3000               	movlw	0
  5391  0097  00B2               	movwf	___flmul@a
  5392  0098                     l2497:
  5393  0098  0840               	movf	___flmul@aexp,w
  5394  0099  1903               	btfsc	3,2
  5395  009A  289C               	goto	u3131
  5396  009B  289D               	goto	u3130
  5397  009C                     u3131:
  5398  009C  28A2               	goto	l2501
  5399  009D                     u3130:
  5400  009D                     l2499:
  5401  009D  0841               	movf	___flmul@bexp,w
  5402  009E  1D03               	btfss	3,2
  5403  009F  28A1               	goto	u3141
  5404  00A0  28A2               	goto	u3140
  5405  00A1                     u3141:
  5406  00A1  28AB               	goto	l2505
  5407  00A2                     u3140:
  5408  00A2                     l2501:
  5409  00A2  3000               	movlw	0
  5410  00A3  00B1               	movwf	?___flmul+3
  5411  00A4  3000               	movlw	0
  5412  00A5  00B0               	movwf	?___flmul+2
  5413  00A6  3000               	movlw	0
  5414  00A7  00AF               	movwf	?___flmul+1
  5415  00A8  3000               	movlw	0
  5416  00A9  00AE               	movwf	?___flmul
  5417  00AA  2B9E               	goto	l776
  5418  00AB                     l2505:
  5419  00AB  082E               	movf	___flmul@b,w
  5420  00AC  00B6               	movwf	??___flmul
  5421  00AD  0836               	movf	??___flmul,w
  5422  00AE  00A0               	movwf	__Umul8_16@multiplicand
  5423  00AF  0834               	movf	___flmul@a+2,w
  5424  00B0  160A  118A  2219  120A  118A  	fcall	__Umul8_16
  5425  00B5  1283               	bcf	3,5	;RP0=0, select bank0
  5426  00B6  1303               	bcf	3,6	;RP1=0, select bank0
  5427  00B7  0821               	movf	?__Umul8_16+1,w
  5428  00B8  00C7               	movwf	___flmul@temp+1
  5429  00B9  0820               	movf	?__Umul8_16,w
  5430  00BA  00C6               	movwf	___flmul@temp
  5431  00BB                     l2507:
  5432  00BB  0846               	movf	___flmul@temp,w
  5433  00BC  00B6               	movwf	??___flmul
  5434  00BD  01B7               	clrf	??___flmul+1
  5435  00BE  01B8               	clrf	??___flmul+2
  5436  00BF  01B9               	clrf	??___flmul+3
  5437  00C0  0839               	movf	??___flmul+3,w
  5438  00C1  00BF               	movwf	___flmul@grs+3
  5439  00C2  0838               	movf	??___flmul+2,w
  5440  00C3  00BE               	movwf	___flmul@grs+2
  5441  00C4  0837               	movf	??___flmul+1,w
  5442  00C5  00BD               	movwf	___flmul@grs+1
  5443  00C6  0836               	movf	??___flmul,w
  5444  00C7  00BC               	movwf	___flmul@grs
  5445  00C8                     l2509:
  5446  00C8  0847               	movf	___flmul@temp+1,w
  5447  00C9  00B6               	movwf	??___flmul
  5448  00CA  01B7               	clrf	??___flmul+1
  5449  00CB  01B8               	clrf	??___flmul+2
  5450  00CC  01B9               	clrf	??___flmul+3
  5451  00CD  0839               	movf	??___flmul+3,w
  5452  00CE  00C5               	movwf	___flmul@prod+3
  5453  00CF  0838               	movf	??___flmul+2,w
  5454  00D0  00C4               	movwf	___flmul@prod+2
  5455  00D1  0837               	movf	??___flmul+1,w
  5456  00D2  00C3               	movwf	___flmul@prod+1
  5457  00D3  0836               	movf	??___flmul,w
  5458  00D4  00C2               	movwf	___flmul@prod
  5459  00D5  082F               	movf	___flmul@b+1,w
  5460  00D6  00B6               	movwf	??___flmul
  5461  00D7  0836               	movf	??___flmul,w
  5462  00D8  00A0               	movwf	__Umul8_16@multiplicand
  5463  00D9  0833               	movf	___flmul@a+1,w
  5464  00DA  160A  118A  2219  120A  118A  	fcall	__Umul8_16
  5465  00DF  1283               	bcf	3,5	;RP0=0, select bank0
  5466  00E0  1303               	bcf	3,6	;RP1=0, select bank0
  5467  00E1  0821               	movf	?__Umul8_16+1,w
  5468  00E2  00C7               	movwf	___flmul@temp+1
  5469  00E3  0820               	movf	?__Umul8_16,w
  5470  00E4  00C6               	movwf	___flmul@temp
  5471  00E5                     l2511:
  5472  00E5  0846               	movf	___flmul@temp,w
  5473  00E6  00B6               	movwf	??___flmul
  5474  00E7  01B7               	clrf	??___flmul+1
  5475  00E8  01B8               	clrf	??___flmul+2
  5476  00E9  01B9               	clrf	??___flmul+3
  5477  00EA  0836               	movf	??___flmul,w
  5478  00EB  07BC               	addwf	___flmul@grs,f
  5479  00EC  0837               	movf	??___flmul+1,w
  5480  00ED  1103               	clrz
  5481  00EE  1803               	skipnc
  5482  00EF  3E01               	addlw	1
  5483  00F0  1903               	skipnz
  5484  00F1  28F3               	goto	u3151
  5485  00F2  07BD               	addwf	___flmul@grs+1,f
  5486  00F3                     u3151:
  5487  00F3  0838               	movf	??___flmul+2,w
  5488  00F4  1103               	clrz
  5489  00F5  1803               	skipnc
  5490  00F6  3E01               	addlw	1
  5491  00F7  1903               	skipnz
  5492  00F8  28FA               	goto	u3152
  5493  00F9  07BE               	addwf	___flmul@grs+2,f
  5494  00FA                     u3152:
  5495  00FA  0839               	movf	??___flmul+3,w
  5496  00FB  1103               	clrz
  5497  00FC  1803               	skipnc
  5498  00FD  3E01               	addlw	1
  5499  00FE  1903               	skipnz
  5500  00FF  2901               	goto	u3153
  5501  0100  07BF               	addwf	___flmul@grs+3,f
  5502  0101                     u3153:
  5503  0101                     l2513:
  5504  0101  0847               	movf	___flmul@temp+1,w
  5505  0102  00B6               	movwf	??___flmul
  5506  0103  01B7               	clrf	??___flmul+1
  5507  0104  01B8               	clrf	??___flmul+2
  5508  0105  01B9               	clrf	??___flmul+3
  5509  0106  0836               	movf	??___flmul,w
  5510  0107  07C2               	addwf	___flmul@prod,f
  5511  0108  0837               	movf	??___flmul+1,w
  5512  0109  1103               	clrz
  5513  010A  1803               	skipnc
  5514  010B  3E01               	addlw	1
  5515  010C  1903               	skipnz
  5516  010D  290F               	goto	u3161
  5517  010E  07C3               	addwf	___flmul@prod+1,f
  5518  010F                     u3161:
  5519  010F  0838               	movf	??___flmul+2,w
  5520  0110  1103               	clrz
  5521  0111  1803               	skipnc
  5522  0112  3E01               	addlw	1
  5523  0113  1903               	skipnz
  5524  0114  2916               	goto	u3162
  5525  0115  07C4               	addwf	___flmul@prod+2,f
  5526  0116                     u3162:
  5527  0116  0839               	movf	??___flmul+3,w
  5528  0117  1103               	clrz
  5529  0118  1803               	skipnc
  5530  0119  3E01               	addlw	1
  5531  011A  1903               	skipnz
  5532  011B  291D               	goto	u3163
  5533  011C  07C5               	addwf	___flmul@prod+3,f
  5534  011D                     u3163:
  5535  011D  0830               	movf	___flmul@b+2,w
  5536  011E  00B6               	movwf	??___flmul
  5537  011F  0836               	movf	??___flmul,w
  5538  0120  00A0               	movwf	__Umul8_16@multiplicand
  5539  0121  0832               	movf	___flmul@a,w
  5540  0122  160A  118A  2219  120A  118A  	fcall	__Umul8_16
  5541  0127  1283               	bcf	3,5	;RP0=0, select bank0
  5542  0128  1303               	bcf	3,6	;RP1=0, select bank0
  5543  0129  0821               	movf	?__Umul8_16+1,w
  5544  012A  00C7               	movwf	___flmul@temp+1
  5545  012B  0820               	movf	?__Umul8_16,w
  5546  012C  00C6               	movwf	___flmul@temp
  5547  012D                     l2515:
  5548  012D  0846               	movf	___flmul@temp,w
  5549  012E  00B6               	movwf	??___flmul
  5550  012F  01B7               	clrf	??___flmul+1
  5551  0130  01B8               	clrf	??___flmul+2
  5552  0131  01B9               	clrf	??___flmul+3
  5553  0132  0836               	movf	??___flmul,w
  5554  0133  07BC               	addwf	___flmul@grs,f
  5555  0134  0837               	movf	??___flmul+1,w
  5556  0135  1103               	clrz
  5557  0136  1803               	skipnc
  5558  0137  3E01               	addlw	1
  5559  0138  1903               	skipnz
  5560  0139  293B               	goto	u3171
  5561  013A  07BD               	addwf	___flmul@grs+1,f
  5562  013B                     u3171:
  5563  013B  0838               	movf	??___flmul+2,w
  5564  013C  1103               	clrz
  5565  013D  1803               	skipnc
  5566  013E  3E01               	addlw	1
  5567  013F  1903               	skipnz
  5568  0140  2942               	goto	u3172
  5569  0141  07BE               	addwf	___flmul@grs+2,f
  5570  0142                     u3172:
  5571  0142  0839               	movf	??___flmul+3,w
  5572  0143  1103               	clrz
  5573  0144  1803               	skipnc
  5574  0145  3E01               	addlw	1
  5575  0146  1903               	skipnz
  5576  0147  2949               	goto	u3173
  5577  0148  07BF               	addwf	___flmul@grs+3,f
  5578  0149                     u3173:
  5579  0149                     l2517:
  5580  0149  0847               	movf	___flmul@temp+1,w
  5581  014A  00B6               	movwf	??___flmul
  5582  014B  01B7               	clrf	??___flmul+1
  5583  014C  01B8               	clrf	??___flmul+2
  5584  014D  01B9               	clrf	??___flmul+3
  5585  014E  0836               	movf	??___flmul,w
  5586  014F  07C2               	addwf	___flmul@prod,f
  5587  0150  0837               	movf	??___flmul+1,w
  5588  0151  1103               	clrz
  5589  0152  1803               	skipnc
  5590  0153  3E01               	addlw	1
  5591  0154  1903               	skipnz
  5592  0155  2957               	goto	u3181
  5593  0156  07C3               	addwf	___flmul@prod+1,f
  5594  0157                     u3181:
  5595  0157  0838               	movf	??___flmul+2,w
  5596  0158  1103               	clrz
  5597  0159  1803               	skipnc
  5598  015A  3E01               	addlw	1
  5599  015B  1903               	skipnz
  5600  015C  295E               	goto	u3182
  5601  015D  07C4               	addwf	___flmul@prod+2,f
  5602  015E                     u3182:
  5603  015E  0839               	movf	??___flmul+3,w
  5604  015F  1103               	clrz
  5605  0160  1803               	skipnc
  5606  0161  3E01               	addlw	1
  5607  0162  1903               	skipnz
  5608  0163  2965               	goto	u3183
  5609  0164  07C5               	addwf	___flmul@prod+3,f
  5610  0165                     u3183:
  5611  0165                     l2519:
  5612  0165  3008               	movlw	8
  5613  0166  00B6               	movwf	??___flmul
  5614  0167                     u3195:
  5615  0167  1003               	clrc
  5616  0168  0DBC               	rlf	___flmul@grs,f
  5617  0169  0DBD               	rlf	___flmul@grs+1,f
  5618  016A  0DBE               	rlf	___flmul@grs+2,f
  5619  016B  0DBF               	rlf	___flmul@grs+3,f
  5620  016C  0BB6               	decfsz	??___flmul,f
  5621  016D  2967               	goto	u3195
  5622  016E                     l2521:
  5623  016E  082F               	movf	___flmul@b+1,w
  5624  016F  00B6               	movwf	??___flmul
  5625  0170  0836               	movf	??___flmul,w
  5626  0171  00A0               	movwf	__Umul8_16@multiplicand
  5627  0172  0832               	movf	___flmul@a,w
  5628  0173  160A  118A  2219  120A  118A  	fcall	__Umul8_16
  5629  0178  1283               	bcf	3,5	;RP0=0, select bank0
  5630  0179  1303               	bcf	3,6	;RP1=0, select bank0
  5631  017A  0821               	movf	?__Umul8_16+1,w
  5632  017B  00C7               	movwf	___flmul@temp+1
  5633  017C  0820               	movf	?__Umul8_16,w
  5634  017D  00C6               	movwf	___flmul@temp
  5635  017E                     l2523:
  5636  017E  0846               	movf	___flmul@temp,w
  5637  017F  00B6               	movwf	??___flmul
  5638  0180  0847               	movf	___flmul@temp+1,w
  5639  0181  00B7               	movwf	??___flmul+1
  5640  0182  01B8               	clrf	??___flmul+2
  5641  0183  01B9               	clrf	??___flmul+3
  5642  0184  0836               	movf	??___flmul,w
  5643  0185  07BC               	addwf	___flmul@grs,f
  5644  0186  0837               	movf	??___flmul+1,w
  5645  0187  1103               	clrz
  5646  0188  1803               	skipnc
  5647  0189  3E01               	addlw	1
  5648  018A  1903               	skipnz
  5649  018B  298D               	goto	u3201
  5650  018C  07BD               	addwf	___flmul@grs+1,f
  5651  018D                     u3201:
  5652  018D  0838               	movf	??___flmul+2,w
  5653  018E  1103               	clrz
  5654  018F  1803               	skipnc
  5655  0190  3E01               	addlw	1
  5656  0191  1903               	skipnz
  5657  0192  2994               	goto	u3202
  5658  0193  07BE               	addwf	___flmul@grs+2,f
  5659  0194                     u3202:
  5660  0194  0839               	movf	??___flmul+3,w
  5661  0195  1103               	clrz
  5662  0196  1803               	skipnc
  5663  0197  3E01               	addlw	1
  5664  0198  1903               	skipnz
  5665  0199  299B               	goto	u3203
  5666  019A  07BF               	addwf	___flmul@grs+3,f
  5667  019B                     u3203:
  5668  019B                     l2525:
  5669  019B  082E               	movf	___flmul@b,w
  5670  019C  00B6               	movwf	??___flmul
  5671  019D  0836               	movf	??___flmul,w
  5672  019E  00A0               	movwf	__Umul8_16@multiplicand
  5673  019F  0833               	movf	___flmul@a+1,w
  5674  01A0  160A  118A  2219  120A  118A  	fcall	__Umul8_16
  5675  01A5  1283               	bcf	3,5	;RP0=0, select bank0
  5676  01A6  1303               	bcf	3,6	;RP1=0, select bank0
  5677  01A7  0821               	movf	?__Umul8_16+1,w
  5678  01A8  00C7               	movwf	___flmul@temp+1
  5679  01A9  0820               	movf	?__Umul8_16,w
  5680  01AA  00C6               	movwf	___flmul@temp
  5681  01AB                     l2527:
  5682  01AB  0846               	movf	___flmul@temp,w
  5683  01AC  00B6               	movwf	??___flmul
  5684  01AD  0847               	movf	___flmul@temp+1,w
  5685  01AE  00B7               	movwf	??___flmul+1
  5686  01AF  01B8               	clrf	??___flmul+2
  5687  01B0  01B9               	clrf	??___flmul+3
  5688  01B1  0836               	movf	??___flmul,w
  5689  01B2  07BC               	addwf	___flmul@grs,f
  5690  01B3  0837               	movf	??___flmul+1,w
  5691  01B4  1103               	clrz
  5692  01B5  1803               	skipnc
  5693  01B6  3E01               	addlw	1
  5694  01B7  1903               	skipnz
  5695  01B8  29BA               	goto	u3211
  5696  01B9  07BD               	addwf	___flmul@grs+1,f
  5697  01BA                     u3211:
  5698  01BA  0838               	movf	??___flmul+2,w
  5699  01BB  1103               	clrz
  5700  01BC  1803               	skipnc
  5701  01BD  3E01               	addlw	1
  5702  01BE  1903               	skipnz
  5703  01BF  29C1               	goto	u3212
  5704  01C0  07BE               	addwf	___flmul@grs+2,f
  5705  01C1                     u3212:
  5706  01C1  0839               	movf	??___flmul+3,w
  5707  01C2  1103               	clrz
  5708  01C3  1803               	skipnc
  5709  01C4  3E01               	addlw	1
  5710  01C5  1903               	skipnz
  5711  01C6  29C8               	goto	u3213
  5712  01C7  07BF               	addwf	___flmul@grs+3,f
  5713  01C8                     u3213:
  5714  01C8                     l2529:
  5715  01C8  3008               	movlw	8
  5716  01C9  00B6               	movwf	??___flmul
  5717  01CA                     u3225:
  5718  01CA  1003               	clrc
  5719  01CB  0DBC               	rlf	___flmul@grs,f
  5720  01CC  0DBD               	rlf	___flmul@grs+1,f
  5721  01CD  0DBE               	rlf	___flmul@grs+2,f
  5722  01CE  0DBF               	rlf	___flmul@grs+3,f
  5723  01CF  0BB6               	decfsz	??___flmul,f
  5724  01D0  29CA               	goto	u3225
  5725  01D1  082E               	movf	___flmul@b,w
  5726  01D2  00B6               	movwf	??___flmul
  5727  01D3  0836               	movf	??___flmul,w
  5728  01D4  00A0               	movwf	__Umul8_16@multiplicand
  5729  01D5  0832               	movf	___flmul@a,w
  5730  01D6  160A  118A  2219  120A  118A  	fcall	__Umul8_16
  5731  01DB  1283               	bcf	3,5	;RP0=0, select bank0
  5732  01DC  1303               	bcf	3,6	;RP1=0, select bank0
  5733  01DD  0821               	movf	?__Umul8_16+1,w
  5734  01DE  00C7               	movwf	___flmul@temp+1
  5735  01DF  0820               	movf	?__Umul8_16,w
  5736  01E0  00C6               	movwf	___flmul@temp
  5737  01E1                     l2531:
  5738  01E1  0846               	movf	___flmul@temp,w
  5739  01E2  00B6               	movwf	??___flmul
  5740  01E3  0847               	movf	___flmul@temp+1,w
  5741  01E4  00B7               	movwf	??___flmul+1
  5742  01E5  01B8               	clrf	??___flmul+2
  5743  01E6  01B9               	clrf	??___flmul+3
  5744  01E7  0836               	movf	??___flmul,w
  5745  01E8  07BC               	addwf	___flmul@grs,f
  5746  01E9  0837               	movf	??___flmul+1,w
  5747  01EA  1103               	clrz
  5748  01EB  1803               	skipnc
  5749  01EC  3E01               	addlw	1
  5750  01ED  1903               	skipnz
  5751  01EE  29F0               	goto	u3231
  5752  01EF  07BD               	addwf	___flmul@grs+1,f
  5753  01F0                     u3231:
  5754  01F0  0838               	movf	??___flmul+2,w
  5755  01F1  1103               	clrz
  5756  01F2  1803               	skipnc
  5757  01F3  3E01               	addlw	1
  5758  01F4  1903               	skipnz
  5759  01F5  29F7               	goto	u3232
  5760  01F6  07BE               	addwf	___flmul@grs+2,f
  5761  01F7                     u3232:
  5762  01F7  0839               	movf	??___flmul+3,w
  5763  01F8  1103               	clrz
  5764  01F9  1803               	skipnc
  5765  01FA  3E01               	addlw	1
  5766  01FB  1903               	skipnz
  5767  01FC  29FE               	goto	u3233
  5768  01FD  07BF               	addwf	___flmul@grs+3,f
  5769  01FE                     u3233:
  5770  01FE                     l2533:
  5771  01FE  082F               	movf	___flmul@b+1,w
  5772  01FF  00B6               	movwf	??___flmul
  5773  0200  0836               	movf	??___flmul,w
  5774  0201  00A0               	movwf	__Umul8_16@multiplicand
  5775  0202  0834               	movf	___flmul@a+2,w
  5776  0203  160A  118A  2219  120A  118A  	fcall	__Umul8_16
  5777  0208  1283               	bcf	3,5	;RP0=0, select bank0
  5778  0209  1303               	bcf	3,6	;RP1=0, select bank0
  5779  020A  0821               	movf	?__Umul8_16+1,w
  5780  020B  00C7               	movwf	___flmul@temp+1
  5781  020C  0820               	movf	?__Umul8_16,w
  5782  020D  00C6               	movwf	___flmul@temp
  5783  020E  0846               	movf	___flmul@temp,w
  5784  020F  00B6               	movwf	??___flmul
  5785  0210  0847               	movf	___flmul@temp+1,w
  5786  0211  00B7               	movwf	??___flmul+1
  5787  0212  01B8               	clrf	??___flmul+2
  5788  0213  01B9               	clrf	??___flmul+3
  5789  0214  0836               	movf	??___flmul,w
  5790  0215  07C2               	addwf	___flmul@prod,f
  5791  0216  0837               	movf	??___flmul+1,w
  5792  0217  1103               	clrz
  5793  0218  1803               	skipnc
  5794  0219  3E01               	addlw	1
  5795  021A  1903               	skipnz
  5796  021B  2A1D               	goto	u3241
  5797  021C  07C3               	addwf	___flmul@prod+1,f
  5798  021D                     u3241:
  5799  021D  0838               	movf	??___flmul+2,w
  5800  021E  1103               	clrz
  5801  021F  1803               	skipnc
  5802  0220  3E01               	addlw	1
  5803  0221  1903               	skipnz
  5804  0222  2A24               	goto	u3242
  5805  0223  07C4               	addwf	___flmul@prod+2,f
  5806  0224                     u3242:
  5807  0224  0839               	movf	??___flmul+3,w
  5808  0225  1103               	clrz
  5809  0226  1803               	skipnc
  5810  0227  3E01               	addlw	1
  5811  0228  1903               	skipnz
  5812  0229  2A2B               	goto	u3243
  5813  022A  07C5               	addwf	___flmul@prod+3,f
  5814  022B                     u3243:
  5815  022B                     l2535:
  5816  022B  0830               	movf	___flmul@b+2,w
  5817  022C  00B6               	movwf	??___flmul
  5818  022D  0836               	movf	??___flmul,w
  5819  022E  00A0               	movwf	__Umul8_16@multiplicand
  5820  022F  0833               	movf	___flmul@a+1,w
  5821  0230  160A  118A  2219  120A  118A  	fcall	__Umul8_16
  5822  0235  1283               	bcf	3,5	;RP0=0, select bank0
  5823  0236  1303               	bcf	3,6	;RP1=0, select bank0
  5824  0237  0821               	movf	?__Umul8_16+1,w
  5825  0238  00C7               	movwf	___flmul@temp+1
  5826  0239  0820               	movf	?__Umul8_16,w
  5827  023A  00C6               	movwf	___flmul@temp
  5828  023B                     l2537:
  5829  023B  0846               	movf	___flmul@temp,w
  5830  023C  00B6               	movwf	??___flmul
  5831  023D  0847               	movf	___flmul@temp+1,w
  5832  023E  00B7               	movwf	??___flmul+1
  5833  023F  01B8               	clrf	??___flmul+2
  5834  0240  01B9               	clrf	??___flmul+3
  5835  0241  0836               	movf	??___flmul,w
  5836  0242  07C2               	addwf	___flmul@prod,f
  5837  0243  0837               	movf	??___flmul+1,w
  5838  0244  1103               	clrz
  5839  0245  1803               	skipnc
  5840  0246  3E01               	addlw	1
  5841  0247  1903               	skipnz
  5842  0248  2A4A               	goto	u3251
  5843  0249  07C3               	addwf	___flmul@prod+1,f
  5844  024A                     u3251:
  5845  024A  0838               	movf	??___flmul+2,w
  5846  024B  1103               	clrz
  5847  024C  1803               	skipnc
  5848  024D  3E01               	addlw	1
  5849  024E  1903               	skipnz
  5850  024F  2A51               	goto	u3252
  5851  0250  07C4               	addwf	___flmul@prod+2,f
  5852  0251                     u3252:
  5853  0251  0839               	movf	??___flmul+3,w
  5854  0252  1103               	clrz
  5855  0253  1803               	skipnc
  5856  0254  3E01               	addlw	1
  5857  0255  1903               	skipnz
  5858  0256  2A58               	goto	u3253
  5859  0257  07C5               	addwf	___flmul@prod+3,f
  5860  0258                     u3253:
  5861  0258  0830               	movf	___flmul@b+2,w
  5862  0259  00B6               	movwf	??___flmul
  5863  025A  0836               	movf	??___flmul,w
  5864  025B  00A0               	movwf	__Umul8_16@multiplicand
  5865  025C  0834               	movf	___flmul@a+2,w
  5866  025D  160A  118A  2219  120A  118A  	fcall	__Umul8_16
  5867  0262  1283               	bcf	3,5	;RP0=0, select bank0
  5868  0263  1303               	bcf	3,6	;RP1=0, select bank0
  5869  0264  0821               	movf	?__Umul8_16+1,w
  5870  0265  00C7               	movwf	___flmul@temp+1
  5871  0266  0820               	movf	?__Umul8_16,w
  5872  0267  00C6               	movwf	___flmul@temp
  5873  0268                     l2539:
  5874  0268  0846               	movf	___flmul@temp,w
  5875  0269  00B6               	movwf	??___flmul
  5876  026A  0847               	movf	___flmul@temp+1,w
  5877  026B  00B7               	movwf	??___flmul+1
  5878  026C  01B8               	clrf	??___flmul+2
  5879  026D  01B9               	clrf	??___flmul+3
  5880  026E  3008               	movlw	8
  5881  026F                     u3265:
  5882  026F  1003               	clrc
  5883  0270  0DB6               	rlf	??___flmul,f
  5884  0271  0DB7               	rlf	??___flmul+1,f
  5885  0272  0DB8               	rlf	??___flmul+2,f
  5886  0273  0DB9               	rlf	??___flmul+3,f
  5887  0274                     u3260:
  5888  0274  3EFF               	addlw	-1
  5889  0275  1D03               	skipz
  5890  0276  2A6F               	goto	u3265
  5891  0277  0836               	movf	??___flmul,w
  5892  0278  07C2               	addwf	___flmul@prod,f
  5893  0279  0837               	movf	??___flmul+1,w
  5894  027A  1103               	clrz
  5895  027B  1803               	skipnc
  5896  027C  3E01               	addlw	1
  5897  027D  1903               	skipnz
  5898  027E  2A80               	goto	u3271
  5899  027F  07C3               	addwf	___flmul@prod+1,f
  5900  0280                     u3271:
  5901  0280  0838               	movf	??___flmul+2,w
  5902  0281  1103               	clrz
  5903  0282  1803               	skipnc
  5904  0283  3E01               	addlw	1
  5905  0284  1903               	skipnz
  5906  0285  2A87               	goto	u3272
  5907  0286  07C4               	addwf	___flmul@prod+2,f
  5908  0287                     u3272:
  5909  0287  0839               	movf	??___flmul+3,w
  5910  0288  1103               	clrz
  5911  0289  1803               	skipnc
  5912  028A  3E01               	addlw	1
  5913  028B  1903               	skipnz
  5914  028C  2A8E               	goto	u3273
  5915  028D  07C5               	addwf	___flmul@prod+3,f
  5916  028E                     u3273:
  5917  028E                     l2541:
  5918  028E  083C               	movf	___flmul@grs,w
  5919  028F  00B6               	movwf	??___flmul
  5920  0290  083D               	movf	___flmul@grs+1,w
  5921  0291  00B7               	movwf	??___flmul+1
  5922  0292  083E               	movf	___flmul@grs+2,w
  5923  0293  00B8               	movwf	??___flmul+2
  5924  0294  083F               	movf	___flmul@grs+3,w
  5925  0295  00B9               	movwf	??___flmul+3
  5926  0296  3018               	movlw	24
  5927  0297                     u3285:
  5928  0297  1003               	clrc
  5929  0298  0CB9               	rrf	??___flmul+3,f
  5930  0299  0CB8               	rrf	??___flmul+2,f
  5931  029A  0CB7               	rrf	??___flmul+1,f
  5932  029B  0CB6               	rrf	??___flmul,f
  5933  029C                     u3280:
  5934  029C  3EFF               	addlw	-1
  5935  029D  1D03               	skipz
  5936  029E  2A97               	goto	u3285
  5937  029F  0836               	movf	??___flmul,w
  5938  02A0  07C2               	addwf	___flmul@prod,f
  5939  02A1  0837               	movf	??___flmul+1,w
  5940  02A2  1103               	clrz
  5941  02A3  1803               	skipnc
  5942  02A4  3E01               	addlw	1
  5943  02A5  1903               	skipnz
  5944  02A6  2AA8               	goto	u3291
  5945  02A7  07C3               	addwf	___flmul@prod+1,f
  5946  02A8                     u3291:
  5947  02A8  0838               	movf	??___flmul+2,w
  5948  02A9  1103               	clrz
  5949  02AA  1803               	skipnc
  5950  02AB  3E01               	addlw	1
  5951  02AC  1903               	skipnz
  5952  02AD  2AAF               	goto	u3292
  5953  02AE  07C4               	addwf	___flmul@prod+2,f
  5954  02AF                     u3292:
  5955  02AF  0839               	movf	??___flmul+3,w
  5956  02B0  1103               	clrz
  5957  02B1  1803               	skipnc
  5958  02B2  3E01               	addlw	1
  5959  02B3  1903               	skipnz
  5960  02B4  2AB6               	goto	u3293
  5961  02B5  07C5               	addwf	___flmul@prod+3,f
  5962  02B6                     u3293:
  5963  02B6                     l2543:
  5964  02B6  3008               	movlw	8
  5965  02B7  00B6               	movwf	??___flmul
  5966  02B8                     u3305:
  5967  02B8  1003               	clrc
  5968  02B9  0DBC               	rlf	___flmul@grs,f
  5969  02BA  0DBD               	rlf	___flmul@grs+1,f
  5970  02BB  0DBE               	rlf	___flmul@grs+2,f
  5971  02BC  0DBF               	rlf	___flmul@grs+3,f
  5972  02BD  0BB6               	decfsz	??___flmul,f
  5973  02BE  2AB8               	goto	u3305
  5974  02BF                     l2545:
  5975  02BF  0841               	movf	___flmul@bexp,w
  5976  02C0  0740               	addwf	___flmul@aexp,w
  5977  02C1  00B6               	movwf	??___flmul
  5978  02C2  01B7               	clrf	??___flmul+1
  5979  02C3  0DB7               	rlf	??___flmul+1,f
  5980  02C4  0836               	movf	??___flmul,w
  5981  02C5  3E82               	addlw	130
  5982  02C6  00C6               	movwf	___flmul@temp
  5983  02C7  0837               	movf	??___flmul+1,w
  5984  02C8  1803               	skipnc
  5985  02C9  3E01               	addlw	1
  5986  02CA  3EFF               	addlw	255
  5987  02CB  00C7               	movwf	___flmul@temp+1
  5988  02CC  2AEA               	goto	l2557
  5989  02CD                     l2547:
  5990  02CD  3001               	movlw	1
  5991  02CE  00B6               	movwf	??___flmul
  5992  02CF                     u3315:
  5993  02CF  1003               	clrc
  5994  02D0  0DC2               	rlf	___flmul@prod,f
  5995  02D1  0DC3               	rlf	___flmul@prod+1,f
  5996  02D2  0DC4               	rlf	___flmul@prod+2,f
  5997  02D3  0DC5               	rlf	___flmul@prod+3,f
  5998  02D4  0BB6               	decfsz	??___flmul,f
  5999  02D5  2ACF               	goto	u3315
  6000  02D6                     l2549:
  6001  02D6  1FBF               	btfss	___flmul@grs+3,7
  6002  02D7  2AD9               	goto	u3321
  6003  02D8  2ADA               	goto	u3320
  6004  02D9                     u3321:
  6005  02D9  2ADB               	goto	l2553
  6006  02DA                     u3320:
  6007  02DA                     l2551:
  6008  02DA  1442               	bsf	___flmul@prod,0
  6009  02DB                     l2553:
  6010  02DB  3001               	movlw	1
  6011  02DC  00B6               	movwf	??___flmul
  6012  02DD                     u3335:
  6013  02DD  1003               	clrc
  6014  02DE  0DBC               	rlf	___flmul@grs,f
  6015  02DF  0DBD               	rlf	___flmul@grs+1,f
  6016  02E0  0DBE               	rlf	___flmul@grs+2,f
  6017  02E1  0DBF               	rlf	___flmul@grs+3,f
  6018  02E2  0BB6               	decfsz	??___flmul,f
  6019  02E3  2ADD               	goto	u3335
  6020  02E4                     l2555:
  6021  02E4  30FF               	movlw	255
  6022  02E5  07C6               	addwf	___flmul@temp,f
  6023  02E6  1803               	skipnc
  6024  02E7  0AC7               	incf	___flmul@temp+1,f
  6025  02E8  30FF               	movlw	255
  6026  02E9  07C7               	addwf	___flmul@temp+1,f
  6027  02EA                     l2557:
  6028  02EA  1FC4               	btfss	___flmul@prod+2,7
  6029  02EB  2AED               	goto	u3341
  6030  02EC  2AEE               	goto	u3340
  6031  02ED                     u3341:
  6032  02ED  2ACD               	goto	l2547
  6033  02EE                     u3340:
  6034  02EE                     l2559:
  6035  02EE  01C0               	clrf	___flmul@aexp
  6036  02EF                     l2561:
  6037  02EF  1FBF               	btfss	___flmul@grs+3,7
  6038  02F0  2AF2               	goto	u3351
  6039  02F1  2AF3               	goto	u3350
  6040  02F2                     u3351:
  6041  02F2  2B0F               	goto	l2569
  6042  02F3                     u3350:
  6043  02F3                     l2563:
  6044  02F3  30FF               	movlw	255
  6045  02F4  053C               	andwf	___flmul@grs,w
  6046  02F5  00B6               	movwf	??___flmul
  6047  02F6  30FF               	movlw	255
  6048  02F7  053D               	andwf	___flmul@grs+1,w
  6049  02F8  00B7               	movwf	??___flmul+1
  6050  02F9  30FF               	movlw	255
  6051  02FA  053E               	andwf	___flmul@grs+2,w
  6052  02FB  00B8               	movwf	??___flmul+2
  6053  02FC  307F               	movlw	127
  6054  02FD  053F               	andwf	___flmul@grs+3,w
  6055  02FE  00B9               	movwf	??___flmul+3
  6056  02FF  0839               	movf	??___flmul+3,w
  6057  0300  0438               	iorwf	??___flmul+2,w
  6058  0301  0437               	iorwf	??___flmul+1,w
  6059  0302  0436               	iorwf	??___flmul,w
  6060  0303  1903               	skipnz
  6061  0304  2B06               	goto	u3361
  6062  0305  2B07               	goto	u3360
  6063  0306                     u3361:
  6064  0306  2B0A               	goto	l782
  6065  0307                     u3360:
  6066  0307                     l2565:
  6067  0307  01C0               	clrf	___flmul@aexp
  6068  0308  0AC0               	incf	___flmul@aexp,f
  6069  0309  2B0F               	goto	l2569
  6070  030A                     l782:
  6071  030A  1C42               	btfss	___flmul@prod,0
  6072  030B  2B0D               	goto	u3371
  6073  030C  2B0E               	goto	u3370
  6074  030D                     u3371:
  6075  030D  2B0F               	goto	l2569
  6076  030E                     u3370:
  6077  030E  2B07               	goto	l2565
  6078  030F                     l2569:
  6079  030F  0840               	movf	___flmul@aexp,w
  6080  0310  1903               	btfsc	3,2
  6081  0311  2B13               	goto	u3381
  6082  0312  2B14               	goto	u3380
  6083  0313                     u3381:
  6084  0313  2B45               	goto	l2579
  6085  0314                     u3380:
  6086  0314                     l2571:
  6087  0314  3001               	movlw	1
  6088  0315  07C2               	addwf	___flmul@prod,f
  6089  0316  3000               	movlw	0
  6090  0317  1803               	skipnc
  6091  0318  3001               	movlw	1
  6092  0319  07C3               	addwf	___flmul@prod+1,f
  6093  031A  3000               	movlw	0
  6094  031B  1803               	skipnc
  6095  031C  3001               	movlw	1
  6096  031D  07C4               	addwf	___flmul@prod+2,f
  6097  031E  3000               	movlw	0
  6098  031F  1803               	skipnc
  6099  0320  3001               	movlw	1
  6100  0321  07C5               	addwf	___flmul@prod+3,f
  6101  0322                     l2573:
  6102  0322  1C45               	btfss	___flmul@prod+3,0
  6103  0323  2B25               	goto	u3391
  6104  0324  2B26               	goto	u3390
  6105  0325                     u3391:
  6106  0325  2B45               	goto	l2579
  6107  0326                     u3390:
  6108  0326                     l2575:
  6109  0326  0842               	movf	___flmul@prod,w
  6110  0327  00B6               	movwf	??___flmul
  6111  0328  0843               	movf	___flmul@prod+1,w
  6112  0329  00B7               	movwf	??___flmul+1
  6113  032A  0844               	movf	___flmul@prod+2,w
  6114  032B  00B8               	movwf	??___flmul+2
  6115  032C  0845               	movf	___flmul@prod+3,w
  6116  032D  00B9               	movwf	??___flmul+3
  6117  032E  3001               	movlw	1
  6118  032F  00BA               	movwf	??___flmul+4
  6119  0330                     u3405:
  6120  0330  0D39               	rlf	??___flmul+3,w
  6121  0331  0CB9               	rrf	??___flmul+3,f
  6122  0332  0CB8               	rrf	??___flmul+2,f
  6123  0333  0CB7               	rrf	??___flmul+1,f
  6124  0334  0CB6               	rrf	??___flmul,f
  6125  0335                     u3400:
  6126  0335  0BBA               	decfsz	??___flmul+4,f
  6127  0336  2B30               	goto	u3405
  6128  0337  0839               	movf	??___flmul+3,w
  6129  0338  00C5               	movwf	___flmul@prod+3
  6130  0339  0838               	movf	??___flmul+2,w
  6131  033A  00C4               	movwf	___flmul@prod+2
  6132  033B  0837               	movf	??___flmul+1,w
  6133  033C  00C3               	movwf	___flmul@prod+1
  6134  033D  0836               	movf	??___flmul,w
  6135  033E  00C2               	movwf	___flmul@prod
  6136  033F                     l2577:
  6137  033F  3001               	movlw	1
  6138  0340  07C6               	addwf	___flmul@temp,f
  6139  0341  1803               	skipnc
  6140  0342  0AC7               	incf	___flmul@temp+1,f
  6141  0343  3000               	movlw	0
  6142  0344  07C7               	addwf	___flmul@temp+1,f
  6143  0345                     l2579:
  6144  0345  0847               	movf	___flmul@temp+1,w
  6145  0346  3A80               	xorlw	128
  6146  0347  00FF               	movwf	btemp+1
  6147  0348  3080               	movlw	128
  6148  0349  027F               	subwf	btemp+1,w
  6149  034A  1D03               	skipz
  6150  034B  2B4E               	goto	u3415
  6151  034C  30FF               	movlw	255
  6152  034D  0246               	subwf	___flmul@temp,w
  6153  034E                     u3415:
  6154  034E  1C03               	skipc
  6155  034F  2B51               	goto	u3411
  6156  0350  2B52               	goto	u3410
  6157  0351                     u3411:
  6158  0351  2B5D               	goto	l2583
  6159  0352                     u3410:
  6160  0352                     l2581:
  6161  0352  307F               	movlw	127
  6162  0353  1283               	bcf	3,5	;RP0=0, select bank0
  6163  0354  1303               	bcf	3,6	;RP1=0, select bank0
  6164  0355  00C5               	movwf	___flmul@prod+3
  6165  0356  3080               	movlw	128
  6166  0357  00C4               	movwf	___flmul@prod+2
  6167  0358  3000               	movlw	0
  6168  0359  00C3               	movwf	___flmul@prod+1
  6169  035A  3000               	movlw	0
  6170  035B  00C2               	movwf	___flmul@prod
  6171  035C  2B92               	goto	l788
  6172  035D                     l2583:
  6173  035D  1283               	bcf	3,5	;RP0=0, select bank0
  6174  035E  1303               	bcf	3,6	;RP1=0, select bank0
  6175  035F  0847               	movf	___flmul@temp+1,w
  6176  0360  3A80               	xorlw	128
  6177  0361  00FF               	movwf	btemp+1
  6178  0362  3080               	movlw	128
  6179  0363  027F               	subwf	btemp+1,w
  6180  0364  1D03               	skipz
  6181  0365  2B68               	goto	u3425
  6182  0366  3001               	movlw	1
  6183  0367  0246               	subwf	___flmul@temp,w
  6184  0368                     u3425:
  6185  0368  1803               	skipnc
  6186  0369  2B6B               	goto	u3421
  6187  036A  2B6C               	goto	u3420
  6188  036B                     u3421:
  6189  036B  2B78               	goto	l2589
  6190  036C                     u3420:
  6191  036C                     l2585:
  6192  036C  3000               	movlw	0
  6193  036D  1283               	bcf	3,5	;RP0=0, select bank0
  6194  036E  1303               	bcf	3,6	;RP1=0, select bank0
  6195  036F  00C5               	movwf	___flmul@prod+3
  6196  0370  3000               	movlw	0
  6197  0371  00C4               	movwf	___flmul@prod+2
  6198  0372  3000               	movlw	0
  6199  0373  00C3               	movwf	___flmul@prod+1
  6200  0374  3000               	movlw	0
  6201  0375  00C2               	movwf	___flmul@prod
  6202  0376                     l2587:
  6203  0376  01BB               	clrf	___flmul@sign
  6204  0377  2B92               	goto	l788
  6205  0378                     l2589:
  6206  0378  1283               	bcf	3,5	;RP0=0, select bank0
  6207  0379  1303               	bcf	3,6	;RP1=0, select bank0
  6208  037A  0846               	movf	___flmul@temp,w
  6209  037B  00B6               	movwf	??___flmul
  6210  037C  0836               	movf	??___flmul,w
  6211  037D  00C1               	movwf	___flmul@bexp
  6212  037E  30FF               	movlw	255
  6213  037F  05C2               	andwf	___flmul@prod,f
  6214  0380  30FF               	movlw	255
  6215  0381  05C3               	andwf	___flmul@prod+1,f
  6216  0382  307F               	movlw	127
  6217  0383  05C4               	andwf	___flmul@prod+2,f
  6218  0384  3000               	movlw	0
  6219  0385  05C5               	andwf	___flmul@prod+3,f
  6220  0386                     l2591:
  6221  0386  1C41               	btfss	___flmul@bexp,0
  6222  0387  2B89               	goto	u3431
  6223  0388  2B8A               	goto	u3430
  6224  0389                     u3431:
  6225  0389  2B8B               	goto	l2595
  6226  038A                     u3430:
  6227  038A                     l2593:
  6228  038A  17C4               	bsf	___flmul@prod+2,7
  6229  038B                     l2595:
  6230  038B  0841               	movf	___flmul@bexp,w
  6231  038C  00B6               	movwf	??___flmul
  6232  038D  1003               	clrc
  6233  038E  0C36               	rrf	??___flmul,w
  6234  038F  00B7               	movwf	??___flmul+1
  6235  0390  0837               	movf	??___flmul+1,w
  6236  0391  00C5               	movwf	___flmul@prod+3
  6237  0392                     l788:
  6238  0392  083B               	movf	___flmul@sign,w
  6239  0393  00B6               	movwf	??___flmul
  6240  0394  0836               	movf	??___flmul,w
  6241  0395  04C5               	iorwf	___flmul@prod+3,f
  6242  0396                     l2597:
  6243  0396  0845               	movf	___flmul@prod+3,w
  6244  0397  00B1               	movwf	?___flmul+3
  6245  0398  0844               	movf	___flmul@prod+2,w
  6246  0399  00B0               	movwf	?___flmul+2
  6247  039A  0843               	movf	___flmul@prod+1,w
  6248  039B  00AF               	movwf	?___flmul+1
  6249  039C  0842               	movf	___flmul@prod,w
  6250  039D  00AE               	movwf	?___flmul
  6251  039E                     l776:
  6252  039E  0008               	return
  6253  039F                     __end_of___flmul:
  6254                           
  6255                           	psect	text16
  6256  1219                     __ptext16:	
  6257 ;; *************** function __Umul8_16 *****************
  6258 ;; Defined at:
  6259 ;;		line 4 in file "C:\Program Files\Microchip\xc8\v2.35\pic\sources\c90\common\Umul8_16.c"
  6260 ;; Parameters:    Size  Location     Type
  6261 ;;  multiplier      1    wreg     unsigned char 
  6262 ;;  multiplicand    1    0[BANK0 ] unsigned char 
  6263 ;; Auto vars:     Size  Location     Type
  6264 ;;  multiplier      1    8[BANK0 ] unsigned char 
  6265 ;;  word_mpld       2    6[BANK0 ] unsigned int 
  6266 ;;  product         2    4[BANK0 ] unsigned int 
  6267 ;; Return value:  Size  Location     Type
  6268 ;;                  2    0[BANK0 ] unsigned int 
  6269 ;; Registers used:
  6270 ;;		wreg, status,2, status,0
  6271 ;; Tracked objects:
  6272 ;;		On entry : 0/0
  6273 ;;		On exit  : 0/0
  6274 ;;		Unchanged: 0/0
  6275 ;; Data sizes:     COMMON   BANK0   BANK1   BANK3   BANK2
  6276 ;;      Params:         0       2       0       0       0
  6277 ;;      Locals:         0       5       0       0       0
  6278 ;;      Temps:          0       2       0       0       0
  6279 ;;      Totals:         0       9       0       0       0
  6280 ;;Total ram usage:        9 bytes
  6281 ;; Hardware stack levels used: 1
  6282 ;; Hardware stack levels required when called: 2
  6283 ;; This function calls:
  6284 ;;		Nothing
  6285 ;; This function is called by:
  6286 ;;		___flmul
  6287 ;; This function uses a non-reentrant model
  6288 ;;
  6289                           
  6290  1219                     __Umul8_16:	
  6291                           ;psect for function __Umul8_16
  6292                           
  6293                           
  6294                           ;incstack = 0
  6295                           ; Regs used in __Umul8_16: [wreg+status,2+status,0]
  6296                           ;__Umul8_16@multiplier stored from wreg
  6297  1219  1283               	bcf	3,5	;RP0=0, select bank0
  6298  121A  1303               	bcf	3,6	;RP1=0, select bank0
  6299  121B  00A8               	movwf	__Umul8_16@multiplier
  6300  121C                     l2073:
  6301  121C  01A4               	clrf	__Umul8_16@product
  6302  121D  01A5               	clrf	__Umul8_16@product+1
  6303  121E                     l2075:
  6304  121E  0820               	movf	__Umul8_16@multiplicand,w
  6305  121F  00A2               	movwf	??__Umul8_16
  6306  1220  01A3               	clrf	??__Umul8_16+1
  6307  1221  0822               	movf	??__Umul8_16,w
  6308  1222  00A6               	movwf	__Umul8_16@word_mpld
  6309  1223  0823               	movf	??__Umul8_16+1,w
  6310  1224  00A7               	movwf	__Umul8_16@word_mpld+1
  6311  1225                     l2077:
  6312  1225  1C28               	btfss	__Umul8_16@multiplier,0
  6313  1226  2A28               	goto	u2191
  6314  1227  2A29               	goto	u2190
  6315  1228                     u2191:
  6316  1228  2A2F               	goto	l795
  6317  1229                     u2190:
  6318  1229                     l2079:
  6319  1229  0826               	movf	__Umul8_16@word_mpld,w
  6320  122A  07A4               	addwf	__Umul8_16@product,f
  6321  122B  1803               	skipnc
  6322  122C  0AA5               	incf	__Umul8_16@product+1,f
  6323  122D  0827               	movf	__Umul8_16@word_mpld+1,w
  6324  122E  07A5               	addwf	__Umul8_16@product+1,f
  6325  122F                     l795:
  6326  122F  3001               	movlw	1
  6327  1230                     u2205:
  6328  1230  1003               	clrc
  6329  1231  0DA6               	rlf	__Umul8_16@word_mpld,f
  6330  1232  0DA7               	rlf	__Umul8_16@word_mpld+1,f
  6331  1233  3EFF               	addlw	-1
  6332  1234  1D03               	skipz
  6333  1235  2A30               	goto	u2205
  6334  1236  1003               	clrc
  6335  1237  0CA8               	rrf	__Umul8_16@multiplier,f
  6336  1238                     l2081:
  6337  1238  0828               	movf	__Umul8_16@multiplier,w
  6338  1239  1D03               	btfss	3,2
  6339  123A  2A3C               	goto	u2211
  6340  123B  2A3D               	goto	u2210
  6341  123C                     u2211:
  6342  123C  2A25               	goto	l2077
  6343  123D                     u2210:
  6344  123D                     l2083:
  6345  123D  0825               	movf	__Umul8_16@product+1,w
  6346  123E  00A1               	movwf	?__Umul8_16+1
  6347  123F  0824               	movf	__Umul8_16@product,w
  6348  1240  00A0               	movwf	?__Umul8_16
  6349  1241                     l797:
  6350  1241  0008               	return
  6351  1242                     __end_of__Umul8_16:
  6352                           
  6353                           	psect	text17
  6354  09BC                     __ptext17:	
  6355 ;; *************** function ___fldiv *****************
  6356 ;; Defined at:
  6357 ;;		line 8 in file "C:\Program Files\Microchip\xc8\v2.35\pic\sources\c90\common\sprcdiv.c"
  6358 ;; Parameters:    Size  Location     Type
  6359 ;;  a               4   40[BANK0 ] unsigned int 
  6360 ;;  b               4   44[BANK0 ] unsigned int 
  6361 ;; Auto vars:     Size  Location     Type
  6362 ;;  grs             4   60[BANK0 ] unsigned long 
  6363 ;;  rem             4   53[BANK0 ] unsigned long 
  6364 ;;  new_exp         2   58[BANK0 ] int 
  6365 ;;  aexp            1   65[BANK0 ] unsigned char 
  6366 ;;  bexp            1   64[BANK0 ] unsigned char 
  6367 ;;  sign            1   57[BANK0 ] unsigned char 
  6368 ;; Return value:  Size  Location     Type
  6369 ;;                  4   40[BANK0 ] unsigned char 
  6370 ;; Registers used:
  6371 ;;		wreg, status,2, status,0, btemp+1
  6372 ;; Tracked objects:
  6373 ;;		On entry : 0/0
  6374 ;;		On exit  : 0/0
  6375 ;;		Unchanged: 0/0
  6376 ;; Data sizes:     COMMON   BANK0   BANK1   BANK3   BANK2
  6377 ;;      Params:         0       8       0       0       0
  6378 ;;      Locals:         0      13       0       0       0
  6379 ;;      Temps:          0       5       0       0       0
  6380 ;;      Totals:         0      26       0       0       0
  6381 ;;Total ram usage:       26 bytes
  6382 ;; Hardware stack levels used: 1
  6383 ;; Hardware stack levels required when called: 2
  6384 ;; This function calls:
  6385 ;;		Nothing
  6386 ;; This function is called by:
  6387 ;;		_CENTENA
  6388 ;; This function uses a non-reentrant model
  6389 ;;
  6390                           
  6391  09BC                     ___fldiv:	
  6392                           ;psect for function ___fldiv
  6393                           
  6394  09BC                     l2319:	
  6395                           ;incstack = 0
  6396                           ; Regs used in ___fldiv: [wreg+status,2+status,0+btemp+1]
  6397                           
  6398  09BC  1283               	bcf	3,5	;RP0=0, select bank0
  6399  09BD  1303               	bcf	3,6	;RP1=0, select bank0
  6400  09BE  084F               	movf	___fldiv@b+3,w
  6401  09BF  3980               	andlw	128
  6402  09C0  00D0               	movwf	??___fldiv
  6403  09C1  0850               	movf	??___fldiv,w
  6404  09C2  00D9               	movwf	___fldiv@sign
  6405  09C3                     l2321:
  6406  09C3  084F               	movf	___fldiv@b+3,w
  6407  09C4  00D0               	movwf	??___fldiv
  6408  09C5  0750               	addwf	??___fldiv,w
  6409  09C6  00D1               	movwf	??___fldiv+1
  6410  09C7  0851               	movf	??___fldiv+1,w
  6411  09C8  00E0               	movwf	___fldiv@bexp
  6412  09C9                     l2323:
  6413  09C9  1FCE               	btfss	___fldiv@b+2,7
  6414  09CA  29CC               	goto	u2781
  6415  09CB  29CD               	goto	u2780
  6416  09CC                     u2781:
  6417  09CC  29CE               	goto	l2327
  6418  09CD                     u2780:
  6419  09CD                     l2325:
  6420  09CD  1460               	bsf	___fldiv@bexp,0
  6421  09CE                     l2327:
  6422  09CE  0860               	movf	___fldiv@bexp,w
  6423  09CF  1903               	btfsc	3,2
  6424  09D0  29D2               	goto	u2791
  6425  09D1  29D3               	goto	u2790
  6426  09D2                     u2791:
  6427  09D2  29E3               	goto	l2337
  6428  09D3                     u2790:
  6429  09D3                     l2329:
  6430  09D3  0A60               	incf	___fldiv@bexp,w
  6431  09D4  1D03               	btfss	3,2
  6432  09D5  29D7               	goto	u2801
  6433  09D6  29D8               	goto	u2800
  6434  09D7                     u2801:
  6435  09D7  29E0               	goto	l2333
  6436  09D8                     u2800:
  6437  09D8                     l2331:
  6438  09D8  3000               	movlw	0
  6439  09D9  00CF               	movwf	___fldiv@b+3
  6440  09DA  3000               	movlw	0
  6441  09DB  00CE               	movwf	___fldiv@b+2
  6442  09DC  3000               	movlw	0
  6443  09DD  00CD               	movwf	___fldiv@b+1
  6444  09DE  3000               	movlw	0
  6445  09DF  00CC               	movwf	___fldiv@b
  6446  09E0                     l2333:
  6447  09E0  17CE               	bsf	___fldiv@b+2,7
  6448  09E1                     l2335:
  6449  09E1  01CF               	clrf	___fldiv@b+3
  6450  09E2  29EB               	goto	l2339
  6451  09E3                     l2337:
  6452  09E3  3000               	movlw	0
  6453  09E4  00CF               	movwf	___fldiv@b+3
  6454  09E5  3000               	movlw	0
  6455  09E6  00CE               	movwf	___fldiv@b+2
  6456  09E7  3000               	movlw	0
  6457  09E8  00CD               	movwf	___fldiv@b+1
  6458  09E9  3000               	movlw	0
  6459  09EA  00CC               	movwf	___fldiv@b
  6460  09EB                     l2339:
  6461  09EB  084B               	movf	___fldiv@a+3,w
  6462  09EC  3980               	andlw	128
  6463  09ED  00D0               	movwf	??___fldiv
  6464  09EE  0850               	movf	??___fldiv,w
  6465  09EF  06D9               	xorwf	___fldiv@sign,f
  6466  09F0                     l2341:
  6467  09F0  084B               	movf	___fldiv@a+3,w
  6468  09F1  00D0               	movwf	??___fldiv
  6469  09F2  0750               	addwf	??___fldiv,w
  6470  09F3  00D1               	movwf	??___fldiv+1
  6471  09F4  0851               	movf	??___fldiv+1,w
  6472  09F5  00E1               	movwf	___fldiv@aexp
  6473  09F6                     l2343:
  6474  09F6  1FCA               	btfss	___fldiv@a+2,7
  6475  09F7  29F9               	goto	u2811
  6476  09F8  29FA               	goto	u2810
  6477  09F9                     u2811:
  6478  09F9  29FB               	goto	l2347
  6479  09FA                     u2810:
  6480  09FA                     l2345:
  6481  09FA  1461               	bsf	___fldiv@aexp,0
  6482  09FB                     l2347:
  6483  09FB  0861               	movf	___fldiv@aexp,w
  6484  09FC  1903               	btfsc	3,2
  6485  09FD  29FF               	goto	u2821
  6486  09FE  2A00               	goto	u2820
  6487  09FF                     u2821:
  6488  09FF  2A10               	goto	l2357
  6489  0A00                     u2820:
  6490  0A00                     l2349:
  6491  0A00  0A61               	incf	___fldiv@aexp,w
  6492  0A01  1D03               	btfss	3,2
  6493  0A02  2A04               	goto	u2831
  6494  0A03  2A05               	goto	u2830
  6495  0A04                     u2831:
  6496  0A04  2A0D               	goto	l2353
  6497  0A05                     u2830:
  6498  0A05                     l2351:
  6499  0A05  3000               	movlw	0
  6500  0A06  00CB               	movwf	___fldiv@a+3
  6501  0A07  3000               	movlw	0
  6502  0A08  00CA               	movwf	___fldiv@a+2
  6503  0A09  3000               	movlw	0
  6504  0A0A  00C9               	movwf	___fldiv@a+1
  6505  0A0B  3000               	movlw	0
  6506  0A0C  00C8               	movwf	___fldiv@a
  6507  0A0D                     l2353:
  6508  0A0D  17CA               	bsf	___fldiv@a+2,7
  6509  0A0E                     l2355:
  6510  0A0E  01CB               	clrf	___fldiv@a+3
  6511  0A0F  2A18               	goto	l736
  6512  0A10                     l2357:
  6513  0A10  3000               	movlw	0
  6514  0A11  00CB               	movwf	___fldiv@a+3
  6515  0A12  3000               	movlw	0
  6516  0A13  00CA               	movwf	___fldiv@a+2
  6517  0A14  3000               	movlw	0
  6518  0A15  00C9               	movwf	___fldiv@a+1
  6519  0A16  3000               	movlw	0
  6520  0A17  00C8               	movwf	___fldiv@a
  6521  0A18                     l736:
  6522  0A18  084B               	movf	___fldiv@a+3,w
  6523  0A19  044A               	iorwf	___fldiv@a+2,w
  6524  0A1A  0449               	iorwf	___fldiv@a+1,w
  6525  0A1B  0448               	iorwf	___fldiv@a,w
  6526  0A1C  1D03               	skipz
  6527  0A1D  2A1F               	goto	u2841
  6528  0A1E  2A20               	goto	u2840
  6529  0A1F                     u2841:
  6530  0A1F  2A39               	goto	l2367
  6531  0A20                     u2840:
  6532  0A20                     l2359:
  6533  0A20  3000               	movlw	0
  6534  0A21  00CF               	movwf	___fldiv@b+3
  6535  0A22  3000               	movlw	0
  6536  0A23  00CE               	movwf	___fldiv@b+2
  6537  0A24  3000               	movlw	0
  6538  0A25  00CD               	movwf	___fldiv@b+1
  6539  0A26  3000               	movlw	0
  6540  0A27  00CC               	movwf	___fldiv@b
  6541  0A28  3080               	movlw	128
  6542  0A29  04CE               	iorwf	___fldiv@b+2,f
  6543  0A2A  307F               	movlw	127
  6544  0A2B  04CF               	iorwf	___fldiv@b+3,f
  6545  0A2C                     l2361:
  6546  0A2C  0859               	movf	___fldiv@sign,w
  6547  0A2D  00D0               	movwf	??___fldiv
  6548  0A2E  0850               	movf	??___fldiv,w
  6549  0A2F  04CF               	iorwf	___fldiv@b+3,f
  6550  0A30                     l2363:
  6551  0A30  084F               	movf	___fldiv@b+3,w
  6552  0A31  00CB               	movwf	?___fldiv+3
  6553  0A32  084E               	movf	___fldiv@b+2,w
  6554  0A33  00CA               	movwf	?___fldiv+2
  6555  0A34  084D               	movf	___fldiv@b+1,w
  6556  0A35  00C9               	movwf	?___fldiv+1
  6557  0A36  084C               	movf	___fldiv@b,w
  6558  0A37  00C8               	movwf	?___fldiv
  6559  0A38  2B98               	goto	l738
  6560  0A39                     l2367:
  6561  0A39  0860               	movf	___fldiv@bexp,w
  6562  0A3A  1D03               	btfss	3,2
  6563  0A3B  2A3D               	goto	u2851
  6564  0A3C  2A3E               	goto	u2850
  6565  0A3D                     u2851:
  6566  0A3D  2A47               	goto	l2373
  6567  0A3E                     u2850:
  6568  0A3E                     l2369:
  6569  0A3E  3000               	movlw	0
  6570  0A3F  00CB               	movwf	?___fldiv+3
  6571  0A40  3000               	movlw	0
  6572  0A41  00CA               	movwf	?___fldiv+2
  6573  0A42  3000               	movlw	0
  6574  0A43  00C9               	movwf	?___fldiv+1
  6575  0A44  3000               	movlw	0
  6576  0A45  00C8               	movwf	?___fldiv
  6577  0A46  2B98               	goto	l738
  6578  0A47                     l2373:
  6579  0A47  0860               	movf	___fldiv@bexp,w
  6580  0A48  00D0               	movwf	??___fldiv
  6581  0A49  01D1               	clrf	??___fldiv+1
  6582  0A4A  0851               	movf	??___fldiv+1,w
  6583  0A4B  00D3               	movwf	??___fldiv+3
  6584  0A4C  0861               	movf	___fldiv@aexp,w
  6585  0A4D  0250               	subwf	??___fldiv,w
  6586  0A4E  00D2               	movwf	??___fldiv+2
  6587  0A4F  1C03               	skipc
  6588  0A50  03D3               	decf	??___fldiv+3,f
  6589  0A51  0852               	movf	??___fldiv+2,w
  6590  0A52  3E7F               	addlw	127
  6591  0A53  00DA               	movwf	___fldiv@new_exp
  6592  0A54  0853               	movf	??___fldiv+3,w
  6593  0A55  1803               	skipnc
  6594  0A56  3E01               	addlw	1
  6595  0A57  3E00               	addlw	0
  6596  0A58  00DB               	movwf	___fldiv@new_exp+1
  6597  0A59                     l2375:
  6598  0A59  084F               	movf	___fldiv@b+3,w
  6599  0A5A  00D8               	movwf	___fldiv@rem+3
  6600  0A5B  084E               	movf	___fldiv@b+2,w
  6601  0A5C  00D7               	movwf	___fldiv@rem+2
  6602  0A5D  084D               	movf	___fldiv@b+1,w
  6603  0A5E  00D6               	movwf	___fldiv@rem+1
  6604  0A5F  084C               	movf	___fldiv@b,w
  6605  0A60  00D5               	movwf	___fldiv@rem
  6606  0A61                     l2377:
  6607  0A61  3000               	movlw	0
  6608  0A62  00CF               	movwf	___fldiv@b+3
  6609  0A63  3000               	movlw	0
  6610  0A64  00CE               	movwf	___fldiv@b+2
  6611  0A65  3000               	movlw	0
  6612  0A66  00CD               	movwf	___fldiv@b+1
  6613  0A67  3000               	movlw	0
  6614  0A68  00CC               	movwf	___fldiv@b
  6615  0A69                     l2379:
  6616  0A69  3000               	movlw	0
  6617  0A6A  00DF               	movwf	___fldiv@grs+3
  6618  0A6B  3000               	movlw	0
  6619  0A6C  00DE               	movwf	___fldiv@grs+2
  6620  0A6D  3000               	movlw	0
  6621  0A6E  00DD               	movwf	___fldiv@grs+1
  6622  0A6F  3000               	movlw	0
  6623  0A70  00DC               	movwf	___fldiv@grs
  6624  0A71                     l2381:
  6625  0A71  01E1               	clrf	___fldiv@aexp
  6626  0A72  2ABD               	goto	l2401
  6627  0A73                     l2383:
  6628  0A73  0861               	movf	___fldiv@aexp,w
  6629  0A74  1903               	btfsc	3,2
  6630  0A75  2A77               	goto	u2861
  6631  0A76  2A78               	goto	u2860
  6632  0A77                     u2861:
  6633  0A77  2A98               	goto	l2393
  6634  0A78                     u2860:
  6635  0A78                     l2385:
  6636  0A78  3001               	movlw	1
  6637  0A79  00D0               	movwf	??___fldiv
  6638  0A7A                     u2875:
  6639  0A7A  1003               	clrc
  6640  0A7B  0DD5               	rlf	___fldiv@rem,f
  6641  0A7C  0DD6               	rlf	___fldiv@rem+1,f
  6642  0A7D  0DD7               	rlf	___fldiv@rem+2,f
  6643  0A7E  0DD8               	rlf	___fldiv@rem+3,f
  6644  0A7F  0BD0               	decfsz	??___fldiv,f
  6645  0A80  2A7A               	goto	u2875
  6646  0A81  3001               	movlw	1
  6647  0A82  00D0               	movwf	??___fldiv
  6648  0A83                     u2885:
  6649  0A83  1003               	clrc
  6650  0A84  0DCC               	rlf	___fldiv@b,f
  6651  0A85  0DCD               	rlf	___fldiv@b+1,f
  6652  0A86  0DCE               	rlf	___fldiv@b+2,f
  6653  0A87  0DCF               	rlf	___fldiv@b+3,f
  6654  0A88  0BD0               	decfsz	??___fldiv,f
  6655  0A89  2A83               	goto	u2885
  6656  0A8A                     l2387:
  6657  0A8A  1FDF               	btfss	___fldiv@grs+3,7
  6658  0A8B  2A8D               	goto	u2891
  6659  0A8C  2A8E               	goto	u2890
  6660  0A8D                     u2891:
  6661  0A8D  2A8F               	goto	l2391
  6662  0A8E                     u2890:
  6663  0A8E                     l2389:
  6664  0A8E  144C               	bsf	___fldiv@b,0
  6665  0A8F                     l2391:
  6666  0A8F  3001               	movlw	1
  6667  0A90  00D0               	movwf	??___fldiv
  6668  0A91                     u2905:
  6669  0A91  1003               	clrc
  6670  0A92  0DDC               	rlf	___fldiv@grs,f
  6671  0A93  0DDD               	rlf	___fldiv@grs+1,f
  6672  0A94  0DDE               	rlf	___fldiv@grs+2,f
  6673  0A95  0DDF               	rlf	___fldiv@grs+3,f
  6674  0A96  0BD0               	decfsz	??___fldiv,f
  6675  0A97  2A91               	goto	u2905
  6676  0A98                     l2393:
  6677  0A98  084B               	movf	___fldiv@a+3,w
  6678  0A99  0258               	subwf	___fldiv@rem+3,w
  6679  0A9A  1D03               	skipz
  6680  0A9B  2AA6               	goto	u2915
  6681  0A9C  084A               	movf	___fldiv@a+2,w
  6682  0A9D  0257               	subwf	___fldiv@rem+2,w
  6683  0A9E  1D03               	skipz
  6684  0A9F  2AA6               	goto	u2915
  6685  0AA0  0849               	movf	___fldiv@a+1,w
  6686  0AA1  0256               	subwf	___fldiv@rem+1,w
  6687  0AA2  1D03               	skipz
  6688  0AA3  2AA6               	goto	u2915
  6689  0AA4  0848               	movf	___fldiv@a,w
  6690  0AA5  0255               	subwf	___fldiv@rem,w
  6691  0AA6                     u2915:
  6692  0AA6  1C03               	skipc
  6693  0AA7  2AA9               	goto	u2911
  6694  0AA8  2AAA               	goto	u2910
  6695  0AA9                     u2911:
  6696  0AA9  2AB9               	goto	l2399
  6697  0AAA                     u2910:
  6698  0AAA                     l2395:
  6699  0AAA  175F               	bsf	___fldiv@grs+3,6
  6700  0AAB                     l2397:
  6701  0AAB  0848               	movf	___fldiv@a,w
  6702  0AAC  02D5               	subwf	___fldiv@rem,f
  6703  0AAD  0849               	movf	___fldiv@a+1,w
  6704  0AAE  1C03               	skipc
  6705  0AAF  0F49               	incfsz	___fldiv@a+1,w
  6706  0AB0  02D6               	subwf	___fldiv@rem+1,f
  6707  0AB1  084A               	movf	___fldiv@a+2,w
  6708  0AB2  1C03               	skipc
  6709  0AB3  0F4A               	incfsz	___fldiv@a+2,w
  6710  0AB4  02D7               	subwf	___fldiv@rem+2,f
  6711  0AB5  084B               	movf	___fldiv@a+3,w
  6712  0AB6  1C03               	skipc
  6713  0AB7  0F4B               	incfsz	___fldiv@a+3,w
  6714  0AB8  02D8               	subwf	___fldiv@rem+3,f
  6715  0AB9                     l2399:
  6716  0AB9  3001               	movlw	1
  6717  0ABA  00D0               	movwf	??___fldiv
  6718  0ABB  0850               	movf	??___fldiv,w
  6719  0ABC  07E1               	addwf	___fldiv@aexp,f
  6720  0ABD                     l2401:
  6721  0ABD  301A               	movlw	26
  6722  0ABE  0261               	subwf	___fldiv@aexp,w
  6723  0ABF  1C03               	skipc
  6724  0AC0  2AC2               	goto	u2921
  6725  0AC1  2AC3               	goto	u2920
  6726  0AC2                     u2921:
  6727  0AC2  2A73               	goto	l2383
  6728  0AC3                     u2920:
  6729  0AC3                     l2403:
  6730  0AC3  0858               	movf	___fldiv@rem+3,w
  6731  0AC4  0457               	iorwf	___fldiv@rem+2,w
  6732  0AC5  0456               	iorwf	___fldiv@rem+1,w
  6733  0AC6  0455               	iorwf	___fldiv@rem,w
  6734  0AC7  1903               	skipnz
  6735  0AC8  2ACA               	goto	u2931
  6736  0AC9  2ACB               	goto	u2930
  6737  0ACA                     u2931:
  6738  0ACA  2AEA               	goto	l2417
  6739  0ACB                     u2930:
  6740  0ACB                     l2405:
  6741  0ACB  145C               	bsf	___fldiv@grs,0
  6742  0ACC  2AEA               	goto	l2417
  6743  0ACD                     l2407:
  6744  0ACD  3001               	movlw	1
  6745  0ACE  00D0               	movwf	??___fldiv
  6746  0ACF                     u2945:
  6747  0ACF  1003               	clrc
  6748  0AD0  0DCC               	rlf	___fldiv@b,f
  6749  0AD1  0DCD               	rlf	___fldiv@b+1,f
  6750  0AD2  0DCE               	rlf	___fldiv@b+2,f
  6751  0AD3  0DCF               	rlf	___fldiv@b+3,f
  6752  0AD4  0BD0               	decfsz	??___fldiv,f
  6753  0AD5  2ACF               	goto	u2945
  6754  0AD6                     l2409:
  6755  0AD6  1FDF               	btfss	___fldiv@grs+3,7
  6756  0AD7  2AD9               	goto	u2951
  6757  0AD8  2ADA               	goto	u2950
  6758  0AD9                     u2951:
  6759  0AD9  2ADB               	goto	l2413
  6760  0ADA                     u2950:
  6761  0ADA                     l2411:
  6762  0ADA  144C               	bsf	___fldiv@b,0
  6763  0ADB                     l2413:
  6764  0ADB  3001               	movlw	1
  6765  0ADC  00D0               	movwf	??___fldiv
  6766  0ADD                     u2965:
  6767  0ADD  1003               	clrc
  6768  0ADE  0DDC               	rlf	___fldiv@grs,f
  6769  0ADF  0DDD               	rlf	___fldiv@grs+1,f
  6770  0AE0  0DDE               	rlf	___fldiv@grs+2,f
  6771  0AE1  0DDF               	rlf	___fldiv@grs+3,f
  6772  0AE2  0BD0               	decfsz	??___fldiv,f
  6773  0AE3  2ADD               	goto	u2965
  6774  0AE4                     l2415:
  6775  0AE4  30FF               	movlw	255
  6776  0AE5  07DA               	addwf	___fldiv@new_exp,f
  6777  0AE6  1803               	skipnc
  6778  0AE7  0ADB               	incf	___fldiv@new_exp+1,f
  6779  0AE8  30FF               	movlw	255
  6780  0AE9  07DB               	addwf	___fldiv@new_exp+1,f
  6781  0AEA                     l2417:
  6782  0AEA  1FCE               	btfss	___fldiv@b+2,7
  6783  0AEB  2AED               	goto	u2971
  6784  0AEC  2AEE               	goto	u2970
  6785  0AED                     u2971:
  6786  0AED  2ACD               	goto	l2407
  6787  0AEE                     u2970:
  6788  0AEE                     l2419:
  6789  0AEE  01E1               	clrf	___fldiv@aexp
  6790  0AEF                     l2421:
  6791  0AEF  1FDF               	btfss	___fldiv@grs+3,7
  6792  0AF0  2AF2               	goto	u2981
  6793  0AF1  2AF3               	goto	u2980
  6794  0AF2                     u2981:
  6795  0AF2  2B0F               	goto	l2429
  6796  0AF3                     u2980:
  6797  0AF3                     l2423:
  6798  0AF3  30FF               	movlw	255
  6799  0AF4  055C               	andwf	___fldiv@grs,w
  6800  0AF5  00D0               	movwf	??___fldiv
  6801  0AF6  30FF               	movlw	255
  6802  0AF7  055D               	andwf	___fldiv@grs+1,w
  6803  0AF8  00D1               	movwf	??___fldiv+1
  6804  0AF9  30FF               	movlw	255
  6805  0AFA  055E               	andwf	___fldiv@grs+2,w
  6806  0AFB  00D2               	movwf	??___fldiv+2
  6807  0AFC  307F               	movlw	127
  6808  0AFD  055F               	andwf	___fldiv@grs+3,w
  6809  0AFE  00D3               	movwf	??___fldiv+3
  6810  0AFF  0853               	movf	??___fldiv+3,w
  6811  0B00  0452               	iorwf	??___fldiv+2,w
  6812  0B01  0451               	iorwf	??___fldiv+1,w
  6813  0B02  0450               	iorwf	??___fldiv,w
  6814  0B03  1903               	skipnz
  6815  0B04  2B06               	goto	u2991
  6816  0B05  2B07               	goto	u2990
  6817  0B06                     u2991:
  6818  0B06  2B0A               	goto	l752
  6819  0B07                     u2990:
  6820  0B07                     l2425:
  6821  0B07  01E1               	clrf	___fldiv@aexp
  6822  0B08  0AE1               	incf	___fldiv@aexp,f
  6823  0B09  2B0F               	goto	l2429
  6824  0B0A                     l752:
  6825  0B0A  1C4C               	btfss	___fldiv@b,0
  6826  0B0B  2B0D               	goto	u3001
  6827  0B0C  2B0E               	goto	u3000
  6828  0B0D                     u3001:
  6829  0B0D  2B0F               	goto	l2429
  6830  0B0E                     u3000:
  6831  0B0E  2B07               	goto	l2425
  6832  0B0F                     l2429:
  6833  0B0F  0861               	movf	___fldiv@aexp,w
  6834  0B10  1903               	btfsc	3,2
  6835  0B11  2B13               	goto	u3011
  6836  0B12  2B14               	goto	u3010
  6837  0B13                     u3011:
  6838  0B13  2B45               	goto	l2439
  6839  0B14                     u3010:
  6840  0B14                     l2431:
  6841  0B14  3001               	movlw	1
  6842  0B15  07CC               	addwf	___fldiv@b,f
  6843  0B16  3000               	movlw	0
  6844  0B17  1803               	skipnc
  6845  0B18  3001               	movlw	1
  6846  0B19  07CD               	addwf	___fldiv@b+1,f
  6847  0B1A  3000               	movlw	0
  6848  0B1B  1803               	skipnc
  6849  0B1C  3001               	movlw	1
  6850  0B1D  07CE               	addwf	___fldiv@b+2,f
  6851  0B1E  3000               	movlw	0
  6852  0B1F  1803               	skipnc
  6853  0B20  3001               	movlw	1
  6854  0B21  07CF               	addwf	___fldiv@b+3,f
  6855  0B22                     l2433:
  6856  0B22  1C4F               	btfss	___fldiv@b+3,0
  6857  0B23  2B25               	goto	u3021
  6858  0B24  2B26               	goto	u3020
  6859  0B25                     u3021:
  6860  0B25  2B45               	goto	l2439
  6861  0B26                     u3020:
  6862  0B26                     l2435:
  6863  0B26  084C               	movf	___fldiv@b,w
  6864  0B27  00D0               	movwf	??___fldiv
  6865  0B28  084D               	movf	___fldiv@b+1,w
  6866  0B29  00D1               	movwf	??___fldiv+1
  6867  0B2A  084E               	movf	___fldiv@b+2,w
  6868  0B2B  00D2               	movwf	??___fldiv+2
  6869  0B2C  084F               	movf	___fldiv@b+3,w
  6870  0B2D  00D3               	movwf	??___fldiv+3
  6871  0B2E  3001               	movlw	1
  6872  0B2F  00D4               	movwf	??___fldiv+4
  6873  0B30                     u3035:
  6874  0B30  0D53               	rlf	??___fldiv+3,w
  6875  0B31  0CD3               	rrf	??___fldiv+3,f
  6876  0B32  0CD2               	rrf	??___fldiv+2,f
  6877  0B33  0CD1               	rrf	??___fldiv+1,f
  6878  0B34  0CD0               	rrf	??___fldiv,f
  6879  0B35                     u3030:
  6880  0B35  0BD4               	decfsz	??___fldiv+4,f
  6881  0B36  2B30               	goto	u3035
  6882  0B37  0853               	movf	??___fldiv+3,w
  6883  0B38  00CF               	movwf	___fldiv@b+3
  6884  0B39  0852               	movf	??___fldiv+2,w
  6885  0B3A  00CE               	movwf	___fldiv@b+2
  6886  0B3B  0851               	movf	??___fldiv+1,w
  6887  0B3C  00CD               	movwf	___fldiv@b+1
  6888  0B3D  0850               	movf	??___fldiv,w
  6889  0B3E  00CC               	movwf	___fldiv@b
  6890  0B3F                     l2437:
  6891  0B3F  3001               	movlw	1
  6892  0B40  07DA               	addwf	___fldiv@new_exp,f
  6893  0B41  1803               	skipnc
  6894  0B42  0ADB               	incf	___fldiv@new_exp+1,f
  6895  0B43  3000               	movlw	0
  6896  0B44  07DB               	addwf	___fldiv@new_exp+1,f
  6897  0B45                     l2439:
  6898  0B45  085B               	movf	___fldiv@new_exp+1,w
  6899  0B46  3A80               	xorlw	128
  6900  0B47  00FF               	movwf	btemp+1
  6901  0B48  3080               	movlw	128
  6902  0B49  027F               	subwf	btemp+1,w
  6903  0B4A  1D03               	skipz
  6904  0B4B  2B4E               	goto	u3045
  6905  0B4C  30FF               	movlw	255
  6906  0B4D  025A               	subwf	___fldiv@new_exp,w
  6907  0B4E                     u3045:
  6908  0B4E  1C03               	skipc
  6909  0B4F  2B51               	goto	u3041
  6910  0B50  2B52               	goto	u3040
  6911  0B51                     u3041:
  6912  0B51  2B60               	goto	l2443
  6913  0B52                     u3040:
  6914  0B52                     l2441:
  6915  0B52  30FF               	movlw	255
  6916  0B53  1283               	bcf	3,5	;RP0=0, select bank0
  6917  0B54  1303               	bcf	3,6	;RP1=0, select bank0
  6918  0B55  00DA               	movwf	___fldiv@new_exp
  6919  0B56  3000               	movlw	0
  6920  0B57  00DB               	movwf	___fldiv@new_exp+1
  6921  0B58  3000               	movlw	0
  6922  0B59  00CF               	movwf	___fldiv@b+3
  6923  0B5A  3000               	movlw	0
  6924  0B5B  00CE               	movwf	___fldiv@b+2
  6925  0B5C  3000               	movlw	0
  6926  0B5D  00CD               	movwf	___fldiv@b+1
  6927  0B5E  3000               	movlw	0
  6928  0B5F  00CC               	movwf	___fldiv@b
  6929  0B60                     l2443:
  6930  0B60  1283               	bcf	3,5	;RP0=0, select bank0
  6931  0B61  1303               	bcf	3,6	;RP1=0, select bank0
  6932  0B62  085B               	movf	___fldiv@new_exp+1,w
  6933  0B63  3A80               	xorlw	128
  6934  0B64  00FF               	movwf	btemp+1
  6935  0B65  3080               	movlw	128
  6936  0B66  027F               	subwf	btemp+1,w
  6937  0B67  1D03               	skipz
  6938  0B68  2B6B               	goto	u3055
  6939  0B69  3001               	movlw	1
  6940  0B6A  025A               	subwf	___fldiv@new_exp,w
  6941  0B6B                     u3055:
  6942  0B6B  1803               	skipnc
  6943  0B6C  2B6E               	goto	u3051
  6944  0B6D  2B6F               	goto	u3050
  6945  0B6E                     u3051:
  6946  0B6E  2B7C               	goto	l758
  6947  0B6F                     u3050:
  6948  0B6F                     l2445:
  6949  0B6F  1283               	bcf	3,5	;RP0=0, select bank0
  6950  0B70  1303               	bcf	3,6	;RP1=0, select bank0
  6951  0B71  01DA               	clrf	___fldiv@new_exp
  6952  0B72  01DB               	clrf	___fldiv@new_exp+1
  6953  0B73                     l2447:
  6954  0B73  3000               	movlw	0
  6955  0B74  00CF               	movwf	___fldiv@b+3
  6956  0B75  3000               	movlw	0
  6957  0B76  00CE               	movwf	___fldiv@b+2
  6958  0B77  3000               	movlw	0
  6959  0B78  00CD               	movwf	___fldiv@b+1
  6960  0B79  3000               	movlw	0
  6961  0B7A  00CC               	movwf	___fldiv@b
  6962  0B7B                     l2449:
  6963  0B7B  01D9               	clrf	___fldiv@sign
  6964  0B7C                     l758:
  6965  0B7C  1283               	bcf	3,5	;RP0=0, select bank0
  6966  0B7D  1303               	bcf	3,6	;RP1=0, select bank0
  6967  0B7E  085A               	movf	___fldiv@new_exp,w
  6968  0B7F  00D0               	movwf	??___fldiv
  6969  0B80  0850               	movf	??___fldiv,w
  6970  0B81  00E0               	movwf	___fldiv@bexp
  6971  0B82                     l2451:
  6972  0B82  1C60               	btfss	___fldiv@bexp,0
  6973  0B83  2B85               	goto	u3061
  6974  0B84  2B86               	goto	u3060
  6975  0B85                     u3061:
  6976  0B85  2B88               	goto	l2455
  6977  0B86                     u3060:
  6978  0B86                     l2453:
  6979  0B86  17CE               	bsf	___fldiv@b+2,7
  6980  0B87  2B8C               	goto	l760
  6981  0B88                     l2455:
  6982  0B88  307F               	movlw	127
  6983  0B89  00D0               	movwf	??___fldiv
  6984  0B8A  0850               	movf	??___fldiv,w
  6985  0B8B  05CE               	andwf	___fldiv@b+2,f
  6986  0B8C                     l760:
  6987  0B8C  0860               	movf	___fldiv@bexp,w
  6988  0B8D  00D0               	movwf	??___fldiv
  6989  0B8E  1003               	clrc
  6990  0B8F  0C50               	rrf	??___fldiv,w
  6991  0B90  00D1               	movwf	??___fldiv+1
  6992  0B91  0851               	movf	??___fldiv+1,w
  6993  0B92  00CF               	movwf	___fldiv@b+3
  6994  0B93  0859               	movf	___fldiv@sign,w
  6995  0B94  00D0               	movwf	??___fldiv
  6996  0B95  0850               	movf	??___fldiv,w
  6997  0B96  04CF               	iorwf	___fldiv@b+3,f
  6998  0B97  2A30               	goto	l2363
  6999  0B98                     l738:
  7000  0B98  0008               	return
  7001  0B99                     __end_of___fldiv:
  7002                           
  7003                           	psect	text18
  7004  1307                     __ptext18:	
  7005 ;; *************** function _RTC_WRITE *****************
  7006 ;; Defined at:
  7007 ;;		line 280 in file "MAIN_M.c"
  7008 ;; Parameters:    Size  Location     Type
  7009 ;;  I2C             2    2[BANK0 ] unsigned int 
  7010 ;;  d               2    4[BANK0 ] unsigned int 
  7011 ;;  parametro       1    6[BANK0 ] unsigned char 
  7012 ;; Auto vars:     Size  Location     Type
  7013 ;;		None
  7014 ;; Return value:  Size  Location     Type
  7015 ;;                  1    wreg      void 
  7016 ;; Registers used:
  7017 ;;		wreg, status,2, status,0, pclath, cstack
  7018 ;; Tracked objects:
  7019 ;;		On entry : 0/0
  7020 ;;		On exit  : 0/0
  7021 ;;		Unchanged: 0/0
  7022 ;; Data sizes:     COMMON   BANK0   BANK1   BANK3   BANK2
  7023 ;;      Params:         0       5       0       0       0
  7024 ;;      Locals:         0       0       0       0       0
  7025 ;;      Temps:          0       2       0       0       0
  7026 ;;      Totals:         0       7       0       0       0
  7027 ;;Total ram usage:        7 bytes
  7028 ;; Hardware stack levels used: 1
  7029 ;; Hardware stack levels required when called: 4
  7030 ;; This function calls:
  7031 ;;		_I2C_Master_Start
  7032 ;;		_I2C_Master_Stop
  7033 ;;		_I2C_Master_Write
  7034 ;; This function is called by:
  7035 ;;		_main
  7036 ;; This function uses a non-reentrant model
  7037 ;;
  7038                           
  7039  1307                     _RTC_WRITE:	
  7040                           ;psect for function _RTC_WRITE
  7041                           
  7042  1307                     l3339:	
  7043                           ;incstack = 0
  7044                           ; Regs used in _RTC_WRITE: [wreg+status,2+status,0+pclath+cstack]
  7045                           
  7046                           
  7047                           ;MAIN_M.c: 282:     I2C_Master_Start();
  7048  1307  160A  118A  20FD  160A  118A  	fcall	_I2C_Master_Start
  7049                           
  7050                           ;MAIN_M.c: 283:     I2C_Master_Write(I2C);
  7051  130C  1283               	bcf	3,5	;RP0=0, select bank0
  7052  130D  1303               	bcf	3,6	;RP1=0, select bank0
  7053  130E  0823               	movf	RTC_WRITE@I2C+1,w
  7054  130F  00A1               	movwf	I2C_Master_Write@d+1
  7055  1310  0822               	movf	RTC_WRITE@I2C,w
  7056  1311  00A0               	movwf	I2C_Master_Write@d
  7057  1312  160A  118A  2118  160A  118A  	fcall	_I2C_Master_Write
  7058                           
  7059                           ;MAIN_M.c: 284:     I2C_Master_Write(d);
  7060  1317  1283               	bcf	3,5	;RP0=0, select bank0
  7061  1318  1303               	bcf	3,6	;RP1=0, select bank0
  7062  1319  0825               	movf	RTC_WRITE@d+1,w
  7063  131A  00A1               	movwf	I2C_Master_Write@d+1
  7064  131B  0824               	movf	RTC_WRITE@d,w
  7065  131C  00A0               	movwf	I2C_Master_Write@d
  7066  131D  160A  118A  2118  160A  118A  	fcall	_I2C_Master_Write
  7067                           
  7068                           ;MAIN_M.c: 285:     I2C_Master_Write(parametro);
  7069  1322  1283               	bcf	3,5	;RP0=0, select bank0
  7070  1323  1303               	bcf	3,6	;RP1=0, select bank0
  7071  1324  0826               	movf	RTC_WRITE@parametro,w
  7072  1325  00A7               	movwf	??_RTC_WRITE
  7073  1326  01A8               	clrf	??_RTC_WRITE+1
  7074  1327  0827               	movf	??_RTC_WRITE,w
  7075  1328  00A0               	movwf	I2C_Master_Write@d
  7076  1329  0828               	movf	??_RTC_WRITE+1,w
  7077  132A  00A1               	movwf	I2C_Master_Write@d+1
  7078  132B  160A  118A  2118  160A  118A  	fcall	_I2C_Master_Write
  7079                           
  7080                           ;MAIN_M.c: 286:     I2C_Master_Stop();
  7081  1330  160A  118A  2106  160A  118A  	fcall	_I2C_Master_Stop
  7082  1335                     l3341:
  7083                           
  7084                           ;MAIN_M.c: 287:     _delay((unsigned long)((20)*(8000000/4000.0)));
  7085  1335  3034               	movlw	52
  7086  1336  1283               	bcf	3,5	;RP0=0, select bank0
  7087  1337  1303               	bcf	3,6	;RP1=0, select bank0
  7088  1338  00A8               	movwf	??_RTC_WRITE+1
  7089  1339  30F1               	movlw	241
  7090  133A  00A7               	movwf	??_RTC_WRITE
  7091  133B                     u4387:
  7092  133B  0BA7               	decfsz	??_RTC_WRITE,f
  7093  133C  2B3B               	goto	u4387
  7094  133D  0BA8               	decfsz	??_RTC_WRITE+1,f
  7095  133E  2B3B               	goto	u4387
  7096  133F                     l159:
  7097  133F  0008               	return
  7098  1340                     __end_of_RTC_WRITE:
  7099                           
  7100                           	psect	text19
  7101  15DE                     __ptext19:	
  7102 ;; *************** function _RTC_READ *****************
  7103 ;; Defined at:
  7104 ;;		line 244 in file "MAIN_M.c"
  7105 ;; Parameters:    Size  Location     Type
  7106 ;;  I2C             2    6[BANK0 ] unsigned int 
  7107 ;;  d               2    8[BANK0 ] unsigned int 
  7108 ;; Auto vars:     Size  Location     Type
  7109 ;;  RTC             2   12[BANK0 ] unsigned short 
  7110 ;; Return value:  Size  Location     Type
  7111 ;;                  2    6[BANK0 ] unsigned short 
  7112 ;; Registers used:
  7113 ;;		wreg, status,2, status,0, pclath, cstack
  7114 ;; Tracked objects:
  7115 ;;		On entry : 0/0
  7116 ;;		On exit  : 0/0
  7117 ;;		Unchanged: 0/0
  7118 ;; Data sizes:     COMMON   BANK0   BANK1   BANK3   BANK2
  7119 ;;      Params:         0       4       0       0       0
  7120 ;;      Locals:         0       2       0       0       0
  7121 ;;      Temps:          0       2       0       0       0
  7122 ;;      Totals:         0       8       0       0       0
  7123 ;;Total ram usage:        8 bytes
  7124 ;; Hardware stack levels used: 1
  7125 ;; Hardware stack levels required when called: 4
  7126 ;; This function calls:
  7127 ;;		_I2C_Master_Read
  7128 ;;		_I2C_Master_Start
  7129 ;;		_I2C_Master_Stop
  7130 ;;		_I2C_Master_Write
  7131 ;; This function is called by:
  7132 ;;		_main
  7133 ;; This function uses a non-reentrant model
  7134 ;;
  7135                           
  7136  15DE                     _RTC_READ:	
  7137                           ;psect for function _RTC_READ
  7138                           
  7139  15DE                     l3343:	
  7140                           ;incstack = 0
  7141                           ; Regs used in _RTC_READ: [wreg+status,2+status,0+pclath+cstack]
  7142                           
  7143                           
  7144                           ;MAIN_M.c: 245:     unsigned short RTC;;MAIN_M.c: 247:     I2C_Master_Start();
  7145  15DE  160A  118A  20FD  160A  118A  	fcall	_I2C_Master_Start
  7146                           
  7147                           ;MAIN_M.c: 248:     I2C_Master_Write(I2C);
  7148  15E3  1283               	bcf	3,5	;RP0=0, select bank0
  7149  15E4  1303               	bcf	3,6	;RP1=0, select bank0
  7150  15E5  0827               	movf	RTC_READ@I2C+1,w
  7151  15E6  00A1               	movwf	I2C_Master_Write@d+1
  7152  15E7  0826               	movf	RTC_READ@I2C,w
  7153  15E8  00A0               	movwf	I2C_Master_Write@d
  7154  15E9  160A  118A  2118  160A  118A  	fcall	_I2C_Master_Write
  7155                           
  7156                           ;MAIN_M.c: 249:     I2C_Master_Write(d);
  7157  15EE  1283               	bcf	3,5	;RP0=0, select bank0
  7158  15EF  1303               	bcf	3,6	;RP1=0, select bank0
  7159  15F0  0829               	movf	RTC_READ@d+1,w
  7160  15F1  00A1               	movwf	I2C_Master_Write@d+1
  7161  15F2  0828               	movf	RTC_READ@d,w
  7162  15F3  00A0               	movwf	I2C_Master_Write@d
  7163  15F4  160A  118A  2118  160A  118A  	fcall	_I2C_Master_Write
  7164                           
  7165                           ;MAIN_M.c: 250:     I2C_Master_Stop();
  7166  15F9  160A  118A  2106  160A  118A  	fcall	_I2C_Master_Stop
  7167  15FE                     l3345:
  7168                           
  7169                           ;MAIN_M.c: 251:     _delay((unsigned long)((10)*(8000000/4000.0)));
  7170  15FE  301A               	movlw	26
  7171  15FF  1283               	bcf	3,5	;RP0=0, select bank0
  7172  1600  1303               	bcf	3,6	;RP1=0, select bank0
  7173  1601  00AB               	movwf	??_RTC_READ+1
  7174  1602  30F7               	movlw	247
  7175  1603  00AA               	movwf	??_RTC_READ
  7176  1604                     u4397:
  7177  1604  0BAA               	decfsz	??_RTC_READ,f
  7178  1605  2E04               	goto	u4397
  7179  1606  0BAB               	decfsz	??_RTC_READ+1,f
  7180  1607  2E04               	goto	u4397
  7181  1608  2E09               	nop2
  7182  1609                     l3347:
  7183                           
  7184                           ;MAIN_M.c: 253:     I2C_Master_Start();
  7185  1609  160A  118A  20FD  160A  118A  	fcall	_I2C_Master_Start
  7186  160E                     l3349:
  7187                           
  7188                           ;MAIN_M.c: 254:     I2C_Master_Write(I2C + 0x01);
  7189  160E  1283               	bcf	3,5	;RP0=0, select bank0
  7190  160F  1303               	bcf	3,6	;RP1=0, select bank0
  7191  1610  0826               	movf	RTC_READ@I2C,w
  7192  1611  3E01               	addlw	1
  7193  1612  00A0               	movwf	I2C_Master_Write@d
  7194  1613  0827               	movf	RTC_READ@I2C+1,w
  7195  1614  1803               	skipnc
  7196  1615  3E01               	addlw	1
  7197  1616  3E00               	addlw	0
  7198  1617  00A1               	movwf	I2C_Master_Write@d+1
  7199  1618  160A  118A  2118  160A  118A  	fcall	_I2C_Master_Write
  7200  161D                     l3351:
  7201                           
  7202                           ;MAIN_M.c: 255:     RTC = I2C_Master_Read(0);
  7203  161D  3000               	movlw	0
  7204  161E  1283               	bcf	3,5	;RP0=0, select bank0
  7205  161F  1303               	bcf	3,6	;RP1=0, select bank0
  7206  1620  00A0               	movwf	I2C_Master_Read@a
  7207  1621  00A1               	movwf	I2C_Master_Read@a+1
  7208  1622  160A  118A  22A0  160A  118A  	fcall	_I2C_Master_Read
  7209  1627  1283               	bcf	3,5	;RP0=0, select bank0
  7210  1628  1303               	bcf	3,6	;RP1=0, select bank0
  7211  1629  0821               	movf	?_I2C_Master_Read+1,w
  7212  162A  00AD               	movwf	RTC_READ@RTC+1
  7213  162B  0820               	movf	?_I2C_Master_Read,w
  7214  162C  00AC               	movwf	RTC_READ@RTC
  7215  162D                     l3353:
  7216                           
  7217                           ;MAIN_M.c: 256:     I2C_Master_Stop();
  7218  162D  160A  118A  2106  160A  118A  	fcall	_I2C_Master_Stop
  7219  1632                     l3355:
  7220                           
  7221                           ;MAIN_M.c: 257:     _delay((unsigned long)((10)*(8000000/4000.0)));
  7222  1632  301A               	movlw	26
  7223  1633  1283               	bcf	3,5	;RP0=0, select bank0
  7224  1634  1303               	bcf	3,6	;RP1=0, select bank0
  7225  1635  00AB               	movwf	??_RTC_READ+1
  7226  1636  30F7               	movlw	247
  7227  1637  00AA               	movwf	??_RTC_READ
  7228  1638                     u4407:
  7229  1638  0BAA               	decfsz	??_RTC_READ,f
  7230  1639  2E38               	goto	u4407
  7231  163A  0BAB               	decfsz	??_RTC_READ+1,f
  7232  163B  2E38               	goto	u4407
  7233  163C  2E3D               	nop2
  7234  163D                     l3357:
  7235                           
  7236                           ;MAIN_M.c: 259:     return RTC;
  7237  163D  1283               	bcf	3,5	;RP0=0, select bank0
  7238  163E  1303               	bcf	3,6	;RP1=0, select bank0
  7239  163F  082D               	movf	RTC_READ@RTC+1,w
  7240  1640  00A7               	movwf	?_RTC_READ+1
  7241  1641  082C               	movf	RTC_READ@RTC,w
  7242  1642  00A6               	movwf	?_RTC_READ
  7243  1643                     l142:
  7244  1643  0008               	return
  7245  1644                     __end_of_RTC_READ:
  7246                           
  7247                           	psect	text20
  7248  1118                     __ptext20:	
  7249 ;; *************** function _I2C_Master_Write *****************
  7250 ;; Defined at:
  7251 ;;		line 52 in file "I2CM.c"
  7252 ;; Parameters:    Size  Location     Type
  7253 ;;  d               2    0[BANK0 ] unsigned int 
  7254 ;; Auto vars:     Size  Location     Type
  7255 ;;		None
  7256 ;; Return value:  Size  Location     Type
  7257 ;;                  1    wreg      void 
  7258 ;; Registers used:
  7259 ;;		wreg, status,2, status,0, pclath, cstack
  7260 ;; Tracked objects:
  7261 ;;		On entry : 0/0
  7262 ;;		On exit  : 0/0
  7263 ;;		Unchanged: 0/0
  7264 ;; Data sizes:     COMMON   BANK0   BANK1   BANK3   BANK2
  7265 ;;      Params:         0       2       0       0       0
  7266 ;;      Locals:         0       0       0       0       0
  7267 ;;      Temps:          0       0       0       0       0
  7268 ;;      Totals:         0       2       0       0       0
  7269 ;;Total ram usage:        2 bytes
  7270 ;; Hardware stack levels used: 1
  7271 ;; Hardware stack levels required when called: 3
  7272 ;; This function calls:
  7273 ;;		_I2C_Master_Wait
  7274 ;; This function is called by:
  7275 ;;		_main
  7276 ;;		_RTC_READ
  7277 ;;		_RTC_WRITE
  7278 ;; This function uses a non-reentrant model
  7279 ;;
  7280                           
  7281  1118                     _I2C_Master_Write:	
  7282                           ;psect for function _I2C_Master_Write
  7283                           
  7284  1118                     l3213:	
  7285                           ;incstack = 0
  7286                           ; Regs used in _I2C_Master_Write: [wreg+status,2+status,0+pclath+cstack]
  7287                           
  7288                           
  7289                           ;I2CM.c: 52: void I2C_Master_Write(unsigned d);I2CM.c: 53: {;I2CM.c: 54:     I2C_Master_
      +                          Wait();
  7290  1118  160A  118A  213A  160A  118A  	fcall	_I2C_Master_Wait
  7291  111D                     l3215:
  7292                           
  7293                           ;I2CM.c: 55:     SSPBUF = d;
  7294  111D  1283               	bcf	3,5	;RP0=0, select bank0
  7295  111E  1303               	bcf	3,6	;RP1=0, select bank0
  7296  111F  0820               	movf	I2C_Master_Write@d,w
  7297  1120  0093               	movwf	19	;volatile
  7298  1121                     l293:
  7299  1121  0008               	return
  7300  1122                     __end_of_I2C_Master_Write:
  7301                           
  7302                           	psect	text21
  7303  1106                     __ptext21:	
  7304 ;; *************** function _I2C_Master_Stop *****************
  7305 ;; Defined at:
  7306 ;;		line 43 in file "I2CM.c"
  7307 ;; Parameters:    Size  Location     Type
  7308 ;;		None
  7309 ;; Auto vars:     Size  Location     Type
  7310 ;;		None
  7311 ;; Return value:  Size  Location     Type
  7312 ;;                  1    wreg      void 
  7313 ;; Registers used:
  7314 ;;		wreg, status,2, status,0, pclath, cstack
  7315 ;; Tracked objects:
  7316 ;;		On entry : 0/0
  7317 ;;		On exit  : 0/0
  7318 ;;		Unchanged: 0/0
  7319 ;; Data sizes:     COMMON   BANK0   BANK1   BANK3   BANK2
  7320 ;;      Params:         0       0       0       0       0
  7321 ;;      Locals:         0       0       0       0       0
  7322 ;;      Temps:          0       0       0       0       0
  7323 ;;      Totals:         0       0       0       0       0
  7324 ;;Total ram usage:        0 bytes
  7325 ;; Hardware stack levels used: 1
  7326 ;; Hardware stack levels required when called: 3
  7327 ;; This function calls:
  7328 ;;		_I2C_Master_Wait
  7329 ;; This function is called by:
  7330 ;;		_main
  7331 ;;		_RTC_READ
  7332 ;;		_RTC_WRITE
  7333 ;; This function uses a non-reentrant model
  7334 ;;
  7335                           
  7336  1106                     _I2C_Master_Stop:	
  7337                           ;psect for function _I2C_Master_Stop
  7338                           
  7339  1106                     l3233:	
  7340                           ;incstack = 0
  7341                           ; Regs used in _I2C_Master_Stop: [wreg+status,2+status,0+pclath+cstack]
  7342                           
  7343                           
  7344                           ;I2CM.c: 45:     I2C_Master_Wait();
  7345  1106  160A  118A  213A  160A  118A  	fcall	_I2C_Master_Wait
  7346  110B                     l3235:
  7347                           
  7348                           ;I2CM.c: 46:     SSPCON2bits.PEN = 1;
  7349  110B  1683               	bsf	3,5	;RP0=1, select bank1
  7350  110C  1303               	bcf	3,6	;RP1=0, select bank1
  7351  110D  1511               	bsf	17,2	;volatile
  7352  110E                     l290:
  7353  110E  0008               	return
  7354  110F                     __end_of_I2C_Master_Stop:
  7355                           
  7356                           	psect	text22
  7357  10FD                     __ptext22:	
  7358 ;; *************** function _I2C_Master_Start *****************
  7359 ;; Defined at:
  7360 ;;		line 29 in file "I2CM.c"
  7361 ;; Parameters:    Size  Location     Type
  7362 ;;		None
  7363 ;; Auto vars:     Size  Location     Type
  7364 ;;		None
  7365 ;; Return value:  Size  Location     Type
  7366 ;;                  1    wreg      void 
  7367 ;; Registers used:
  7368 ;;		wreg, status,2, status,0, pclath, cstack
  7369 ;; Tracked objects:
  7370 ;;		On entry : 0/0
  7371 ;;		On exit  : 0/0
  7372 ;;		Unchanged: 0/0
  7373 ;; Data sizes:     COMMON   BANK0   BANK1   BANK3   BANK2
  7374 ;;      Params:         0       0       0       0       0
  7375 ;;      Locals:         0       0       0       0       0
  7376 ;;      Temps:          0       0       0       0       0
  7377 ;;      Totals:         0       0       0       0       0
  7378 ;;Total ram usage:        0 bytes
  7379 ;; Hardware stack levels used: 1
  7380 ;; Hardware stack levels required when called: 3
  7381 ;; This function calls:
  7382 ;;		_I2C_Master_Wait
  7383 ;; This function is called by:
  7384 ;;		_main
  7385 ;;		_RTC_READ
  7386 ;;		_RTC_WRITE
  7387 ;; This function uses a non-reentrant model
  7388 ;;
  7389                           
  7390  10FD                     _I2C_Master_Start:	
  7391                           ;psect for function _I2C_Master_Start
  7392                           
  7393  10FD                     l3209:	
  7394                           ;incstack = 0
  7395                           ; Regs used in _I2C_Master_Start: [wreg+status,2+status,0+pclath+cstack]
  7396                           
  7397                           
  7398                           ;I2CM.c: 31:     I2C_Master_Wait();
  7399  10FD  160A  118A  213A  160A  118A  	fcall	_I2C_Master_Wait
  7400  1102                     l3211:
  7401                           
  7402                           ;I2CM.c: 32:     SSPCON2bits.SEN = 1;
  7403  1102  1683               	bsf	3,5	;RP0=1, select bank1
  7404  1103  1303               	bcf	3,6	;RP1=0, select bank1
  7405  1104  1411               	bsf	17,0	;volatile
  7406  1105                     l284:
  7407  1105  0008               	return
  7408  1106                     __end_of_I2C_Master_Start:
  7409                           
  7410                           	psect	text23
  7411  12A0                     __ptext23:	
  7412 ;; *************** function _I2C_Master_Read *****************
  7413 ;; Defined at:
  7414 ;;		line 60 in file "I2CM.c"
  7415 ;; Parameters:    Size  Location     Type
  7416 ;;  a               2    0[BANK0 ] unsigned short 
  7417 ;; Auto vars:     Size  Location     Type
  7418 ;;  temp            2    4[BANK0 ] unsigned short 
  7419 ;; Return value:  Size  Location     Type
  7420 ;;                  2    0[BANK0 ] unsigned short 
  7421 ;; Registers used:
  7422 ;;		wreg, status,2, status,0, pclath, cstack
  7423 ;; Tracked objects:
  7424 ;;		On entry : 0/0
  7425 ;;		On exit  : 0/0
  7426 ;;		Unchanged: 0/0
  7427 ;; Data sizes:     COMMON   BANK0   BANK1   BANK3   BANK2
  7428 ;;      Params:         0       2       0       0       0
  7429 ;;      Locals:         0       2       0       0       0
  7430 ;;      Temps:          0       2       0       0       0
  7431 ;;      Totals:         0       6       0       0       0
  7432 ;;Total ram usage:        6 bytes
  7433 ;; Hardware stack levels used: 1
  7434 ;; Hardware stack levels required when called: 3
  7435 ;; This function calls:
  7436 ;;		_I2C_Master_Wait
  7437 ;; This function is called by:
  7438 ;;		_main
  7439 ;;		_RTC_READ
  7440 ;; This function uses a non-reentrant model
  7441 ;;
  7442                           
  7443  12A0                     _I2C_Master_Read:	
  7444                           ;psect for function _I2C_Master_Read
  7445                           
  7446  12A0                     l3217:	
  7447                           ;incstack = 0
  7448                           ; Regs used in _I2C_Master_Read: [wreg+status,2+status,0+pclath+cstack]
  7449                           
  7450                           
  7451                           ;I2CM.c: 60: unsigned short I2C_Master_Read(unsigned short a);I2CM.c: 61: {;I2CM.c: 62: 
      +                              unsigned short temp;;I2CM.c: 63:     I2C_Master_Wait();
  7452  12A0  160A  118A  213A  160A  118A  	fcall	_I2C_Master_Wait
  7453  12A5                     l3219:
  7454                           
  7455                           ;I2CM.c: 64:     SSPCON2bits.RCEN = 1;
  7456  12A5  1683               	bsf	3,5	;RP0=1, select bank1
  7457  12A6  1303               	bcf	3,6	;RP1=0, select bank1
  7458  12A7  1591               	bsf	17,3	;volatile
  7459                           
  7460                           ;I2CM.c: 65:     I2C_Master_Wait();
  7461  12A8  160A  118A  213A  160A  118A  	fcall	_I2C_Master_Wait
  7462  12AD                     l3221:
  7463                           
  7464                           ;I2CM.c: 66:     temp = SSPBUF;
  7465  12AD  1283               	bcf	3,5	;RP0=0, select bank0
  7466  12AE  1303               	bcf	3,6	;RP1=0, select bank0
  7467  12AF  0813               	movf	19,w	;volatile
  7468  12B0  00A2               	movwf	??_I2C_Master_Read
  7469  12B1  01A3               	clrf	??_I2C_Master_Read+1
  7470  12B2  0822               	movf	??_I2C_Master_Read,w
  7471  12B3  00A4               	movwf	I2C_Master_Read@temp
  7472  12B4  0823               	movf	??_I2C_Master_Read+1,w
  7473  12B5  00A5               	movwf	I2C_Master_Read@temp+1
  7474  12B6                     l3223:
  7475                           
  7476                           ;I2CM.c: 67:     I2C_Master_Wait();
  7477  12B6  160A  118A  213A  160A  118A  	fcall	_I2C_Master_Wait
  7478  12BB                     l3225:
  7479                           
  7480                           ;I2CM.c: 68:     if(a == 1){
  7481  12BB  1283               	bcf	3,5	;RP0=0, select bank0
  7482  12BC  1303               	bcf	3,6	;RP1=0, select bank0
  7483  12BD  0320               	decf	I2C_Master_Read@a,w
  7484  12BE  0421               	iorwf	I2C_Master_Read@a+1,w
  7485  12BF  1D03               	btfss	3,2
  7486  12C0  2AC2               	goto	u4221
  7487  12C1  2AC3               	goto	u4220
  7488  12C2                     u4221:
  7489  12C2  2AC7               	goto	l296
  7490  12C3                     u4220:
  7491  12C3                     l3227:
  7492                           
  7493                           ;I2CM.c: 69:         SSPCON2bits.ACKDT = 0;
  7494  12C3  1683               	bsf	3,5	;RP0=1, select bank1
  7495  12C4  1303               	bcf	3,6	;RP1=0, select bank1
  7496  12C5  1291               	bcf	17,5	;volatile
  7497                           
  7498                           ;I2CM.c: 70:     }else{
  7499  12C6  2ACA               	goto	l297
  7500  12C7                     l296:
  7501                           
  7502                           ;I2CM.c: 71:         SSPCON2bits.ACKDT = 1;
  7503  12C7  1683               	bsf	3,5	;RP0=1, select bank1
  7504  12C8  1303               	bcf	3,6	;RP1=0, select bank1
  7505  12C9  1691               	bsf	17,5	;volatile
  7506  12CA                     l297:	
  7507                           ;I2CM.c: 72:     }
  7508                           
  7509                           
  7510                           ;I2CM.c: 73:     SSPCON2bits.ACKEN = 1;
  7511  12CA  1611               	bsf	17,4	;volatile
  7512  12CB                     l3229:
  7513                           
  7514                           ;I2CM.c: 74:     return temp;
  7515  12CB  1283               	bcf	3,5	;RP0=0, select bank0
  7516  12CC  1303               	bcf	3,6	;RP1=0, select bank0
  7517  12CD  0825               	movf	I2C_Master_Read@temp+1,w
  7518  12CE  00A1               	movwf	?_I2C_Master_Read+1
  7519  12CF  0824               	movf	I2C_Master_Read@temp,w
  7520  12D0  00A0               	movwf	?_I2C_Master_Read
  7521  12D1                     l298:
  7522  12D1  0008               	return
  7523  12D2                     __end_of_I2C_Master_Read:
  7524                           
  7525                           	psect	text24
  7526  113A                     __ptext24:	
  7527 ;; *************** function _I2C_Master_Wait *****************
  7528 ;; Defined at:
  7529 ;;		line 23 in file "I2CM.c"
  7530 ;; Parameters:    Size  Location     Type
  7531 ;;		None
  7532 ;; Auto vars:     Size  Location     Type
  7533 ;;		None
  7534 ;; Return value:  Size  Location     Type
  7535 ;;                  1    wreg      void 
  7536 ;; Registers used:
  7537 ;;		wreg, status,2
  7538 ;; Tracked objects:
  7539 ;;		On entry : 0/0
  7540 ;;		On exit  : 0/0
  7541 ;;		Unchanged: 0/0
  7542 ;; Data sizes:     COMMON   BANK0   BANK1   BANK3   BANK2
  7543 ;;      Params:         0       0       0       0       0
  7544 ;;      Locals:         0       0       0       0       0
  7545 ;;      Temps:          0       0       0       0       0
  7546 ;;      Totals:         0       0       0       0       0
  7547 ;;Total ram usage:        0 bytes
  7548 ;; Hardware stack levels used: 1
  7549 ;; Hardware stack levels required when called: 2
  7550 ;; This function calls:
  7551 ;;		Nothing
  7552 ;; This function is called by:
  7553 ;;		_I2C_Master_Start
  7554 ;;		_I2C_Master_Stop
  7555 ;;		_I2C_Master_Write
  7556 ;;		_I2C_Master_Read
  7557 ;;		_I2C_Master_RepeatedStart
  7558 ;; This function uses a non-reentrant model
  7559 ;;
  7560                           
  7561  113A                     _I2C_Master_Wait:	
  7562                           ;psect for function _I2C_Master_Wait
  7563                           
  7564  113A                     l3185:	
  7565                           ;incstack = 0
  7566                           ; Regs used in _I2C_Master_Wait: [wreg+status,2]
  7567                           
  7568  113A                     l278:	
  7569                           ;I2CM.c: 25:     while ((SSPSTAT & 0x04) || (SSPCON2 & 0x1F));
  7570                           
  7571  113A  1683               	bsf	3,5	;RP0=1, select bank1
  7572  113B  1303               	bcf	3,6	;RP1=0, select bank1
  7573  113C  1914               	btfsc	20,2	;volatile
  7574  113D  293F               	goto	u4161
  7575  113E  2940               	goto	u4160
  7576  113F                     u4161:
  7577  113F  293A               	goto	l278
  7578  1140                     u4160:
  7579  1140                     l3187:
  7580  1140  0811               	movf	17,w	;volatile
  7581  1141  391F               	andlw	31
  7582  1142  1D03               	btfss	3,2
  7583  1143  2945               	goto	u4171
  7584  1144  2946               	goto	u4170
  7585  1145                     u4171:
  7586  1145  293A               	goto	l278
  7587  1146                     u4170:
  7588  1146                     l281:
  7589  1146  0008               	return
  7590  1147                     __end_of_I2C_Master_Wait:
  7591                           
  7592                           	psect	text25
  7593  0B99                     __ptext25:	
  7594 ;; *************** function _RTC_PRINT *****************
  7595 ;; Defined at:
  7596 ;;		line 210 in file "MAIN_M.c"
  7597 ;; Parameters:    Size  Location     Type
  7598 ;;		None
  7599 ;; Auto vars:     Size  Location     Type
  7600 ;;  year1           1   34[BANK1 ] unsigned char 
  7601 ;;  mes1            1   33[BANK1 ] unsigned char 
  7602 ;;  dia1            1   32[BANK1 ] unsigned char 
  7603 ;;  hora1           1   31[BANK1 ] unsigned char 
  7604 ;;  min1            1   30[BANK1 ] unsigned char 
  7605 ;;  seg1            1   29[BANK1 ] unsigned char 
  7606 ;; Return value:  Size  Location     Type
  7607 ;;                  1    wreg      void 
  7608 ;; Registers used:
  7609 ;;		wreg, fsr0l, fsr0h, status,2, status,0, btemp+1, pclath, cstack
  7610 ;; Tracked objects:
  7611 ;;		On entry : 0/0
  7612 ;;		On exit  : 0/0
  7613 ;;		Unchanged: 0/0
  7614 ;; Data sizes:     COMMON   BANK0   BANK1   BANK3   BANK2
  7615 ;;      Params:         0       0       0       0       0
  7616 ;;      Locals:         0       0       6       0       0
  7617 ;;      Temps:          0       0       3       0       0
  7618 ;;      Totals:         0       0       9       0       0
  7619 ;;Total ram usage:        9 bytes
  7620 ;; Hardware stack levels used: 1
  7621 ;; Hardware stack levels required when called: 5
  7622 ;; This function calls:
  7623 ;;		_BCD_DECIMAL
  7624 ;;		_LCD_STRING
  7625 ;;		_LCD_XY
  7626 ;;		___awdiv
  7627 ;;		___awmod
  7628 ;; This function is called by:
  7629 ;;		_main
  7630 ;; This function uses a non-reentrant model
  7631 ;;
  7632                           
  7633  0B99                     _RTC_PRINT:	
  7634                           ;psect for function _RTC_PRINT
  7635                           
  7636  0B99                     l3369:	
  7637                           ;incstack = 0
  7638                           ; Regs used in _RTC_PRINT: [wreg-fsr0h+status,2+status,0+btemp+1+pclath+cstack]
  7639                           
  7640                           
  7641                           ;MAIN_M.c: 212:     uint8_t seg1,min1,hora1;;MAIN_M.c: 213:     uint8_t dia1,mes1,year1;
      +                          ;MAIN_M.c: 215:     seg1 = BCD_DECIMAL(seg);
  7642  0B99  1683               	bsf	3,5	;RP0=1, select bank1
  7643  0B9A  1303               	bcf	3,6	;RP1=0, select bank1
  7644  0B9B  085E               	movf	_seg^(0+128),w
  7645  0B9C  160A  118A  21BE  120A  158A  	fcall	_BCD_DECIMAL
  7646  0BA1  1683               	bsf	3,5	;RP0=1, select bank1
  7647  0BA2  1303               	bcf	3,6	;RP1=0, select bank1
  7648  0BA3  00BA               	movwf	??_RTC_PRINT^(0+128)
  7649  0BA4  083A               	movf	??_RTC_PRINT^(0+128),w
  7650  0BA5  00BD               	movwf	RTC_PRINT@seg1^(0+128)
  7651                           
  7652                           ;MAIN_M.c: 216:     min1 = BCD_DECIMAL(min);
  7653  0BA6  085D               	movf	_min^(0+128),w
  7654  0BA7  160A  118A  21BE  120A  158A  	fcall	_BCD_DECIMAL
  7655  0BAC  1683               	bsf	3,5	;RP0=1, select bank1
  7656  0BAD  1303               	bcf	3,6	;RP1=0, select bank1
  7657  0BAE  00BA               	movwf	??_RTC_PRINT^(0+128)
  7658  0BAF  083A               	movf	??_RTC_PRINT^(0+128),w
  7659  0BB0  00BE               	movwf	RTC_PRINT@min1^(0+128)
  7660                           
  7661                           ;MAIN_M.c: 217:     hora1 = BCD_DECIMAL(hora);
  7662  0BB1  085C               	movf	_hora^(0+128),w
  7663  0BB2  160A  118A  21BE  120A  158A  	fcall	_BCD_DECIMAL
  7664  0BB7  1683               	bsf	3,5	;RP0=1, select bank1
  7665  0BB8  1303               	bcf	3,6	;RP1=0, select bank1
  7666  0BB9  00BA               	movwf	??_RTC_PRINT^(0+128)
  7667  0BBA  083A               	movf	??_RTC_PRINT^(0+128),w
  7668  0BBB  00BF               	movwf	RTC_PRINT@hora1^(0+128)
  7669                           
  7670                           ;MAIN_M.c: 218:     dia1 = BCD_DECIMAL(dia);
  7671  0BBC  085B               	movf	_dia^(0+128),w
  7672  0BBD  160A  118A  21BE  120A  158A  	fcall	_BCD_DECIMAL
  7673  0BC2  1683               	bsf	3,5	;RP0=1, select bank1
  7674  0BC3  1303               	bcf	3,6	;RP1=0, select bank1
  7675  0BC4  00BA               	movwf	??_RTC_PRINT^(0+128)
  7676  0BC5  083A               	movf	??_RTC_PRINT^(0+128),w
  7677  0BC6  00C0               	movwf	RTC_PRINT@dia1^(0+128)
  7678                           
  7679                           ;MAIN_M.c: 219:     mes1 = BCD_DECIMAL(mes);
  7680  0BC7  085A               	movf	_mes^(0+128),w
  7681  0BC8  160A  118A  21BE  120A  158A  	fcall	_BCD_DECIMAL
  7682  0BCD  1683               	bsf	3,5	;RP0=1, select bank1
  7683  0BCE  1303               	bcf	3,6	;RP1=0, select bank1
  7684  0BCF  00BA               	movwf	??_RTC_PRINT^(0+128)
  7685  0BD0  083A               	movf	??_RTC_PRINT^(0+128),w
  7686  0BD1  00C1               	movwf	RTC_PRINT@mes1^(0+128)
  7687                           
  7688                           ;MAIN_M.c: 220:     year1 = BCD_DECIMAL(year);
  7689  0BD2  0859               	movf	_year^(0+128),w
  7690  0BD3  160A  118A  21BE  120A  158A  	fcall	_BCD_DECIMAL
  7691  0BD8  1683               	bsf	3,5	;RP0=1, select bank1
  7692  0BD9  1303               	bcf	3,6	;RP1=0, select bank1
  7693  0BDA  00BA               	movwf	??_RTC_PRINT^(0+128)
  7694  0BDB  083A               	movf	??_RTC_PRINT^(0+128),w
  7695  0BDC  00C2               	movwf	RTC_PRINT@year1^(0+128)
  7696                           
  7697                           ;MAIN_M.c: 222:     Time[0] = hora1/10 + '0';
  7698  0BDD  300A               	movlw	10
  7699  0BDE  00B1               	movwf	___awdiv@divisor^(0+128)
  7700  0BDF  3000               	movlw	0
  7701  0BE0  00B2               	movwf	(___awdiv@divisor^(0+128)+1)
  7702  0BE1  083F               	movf	RTC_PRINT@hora1^(0+128),w
  7703  0BE2  00BA               	movwf	??_RTC_PRINT^(0+128)
  7704  0BE3  01BB               	clrf	(??_RTC_PRINT^(0+128)+1)
  7705  0BE4  083A               	movf	??_RTC_PRINT^(0+128),w
  7706  0BE5  00B3               	movwf	___awdiv@dividend^(0+128)
  7707  0BE6  083B               	movf	(??_RTC_PRINT+1)^(0+128),w
  7708  0BE7  00B4               	movwf	(___awdiv@dividend+1)^(0+128)
  7709  0BE8  160A  118A  26AC  120A  158A  	fcall	___awdiv
  7710  0BED  1683               	bsf	3,5	;RP0=1, select bank1
  7711  0BEE  1303               	bcf	3,6	;RP1=0, select bank1
  7712  0BEF  0831               	movf	?___awdiv^(0+128),w
  7713  0BF0  3E30               	addlw	48
  7714  0BF1  00BC               	movwf	(??_RTC_PRINT+2)^(0+128)
  7715  0BF2  083C               	movf	(??_RTC_PRINT+2)^(0+128),w
  7716  0BF3  00E3               	movwf	_Time^(0+128)
  7717                           
  7718                           ;MAIN_M.c: 223:     Time[1] = hora1 % 10 + '0';
  7719  0BF4  300A               	movlw	10
  7720  0BF5  1283               	bcf	3,5	;RP0=0, select bank0
  7721  0BF6  1303               	bcf	3,6	;RP1=0, select bank0
  7722  0BF7  00A0               	movwf	___awmod@divisor
  7723  0BF8  3000               	movlw	0
  7724  0BF9  00A1               	movwf	___awmod@divisor+1
  7725  0BFA  1683               	bsf	3,5	;RP0=1, select bank1
  7726  0BFB  1303               	bcf	3,6	;RP1=0, select bank1
  7727  0BFC  083F               	movf	RTC_PRINT@hora1^(0+128),w
  7728  0BFD  00BA               	movwf	??_RTC_PRINT^(0+128)
  7729  0BFE  01BB               	clrf	(??_RTC_PRINT^(0+128)+1)
  7730  0BFF  083A               	movf	??_RTC_PRINT^(0+128),w
  7731  0C00  1283               	bcf	3,5	;RP0=0, select bank0
  7732  0C01  1303               	bcf	3,6	;RP1=0, select bank0
  7733  0C02  00A2               	movwf	___awmod@dividend
  7734  0C03  1683               	bsf	3,5	;RP0=1, select bank1
  7735  0C04  1303               	bcf	3,6	;RP1=0, select bank1
  7736  0C05  083B               	movf	(??_RTC_PRINT+1)^(0+128),w
  7737  0C06  1283               	bcf	3,5	;RP0=0, select bank0
  7738  0C07  1303               	bcf	3,6	;RP1=0, select bank0
  7739  0C08  00A3               	movwf	___awmod@dividend+1
  7740  0C09  160A  118A  2521  120A  158A  	fcall	___awmod
  7741  0C0E  1283               	bcf	3,5	;RP0=0, select bank0
  7742  0C0F  1303               	bcf	3,6	;RP1=0, select bank0
  7743  0C10  0820               	movf	?___awmod,w
  7744  0C11  3E30               	addlw	48
  7745  0C12  1683               	bsf	3,5	;RP0=1, select bank1
  7746  0C13  1303               	bcf	3,6	;RP1=0, select bank1
  7747  0C14  00BC               	movwf	(??_RTC_PRINT+2)^(0+128)
  7748  0C15  083C               	movf	(??_RTC_PRINT+2)^(0+128),w
  7749  0C16  00E4               	movwf	(_Time^(0+128)+1)
  7750                           
  7751                           ;MAIN_M.c: 224:     Time[3] = min1 / 10 + '0';
  7752  0C17  300A               	movlw	10
  7753  0C18  00B1               	movwf	___awdiv@divisor^(0+128)
  7754  0C19  3000               	movlw	0
  7755  0C1A  00B2               	movwf	(___awdiv@divisor^(0+128)+1)
  7756  0C1B  083E               	movf	RTC_PRINT@min1^(0+128),w
  7757  0C1C  00BA               	movwf	??_RTC_PRINT^(0+128)
  7758  0C1D  01BB               	clrf	(??_RTC_PRINT^(0+128)+1)
  7759  0C1E  083A               	movf	??_RTC_PRINT^(0+128),w
  7760  0C1F  00B3               	movwf	___awdiv@dividend^(0+128)
  7761  0C20  083B               	movf	(??_RTC_PRINT+1)^(0+128),w
  7762  0C21  00B4               	movwf	(___awdiv@dividend+1)^(0+128)
  7763  0C22  160A  118A  26AC  120A  158A  	fcall	___awdiv
  7764  0C27  1683               	bsf	3,5	;RP0=1, select bank1
  7765  0C28  1303               	bcf	3,6	;RP1=0, select bank1
  7766  0C29  0831               	movf	?___awdiv^(0+128),w
  7767  0C2A  3E30               	addlw	48
  7768  0C2B  00BC               	movwf	(??_RTC_PRINT+2)^(0+128)
  7769  0C2C  083C               	movf	(??_RTC_PRINT+2)^(0+128),w
  7770  0C2D  00E6               	movwf	(_Time^(0+128)+3)
  7771                           
  7772                           ;MAIN_M.c: 225:     Time[4] = min1 % 10 + '0';
  7773  0C2E  300A               	movlw	10
  7774  0C2F  1283               	bcf	3,5	;RP0=0, select bank0
  7775  0C30  1303               	bcf	3,6	;RP1=0, select bank0
  7776  0C31  00A0               	movwf	___awmod@divisor
  7777  0C32  3000               	movlw	0
  7778  0C33  00A1               	movwf	___awmod@divisor+1
  7779  0C34  1683               	bsf	3,5	;RP0=1, select bank1
  7780  0C35  1303               	bcf	3,6	;RP1=0, select bank1
  7781  0C36  083E               	movf	RTC_PRINT@min1^(0+128),w
  7782  0C37  00BA               	movwf	??_RTC_PRINT^(0+128)
  7783  0C38  01BB               	clrf	(??_RTC_PRINT^(0+128)+1)
  7784  0C39  083A               	movf	??_RTC_PRINT^(0+128),w
  7785  0C3A  1283               	bcf	3,5	;RP0=0, select bank0
  7786  0C3B  1303               	bcf	3,6	;RP1=0, select bank0
  7787  0C3C  00A2               	movwf	___awmod@dividend
  7788  0C3D  1683               	bsf	3,5	;RP0=1, select bank1
  7789  0C3E  1303               	bcf	3,6	;RP1=0, select bank1
  7790  0C3F  083B               	movf	(??_RTC_PRINT+1)^(0+128),w
  7791  0C40  1283               	bcf	3,5	;RP0=0, select bank0
  7792  0C41  1303               	bcf	3,6	;RP1=0, select bank0
  7793  0C42  00A3               	movwf	___awmod@dividend+1
  7794  0C43  160A  118A  2521  120A  158A  	fcall	___awmod
  7795  0C48  1283               	bcf	3,5	;RP0=0, select bank0
  7796  0C49  1303               	bcf	3,6	;RP1=0, select bank0
  7797  0C4A  0820               	movf	?___awmod,w
  7798  0C4B  3E30               	addlw	48
  7799  0C4C  1683               	bsf	3,5	;RP0=1, select bank1
  7800  0C4D  1303               	bcf	3,6	;RP1=0, select bank1
  7801  0C4E  00BC               	movwf	(??_RTC_PRINT+2)^(0+128)
  7802  0C4F  083C               	movf	(??_RTC_PRINT+2)^(0+128),w
  7803  0C50  00E7               	movwf	(_Time^(0+128)+4)
  7804                           
  7805                           ;MAIN_M.c: 226:     Time[6] = seg1/10 + '0';
  7806  0C51  300A               	movlw	10
  7807  0C52  00B1               	movwf	___awdiv@divisor^(0+128)
  7808  0C53  3000               	movlw	0
  7809  0C54  00B2               	movwf	(___awdiv@divisor^(0+128)+1)
  7810  0C55  083D               	movf	RTC_PRINT@seg1^(0+128),w
  7811  0C56  00BA               	movwf	??_RTC_PRINT^(0+128)
  7812  0C57  01BB               	clrf	(??_RTC_PRINT^(0+128)+1)
  7813  0C58  083A               	movf	??_RTC_PRINT^(0+128),w
  7814  0C59  00B3               	movwf	___awdiv@dividend^(0+128)
  7815  0C5A  083B               	movf	(??_RTC_PRINT+1)^(0+128),w
  7816  0C5B  00B4               	movwf	(___awdiv@dividend+1)^(0+128)
  7817  0C5C  160A  118A  26AC  120A  158A  	fcall	___awdiv
  7818  0C61  1683               	bsf	3,5	;RP0=1, select bank1
  7819  0C62  1303               	bcf	3,6	;RP1=0, select bank1
  7820  0C63  0831               	movf	?___awdiv^(0+128),w
  7821  0C64  3E30               	addlw	48
  7822  0C65  00BC               	movwf	(??_RTC_PRINT+2)^(0+128)
  7823  0C66  083C               	movf	(??_RTC_PRINT+2)^(0+128),w
  7824  0C67  00E9               	movwf	(_Time^(0+128)+6)
  7825                           
  7826                           ;MAIN_M.c: 227:     Time[7] = seg1 % 10 + '0';
  7827  0C68  300A               	movlw	10
  7828  0C69  1283               	bcf	3,5	;RP0=0, select bank0
  7829  0C6A  1303               	bcf	3,6	;RP1=0, select bank0
  7830  0C6B  00A0               	movwf	___awmod@divisor
  7831  0C6C  3000               	movlw	0
  7832  0C6D  00A1               	movwf	___awmod@divisor+1
  7833  0C6E  1683               	bsf	3,5	;RP0=1, select bank1
  7834  0C6F  1303               	bcf	3,6	;RP1=0, select bank1
  7835  0C70  083D               	movf	RTC_PRINT@seg1^(0+128),w
  7836  0C71  00BA               	movwf	??_RTC_PRINT^(0+128)
  7837  0C72  01BB               	clrf	(??_RTC_PRINT^(0+128)+1)
  7838  0C73  083A               	movf	??_RTC_PRINT^(0+128),w
  7839  0C74  1283               	bcf	3,5	;RP0=0, select bank0
  7840  0C75  1303               	bcf	3,6	;RP1=0, select bank0
  7841  0C76  00A2               	movwf	___awmod@dividend
  7842  0C77  1683               	bsf	3,5	;RP0=1, select bank1
  7843  0C78  1303               	bcf	3,6	;RP1=0, select bank1
  7844  0C79  083B               	movf	(??_RTC_PRINT+1)^(0+128),w
  7845  0C7A  1283               	bcf	3,5	;RP0=0, select bank0
  7846  0C7B  1303               	bcf	3,6	;RP1=0, select bank0
  7847  0C7C  00A3               	movwf	___awmod@dividend+1
  7848  0C7D  160A  118A  2521  120A  158A  	fcall	___awmod
  7849  0C82  1283               	bcf	3,5	;RP0=0, select bank0
  7850  0C83  1303               	bcf	3,6	;RP1=0, select bank0
  7851  0C84  0820               	movf	?___awmod,w
  7852  0C85  3E30               	addlw	48
  7853  0C86  1683               	bsf	3,5	;RP0=1, select bank1
  7854  0C87  1303               	bcf	3,6	;RP1=0, select bank1
  7855  0C88  00BC               	movwf	(??_RTC_PRINT+2)^(0+128)
  7856  0C89  083C               	movf	(??_RTC_PRINT+2)^(0+128),w
  7857  0C8A  00EA               	movwf	(_Time^(0+128)+7)
  7858                           
  7859                           ;MAIN_M.c: 229:     Date[0] = dia1/10 + '0';
  7860  0C8B  300A               	movlw	10
  7861  0C8C  00B1               	movwf	___awdiv@divisor^(0+128)
  7862  0C8D  3000               	movlw	0
  7863  0C8E  00B2               	movwf	(___awdiv@divisor^(0+128)+1)
  7864  0C8F  0840               	movf	RTC_PRINT@dia1^(0+128),w
  7865  0C90  00BA               	movwf	??_RTC_PRINT^(0+128)
  7866  0C91  01BB               	clrf	(??_RTC_PRINT^(0+128)+1)
  7867  0C92  083A               	movf	??_RTC_PRINT^(0+128),w
  7868  0C93  00B3               	movwf	___awdiv@dividend^(0+128)
  7869  0C94  083B               	movf	(??_RTC_PRINT+1)^(0+128),w
  7870  0C95  00B4               	movwf	(___awdiv@dividend+1)^(0+128)
  7871  0C96  160A  118A  26AC  120A  158A  	fcall	___awdiv
  7872  0C9B  1683               	bsf	3,5	;RP0=1, select bank1
  7873  0C9C  1303               	bcf	3,6	;RP1=0, select bank1
  7874  0C9D  0831               	movf	?___awdiv^(0+128),w
  7875  0C9E  3E30               	addlw	48
  7876  0C9F  00BC               	movwf	(??_RTC_PRINT+2)^(0+128)
  7877  0CA0  083C               	movf	(??_RTC_PRINT+2)^(0+128),w
  7878  0CA1  1683               	bsf	3,5	;RP0=1, select bank3
  7879  0CA2  1703               	bsf	3,6	;RP1=1, select bank3
  7880  0CA3  0090               	movwf	_Date^(0+384)
  7881                           
  7882                           ;MAIN_M.c: 230:     Date[1] = dia1 % 10 + '0';
  7883  0CA4  300A               	movlw	10
  7884  0CA5  1283               	bcf	3,5	;RP0=0, select bank0
  7885  0CA6  1303               	bcf	3,6	;RP1=0, select bank0
  7886  0CA7  00A0               	movwf	___awmod@divisor
  7887  0CA8  3000               	movlw	0
  7888  0CA9  00A1               	movwf	___awmod@divisor+1
  7889  0CAA  1683               	bsf	3,5	;RP0=1, select bank1
  7890  0CAB  1303               	bcf	3,6	;RP1=0, select bank1
  7891  0CAC  0840               	movf	RTC_PRINT@dia1^(0+128),w
  7892  0CAD  00BA               	movwf	??_RTC_PRINT^(0+128)
  7893  0CAE  01BB               	clrf	(??_RTC_PRINT^(0+128)+1)
  7894  0CAF  083A               	movf	??_RTC_PRINT^(0+128),w
  7895  0CB0  1283               	bcf	3,5	;RP0=0, select bank0
  7896  0CB1  1303               	bcf	3,6	;RP1=0, select bank0
  7897  0CB2  00A2               	movwf	___awmod@dividend
  7898  0CB3  1683               	bsf	3,5	;RP0=1, select bank1
  7899  0CB4  1303               	bcf	3,6	;RP1=0, select bank1
  7900  0CB5  083B               	movf	(??_RTC_PRINT+1)^(0+128),w
  7901  0CB6  1283               	bcf	3,5	;RP0=0, select bank0
  7902  0CB7  1303               	bcf	3,6	;RP1=0, select bank0
  7903  0CB8  00A3               	movwf	___awmod@dividend+1
  7904  0CB9  160A  118A  2521  120A  158A  	fcall	___awmod
  7905  0CBE  1283               	bcf	3,5	;RP0=0, select bank0
  7906  0CBF  1303               	bcf	3,6	;RP1=0, select bank0
  7907  0CC0  0820               	movf	?___awmod,w
  7908  0CC1  3E30               	addlw	48
  7909  0CC2  1683               	bsf	3,5	;RP0=1, select bank1
  7910  0CC3  1303               	bcf	3,6	;RP1=0, select bank1
  7911  0CC4  00BC               	movwf	(??_RTC_PRINT+2)^(0+128)
  7912  0CC5  083C               	movf	(??_RTC_PRINT+2)^(0+128),w
  7913  0CC6  1683               	bsf	3,5	;RP0=1, select bank3
  7914  0CC7  1703               	bsf	3,6	;RP1=1, select bank3
  7915  0CC8  0091               	movwf	(_Date^(0+384)+1)
  7916                           
  7917                           ;MAIN_M.c: 231:     Date[3] = mes1/10 + '0';
  7918  0CC9  300A               	movlw	10
  7919  0CCA  1683               	bsf	3,5	;RP0=1, select bank1
  7920  0CCB  1303               	bcf	3,6	;RP1=0, select bank1
  7921  0CCC  00B1               	movwf	___awdiv@divisor^(0+128)
  7922  0CCD  3000               	movlw	0
  7923  0CCE  00B2               	movwf	(___awdiv@divisor^(0+128)+1)
  7924  0CCF  0841               	movf	RTC_PRINT@mes1^(0+128),w
  7925  0CD0  00BA               	movwf	??_RTC_PRINT^(0+128)
  7926  0CD1  01BB               	clrf	(??_RTC_PRINT^(0+128)+1)
  7927  0CD2  083A               	movf	??_RTC_PRINT^(0+128),w
  7928  0CD3  00B3               	movwf	___awdiv@dividend^(0+128)
  7929  0CD4  083B               	movf	(??_RTC_PRINT+1)^(0+128),w
  7930  0CD5  00B4               	movwf	(___awdiv@dividend+1)^(0+128)
  7931  0CD6  160A  118A  26AC  120A  158A  	fcall	___awdiv
  7932  0CDB  1683               	bsf	3,5	;RP0=1, select bank1
  7933  0CDC  1303               	bcf	3,6	;RP1=0, select bank1
  7934  0CDD  0831               	movf	?___awdiv^(0+128),w
  7935  0CDE  3E30               	addlw	48
  7936  0CDF  00BC               	movwf	(??_RTC_PRINT+2)^(0+128)
  7937  0CE0  083C               	movf	(??_RTC_PRINT+2)^(0+128),w
  7938  0CE1  1683               	bsf	3,5	;RP0=1, select bank3
  7939  0CE2  1703               	bsf	3,6	;RP1=1, select bank3
  7940  0CE3  0093               	movwf	(_Date^(0+384)+3)
  7941                           
  7942                           ;MAIN_M.c: 232:     Date[4] = mes1 % 10 + '0';
  7943  0CE4  300A               	movlw	10
  7944  0CE5  1283               	bcf	3,5	;RP0=0, select bank0
  7945  0CE6  1303               	bcf	3,6	;RP1=0, select bank0
  7946  0CE7  00A0               	movwf	___awmod@divisor
  7947  0CE8  3000               	movlw	0
  7948  0CE9  00A1               	movwf	___awmod@divisor+1
  7949  0CEA  1683               	bsf	3,5	;RP0=1, select bank1
  7950  0CEB  1303               	bcf	3,6	;RP1=0, select bank1
  7951  0CEC  0841               	movf	RTC_PRINT@mes1^(0+128),w
  7952  0CED  00BA               	movwf	??_RTC_PRINT^(0+128)
  7953  0CEE  01BB               	clrf	(??_RTC_PRINT^(0+128)+1)
  7954  0CEF  083A               	movf	??_RTC_PRINT^(0+128),w
  7955  0CF0  1283               	bcf	3,5	;RP0=0, select bank0
  7956  0CF1  1303               	bcf	3,6	;RP1=0, select bank0
  7957  0CF2  00A2               	movwf	___awmod@dividend
  7958  0CF3  1683               	bsf	3,5	;RP0=1, select bank1
  7959  0CF4  1303               	bcf	3,6	;RP1=0, select bank1
  7960  0CF5  083B               	movf	(??_RTC_PRINT+1)^(0+128),w
  7961  0CF6  1283               	bcf	3,5	;RP0=0, select bank0
  7962  0CF7  1303               	bcf	3,6	;RP1=0, select bank0
  7963  0CF8  00A3               	movwf	___awmod@dividend+1
  7964  0CF9  160A  118A  2521  120A  158A  	fcall	___awmod
  7965  0CFE  1283               	bcf	3,5	;RP0=0, select bank0
  7966  0CFF  1303               	bcf	3,6	;RP1=0, select bank0
  7967  0D00  0820               	movf	?___awmod,w
  7968  0D01  3E30               	addlw	48
  7969  0D02  1683               	bsf	3,5	;RP0=1, select bank1
  7970  0D03  1303               	bcf	3,6	;RP1=0, select bank1
  7971  0D04  00BC               	movwf	(??_RTC_PRINT+2)^(0+128)
  7972  0D05  083C               	movf	(??_RTC_PRINT+2)^(0+128),w
  7973  0D06  1683               	bsf	3,5	;RP0=1, select bank3
  7974  0D07  1703               	bsf	3,6	;RP1=1, select bank3
  7975  0D08  0094               	movwf	(_Date^(0+384)+4)
  7976                           
  7977                           ;MAIN_M.c: 233:     Date[8] = year1/10 + '0';
  7978  0D09  300A               	movlw	10
  7979  0D0A  1683               	bsf	3,5	;RP0=1, select bank1
  7980  0D0B  1303               	bcf	3,6	;RP1=0, select bank1
  7981  0D0C  00B1               	movwf	___awdiv@divisor^(0+128)
  7982  0D0D  3000               	movlw	0
  7983  0D0E  00B2               	movwf	(___awdiv@divisor^(0+128)+1)
  7984  0D0F  0842               	movf	RTC_PRINT@year1^(0+128),w
  7985  0D10  00BA               	movwf	??_RTC_PRINT^(0+128)
  7986  0D11  01BB               	clrf	(??_RTC_PRINT^(0+128)+1)
  7987  0D12  083A               	movf	??_RTC_PRINT^(0+128),w
  7988  0D13  00B3               	movwf	___awdiv@dividend^(0+128)
  7989  0D14  083B               	movf	(??_RTC_PRINT+1)^(0+128),w
  7990  0D15  00B4               	movwf	(___awdiv@dividend+1)^(0+128)
  7991  0D16  160A  118A  26AC  120A  158A  	fcall	___awdiv
  7992  0D1B  1683               	bsf	3,5	;RP0=1, select bank1
  7993  0D1C  1303               	bcf	3,6	;RP1=0, select bank1
  7994  0D1D  0831               	movf	?___awdiv^(0+128),w
  7995  0D1E  3E30               	addlw	48
  7996  0D1F  00BC               	movwf	(??_RTC_PRINT+2)^(0+128)
  7997  0D20  083C               	movf	(??_RTC_PRINT+2)^(0+128),w
  7998  0D21  1683               	bsf	3,5	;RP0=1, select bank3
  7999  0D22  1703               	bsf	3,6	;RP1=1, select bank3
  8000  0D23  0098               	movwf	(_Date^(0+384)+8)
  8001                           
  8002                           ;MAIN_M.c: 234:     Date[9] = year1 % 10 + '0';
  8003  0D24  300A               	movlw	10
  8004  0D25  1283               	bcf	3,5	;RP0=0, select bank0
  8005  0D26  1303               	bcf	3,6	;RP1=0, select bank0
  8006  0D27  00A0               	movwf	___awmod@divisor
  8007  0D28  3000               	movlw	0
  8008  0D29  00A1               	movwf	___awmod@divisor+1
  8009  0D2A  1683               	bsf	3,5	;RP0=1, select bank1
  8010  0D2B  1303               	bcf	3,6	;RP1=0, select bank1
  8011  0D2C  0842               	movf	RTC_PRINT@year1^(0+128),w
  8012  0D2D  00BA               	movwf	??_RTC_PRINT^(0+128)
  8013  0D2E  01BB               	clrf	(??_RTC_PRINT^(0+128)+1)
  8014  0D2F  083A               	movf	??_RTC_PRINT^(0+128),w
  8015  0D30  1283               	bcf	3,5	;RP0=0, select bank0
  8016  0D31  1303               	bcf	3,6	;RP1=0, select bank0
  8017  0D32  00A2               	movwf	___awmod@dividend
  8018  0D33  1683               	bsf	3,5	;RP0=1, select bank1
  8019  0D34  1303               	bcf	3,6	;RP1=0, select bank1
  8020  0D35  083B               	movf	(??_RTC_PRINT+1)^(0+128),w
  8021  0D36  1283               	bcf	3,5	;RP0=0, select bank0
  8022  0D37  1303               	bcf	3,6	;RP1=0, select bank0
  8023  0D38  00A3               	movwf	___awmod@dividend+1
  8024  0D39  160A  118A  2521  120A  158A  	fcall	___awmod
  8025  0D3E  1283               	bcf	3,5	;RP0=0, select bank0
  8026  0D3F  1303               	bcf	3,6	;RP1=0, select bank0
  8027  0D40  0820               	movf	?___awmod,w
  8028  0D41  3E30               	addlw	48
  8029  0D42  1683               	bsf	3,5	;RP0=1, select bank1
  8030  0D43  1303               	bcf	3,6	;RP1=0, select bank1
  8031  0D44  00BC               	movwf	(??_RTC_PRINT+2)^(0+128)
  8032  0D45  083C               	movf	(??_RTC_PRINT+2)^(0+128),w
  8033  0D46  1683               	bsf	3,5	;RP0=1, select bank3
  8034  0D47  1703               	bsf	3,6	;RP1=1, select bank3
  8035  0D48  0099               	movwf	(_Date^(0+384)+9)
  8036                           
  8037                           ;MAIN_M.c: 236:     LCD_XY(1,8);
  8038  0D49  3008               	movlw	8
  8039  0D4A  1683               	bsf	3,5	;RP0=1, select bank1
  8040  0D4B  1303               	bcf	3,6	;RP1=0, select bank1
  8041  0D4C  00BA               	movwf	??_RTC_PRINT^(0+128)
  8042  0D4D  083A               	movf	??_RTC_PRINT^(0+128),w
  8043  0D4E  1283               	bcf	3,5	;RP0=0, select bank0
  8044  0D4F  1303               	bcf	3,6	;RP1=0, select bank0
  8045  0D50  00A4               	movwf	LCD_XY@y
  8046  0D51  3001               	movlw	1
  8047  0D52  160A  118A  21DA  120A  158A  	fcall	_LCD_XY
  8048  0D57                     l3371:
  8049                           
  8050                           ;MAIN_M.c: 237:     LCD_STRING(Time);
  8051  0D57  30E3               	movlw	(low (_Time| 0))& (0+255)
  8052  0D58  1283               	bcf	3,5	;RP0=0, select bank0
  8053  0D59  1303               	bcf	3,6	;RP1=0, select bank0
  8054  0D5A  00A4               	movwf	LCD_STRING@a
  8055  0D5B  3000               	movlw	0
  8056  0D5C  00A5               	movwf	LCD_STRING@a+1
  8057  0D5D  160A  118A  23F1  120A  158A  	fcall	_LCD_STRING
  8058  0D62                     l3373:
  8059                           
  8060                           ;MAIN_M.c: 238:     LCD_XY(2,6);
  8061  0D62  3006               	movlw	6
  8062  0D63  1683               	bsf	3,5	;RP0=1, select bank1
  8063  0D64  1303               	bcf	3,6	;RP1=0, select bank1
  8064  0D65  00BA               	movwf	??_RTC_PRINT^(0+128)
  8065  0D66  083A               	movf	??_RTC_PRINT^(0+128),w
  8066  0D67  1283               	bcf	3,5	;RP0=0, select bank0
  8067  0D68  1303               	bcf	3,6	;RP1=0, select bank0
  8068  0D69  00A4               	movwf	LCD_XY@y
  8069  0D6A  3002               	movlw	2
  8070  0D6B  160A  118A  21DA  120A  158A  	fcall	_LCD_XY
  8071                           
  8072                           ;MAIN_M.c: 239:     LCD_STRING(Date);
  8073  0D70  3090               	movlw	(low (_Date| (0+256)))& (0+255)
  8074  0D71  1283               	bcf	3,5	;RP0=0, select bank0
  8075  0D72  1303               	bcf	3,6	;RP1=0, select bank0
  8076  0D73  00A4               	movwf	LCD_STRING@a
  8077  0D74  3001               	movlw	1
  8078  0D75  00A5               	movwf	LCD_STRING@a+1
  8079  0D76  160A  118A  23F1  120A  158A  	fcall	_LCD_STRING
  8080  0D7B                     l3375:
  8081                           
  8082                           ;MAIN_M.c: 240:     _delay((unsigned long)((100)*(8000000/4000.0)));
  8083  0D7B  3002               	movlw	2
  8084  0D7C  1683               	bsf	3,5	;RP0=1, select bank1
  8085  0D7D  1303               	bcf	3,6	;RP1=0, select bank1
  8086  0D7E  00BC               	movwf	(??_RTC_PRINT^(0+128)+2)
  8087  0D7F  3004               	movlw	4
  8088  0D80  00BB               	movwf	(??_RTC_PRINT^(0+128)+1)
  8089  0D81  30B9               	movlw	185
  8090  0D82  00BA               	movwf	??_RTC_PRINT^(0+128)
  8091  0D83                     u4417:
  8092  0D83  0BBA               	decfsz	??_RTC_PRINT^(0+128),f
  8093  0D84  2D83               	goto	u4417
  8094  0D85  0BBB               	decfsz	(??_RTC_PRINT^(0+128)+1),f
  8095  0D86  2D83               	goto	u4417
  8096  0D87  0BBC               	decfsz	(??_RTC_PRINT^(0+128)+2),f
  8097  0D88  2D83               	goto	u4417
  8098  0D89  2D8A               	nop2
  8099  0D8A                     l139:
  8100  0D8A  0008               	return
  8101  0D8B                     __end_of_RTC_PRINT:
  8102                           
  8103                           	psect	text26
  8104  11F8                     __ptext26:	
  8105 ;; *************** function _PAM *****************
  8106 ;; Defined at:
  8107 ;;		line 291 in file "MAIN_M.c"
  8108 ;; Parameters:    Size  Location     Type
  8109 ;;  parametro       1    wreg     unsigned char 
  8110 ;;  rtc             1    8[BANK0 ] unsigned char 
  8111 ;; Auto vars:     Size  Location     Type
  8112 ;;  parametro       1   10[BANK0 ] unsigned char 
  8113 ;; Return value:  Size  Location     Type
  8114 ;;                  1    wreg      unsigned char 
  8115 ;; Registers used:
  8116 ;;		wreg, status,2, status,0, pclath, cstack
  8117 ;; Tracked objects:
  8118 ;;		On entry : 0/0
  8119 ;;		On exit  : 0/0
  8120 ;;		Unchanged: 0/0
  8121 ;; Data sizes:     COMMON   BANK0   BANK1   BANK3   BANK2
  8122 ;;      Params:         0       1       0       0       0
  8123 ;;      Locals:         0       1       0       0       0
  8124 ;;      Temps:          0       1       0       0       0
  8125 ;;      Totals:         0       3       0       0       0
  8126 ;;Total ram usage:        3 bytes
  8127 ;; Hardware stack levels used: 1
  8128 ;; Hardware stack levels required when called: 4
  8129 ;; This function calls:
  8130 ;;		_ANTI_REBOTE
  8131 ;;		_BCD_DECIMAL
  8132 ;; This function is called by:
  8133 ;;		_main
  8134 ;; This function uses a non-reentrant model
  8135 ;;
  8136                           
  8137  11F8                     _PAM:	
  8138                           ;psect for function _PAM
  8139                           
  8140                           
  8141                           ;incstack = 0
  8142                           ; Regs used in _PAM: [wreg+status,2+status,0+pclath+cstack]
  8143                           ;PAM@parametro stored from wreg
  8144  11F8  1283               	bcf	3,5	;RP0=0, select bank0
  8145  11F9  1303               	bcf	3,6	;RP1=0, select bank0
  8146  11FA  00AA               	movwf	PAM@parametro
  8147  11FB                     l3003:
  8148                           
  8149                           ;MAIN_M.c: 292:     if(!RB0){
  8150  11FB  1806               	btfsc	6,0	;volatile
  8151  11FC  29FE               	goto	u4081
  8152  11FD  29FF               	goto	u4080
  8153  11FE                     u4081:
  8154  11FE  2A15               	goto	l3009
  8155  11FF                     u4080:
  8156  11FF                     l3005:
  8157                           
  8158                           ;MAIN_M.c: 293:         if(ANTI_REBOTE())
  8159  11FF  160A  118A  226F  160A  118A  	fcall	_ANTI_REBOTE
  8160  1204  1C03               	btfss	3,0
  8161  1205  2A07               	goto	u4091
  8162  1206  2A08               	goto	u4090
  8163  1207                     u4091:
  8164  1207  2A15               	goto	l3009
  8165  1208                     u4090:
  8166  1208                     l3007:
  8167                           
  8168                           ;MAIN_M.c: 294:             parametro = BCD_DECIMAL(rtc);
  8169  1208  1283               	bcf	3,5	;RP0=0, select bank0
  8170  1209  1303               	bcf	3,6	;RP1=0, select bank0
  8171  120A  0828               	movf	PAM@rtc,w
  8172  120B  160A  118A  21BE  160A  118A  	fcall	_BCD_DECIMAL
  8173  1210  1283               	bcf	3,5	;RP0=0, select bank0
  8174  1211  1303               	bcf	3,6	;RP1=0, select bank0
  8175  1212  00A9               	movwf	??_PAM
  8176  1213  0829               	movf	??_PAM,w
  8177  1214  00AA               	movwf	PAM@parametro
  8178  1215                     l3009:
  8179                           
  8180                           ;MAIN_M.c: 297:     return parametro;
  8181  1215  1283               	bcf	3,5	;RP0=0, select bank0
  8182  1216  1303               	bcf	3,6	;RP1=0, select bank0
  8183  1217  082A               	movf	PAM@parametro,w
  8184  1218                     l164:
  8185  1218  0008               	return
  8186  1219                     __end_of_PAM:
  8187                           
  8188                           	psect	text27
  8189  11BE                     __ptext27:	
  8190 ;; *************** function _BCD_DECIMAL *****************
  8191 ;; Defined at:
  8192 ;;		line 275 in file "MAIN_M.c"
  8193 ;; Parameters:    Size  Location     Type
  8194 ;;  num             1    wreg     unsigned char 
  8195 ;; Auto vars:     Size  Location     Type
  8196 ;;  num             1    7[BANK0 ] unsigned char 
  8197 ;; Return value:  Size  Location     Type
  8198 ;;                  1    wreg      unsigned char 
  8199 ;; Registers used:
  8200 ;;		wreg, status,2, status,0, pclath, cstack
  8201 ;; Tracked objects:
  8202 ;;		On entry : 0/0
  8203 ;;		On exit  : 0/0
  8204 ;;		Unchanged: 0/0
  8205 ;; Data sizes:     COMMON   BANK0   BANK1   BANK3   BANK2
  8206 ;;      Params:         0       0       0       0       0
  8207 ;;      Locals:         0       1       0       0       0
  8208 ;;      Temps:          0       3       0       0       0
  8209 ;;      Totals:         0       4       0       0       0
  8210 ;;Total ram usage:        4 bytes
  8211 ;; Hardware stack levels used: 1
  8212 ;; Hardware stack levels required when called: 3
  8213 ;; This function calls:
  8214 ;;		___bmul
  8215 ;; This function is called by:
  8216 ;;		_RTC_PRINT
  8217 ;;		_PAM
  8218 ;; This function uses a non-reentrant model
  8219 ;;
  8220                           
  8221  11BE                     _BCD_DECIMAL:	
  8222                           ;psect for function _BCD_DECIMAL
  8223                           
  8224                           
  8225                           ;incstack = 0
  8226                           ; Regs used in _BCD_DECIMAL: [wreg+status,2+status,0+pclath+cstack]
  8227                           ;BCD_DECIMAL@num stored from wreg
  8228  11BE  1283               	bcf	3,5	;RP0=0, select bank0
  8229  11BF  1303               	bcf	3,6	;RP1=0, select bank0
  8230  11C0  00A7               	movwf	BCD_DECIMAL@num
  8231  11C1                     l2935:
  8232                           
  8233                           ;MAIN_M.c: 276:     return ((num >> 4)*10 + (num & 0x0f));
  8234  11C1  300F               	movlw	15
  8235  11C2  0527               	andwf	BCD_DECIMAL@num,w
  8236  11C3  00A4               	movwf	??_BCD_DECIMAL
  8237  11C4  300A               	movlw	10
  8238  11C5  00A5               	movwf	??_BCD_DECIMAL+1
  8239  11C6  0825               	movf	??_BCD_DECIMAL+1,w
  8240  11C7  00A0               	movwf	___bmul@multiplicand
  8241  11C8  0827               	movf	BCD_DECIMAL@num,w
  8242  11C9  00A6               	movwf	??_BCD_DECIMAL+2
  8243  11CA  3004               	movlw	4
  8244  11CB                     u4035:
  8245  11CB  1003               	clrc
  8246  11CC  0CA6               	rrf	??_BCD_DECIMAL+2,f
  8247  11CD  3EFF               	addlw	-1
  8248  11CE  1D03               	skipz
  8249  11CF  29CB               	goto	u4035
  8250  11D0  0826               	movf	??_BCD_DECIMAL+2,w
  8251  11D1  160A  118A  2170  160A  118A  	fcall	___bmul
  8252  11D6  1283               	bcf	3,5	;RP0=0, select bank0
  8253  11D7  1303               	bcf	3,6	;RP1=0, select bank0
  8254  11D8  0724               	addwf	??_BCD_DECIMAL,w
  8255  11D9                     l156:
  8256  11D9  0008               	return
  8257  11DA                     __end_of_BCD_DECIMAL:
  8258                           
  8259                           	psect	text28
  8260  1170                     __ptext28:	
  8261 ;; *************** function ___bmul *****************
  8262 ;; Defined at:
  8263 ;;		line 4 in file "C:\Program Files\Microchip\xc8\v2.35\pic\sources\c90\common\Umul8.c"
  8264 ;; Parameters:    Size  Location     Type
  8265 ;;  multiplier      1    wreg     unsigned char 
  8266 ;;  multiplicand    1    0[BANK0 ] unsigned char 
  8267 ;; Auto vars:     Size  Location     Type
  8268 ;;  multiplier      1    3[BANK0 ] unsigned char 
  8269 ;;  product         1    2[BANK0 ] unsigned char 
  8270 ;; Return value:  Size  Location     Type
  8271 ;;                  1    wreg      unsigned char 
  8272 ;; Registers used:
  8273 ;;		wreg, status,2, status,0
  8274 ;; Tracked objects:
  8275 ;;		On entry : 0/0
  8276 ;;		On exit  : 0/0
  8277 ;;		Unchanged: 0/0
  8278 ;; Data sizes:     COMMON   BANK0   BANK1   BANK3   BANK2
  8279 ;;      Params:         0       1       0       0       0
  8280 ;;      Locals:         0       2       0       0       0
  8281 ;;      Temps:          0       1       0       0       0
  8282 ;;      Totals:         0       4       0       0       0
  8283 ;;Total ram usage:        4 bytes
  8284 ;; Hardware stack levels used: 1
  8285 ;; Hardware stack levels required when called: 2
  8286 ;; This function calls:
  8287 ;;		Nothing
  8288 ;; This function is called by:
  8289 ;;		_BCD_DECIMAL
  8290 ;; This function uses a non-reentrant model
  8291 ;;
  8292                           
  8293  1170                     ___bmul:	
  8294                           ;psect for function ___bmul
  8295                           
  8296                           
  8297                           ;incstack = 0
  8298                           ; Regs used in ___bmul: [wreg+status,2+status,0]
  8299                           ;___bmul@multiplier stored from wreg
  8300  1170  1283               	bcf	3,5	;RP0=0, select bank0
  8301  1171  1303               	bcf	3,6	;RP1=0, select bank0
  8302  1172  00A3               	movwf	___bmul@multiplier
  8303  1173                     l2689:
  8304  1173  01A2               	clrf	___bmul@product
  8305  1174                     l2691:
  8306  1174  1C23               	btfss	___bmul@multiplier,0
  8307  1175  2977               	goto	u3641
  8308  1176  2978               	goto	u3640
  8309  1177                     u3641:
  8310  1177  297C               	goto	l2695
  8311  1178                     u3640:
  8312  1178                     l2693:
  8313  1178  0820               	movf	___bmul@multiplicand,w
  8314  1179  00A1               	movwf	??___bmul
  8315  117A  0821               	movf	??___bmul,w
  8316  117B  07A2               	addwf	___bmul@product,f
  8317  117C                     l2695:
  8318  117C  1003               	clrc
  8319  117D  0DA0               	rlf	___bmul@multiplicand,f
  8320  117E                     l2697:
  8321  117E  1003               	clrc
  8322  117F  0CA3               	rrf	___bmul@multiplier,f
  8323  1180  0823               	movf	___bmul@multiplier,w
  8324  1181  1D03               	btfss	3,2
  8325  1182  2984               	goto	u3651
  8326  1183  2985               	goto	u3650
  8327  1184                     u3651:
  8328  1184  2974               	goto	l2691
  8329  1185                     u3650:
  8330  1185                     l2699:
  8331  1185  0822               	movf	___bmul@product,w
  8332  1186                     l413:
  8333  1186  0008               	return
  8334  1187                     __end_of___bmul:
  8335                           
  8336                           	psect	text29
  8337  126F                     __ptext29:	
  8338 ;; *************** function _ANTI_REBOTE *****************
  8339 ;; Defined at:
  8340 ;;		line 326 in file "MAIN_M.c"
  8341 ;; Parameters:    Size  Location     Type
  8342 ;;		None
  8343 ;; Auto vars:     Size  Location     Type
  8344 ;;  i               1    3[BANK0 ] unsigned char 
  8345 ;;  contador        1    2[BANK0 ] unsigned char 
  8346 ;; Return value:  Size  Location     Type
  8347 ;;		None               void
  8348 ;; Registers used:
  8349 ;;		wreg, status,2, status,0
  8350 ;; Tracked objects:
  8351 ;;		On entry : 0/0
  8352 ;;		On exit  : 0/0
  8353 ;;		Unchanged: 0/0
  8354 ;; Data sizes:     COMMON   BANK0   BANK1   BANK3   BANK2
  8355 ;;      Params:         0       0       0       0       0
  8356 ;;      Locals:         0       2       0       0       0
  8357 ;;      Temps:          0       2       0       0       0
  8358 ;;      Totals:         0       4       0       0       0
  8359 ;;Total ram usage:        4 bytes
  8360 ;; Hardware stack levels used: 1
  8361 ;; Hardware stack levels required when called: 2
  8362 ;; This function calls:
  8363 ;;		Nothing
  8364 ;; This function is called by:
  8365 ;;		_PAM
  8366 ;; This function uses a non-reentrant model
  8367 ;;
  8368                           
  8369  126F                     _ANTI_REBOTE:	
  8370                           ;psect for function _ANTI_REBOTE
  8371                           
  8372  126F                     l2815:	
  8373                           ;incstack = 0
  8374                           ; Regs used in _ANTI_REBOTE: [wreg+status,2+status,0]
  8375                           
  8376                           
  8377                           ;MAIN_M.c: 327:     uint8_t contador = 0;
  8378  126F  1283               	bcf	3,5	;RP0=0, select bank0
  8379  1270  1303               	bcf	3,6	;RP1=0, select bank0
  8380  1271  01A2               	clrf	ANTI_REBOTE@contador
  8381                           
  8382                           ;MAIN_M.c: 328:     for(uint8_t i=0;i<5;i++){
  8383  1272  01A3               	clrf	ANTI_REBOTE@i
  8384  1273                     l170:
  8385                           
  8386                           ;MAIN_M.c: 329:         if(!RB0 || !RB1)
  8387  1273  1C06               	btfss	6,0	;volatile
  8388  1274  2A76               	goto	u3921
  8389  1275  2A77               	goto	u3920
  8390  1276                     u3921:
  8391  1276  2A7B               	goto	l2823
  8392  1277                     u3920:
  8393  1277                     l2821:
  8394  1277  1886               	btfsc	6,1	;volatile
  8395  1278  2A7A               	goto	u3931
  8396  1279  2A7B               	goto	u3930
  8397  127A                     u3931:
  8398  127A  2A7F               	goto	l2825
  8399  127B                     u3930:
  8400  127B                     l2823:
  8401                           
  8402                           ;MAIN_M.c: 330:             contador++;
  8403  127B  3001               	movlw	1
  8404  127C  00A0               	movwf	??_ANTI_REBOTE
  8405  127D  0820               	movf	??_ANTI_REBOTE,w
  8406  127E  07A2               	addwf	ANTI_REBOTE@contador,f
  8407  127F                     l2825:
  8408                           
  8409                           ;MAIN_M.c: 331:         _delay((unsigned long)((10)*(8000000/4000.0)));
  8410  127F  301A               	movlw	26
  8411  1280  1283               	bcf	3,5	;RP0=0, select bank0
  8412  1281  1303               	bcf	3,6	;RP1=0, select bank0
  8413  1282  00A1               	movwf	??_ANTI_REBOTE+1
  8414  1283  30F7               	movlw	247
  8415  1284  00A0               	movwf	??_ANTI_REBOTE
  8416  1285                     u4427:
  8417  1285  0BA0               	decfsz	??_ANTI_REBOTE,f
  8418  1286  2A85               	goto	u4427
  8419  1287  0BA1               	decfsz	??_ANTI_REBOTE+1,f
  8420  1288  2A85               	goto	u4427
  8421  1289  2A8A               	nop2
  8422  128A                     l2827:
  8423                           
  8424                           ;MAIN_M.c: 332:     }
  8425  128A  3001               	movlw	1
  8426  128B  1283               	bcf	3,5	;RP0=0, select bank0
  8427  128C  1303               	bcf	3,6	;RP1=0, select bank0
  8428  128D  00A0               	movwf	??_ANTI_REBOTE
  8429  128E  0820               	movf	??_ANTI_REBOTE,w
  8430  128F  07A3               	addwf	ANTI_REBOTE@i,f
  8431  1290  3005               	movlw	5
  8432  1291  0223               	subwf	ANTI_REBOTE@i,w
  8433  1292  1C03               	skipc
  8434  1293  2A95               	goto	u3941
  8435  1294  2A96               	goto	u3940
  8436  1295                     u3941:
  8437  1295  2A73               	goto	l170
  8438  1296                     u3940:
  8439  1296                     l2829:
  8440                           
  8441                           ;MAIN_M.c: 333:     if(contador >2)
  8442  1296  3003               	movlw	3
  8443  1297  0222               	subwf	ANTI_REBOTE@contador,w
  8444  1298  1C03               	skipc
  8445  1299  2A9B               	goto	u3951
  8446  129A  2A9C               	goto	u3950
  8447  129B                     u3951:
  8448  129B  2A9E               	goto	l2837
  8449  129C                     u3950:
  8450  129C                     l2831:
  8451                           
  8452                           ;MAIN_M.c: 334:         return 1;
  8453  129C  1403               	setc
  8454  129D  2A9F               	goto	l176
  8455  129E                     l2837:
  8456                           
  8457                           ;MAIN_M.c: 336:         return 0;
  8458  129E  1003               	clrc
  8459  129F                     l176:
  8460  129F  0008               	return
  8461  12A0                     __end_of_ANTI_REBOTE:
  8462                           
  8463                           	psect	text30
  8464  112D                     __ptext30:	
  8465 ;; *************** function _LCD_CLEAR *****************
  8466 ;; Defined at:
  8467 ;;		line 111 in file "LCD.c"
  8468 ;; Parameters:    Size  Location     Type
  8469 ;;		None
  8470 ;; Auto vars:     Size  Location     Type
  8471 ;;		None
  8472 ;; Return value:  Size  Location     Type
  8473 ;;                  1    wreg      void 
  8474 ;; Registers used:
  8475 ;;		wreg, status,2, status,0, pclath, cstack
  8476 ;; Tracked objects:
  8477 ;;		On entry : 0/0
  8478 ;;		On exit  : 0/0
  8479 ;;		Unchanged: 0/0
  8480 ;; Data sizes:     COMMON   BANK0   BANK1   BANK3   BANK2
  8481 ;;      Params:         0       0       0       0       0
  8482 ;;      Locals:         0       0       0       0       0
  8483 ;;      Temps:          0       0       0       0       0
  8484 ;;      Totals:         0       0       0       0       0
  8485 ;;Total ram usage:        0 bytes
  8486 ;; Hardware stack levels used: 1
  8487 ;; Hardware stack levels required when called: 3
  8488 ;; This function calls:
  8489 ;;		_LCD_PORT
  8490 ;; This function is called by:
  8491 ;;		_main
  8492 ;; This function uses a non-reentrant model
  8493 ;;
  8494                           
  8495  112D                     _LCD_CLEAR:	
  8496                           ;psect for function _LCD_CLEAR
  8497                           
  8498  112D                     l3367:	
  8499                           ;incstack = 0
  8500                           ; Regs used in _LCD_CLEAR: [wreg+status,2+status,0+pclath+cstack]
  8501                           
  8502                           
  8503                           ;LCD.c: 112:     LCD_PORT(0);
  8504  112D  3000               	movlw	0
  8505  112E  160A  118A  20F7  160A  118A  	fcall	_LCD_PORT
  8506                           
  8507                           ;LCD.c: 113:     LCD_PORT(1);
  8508  1133  3001               	movlw	1
  8509  1134  160A  118A  20F7  160A  118A  	fcall	_LCD_PORT
  8510  1139                     l230:
  8511  1139  0008               	return
  8512  113A                     __end_of_LCD_CLEAR:
  8513                           
  8514                           	psect	text31
  8515  12D2                     __ptext31:	
  8516 ;; *************** function _CONFIGURAR_v2 *****************
  8517 ;; Defined at:
  8518 ;;		line 299 in file "MAIN_M.c"
  8519 ;; Parameters:    Size  Location     Type
  8520 ;;  x               1    wreg     unsigned char 
  8521 ;;  y               1   32[BANK1 ] unsigned char 
  8522 ;;  parametro       1   33[BANK1 ] unsigned char 
  8523 ;;  rtc             1   34[BANK1 ] unsigned char 
  8524 ;; Auto vars:     Size  Location     Type
  8525 ;;  x               1   36[BANK1 ] unsigned char 
  8526 ;; Return value:  Size  Location     Type
  8527 ;;                  1    wreg      unsigned char 
  8528 ;; Registers used:
  8529 ;;		wreg, fsr0l, fsr0h, status,2, status,0, btemp+1, pclath, cstack
  8530 ;; Tracked objects:
  8531 ;;		On entry : 0/0
  8532 ;;		On exit  : 0/0
  8533 ;;		Unchanged: 0/0
  8534 ;; Data sizes:     COMMON   BANK0   BANK1   BANK3   BANK2
  8535 ;;      Params:         0       0       3       0       0
  8536 ;;      Locals:         0       0       1       0       0
  8537 ;;      Temps:          0       0       1       0       0
  8538 ;;      Totals:         0       0       5       0       0
  8539 ;;Total ram usage:        5 bytes
  8540 ;; Hardware stack levels used: 1
  8541 ;; Hardware stack levels required when called: 5
  8542 ;; This function calls:
  8543 ;;		_DECIMAL_BCD
  8544 ;;		_LCD_STRING
  8545 ;;		_LCD_XY
  8546 ;;		_Parpadeo
  8547 ;; This function is called by:
  8548 ;;		_main
  8549 ;; This function uses a non-reentrant model
  8550 ;;
  8551                           
  8552  12D2                     _CONFIGURAR_v2:	
  8553                           ;psect for function _CONFIGURAR_v2
  8554                           
  8555                           
  8556                           ;incstack = 0
  8557                           ; Regs used in _CONFIGURAR_v2: [wreg-fsr0h+status,2+status,0+btemp+1+pclath+cstack]
  8558                           ;CONFIGURAR_v2@x stored from wreg
  8559  12D2  1683               	bsf	3,5	;RP0=1, select bank1
  8560  12D3  1303               	bcf	3,6	;RP1=0, select bank1
  8561  12D4  00C4               	movwf	CONFIGURAR_v2@x^(0+128)
  8562  12D5                     l3329:
  8563                           
  8564                           ;MAIN_M.c: 300:     rtc = DECIMAL_BCD(parametro);
  8565  12D5  0841               	movf	CONFIGURAR_v2@parametro^(0+128),w
  8566  12D6  160A  118A  23B3  160A  118A  	fcall	_DECIMAL_BCD
  8567  12DB  1683               	bsf	3,5	;RP0=1, select bank1
  8568  12DC  1303               	bcf	3,6	;RP1=0, select bank1
  8569  12DD  00C3               	movwf	??_CONFIGURAR_v2^(0+128)
  8570  12DE  0843               	movf	??_CONFIGURAR_v2^(0+128),w
  8571  12DF  00C2               	movwf	CONFIGURAR_v2@rtc^(0+128)
  8572                           
  8573                           ;MAIN_M.c: 302:     LCD_XY(x,y);
  8574  12E0  0840               	movf	CONFIGURAR_v2@y^(0+128),w
  8575  12E1  00C3               	movwf	??_CONFIGURAR_v2^(0+128)
  8576  12E2  0843               	movf	??_CONFIGURAR_v2^(0+128),w
  8577  12E3  1283               	bcf	3,5	;RP0=0, select bank0
  8578  12E4  1303               	bcf	3,6	;RP1=0, select bank0
  8579  12E5  00A4               	movwf	LCD_XY@y
  8580  12E6  1683               	bsf	3,5	;RP0=1, select bank1
  8581  12E7  1303               	bcf	3,6	;RP1=0, select bank1
  8582  12E8  0844               	movf	CONFIGURAR_v2@x^(0+128),w
  8583  12E9  160A  118A  21DA  160A  118A  	fcall	_LCD_XY
  8584                           
  8585                           ;MAIN_M.c: 303:     Parpadeo();
  8586  12EE  120A  118A  27DB  160A  118A  	fcall	_Parpadeo
  8587  12F3                     l3331:
  8588                           
  8589                           ;MAIN_M.c: 304:     LCD_STRING("  ");
  8590  12F3  3005               	movlw	(low ((STR_3-__stringbase)| (0+32768)))& (0+255)
  8591  12F4  1283               	bcf	3,5	;RP0=0, select bank0
  8592  12F5  1303               	bcf	3,6	;RP1=0, select bank0
  8593  12F6  00A4               	movwf	LCD_STRING@a
  8594  12F7  3080               	movlw	128
  8595  12F8  00A5               	movwf	LCD_STRING@a+1
  8596  12F9  160A  118A  23F1  160A  118A  	fcall	_LCD_STRING
  8597  12FE                     l3333:
  8598                           
  8599                           ;MAIN_M.c: 305:     Parpadeo();
  8600  12FE  120A  118A  27DB  160A  118A  	fcall	_Parpadeo
  8601  1303                     l3335:
  8602                           
  8603                           ;MAIN_M.c: 306:     return rtc;
  8604  1303  1683               	bsf	3,5	;RP0=1, select bank1
  8605  1304  1303               	bcf	3,6	;RP1=0, select bank1
  8606  1305  0842               	movf	CONFIGURAR_v2@rtc^(0+128),w
  8607  1306                     l167:
  8608  1306  0008               	return
  8609  1307                     __end_of_CONFIGURAR_v2:
  8610                           
  8611                           	psect	text32
  8612  07DB                     __ptext32:	
  8613 ;; *************** function _Parpadeo *****************
  8614 ;; Defined at:
  8615 ;;		line 262 in file "MAIN_M.c"
  8616 ;; Parameters:    Size  Location     Type
  8617 ;;		None
  8618 ;; Auto vars:     Size  Location     Type
  8619 ;;  j               1    2[BANK0 ] unsigned char 
  8620 ;; Return value:  Size  Location     Type
  8621 ;;                  1    wreg      void 
  8622 ;; Registers used:
  8623 ;;		wreg, status,2, status,0
  8624 ;; Tracked objects:
  8625 ;;		On entry : 0/0
  8626 ;;		On exit  : 0/0
  8627 ;;		Unchanged: 0/0
  8628 ;; Data sizes:     COMMON   BANK0   BANK1   BANK3   BANK2
  8629 ;;      Params:         0       0       0       0       0
  8630 ;;      Locals:         0       1       0       0       0
  8631 ;;      Temps:          0       2       0       0       0
  8632 ;;      Totals:         0       3       0       0       0
  8633 ;;Total ram usage:        3 bytes
  8634 ;; Hardware stack levels used: 1
  8635 ;; Hardware stack levels required when called: 2
  8636 ;; This function calls:
  8637 ;;		Nothing
  8638 ;; This function is called by:
  8639 ;;		_CONFIGURAR_v2
  8640 ;; This function uses a non-reentrant model
  8641 ;;
  8642                           
  8643  07DB                     _Parpadeo:	
  8644                           ;psect for function _Parpadeo
  8645                           
  8646  07DB                     l2939:	
  8647                           ;incstack = 0
  8648                           ; Regs used in _Parpadeo: [wreg+status,2+status,0]
  8649                           
  8650                           
  8651                           ;MAIN_M.c: 263:     uint8_t j = 0;
  8652  07DB  1283               	bcf	3,5	;RP0=0, select bank0
  8653  07DC  1303               	bcf	3,6	;RP1=0, select bank0
  8654  07DD  01A2               	clrf	Parpadeo@j
  8655                           
  8656                           ;MAIN_M.c: 264:     while(j>100 && RB0 && RB1){
  8657  07DE  2FED               	goto	l2945
  8658  07DF                     l2941:
  8659                           
  8660                           ;MAIN_M.c: 265:         j++;
  8661  07DF  3001               	movlw	1
  8662  07E0  00A0               	movwf	??_Parpadeo
  8663  07E1  0820               	movf	??_Parpadeo,w
  8664  07E2  07A2               	addwf	Parpadeo@j,f
  8665  07E3                     l2943:
  8666                           
  8667                           ;MAIN_M.c: 266:         _delay((unsigned long)((5)*(8000000/4000.0)));
  8668  07E3  300D               	movlw	13
  8669  07E4  1283               	bcf	3,5	;RP0=0, select bank0
  8670  07E5  1303               	bcf	3,6	;RP1=0, select bank0
  8671  07E6  00A1               	movwf	??_Parpadeo+1
  8672  07E7  30FB               	movlw	251
  8673  07E8  00A0               	movwf	??_Parpadeo
  8674  07E9                     u4437:
  8675  07E9  0BA0               	decfsz	??_Parpadeo,f
  8676  07EA  2FE9               	goto	u4437
  8677  07EB  0BA1               	decfsz	??_Parpadeo+1,f
  8678  07EC  2FE9               	goto	u4437
  8679  07ED                     l2945:
  8680                           
  8681                           ;MAIN_M.c: 264:     while(j>100 && RB0 && RB1){
  8682  07ED  3065               	movlw	101
  8683  07EE  1283               	bcf	3,5	;RP0=0, select bank0
  8684  07EF  1303               	bcf	3,6	;RP1=0, select bank0
  8685  07F0  0222               	subwf	Parpadeo@j,w
  8686  07F1  1C03               	skipc
  8687  07F2  2FF4               	goto	u4041
  8688  07F3  2FF5               	goto	u4040
  8689  07F4                     u4041:
  8690  07F4  2FFD               	goto	l150
  8691  07F5                     u4040:
  8692  07F5                     l2947:
  8693  07F5  1C06               	btfss	6,0	;volatile
  8694  07F6  2FF8               	goto	u4051
  8695  07F7  2FF9               	goto	u4050
  8696  07F8                     u4051:
  8697  07F8  2FFD               	goto	l150
  8698  07F9                     u4050:
  8699  07F9                     l2949:
  8700  07F9  1886               	btfsc	6,1	;volatile
  8701  07FA  2FFC               	goto	u4061
  8702  07FB  2FFD               	goto	u4060
  8703  07FC                     u4061:
  8704  07FC  2FDF               	goto	l2941
  8705  07FD                     u4060:
  8706  07FD                     l150:
  8707  07FD  0008               	return
  8708  07FE                     __end_of_Parpadeo:
  8709                           
  8710                           	psect	text33
  8711  11DA                     __ptext33:	
  8712 ;; *************** function _LCD_XY *****************
  8713 ;; Defined at:
  8714 ;;		line 115 in file "LCD.c"
  8715 ;; Parameters:    Size  Location     Type
  8716 ;;  x               1    wreg     unsigned char 
  8717 ;;  y               1    4[BANK0 ] unsigned char 
  8718 ;; Auto vars:     Size  Location     Type
  8719 ;;  x               1    5[BANK0 ] unsigned char 
  8720 ;; Return value:  Size  Location     Type
  8721 ;;                  1    wreg      void 
  8722 ;; Registers used:
  8723 ;;		wreg, status,2, status,0, pclath, cstack
  8724 ;; Tracked objects:
  8725 ;;		On entry : 0/0
  8726 ;;		On exit  : 0/0
  8727 ;;		Unchanged: 0/0
  8728 ;; Data sizes:     COMMON   BANK0   BANK1   BANK3   BANK2
  8729 ;;      Params:         0       1       0       0       0
  8730 ;;      Locals:         0       1       0       0       0
  8731 ;;      Temps:          0       0       0       0       0
  8732 ;;      Totals:         0       2       0       0       0
  8733 ;;Total ram usage:        2 bytes
  8734 ;; Hardware stack levels used: 1
  8735 ;; Hardware stack levels required when called: 4
  8736 ;; This function calls:
  8737 ;;		_LCD_COM
  8738 ;; This function is called by:
  8739 ;;		_main
  8740 ;;		_RTC_PRINT
  8741 ;;		_CONFIGURAR_v2
  8742 ;; This function uses a non-reentrant model
  8743 ;;
  8744                           
  8745  11DA                     _LCD_XY:	
  8746                           ;psect for function _LCD_XY
  8747                           
  8748                           
  8749                           ;incstack = 0
  8750                           ; Regs used in _LCD_XY: [wreg+status,2+status,0+pclath+cstack]
  8751                           ;LCD_XY@x stored from wreg
  8752  11DA  1283               	bcf	3,5	;RP0=0, select bank0
  8753  11DB  1303               	bcf	3,6	;RP1=0, select bank0
  8754  11DC  00A5               	movwf	LCD_XY@x
  8755  11DD                     l3243:
  8756                           
  8757                           ;LCD.c: 116:     if(x == 1)
  8758  11DD  0325               	decf	LCD_XY@x,w
  8759  11DE  1D03               	btfss	3,2
  8760  11DF  29E1               	goto	u4231
  8761  11E0  29E2               	goto	u4230
  8762  11E1                     u4231:
  8763  11E1  29EA               	goto	l3247
  8764  11E2                     u4230:
  8765  11E2                     l3245:
  8766                           
  8767                           ;LCD.c: 117:         LCD_COM(0x80 + y);
  8768  11E2  0824               	movf	LCD_XY@y,w
  8769  11E3  3E80               	addlw	128
  8770  11E4  160A  118A  2187  160A  118A  	fcall	_LCD_COM
  8771  11E9  29F7               	goto	l236
  8772  11EA                     l3247:
  8773  11EA  3002               	movlw	2
  8774  11EB  0625               	xorwf	LCD_XY@x,w
  8775  11EC  1D03               	btfss	3,2
  8776  11ED  29EF               	goto	u4241
  8777  11EE  29F0               	goto	u4240
  8778  11EF                     u4241:
  8779  11EF  29F7               	goto	l236
  8780  11F0                     u4240:
  8781  11F0                     l3249:
  8782                           
  8783                           ;LCD.c: 119:         LCD_COM(0xC0 + y);
  8784  11F0  0824               	movf	LCD_XY@y,w
  8785  11F1  3EC0               	addlw	192
  8786  11F2  160A  118A  2187  160A  118A  	fcall	_LCD_COM
  8787  11F7                     l236:
  8788  11F7  0008               	return
  8789  11F8                     __end_of_LCD_XY:
  8790                           
  8791                           	psect	text34
  8792  1187                     __ptext34:	
  8793 ;; *************** function _LCD_COM *****************
  8794 ;; Defined at:
  8795 ;;		line 104 in file "LCD.c"
  8796 ;; Parameters:    Size  Location     Type
  8797 ;;  a               1    wreg     unsigned char 
  8798 ;; Auto vars:     Size  Location     Type
  8799 ;;  a               1    3[BANK0 ] unsigned char 
  8800 ;; Return value:  Size  Location     Type
  8801 ;;                  1    wreg      void 
  8802 ;; Registers used:
  8803 ;;		wreg, status,2, status,0, pclath, cstack
  8804 ;; Tracked objects:
  8805 ;;		On entry : 0/0
  8806 ;;		On exit  : 0/0
  8807 ;;		Unchanged: 0/0
  8808 ;; Data sizes:     COMMON   BANK0   BANK1   BANK3   BANK2
  8809 ;;      Params:         0       0       0       0       0
  8810 ;;      Locals:         0       1       0       0       0
  8811 ;;      Temps:          0       2       0       0       0
  8812 ;;      Totals:         0       3       0       0       0
  8813 ;;Total ram usage:        3 bytes
  8814 ;; Hardware stack levels used: 1
  8815 ;; Hardware stack levels required when called: 3
  8816 ;; This function calls:
  8817 ;;		_LCD_PORT
  8818 ;; This function is called by:
  8819 ;;		_LCD_XY
  8820 ;;		_LCD_INIT
  8821 ;; This function uses a non-reentrant model
  8822 ;;
  8823                           
  8824  1187                     _LCD_COM:	
  8825                           ;psect for function _LCD_COM
  8826                           
  8827                           
  8828                           ;incstack = 0
  8829                           ; Regs used in _LCD_COM: [wreg+status,2+status,0+pclath+cstack]
  8830                           ;LCD_COM@a stored from wreg
  8831  1187  1283               	bcf	3,5	;RP0=0, select bank0
  8832  1188  1303               	bcf	3,6	;RP1=0, select bank0
  8833  1189  00A3               	movwf	LCD_COM@a
  8834  118A                     l3175:
  8835                           
  8836                           ;LCD.c: 105:     RE0 = 0;
  8837  118A  1009               	bcf	9,0	;volatile
  8838  118B                     l3177:
  8839                           
  8840                           ;LCD.c: 106:     LCD_PORT(a);
  8841  118B  0823               	movf	LCD_COM@a,w
  8842  118C  160A  118A  20F7  160A  118A  	fcall	_LCD_PORT
  8843  1191                     l3179:
  8844                           
  8845                           ;LCD.c: 107:     RE1 = 1;
  8846  1191  1283               	bcf	3,5	;RP0=0, select bank0
  8847  1192  1303               	bcf	3,6	;RP1=0, select bank0
  8848  1193  1489               	bsf	9,1	;volatile
  8849  1194                     l3181:
  8850                           
  8851                           ;LCD.c: 108:     _delay((unsigned long)((5)*(8000000/4000.0)));
  8852  1194  300D               	movlw	13
  8853  1195  1283               	bcf	3,5	;RP0=0, select bank0
  8854  1196  1303               	bcf	3,6	;RP1=0, select bank0
  8855  1197  00A2               	movwf	??_LCD_COM+1
  8856  1198  30FB               	movlw	251
  8857  1199  00A1               	movwf	??_LCD_COM
  8858  119A                     u4447:
  8859  119A  0BA1               	decfsz	??_LCD_COM,f
  8860  119B  299A               	goto	u4447
  8861  119C  0BA2               	decfsz	??_LCD_COM+1,f
  8862  119D  299A               	goto	u4447
  8863  119E                     l3183:
  8864                           
  8865                           ;LCD.c: 109:     RE1 = 0;
  8866  119E  1283               	bcf	3,5	;RP0=0, select bank0
  8867  119F  1303               	bcf	3,6	;RP1=0, select bank0
  8868  11A0  1089               	bcf	9,1	;volatile
  8869  11A1                     l227:
  8870  11A1  0008               	return
  8871  11A2                     __end_of_LCD_COM:
  8872                           
  8873                           	psect	text35
  8874  13F1                     __ptext35:	
  8875 ;; *************** function _LCD_STRING *****************
  8876 ;; Defined at:
  8877 ;;		line 144 in file "LCD.c"
  8878 ;; Parameters:    Size  Location     Type
  8879 ;;  a               2    4[BANK0 ] PTR unsigned char 
  8880 ;;		 -> STR_3(3), Date(11), Time(9), STR_2(2), 
  8881 ;;		 -> STR_1(4), 
  8882 ;; Auto vars:     Size  Location     Type
  8883 ;;  i               2    9[BANK0 ] int 
  8884 ;; Return value:  Size  Location     Type
  8885 ;;                  1    wreg      void 
  8886 ;; Registers used:
  8887 ;;		wreg, fsr0l, fsr0h, status,2, status,0, btemp+1, pclath, cstack
  8888 ;; Tracked objects:
  8889 ;;		On entry : 0/0
  8890 ;;		On exit  : 0/0
  8891 ;;		Unchanged: 0/0
  8892 ;; Data sizes:     COMMON   BANK0   BANK1   BANK3   BANK2
  8893 ;;      Params:         0       2       0       0       0
  8894 ;;      Locals:         0       2       0       0       0
  8895 ;;      Temps:          0       3       0       0       0
  8896 ;;      Totals:         0       7       0       0       0
  8897 ;;Total ram usage:        7 bytes
  8898 ;; Hardware stack levels used: 1
  8899 ;; Hardware stack levels required when called: 4
  8900 ;; This function calls:
  8901 ;;		_LCD_CHAR
  8902 ;; This function is called by:
  8903 ;;		_main
  8904 ;;		_RTC_PRINT
  8905 ;;		_CONFIGURAR_v2
  8906 ;; This function uses a non-reentrant model
  8907 ;;
  8908                           
  8909  13F1                     _LCD_STRING:	
  8910                           ;psect for function _LCD_STRING
  8911                           
  8912  13F1                     l3251:	
  8913                           ;incstack = 0
  8914                           ; Regs used in _LCD_STRING: [wreg-fsr0h+status,2+status,0+btemp+1+pclath+cstack]
  8915                           
  8916                           
  8917                           ;LCD.c: 145:     int i;;LCD.c: 146:  for(i=0;a[i]!='\0';i++)
  8918  13F1  1283               	bcf	3,5	;RP0=0, select bank0
  8919  13F2  1303               	bcf	3,6	;RP1=0, select bank0
  8920  13F3  01A9               	clrf	LCD_STRING@i
  8921  13F4  01AA               	clrf	LCD_STRING@i+1
  8922  13F5  2C1A               	goto	l3257
  8923  13F6                     l3253:
  8924                           
  8925                           ;LCD.c: 147:   LCD_CHAR(a[i]);
  8926  13F6  0829               	movf	LCD_STRING@i,w
  8927  13F7  0724               	addwf	LCD_STRING@a,w
  8928  13F8  00A7               	movwf	??_LCD_STRING+1
  8929  13F9  0825               	movf	LCD_STRING@a+1,w
  8930  13FA  00A6               	movwf	??_LCD_STRING
  8931  13FB  1803               	skipnc
  8932  13FC  0AA6               	incf	??_LCD_STRING,f
  8933  13FD  1FA9               	btfss	LCD_STRING@i,7
  8934  13FE  2C00               	goto	u4250
  8935  13FF  03A6               	decf	??_LCD_STRING,f
  8936  1400                     u4250:
  8937  1400  1283               	bcf	3,5	;RP0=0, select bank0
  8938  1401  1303               	bcf	3,6	;RP1=0, select bank0
  8939  1402  0826               	movf	??_LCD_STRING,w
  8940  1403  00A8               	movwf	??_LCD_STRING+2
  8941  1404  0828               	movf	??_LCD_STRING+2,w
  8942  1405  00FF               	movwf	btemp+1
  8943  1406  0827               	movf	??_LCD_STRING+1,w
  8944  1407  0084               	movwf	4
  8945  1408  120A  158A  2000  160A  118A  	fcall	stringtab
  8946  140D  160A  118A  21A2  160A  118A  	fcall	_LCD_CHAR
  8947  1412                     l3255:
  8948  1412  3001               	movlw	1
  8949  1413  1283               	bcf	3,5	;RP0=0, select bank0
  8950  1414  1303               	bcf	3,6	;RP1=0, select bank0
  8951  1415  07A9               	addwf	LCD_STRING@i,f
  8952  1416  1803               	skipnc
  8953  1417  0AAA               	incf	LCD_STRING@i+1,f
  8954  1418  3000               	movlw	0
  8955  1419  07AA               	addwf	LCD_STRING@i+1,f
  8956  141A                     l3257:
  8957  141A  0829               	movf	LCD_STRING@i,w
  8958  141B  0724               	addwf	LCD_STRING@a,w
  8959  141C  00A7               	movwf	??_LCD_STRING+1
  8960  141D  0825               	movf	LCD_STRING@a+1,w
  8961  141E  00A6               	movwf	??_LCD_STRING
  8962  141F  1803               	skipnc
  8963  1420  0AA6               	incf	??_LCD_STRING,f
  8964  1421  1FA9               	btfss	LCD_STRING@i,7
  8965  1422  2C24               	goto	u4260
  8966  1423  03A6               	decf	??_LCD_STRING,f
  8967  1424                     u4260:
  8968  1424  1283               	bcf	3,5	;RP0=0, select bank0
  8969  1425  1303               	bcf	3,6	;RP1=0, select bank0
  8970  1426  0826               	movf	??_LCD_STRING,w
  8971  1427  00A8               	movwf	??_LCD_STRING+2
  8972  1428  0828               	movf	??_LCD_STRING+2,w
  8973  1429  00FF               	movwf	btemp+1
  8974  142A  0827               	movf	??_LCD_STRING+1,w
  8975  142B  0084               	movwf	4
  8976  142C  120A  158A  2000  160A  118A  	fcall	stringtab
  8977  1431  3A00               	xorlw	0
  8978  1432  1D03               	skipz
  8979  1433  2C35               	goto	u4271
  8980  1434  2C36               	goto	u4270
  8981  1435                     u4271:
  8982  1435  2BF6               	goto	l3253
  8983  1436                     u4270:
  8984  1436                     l248:
  8985  1436  0008               	return
  8986  1437                     __end_of_LCD_STRING:
  8987                           
  8988                           	psect	text36
  8989  11A2                     __ptext36:	
  8990 ;; *************** function _LCD_CHAR *****************
  8991 ;; Defined at:
  8992 ;;		line 137 in file "LCD.c"
  8993 ;; Parameters:    Size  Location     Type
  8994 ;;  a               1    wreg     unsigned char 
  8995 ;; Auto vars:     Size  Location     Type
  8996 ;;  a               1    3[BANK0 ] unsigned char 
  8997 ;; Return value:  Size  Location     Type
  8998 ;;                  1    wreg      void 
  8999 ;; Registers used:
  9000 ;;		wreg, status,2, status,0, pclath, cstack
  9001 ;; Tracked objects:
  9002 ;;		On entry : 0/0
  9003 ;;		On exit  : 0/0
  9004 ;;		Unchanged: 0/0
  9005 ;; Data sizes:     COMMON   BANK0   BANK1   BANK3   BANK2
  9006 ;;      Params:         0       0       0       0       0
  9007 ;;      Locals:         0       1       0       0       0
  9008 ;;      Temps:          0       2       0       0       0
  9009 ;;      Totals:         0       3       0       0       0
  9010 ;;Total ram usage:        3 bytes
  9011 ;; Hardware stack levels used: 1
  9012 ;; Hardware stack levels required when called: 3
  9013 ;; This function calls:
  9014 ;;		_LCD_PORT
  9015 ;; This function is called by:
  9016 ;;		_main
  9017 ;;		_LCD_STRING
  9018 ;; This function uses a non-reentrant model
  9019 ;;
  9020                           
  9021  11A2                     _LCD_CHAR:	
  9022                           ;psect for function _LCD_CHAR
  9023                           
  9024                           
  9025                           ;incstack = 0
  9026                           ; Regs used in _LCD_CHAR: [wreg+status,2+status,0+pclath+cstack]
  9027                           ;LCD_CHAR@a stored from wreg
  9028  11A2  1283               	bcf	3,5	;RP0=0, select bank0
  9029  11A3  1303               	bcf	3,6	;RP1=0, select bank0
  9030  11A4  00A3               	movwf	LCD_CHAR@a
  9031  11A5                     l3165:
  9032                           
  9033                           ;LCD.c: 138:     RE0 = 1;
  9034  11A5  1409               	bsf	9,0	;volatile
  9035  11A6                     l3167:
  9036                           
  9037                           ;LCD.c: 139:     LCD_PORT(a);
  9038  11A6  0823               	movf	LCD_CHAR@a,w
  9039  11A7  160A  118A  20F7  160A  118A  	fcall	_LCD_PORT
  9040  11AC                     l3169:
  9041                           
  9042                           ;LCD.c: 140:     RE1 = 1;
  9043  11AC  1283               	bcf	3,5	;RP0=0, select bank0
  9044  11AD  1303               	bcf	3,6	;RP1=0, select bank0
  9045  11AE  1489               	bsf	9,1	;volatile
  9046  11AF                     l3171:
  9047                           
  9048                           ;LCD.c: 141:    _delay((unsigned long)((4)*(8000000/4000.0)));
  9049  11AF  300B               	movlw	11
  9050  11B0  1283               	bcf	3,5	;RP0=0, select bank0
  9051  11B1  1303               	bcf	3,6	;RP1=0, select bank0
  9052  11B2  00A2               	movwf	??_LCD_CHAR+1
  9053  11B3  3061               	movlw	97
  9054  11B4  00A1               	movwf	??_LCD_CHAR
  9055  11B5                     u4457:
  9056  11B5  0BA1               	decfsz	??_LCD_CHAR,f
  9057  11B6  29B5               	goto	u4457
  9058  11B7  0BA2               	decfsz	??_LCD_CHAR+1,f
  9059  11B8  29B5               	goto	u4457
  9060  11B9  29BA               	nop2
  9061  11BA                     l3173:
  9062                           
  9063                           ;LCD.c: 142:     RE1 = 0;
  9064  11BA  1283               	bcf	3,5	;RP0=0, select bank0
  9065  11BB  1303               	bcf	3,6	;RP1=0, select bank0
  9066  11BC  1089               	bcf	9,1	;volatile
  9067  11BD                     l242:
  9068  11BD  0008               	return
  9069  11BE                     __end_of_LCD_CHAR:
  9070                           
  9071                           	psect	text37
  9072  10F7                     __ptext37:	
  9073 ;; *************** function _LCD_PORT *****************
  9074 ;; Defined at:
  9075 ;;		line 101 in file "LCD.c"
  9076 ;; Parameters:    Size  Location     Type
  9077 ;;  a               1    wreg     unsigned char 
  9078 ;; Auto vars:     Size  Location     Type
  9079 ;;  a               1    0[BANK0 ] unsigned char 
  9080 ;; Return value:  Size  Location     Type
  9081 ;;                  1    wreg      void 
  9082 ;; Registers used:
  9083 ;;		wreg
  9084 ;; Tracked objects:
  9085 ;;		On entry : 0/0
  9086 ;;		On exit  : 0/0
  9087 ;;		Unchanged: 0/0
  9088 ;; Data sizes:     COMMON   BANK0   BANK1   BANK3   BANK2
  9089 ;;      Params:         0       0       0       0       0
  9090 ;;      Locals:         0       1       0       0       0
  9091 ;;      Temps:          0       0       0       0       0
  9092 ;;      Totals:         0       1       0       0       0
  9093 ;;Total ram usage:        1 bytes
  9094 ;; Hardware stack levels used: 1
  9095 ;; Hardware stack levels required when called: 2
  9096 ;; This function calls:
  9097 ;;		Nothing
  9098 ;; This function is called by:
  9099 ;;		_LCD_COM
  9100 ;;		_LCD_CLEAR
  9101 ;;		_LCD_INIT
  9102 ;;		_LCD_CHAR
  9103 ;; This function uses a non-reentrant model
  9104 ;;
  9105                           
  9106  10F7                     _LCD_PORT:	
  9107                           ;psect for function _LCD_PORT
  9108                           
  9109                           
  9110                           ;incstack = 0
  9111                           ; Regs used in _LCD_PORT: [wreg]
  9112                           ;LCD_PORT@a stored from wreg
  9113  10F7  1283               	bcf	3,5	;RP0=0, select bank0
  9114  10F8  1303               	bcf	3,6	;RP1=0, select bank0
  9115  10F9  00A0               	movwf	LCD_PORT@a
  9116  10FA                     l3163:
  9117                           
  9118                           ;LCD.c: 102:     PORTD = a;
  9119  10FA  0820               	movf	LCD_PORT@a,w
  9120  10FB  0088               	movwf	8	;volatile
  9121  10FC                     l224:
  9122  10FC  0008               	return
  9123  10FD                     __end_of_LCD_PORT:
  9124                           
  9125                           	psect	text38
  9126  13B3                     __ptext38:	
  9127 ;; *************** function _DECIMAL_BCD *****************
  9128 ;; Defined at:
  9129 ;;		line 271 in file "MAIN_M.c"
  9130 ;; Parameters:    Size  Location     Type
  9131 ;;  num             1    wreg     unsigned char 
  9132 ;; Auto vars:     Size  Location     Type
  9133 ;;  num             1   31[BANK1 ] unsigned char 
  9134 ;; Return value:  Size  Location     Type
  9135 ;;                  1    wreg      unsigned char 
  9136 ;; Registers used:
  9137 ;;		wreg, status,2, status,0, pclath, cstack
  9138 ;; Tracked objects:
  9139 ;;		On entry : 0/0
  9140 ;;		On exit  : 0/0
  9141 ;;		Unchanged: 0/0
  9142 ;; Data sizes:     COMMON   BANK0   BANK1   BANK3   BANK2
  9143 ;;      Params:         0       0       0       0       0
  9144 ;;      Locals:         0       0       1       0       0
  9145 ;;      Temps:          0       0       5       0       0
  9146 ;;      Totals:         0       0       6       0       0
  9147 ;;Total ram usage:        6 bytes
  9148 ;; Hardware stack levels used: 1
  9149 ;; Hardware stack levels required when called: 3
  9150 ;; This function calls:
  9151 ;;		___awdiv
  9152 ;;		___awmod
  9153 ;; This function is called by:
  9154 ;;		_CONFIGURAR_v2
  9155 ;; This function uses a non-reentrant model
  9156 ;;
  9157                           
  9158  13B3                     _DECIMAL_BCD:	
  9159                           ;psect for function _DECIMAL_BCD
  9160                           
  9161                           
  9162                           ;incstack = 0
  9163                           ; Regs used in _DECIMAL_BCD: [wreg+status,2+status,0+pclath+cstack]
  9164                           ;DECIMAL_BCD@num stored from wreg
  9165  13B3  1683               	bsf	3,5	;RP0=1, select bank1
  9166  13B4  1303               	bcf	3,6	;RP1=0, select bank1
  9167  13B5  00BF               	movwf	DECIMAL_BCD@num^(0+128)
  9168  13B6                     l2951:
  9169                           
  9170                           ;MAIN_M.c: 272:     return (((num/10)<<4) + (num % 10));
  9171  13B6  300A               	movlw	10
  9172  13B7  00B1               	movwf	___awdiv@divisor^(0+128)
  9173  13B8  3000               	movlw	0
  9174  13B9  00B2               	movwf	(___awdiv@divisor^(0+128)+1)
  9175  13BA  083F               	movf	DECIMAL_BCD@num^(0+128),w
  9176  13BB  00BA               	movwf	??_DECIMAL_BCD^(0+128)
  9177  13BC  01BB               	clrf	(??_DECIMAL_BCD^(0+128)+1)
  9178  13BD  083A               	movf	??_DECIMAL_BCD^(0+128),w
  9179  13BE  00B3               	movwf	___awdiv@dividend^(0+128)
  9180  13BF  083B               	movf	(??_DECIMAL_BCD+1)^(0+128),w
  9181  13C0  00B4               	movwf	(___awdiv@dividend+1)^(0+128)
  9182  13C1  160A  118A  26AC  160A  118A  	fcall	___awdiv
  9183  13C6  1683               	bsf	3,5	;RP0=1, select bank1
  9184  13C7  1303               	bcf	3,6	;RP1=0, select bank1
  9185  13C8  0831               	movf	?___awdiv^(0+128),w
  9186  13C9  00BC               	movwf	(??_DECIMAL_BCD+2)^(0+128)
  9187  13CA  3004               	movlw	4
  9188  13CB                     u4075:
  9189  13CB  1003               	clrc
  9190  13CC  0DBC               	rlf	(??_DECIMAL_BCD+2)^(0+128),f
  9191  13CD  3EFF               	addlw	-1
  9192  13CE  1D03               	skipz
  9193  13CF  2BCB               	goto	u4075
  9194  13D0  300A               	movlw	10
  9195  13D1  1283               	bcf	3,5	;RP0=0, select bank0
  9196  13D2  1303               	bcf	3,6	;RP1=0, select bank0
  9197  13D3  00A0               	movwf	___awmod@divisor
  9198  13D4  3000               	movlw	0
  9199  13D5  00A1               	movwf	___awmod@divisor+1
  9200  13D6  1683               	bsf	3,5	;RP0=1, select bank1
  9201  13D7  1303               	bcf	3,6	;RP1=0, select bank1
  9202  13D8  083F               	movf	DECIMAL_BCD@num^(0+128),w
  9203  13D9  00BD               	movwf	(??_DECIMAL_BCD+3)^(0+128)
  9204  13DA  01BE               	clrf	((??_DECIMAL_BCD+3)^(0+128)+1)
  9205  13DB  083D               	movf	(??_DECIMAL_BCD+3)^(0+128),w
  9206  13DC  1283               	bcf	3,5	;RP0=0, select bank0
  9207  13DD  1303               	bcf	3,6	;RP1=0, select bank0
  9208  13DE  00A2               	movwf	___awmod@dividend
  9209  13DF  1683               	bsf	3,5	;RP0=1, select bank1
  9210  13E0  1303               	bcf	3,6	;RP1=0, select bank1
  9211  13E1  083E               	movf	(??_DECIMAL_BCD+4)^(0+128),w
  9212  13E2  1283               	bcf	3,5	;RP0=0, select bank0
  9213  13E3  1303               	bcf	3,6	;RP1=0, select bank0
  9214  13E4  00A3               	movwf	___awmod@dividend+1
  9215  13E5  160A  118A  2521  160A  118A  	fcall	___awmod
  9216  13EA  1283               	bcf	3,5	;RP0=0, select bank0
  9217  13EB  1303               	bcf	3,6	;RP1=0, select bank0
  9218  13EC  0820               	movf	?___awmod,w
  9219  13ED  1683               	bsf	3,5	;RP0=1, select bank1
  9220  13EE  1303               	bcf	3,6	;RP1=0, select bank1
  9221  13EF  073C               	addwf	(??_DECIMAL_BCD+2)^(0+128),w
  9222  13F0                     l153:
  9223  13F0  0008               	return
  9224  13F1                     __end_of_DECIMAL_BCD:
  9225                           
  9226                           	psect	text39
  9227  1521                     __ptext39:	
  9228 ;; *************** function ___awmod *****************
  9229 ;; Defined at:
  9230 ;;		line 5 in file "C:\Program Files\Microchip\xc8\v2.35\pic\sources\c90\common\awmod.c"
  9231 ;; Parameters:    Size  Location     Type
  9232 ;;  divisor         2    0[BANK0 ] int 
  9233 ;;  dividend        2    2[BANK0 ] int 
  9234 ;; Auto vars:     Size  Location     Type
  9235 ;;  sign            1    6[BANK0 ] unsigned char 
  9236 ;;  counter         1    5[BANK0 ] unsigned char 
  9237 ;; Return value:  Size  Location     Type
  9238 ;;                  2    0[BANK0 ] int 
  9239 ;; Registers used:
  9240 ;;		wreg, status,2, status,0
  9241 ;; Tracked objects:
  9242 ;;		On entry : 0/0
  9243 ;;		On exit  : 0/0
  9244 ;;		Unchanged: 0/0
  9245 ;; Data sizes:     COMMON   BANK0   BANK1   BANK3   BANK2
  9246 ;;      Params:         0       4       0       0       0
  9247 ;;      Locals:         0       2       0       0       0
  9248 ;;      Temps:          0       1       0       0       0
  9249 ;;      Totals:         0       7       0       0       0
  9250 ;;Total ram usage:        7 bytes
  9251 ;; Hardware stack levels used: 1
  9252 ;; Hardware stack levels required when called: 2
  9253 ;; This function calls:
  9254 ;;		Nothing
  9255 ;; This function is called by:
  9256 ;;		_RTC_PRINT
  9257 ;;		_DECIMAL_BCD
  9258 ;; This function uses a non-reentrant model
  9259 ;;
  9260                           
  9261  1521                     ___awmod:	
  9262                           ;psect for function ___awmod
  9263                           
  9264  1521                     l2771:	
  9265                           ;incstack = 0
  9266                           ; Regs used in ___awmod: [wreg+status,2+status,0]
  9267                           
  9268  1521  1283               	bcf	3,5	;RP0=0, select bank0
  9269  1522  1303               	bcf	3,6	;RP1=0, select bank0
  9270  1523  01A6               	clrf	___awmod@sign
  9271  1524                     l2773:
  9272  1524  1FA3               	btfss	___awmod@dividend+1,7
  9273  1525  2D27               	goto	u3831
  9274  1526  2D28               	goto	u3830
  9275  1527                     u3831:
  9276  1527  2D2F               	goto	l2779
  9277  1528                     u3830:
  9278  1528                     l2775:
  9279  1528  09A2               	comf	___awmod@dividend,f
  9280  1529  09A3               	comf	___awmod@dividend+1,f
  9281  152A  0AA2               	incf	___awmod@dividend,f
  9282  152B  1903               	skipnz
  9283  152C  0AA3               	incf	___awmod@dividend+1,f
  9284  152D                     l2777:
  9285  152D  01A6               	clrf	___awmod@sign
  9286  152E  0AA6               	incf	___awmod@sign,f
  9287  152F                     l2779:
  9288  152F  1FA1               	btfss	___awmod@divisor+1,7
  9289  1530  2D32               	goto	u3841
  9290  1531  2D33               	goto	u3840
  9291  1532                     u3841:
  9292  1532  2D38               	goto	l2783
  9293  1533                     u3840:
  9294  1533                     l2781:
  9295  1533  09A0               	comf	___awmod@divisor,f
  9296  1534  09A1               	comf	___awmod@divisor+1,f
  9297  1535  0AA0               	incf	___awmod@divisor,f
  9298  1536  1903               	skipnz
  9299  1537  0AA1               	incf	___awmod@divisor+1,f
  9300  1538                     l2783:
  9301  1538  0820               	movf	___awmod@divisor,w
  9302  1539  0421               	iorwf	___awmod@divisor+1,w
  9303  153A  1903               	btfsc	3,2
  9304  153B  2D3D               	goto	u3851
  9305  153C  2D3E               	goto	u3850
  9306  153D                     u3851:
  9307  153D  2D6D               	goto	l2801
  9308  153E                     u3850:
  9309  153E                     l2785:
  9310  153E  01A5               	clrf	___awmod@counter
  9311  153F  0AA5               	incf	___awmod@counter,f
  9312  1540  2D4C               	goto	l2791
  9313  1541                     l2787:
  9314  1541  3001               	movlw	1
  9315  1542                     u3865:
  9316  1542  1003               	clrc
  9317  1543  0DA0               	rlf	___awmod@divisor,f
  9318  1544  0DA1               	rlf	___awmod@divisor+1,f
  9319  1545  3EFF               	addlw	-1
  9320  1546  1D03               	skipz
  9321  1547  2D42               	goto	u3865
  9322  1548                     l2789:
  9323  1548  3001               	movlw	1
  9324  1549  00A4               	movwf	??___awmod
  9325  154A  0824               	movf	??___awmod,w
  9326  154B  07A5               	addwf	___awmod@counter,f
  9327  154C                     l2791:
  9328  154C  1FA1               	btfss	___awmod@divisor+1,7
  9329  154D  2D4F               	goto	u3871
  9330  154E  2D50               	goto	u3870
  9331  154F                     u3871:
  9332  154F  2D41               	goto	l2787
  9333  1550                     u3870:
  9334  1550                     l2793:
  9335  1550  0821               	movf	___awmod@divisor+1,w
  9336  1551  0223               	subwf	___awmod@dividend+1,w
  9337  1552  1D03               	skipz
  9338  1553  2D56               	goto	u3885
  9339  1554  0820               	movf	___awmod@divisor,w
  9340  1555  0222               	subwf	___awmod@dividend,w
  9341  1556                     u3885:
  9342  1556  1C03               	skipc
  9343  1557  2D59               	goto	u3881
  9344  1558  2D5A               	goto	u3880
  9345  1559                     u3881:
  9346  1559  2D60               	goto	l2797
  9347  155A                     u3880:
  9348  155A                     l2795:
  9349  155A  0820               	movf	___awmod@divisor,w
  9350  155B  02A2               	subwf	___awmod@dividend,f
  9351  155C  0821               	movf	___awmod@divisor+1,w
  9352  155D  1C03               	skipc
  9353  155E  03A3               	decf	___awmod@dividend+1,f
  9354  155F  02A3               	subwf	___awmod@dividend+1,f
  9355  1560                     l2797:
  9356  1560  3001               	movlw	1
  9357  1561                     u3895:
  9358  1561  1003               	clrc
  9359  1562  0CA1               	rrf	___awmod@divisor+1,f
  9360  1563  0CA0               	rrf	___awmod@divisor,f
  9361  1564  3EFF               	addlw	-1
  9362  1565  1D03               	skipz
  9363  1566  2D61               	goto	u3895
  9364  1567                     l2799:
  9365  1567  3001               	movlw	1
  9366  1568  02A5               	subwf	___awmod@counter,f
  9367  1569  1D03               	btfss	3,2
  9368  156A  2D6C               	goto	u3901
  9369  156B  2D6D               	goto	u3900
  9370  156C                     u3901:
  9371  156C  2D50               	goto	l2793
  9372  156D                     u3900:
  9373  156D                     l2801:
  9374  156D  0826               	movf	___awmod@sign,w
  9375  156E  1903               	btfsc	3,2
  9376  156F  2D71               	goto	u3911
  9377  1570  2D72               	goto	u3910
  9378  1571                     u3911:
  9379  1571  2D77               	goto	l2805
  9380  1572                     u3910:
  9381  1572                     l2803:
  9382  1572  09A2               	comf	___awmod@dividend,f
  9383  1573  09A3               	comf	___awmod@dividend+1,f
  9384  1574  0AA2               	incf	___awmod@dividend,f
  9385  1575  1903               	skipnz
  9386  1576  0AA3               	incf	___awmod@dividend+1,f
  9387  1577                     l2805:
  9388  1577  0823               	movf	___awmod@dividend+1,w
  9389  1578  00A1               	movwf	?___awmod+1
  9390  1579  0822               	movf	___awmod@dividend,w
  9391  157A  00A0               	movwf	?___awmod
  9392  157B                     l553:
  9393  157B  0008               	return
  9394  157C                     __end_of___awmod:
  9395                           
  9396                           	psect	text40
  9397  16AC                     __ptext40:	
  9398 ;; *************** function ___awdiv *****************
  9399 ;; Defined at:
  9400 ;;		line 5 in file "C:\Program Files\Microchip\xc8\v2.35\pic\sources\c90\common\awdiv.c"
  9401 ;; Parameters:    Size  Location     Type
  9402 ;;  divisor         2   17[BANK1 ] int 
  9403 ;;  dividend        2   19[BANK1 ] int 
  9404 ;; Auto vars:     Size  Location     Type
  9405 ;;  quotient        2   24[BANK1 ] int 
  9406 ;;  sign            1   23[BANK1 ] unsigned char 
  9407 ;;  counter         1   22[BANK1 ] unsigned char 
  9408 ;; Return value:  Size  Location     Type
  9409 ;;                  2   17[BANK1 ] int 
  9410 ;; Registers used:
  9411 ;;		wreg, status,2, status,0
  9412 ;; Tracked objects:
  9413 ;;		On entry : 0/0
  9414 ;;		On exit  : 0/0
  9415 ;;		Unchanged: 0/0
  9416 ;; Data sizes:     COMMON   BANK0   BANK1   BANK3   BANK2
  9417 ;;      Params:         0       0       4       0       0
  9418 ;;      Locals:         0       0       4       0       0
  9419 ;;      Temps:          0       0       1       0       0
  9420 ;;      Totals:         0       0       9       0       0
  9421 ;;Total ram usage:        9 bytes
  9422 ;; Hardware stack levels used: 1
  9423 ;; Hardware stack levels required when called: 2
  9424 ;; This function calls:
  9425 ;;		Nothing
  9426 ;; This function is called by:
  9427 ;;		_RTC_PRINT
  9428 ;;		_DECIMAL_BCD
  9429 ;;		_DECENA
  9430 ;; This function uses a non-reentrant model
  9431 ;;
  9432                           
  9433  16AC                     ___awdiv:	
  9434                           ;psect for function ___awdiv
  9435                           
  9436  16AC                     l2727:	
  9437                           ;incstack = 0
  9438                           ; Regs used in ___awdiv: [wreg+status,2+status,0]
  9439                           
  9440  16AC  1683               	bsf	3,5	;RP0=1, select bank1
  9441  16AD  1303               	bcf	3,6	;RP1=0, select bank1
  9442  16AE  01B7               	clrf	___awdiv@sign^(0+128)
  9443  16AF                     l2729:
  9444  16AF  1FB2               	btfss	(___awdiv@divisor+1)^(0+128),7
  9445  16B0  2EB2               	goto	u3731
  9446  16B1  2EB3               	goto	u3730
  9447  16B2                     u3731:
  9448  16B2  2EBA               	goto	l2735
  9449  16B3                     u3730:
  9450  16B3                     l2731:
  9451  16B3  09B1               	comf	___awdiv@divisor^(0+128),f
  9452  16B4  09B2               	comf	(___awdiv@divisor+1)^(0+128),f
  9453  16B5  0AB1               	incf	___awdiv@divisor^(0+128),f
  9454  16B6  1903               	skipnz
  9455  16B7  0AB2               	incf	(___awdiv@divisor+1)^(0+128),f
  9456  16B8                     l2733:
  9457  16B8  01B7               	clrf	___awdiv@sign^(0+128)
  9458  16B9  0AB7               	incf	___awdiv@sign^(0+128),f
  9459  16BA                     l2735:
  9460  16BA  1FB4               	btfss	(___awdiv@dividend+1)^(0+128),7
  9461  16BB  2EBD               	goto	u3741
  9462  16BC  2EBE               	goto	u3740
  9463  16BD                     u3741:
  9464  16BD  2EC7               	goto	l2741
  9465  16BE                     u3740:
  9466  16BE                     l2737:
  9467  16BE  09B3               	comf	___awdiv@dividend^(0+128),f
  9468  16BF  09B4               	comf	(___awdiv@dividend+1)^(0+128),f
  9469  16C0  0AB3               	incf	___awdiv@dividend^(0+128),f
  9470  16C1  1903               	skipnz
  9471  16C2  0AB4               	incf	(___awdiv@dividend+1)^(0+128),f
  9472  16C3                     l2739:
  9473  16C3  3001               	movlw	1
  9474  16C4  00B5               	movwf	??___awdiv^(0+128)
  9475  16C5  0835               	movf	??___awdiv^(0+128),w
  9476  16C6  06B7               	xorwf	___awdiv@sign^(0+128),f
  9477  16C7                     l2741:
  9478  16C7  01B8               	clrf	___awdiv@quotient^(0+128)
  9479  16C8  01B9               	clrf	(___awdiv@quotient+1)^(0+128)
  9480  16C9                     l2743:
  9481  16C9  0831               	movf	___awdiv@divisor^(0+128),w
  9482  16CA  0432               	iorwf	(___awdiv@divisor+1)^(0+128),w
  9483  16CB  1903               	btfsc	3,2
  9484  16CC  2ECE               	goto	u3751
  9485  16CD  2ECF               	goto	u3750
  9486  16CE                     u3751:
  9487  16CE  2F06               	goto	l2763
  9488  16CF                     u3750:
  9489  16CF                     l2745:
  9490  16CF  01B6               	clrf	___awdiv@counter^(0+128)
  9491  16D0  0AB6               	incf	___awdiv@counter^(0+128),f
  9492  16D1  2EDD               	goto	l2751
  9493  16D2                     l2747:
  9494  16D2  3001               	movlw	1
  9495  16D3                     u3765:
  9496  16D3  1003               	clrc
  9497  16D4  0DB1               	rlf	___awdiv@divisor^(0+128),f
  9498  16D5  0DB2               	rlf	(___awdiv@divisor+1)^(0+128),f
  9499  16D6  3EFF               	addlw	-1
  9500  16D7  1D03               	skipz
  9501  16D8  2ED3               	goto	u3765
  9502  16D9                     l2749:
  9503  16D9  3001               	movlw	1
  9504  16DA  00B5               	movwf	??___awdiv^(0+128)
  9505  16DB  0835               	movf	??___awdiv^(0+128),w
  9506  16DC  07B6               	addwf	___awdiv@counter^(0+128),f
  9507  16DD                     l2751:
  9508  16DD  1FB2               	btfss	(___awdiv@divisor+1)^(0+128),7
  9509  16DE  2EE0               	goto	u3771
  9510  16DF  2EE1               	goto	u3770
  9511  16E0                     u3771:
  9512  16E0  2ED2               	goto	l2747
  9513  16E1                     u3770:
  9514  16E1                     l2753:
  9515  16E1  3001               	movlw	1
  9516  16E2                     u3785:
  9517  16E2  1003               	clrc
  9518  16E3  0DB8               	rlf	___awdiv@quotient^(0+128),f
  9519  16E4  0DB9               	rlf	(___awdiv@quotient+1)^(0+128),f
  9520  16E5  3EFF               	addlw	-1
  9521  16E6  1D03               	skipz
  9522  16E7  2EE2               	goto	u3785
  9523  16E8  0832               	movf	(___awdiv@divisor+1)^(0+128),w
  9524  16E9  0234               	subwf	(___awdiv@dividend+1)^(0+128),w
  9525  16EA  1D03               	skipz
  9526  16EB  2EEE               	goto	u3795
  9527  16EC  0831               	movf	___awdiv@divisor^(0+128),w
  9528  16ED  0233               	subwf	___awdiv@dividend^(0+128),w
  9529  16EE                     u3795:
  9530  16EE  1C03               	skipc
  9531  16EF  2EF1               	goto	u3791
  9532  16F0  2EF2               	goto	u3790
  9533  16F1                     u3791:
  9534  16F1  2EF9               	goto	l2759
  9535  16F2                     u3790:
  9536  16F2                     l2755:
  9537  16F2  0831               	movf	___awdiv@divisor^(0+128),w
  9538  16F3  02B3               	subwf	___awdiv@dividend^(0+128),f
  9539  16F4  0832               	movf	(___awdiv@divisor+1)^(0+128),w
  9540  16F5  1C03               	skipc
  9541  16F6  03B4               	decf	(___awdiv@dividend+1)^(0+128),f
  9542  16F7  02B4               	subwf	(___awdiv@dividend+1)^(0+128),f
  9543  16F8                     l2757:
  9544  16F8  1438               	bsf	___awdiv@quotient^(0+128),0
  9545  16F9                     l2759:
  9546  16F9  3001               	movlw	1
  9547  16FA                     u3805:
  9548  16FA  1003               	clrc
  9549  16FB  0CB2               	rrf	(___awdiv@divisor+1)^(0+128),f
  9550  16FC  0CB1               	rrf	___awdiv@divisor^(0+128),f
  9551  16FD  3EFF               	addlw	-1
  9552  16FE  1D03               	skipz
  9553  16FF  2EFA               	goto	u3805
  9554  1700                     l2761:
  9555  1700  3001               	movlw	1
  9556  1701  02B6               	subwf	___awdiv@counter^(0+128),f
  9557  1702  1D03               	btfss	3,2
  9558  1703  2F05               	goto	u3811
  9559  1704  2F06               	goto	u3810
  9560  1705                     u3811:
  9561  1705  2EE1               	goto	l2753
  9562  1706                     u3810:
  9563  1706                     l2763:
  9564  1706  0837               	movf	___awdiv@sign^(0+128),w
  9565  1707  1903               	btfsc	3,2
  9566  1708  2F0A               	goto	u3821
  9567  1709  2F0B               	goto	u3820
  9568  170A                     u3821:
  9569  170A  2F10               	goto	l2767
  9570  170B                     u3820:
  9571  170B                     l2765:
  9572  170B  09B8               	comf	___awdiv@quotient^(0+128),f
  9573  170C  09B9               	comf	(___awdiv@quotient+1)^(0+128),f
  9574  170D  0AB8               	incf	___awdiv@quotient^(0+128),f
  9575  170E  1903               	skipnz
  9576  170F  0AB9               	incf	(___awdiv@quotient+1)^(0+128),f
  9577  1710                     l2767:
  9578  1710  0839               	movf	(___awdiv@quotient+1)^(0+128),w
  9579  1711  00B2               	movwf	(?___awdiv+1)^(0+128)
  9580  1712  0838               	movf	___awdiv@quotient^(0+128),w
  9581  1713  00B1               	movwf	?___awdiv^(0+128)
  9582  1714                     l540:
  9583  1714  0008               	return
  9584  1715                     __end_of___awdiv:
  9585                           
  9586                           	psect	text41
  9587  075D                     __ptext41:	
  9588 ;; *************** function _isr *****************
  9589 ;; Defined at:
  9590 ;;		line 66 in file "MAIN_M.c"
  9591 ;; Parameters:    Size  Location     Type
  9592 ;;		None
  9593 ;; Auto vars:     Size  Location     Type
  9594 ;;		None
  9595 ;; Return value:  Size  Location     Type
  9596 ;;                  1    wreg      void 
  9597 ;; Registers used:
  9598 ;;		wreg, status,2, status,0, pclath, cstack
  9599 ;; Tracked objects:
  9600 ;;		On entry : 0/0
  9601 ;;		On exit  : 0/0
  9602 ;;		Unchanged: 0/0
  9603 ;; Data sizes:     COMMON   BANK0   BANK1   BANK3   BANK2
  9604 ;;      Params:         0       0       0       0       0
  9605 ;;      Locals:         0       0       0       0       0
  9606 ;;      Temps:          3       0       0       0       0
  9607 ;;      Totals:         3       0       0       0       0
  9608 ;;Total ram usage:        3 bytes
  9609 ;; Hardware stack levels used: 1
  9610 ;; Hardware stack levels required when called: 1
  9611 ;; This function calls:
  9612 ;;		i1_ANTI_REBOTE
  9613 ;; This function is called by:
  9614 ;;		Interrupt level 1
  9615 ;; This function uses a non-reentrant model
  9616 ;;
  9617                           
  9618  075D                     _isr:	
  9619                           ;psect for function _isr
  9620                           
  9621  075D                     i1l1907:
  9622                           
  9623                           ;MAIN_M.c: 67:     if (INTCONbits.RBIF==1){
  9624  075D  1C0B               	btfss	11,0	;volatile
  9625  075E  2F60               	goto	u196_21
  9626  075F  2F61               	goto	u196_20
  9627  0760                     u196_21:
  9628  0760  2FD4               	goto	i1l118
  9629  0761                     u196_20:
  9630  0761                     i1l1909:
  9631                           
  9632                           ;MAIN_M.c: 68:         if (RB0==0){
  9633  0761  1283               	bcf	3,5	;RP0=0, select bank0
  9634  0762  1303               	bcf	3,6	;RP1=0, select bank0
  9635  0763  1806               	btfsc	6,0	;volatile
  9636  0764  2F66               	goto	u197_21
  9637  0765  2F67               	goto	u197_20
  9638  0766                     u197_21:
  9639  0766  2F75               	goto	i1l106
  9640  0767                     u197_20:
  9641  0767                     i1l1911:
  9642                           
  9643                           ;MAIN_M.c: 69:             if(ANTI_REBOTE())
  9644  0767  160A  118A  2242  120A  118A  	fcall	i1_ANTI_REBOTE
  9645  076C  1C03               	btfss	3,0
  9646  076D  2F6F               	goto	u198_21
  9647  076E  2F70               	goto	u198_20
  9648  076F                     u198_21:
  9649  076F  2F8B               	goto	i1l1921
  9650  0770                     u198_20:
  9651  0770                     i1l1913:
  9652                           
  9653                           ;MAIN_M.c: 70:                 select++;
  9654  0770  3001               	movlw	1
  9655  0771  00F4               	movwf	??_isr
  9656  0772  0874               	movf	??_isr,w
  9657  0773  07F9               	addwf	_select,f
  9658  0774  2F8B               	goto	i1l1921
  9659  0775                     i1l106:
  9660  0775  1886               	btfsc	6,1	;volatile
  9661  0776  2F78               	goto	u199_21
  9662  0777  2F79               	goto	u199_20
  9663  0778                     u199_21:
  9664  0778  2F8B               	goto	i1l1921
  9665  0779                     u199_20:
  9666  0779                     i1l1915:
  9667                           
  9668                           ;MAIN_M.c: 73:             if(select != 0)
  9669  0779  0879               	movf	_select,w
  9670  077A  1903               	btfsc	3,2
  9671  077B  2F7D               	goto	u200_21
  9672  077C  2F7E               	goto	u200_20
  9673  077D                     u200_21:
  9674  077D  2F8B               	goto	i1l1921
  9675  077E                     u200_20:
  9676  077E                     i1l1917:
  9677                           
  9678                           ;MAIN_M.c: 74:                 if(ANTI_REBOTE())
  9679  077E  160A  118A  2242  120A  118A  	fcall	i1_ANTI_REBOTE
  9680  0783  1C03               	btfss	3,0
  9681  0784  2F86               	goto	u201_21
  9682  0785  2F87               	goto	u201_20
  9683  0786                     u201_21:
  9684  0786  2F8B               	goto	i1l1921
  9685  0787                     u201_20:
  9686  0787                     i1l1919:
  9687                           
  9688                           ;MAIN_M.c: 75:                     parametro++;
  9689  0787  3001               	movlw	1
  9690  0788  00F4               	movwf	??_isr
  9691  0789  0874               	movf	??_isr,w
  9692  078A  07F8               	addwf	_parametro,f
  9693  078B                     i1l1921:
  9694                           
  9695                           ;MAIN_M.c: 77:         if(select >5)
  9696  078B  3006               	movlw	6
  9697  078C  0279               	subwf	_select,w
  9698  078D  1C03               	skipc
  9699  078E  2F90               	goto	u202_21
  9700  078F  2F91               	goto	u202_20
  9701  0790                     u202_21:
  9702  0790  2F92               	goto	i1l1925
  9703  0791                     u202_20:
  9704  0791                     i1l1923:
  9705                           
  9706                           ;MAIN_M.c: 78:             select = 0;
  9707  0791  01F9               	clrf	_select
  9708  0792                     i1l1925:
  9709                           
  9710                           ;MAIN_M.c: 80:         if(select == 1 && parametro >23)
  9711  0792  0379               	decf	_select,w
  9712  0793  1D03               	btfss	3,2
  9713  0794  2F96               	goto	u203_21
  9714  0795  2F97               	goto	u203_20
  9715  0796                     u203_21:
  9716  0796  2F9E               	goto	i1l1931
  9717  0797                     u203_20:
  9718  0797                     i1l1927:
  9719  0797  3018               	movlw	24
  9720  0798  0278               	subwf	_parametro,w
  9721  0799  1C03               	skipc
  9722  079A  2F9C               	goto	u204_21
  9723  079B  2F9D               	goto	u204_20
  9724  079C                     u204_21:
  9725  079C  2F9E               	goto	i1l1931
  9726  079D                     u204_20:
  9727  079D                     i1l1929:
  9728                           
  9729                           ;MAIN_M.c: 81:             parametro = 0;
  9730  079D  01F8               	clrf	_parametro
  9731  079E                     i1l1931:
  9732                           
  9733                           ;MAIN_M.c: 82:         if(select == 2 && parametro >59)
  9734  079E  3002               	movlw	2
  9735  079F  0679               	xorwf	_select,w
  9736  07A0  1D03               	btfss	3,2
  9737  07A1  2FA3               	goto	u205_21
  9738  07A2  2FA4               	goto	u205_20
  9739  07A3                     u205_21:
  9740  07A3  2FAB               	goto	i1l1937
  9741  07A4                     u205_20:
  9742  07A4                     i1l1933:
  9743  07A4  303C               	movlw	60
  9744  07A5  0278               	subwf	_parametro,w
  9745  07A6  1C03               	skipc
  9746  07A7  2FA9               	goto	u206_21
  9747  07A8  2FAA               	goto	u206_20
  9748  07A9                     u206_21:
  9749  07A9  2FAB               	goto	i1l1937
  9750  07AA                     u206_20:
  9751  07AA                     i1l1935:
  9752                           
  9753                           ;MAIN_M.c: 83:             parametro = 0;
  9754  07AA  01F8               	clrf	_parametro
  9755  07AB                     i1l1937:
  9756                           
  9757                           ;MAIN_M.c: 84:         if(select == 3 && parametro >12)
  9758  07AB  3003               	movlw	3
  9759  07AC  0679               	xorwf	_select,w
  9760  07AD  1D03               	btfss	3,2
  9761  07AE  2FB0               	goto	u207_21
  9762  07AF  2FB1               	goto	u207_20
  9763  07B0                     u207_21:
  9764  07B0  2FB9               	goto	i1l1943
  9765  07B1                     u207_20:
  9766  07B1                     i1l1939:
  9767  07B1  300D               	movlw	13
  9768  07B2  0278               	subwf	_parametro,w
  9769  07B3  1C03               	skipc
  9770  07B4  2FB6               	goto	u208_21
  9771  07B5  2FB7               	goto	u208_20
  9772  07B6                     u208_21:
  9773  07B6  2FB9               	goto	i1l1943
  9774  07B7                     u208_20:
  9775  07B7                     i1l1941:
  9776                           
  9777                           ;MAIN_M.c: 85:             parametro = 1;
  9778  07B7  01F8               	clrf	_parametro
  9779  07B8  0AF8               	incf	_parametro,f
  9780  07B9                     i1l1943:
  9781                           
  9782                           ;MAIN_M.c: 86:         if(select == 3 && parametro ==0)
  9783  07B9  3003               	movlw	3
  9784  07BA  0679               	xorwf	_select,w
  9785  07BB  1D03               	btfss	3,2
  9786  07BC  2FBE               	goto	u209_21
  9787  07BD  2FBF               	goto	u209_20
  9788  07BE                     u209_21:
  9789  07BE  2FC6               	goto	i1l1949
  9790  07BF                     u209_20:
  9791  07BF                     i1l1945:
  9792  07BF  0878               	movf	_parametro,w
  9793  07C0  1D03               	btfss	3,2
  9794  07C1  2FC3               	goto	u210_21
  9795  07C2  2FC4               	goto	u210_20
  9796  07C3                     u210_21:
  9797  07C3  2FC6               	goto	i1l1949
  9798  07C4                     u210_20:
  9799  07C4                     i1l1947:
  9800                           
  9801                           ;MAIN_M.c: 87:             parametro = 1;
  9802  07C4  01F8               	clrf	_parametro
  9803  07C5  0AF8               	incf	_parametro,f
  9804  07C6                     i1l1949:
  9805                           
  9806                           ;MAIN_M.c: 88:         if(select == 4 && parametro >99)
  9807  07C6  3004               	movlw	4
  9808  07C7  0679               	xorwf	_select,w
  9809  07C8  1D03               	btfss	3,2
  9810  07C9  2FCB               	goto	u211_21
  9811  07CA  2FCC               	goto	u211_20
  9812  07CB                     u211_21:
  9813  07CB  2FD3               	goto	i1l1955
  9814  07CC                     u211_20:
  9815  07CC                     i1l1951:
  9816  07CC  3064               	movlw	100
  9817  07CD  0278               	subwf	_parametro,w
  9818  07CE  1C03               	skipc
  9819  07CF  2FD1               	goto	u212_21
  9820  07D0  2FD2               	goto	u212_20
  9821  07D1                     u212_21:
  9822  07D1  2FD3               	goto	i1l1955
  9823  07D2                     u212_20:
  9824  07D2                     i1l1953:
  9825                           
  9826                           ;MAIN_M.c: 89:             parametro = 0;
  9827  07D2  01F8               	clrf	_parametro
  9828  07D3                     i1l1955:
  9829                           
  9830                           ;MAIN_M.c: 91:         INTCONbits.RBIF=0;
  9831  07D3  100B               	bcf	11,0	;volatile
  9832  07D4                     i1l118:
  9833  07D4  0876               	movf	??_isr+2,w
  9834  07D5  008A               	movwf	10
  9835  07D6  0E75               	swapf	??_isr+1,w
  9836  07D7  0083               	movwf	3
  9837  07D8  0EFE               	swapf	btemp,f
  9838  07D9  0E7E               	swapf	btemp,w
  9839  07DA  0009               	retfie
  9840  07DB                     __end_of_isr:
  9841                           
  9842                           	psect	intentry
  9843  0004                     __pintentry:	
  9844                           ;incstack = 0
  9845                           ; Regs used in _isr: [wreg+status,2+status,0+pclath+cstack]
  9846                           
  9847  0004                     interrupt_function:
  9848  007E                     saved_w	set	btemp
  9849  0004  00FE               	movwf	btemp
  9850  0005  0E03               	swapf	3,w
  9851  0006  00F5               	movwf	??_isr+1
  9852  0007  080A               	movf	10,w
  9853  0008  00F6               	movwf	??_isr+2
  9854  0009  120A  118A  2F5D   	ljmp	_isr
  9855                           
  9856                           	psect	text42
  9857  1242                     __ptext42:	
  9858 ;; *************** function i1_ANTI_REBOTE *****************
  9859 ;; Defined at:
  9860 ;;		line 326 in file "MAIN_M.c"
  9861 ;; Parameters:    Size  Location     Type
  9862 ;;		None
  9863 ;; Auto vars:     Size  Location     Type
  9864 ;;  i               1    3[COMMON] unsigned char 
  9865 ;;  contador        1    2[COMMON] unsigned char 
  9866 ;; Return value:  Size  Location     Type
  9867 ;;		None               void
  9868 ;; Registers used:
  9869 ;;		wreg, status,2, status,0
  9870 ;; Tracked objects:
  9871 ;;		On entry : 0/0
  9872 ;;		On exit  : 0/0
  9873 ;;		Unchanged: 0/0
  9874 ;; Data sizes:     COMMON   BANK0   BANK1   BANK3   BANK2
  9875 ;;      Params:         0       0       0       0       0
  9876 ;;      Locals:         2       0       0       0       0
  9877 ;;      Temps:          2       0       0       0       0
  9878 ;;      Totals:         4       0       0       0       0
  9879 ;;Total ram usage:        4 bytes
  9880 ;; Hardware stack levels used: 1
  9881 ;; This function calls:
  9882 ;;		Nothing
  9883 ;; This function is called by:
  9884 ;;		_isr
  9885 ;; This function uses a non-reentrant model
  9886 ;;
  9887                           
  9888  1242                     i1_ANTI_REBOTE:	
  9889                           ;psect for function i1_ANTI_REBOTE
  9890                           
  9891  1242                     i1l1881:	
  9892                           ;incstack = 0
  9893                           ; Regs used in i1_ANTI_REBOTE: [wreg+status,2+status,0]
  9894                           
  9895                           
  9896                           ;MAIN_M.c: 327:     uint8_t contador = 0;
  9897  1242  01F2               	clrf	i1ANTI_REBOTE@contador
  9898                           
  9899                           ;MAIN_M.c: 328:     for(uint8_t i=0;i<5;i++){
  9900  1243  01F3               	clrf	i1ANTI_REBOTE@i
  9901  1244                     i1l170:
  9902                           
  9903                           ;MAIN_M.c: 329:         if(!RB0 || !RB1)
  9904  1244  1283               	bcf	3,5	;RP0=0, select bank0
  9905  1245  1303               	bcf	3,6	;RP1=0, select bank0
  9906  1246  1C06               	btfss	6,0	;volatile
  9907  1247  2A49               	goto	u192_21
  9908  1248  2A4A               	goto	u192_20
  9909  1249                     u192_21:
  9910  1249  2A4E               	goto	i1l1889
  9911  124A                     u192_20:
  9912  124A                     i1l1887:
  9913  124A  1886               	btfsc	6,1	;volatile
  9914  124B  2A4D               	goto	u193_21
  9915  124C  2A4E               	goto	u193_20
  9916  124D                     u193_21:
  9917  124D  2A52               	goto	i1l1891
  9918  124E                     u193_20:
  9919  124E                     i1l1889:
  9920                           
  9921                           ;MAIN_M.c: 330:             contador++;
  9922  124E  3001               	movlw	1
  9923  124F  00F0               	movwf	??i1_ANTI_REBOTE
  9924  1250  0870               	movf	??i1_ANTI_REBOTE,w
  9925  1251  07F2               	addwf	i1ANTI_REBOTE@contador,f
  9926  1252                     i1l1891:
  9927                           
  9928                           ;MAIN_M.c: 331:         _delay((unsigned long)((10)*(8000000/4000.0)));
  9929  1252  301A               	movlw	26
  9930  1253  00F1               	movwf	??i1_ANTI_REBOTE+1
  9931  1254  30F8               	movlw	248
  9932  1255  00F0               	movwf	??i1_ANTI_REBOTE
  9933  1256                     u446_27:
  9934  1256  0BF0               	decfsz	??i1_ANTI_REBOTE,f
  9935  1257  2A56               	goto	u446_27
  9936  1258  0BF1               	decfsz	??i1_ANTI_REBOTE+1,f
  9937  1259  2A56               	goto	u446_27
  9938  125A  0000               	nop
  9939  125B                     i1l1893:
  9940                           
  9941                           ;MAIN_M.c: 332:     }
  9942  125B  3001               	movlw	1
  9943  125C  00F0               	movwf	??i1_ANTI_REBOTE
  9944  125D  0870               	movf	??i1_ANTI_REBOTE,w
  9945  125E  07F3               	addwf	i1ANTI_REBOTE@i,f
  9946  125F  3005               	movlw	5
  9947  1260  0273               	subwf	i1ANTI_REBOTE@i,w
  9948  1261  1C03               	skipc
  9949  1262  2A64               	goto	u194_21
  9950  1263  2A65               	goto	u194_20
  9951  1264                     u194_21:
  9952  1264  2A44               	goto	i1l170
  9953  1265                     u194_20:
  9954  1265                     i1l1895:
  9955                           
  9956                           ;MAIN_M.c: 333:     if(contador >2)
  9957  1265  3003               	movlw	3
  9958  1266  0272               	subwf	i1ANTI_REBOTE@contador,w
  9959  1267  1C03               	skipc
  9960  1268  2A6A               	goto	u195_21
  9961  1269  2A6B               	goto	u195_20
  9962  126A                     u195_21:
  9963  126A  2A6D               	goto	i1l1903
  9964  126B                     u195_20:
  9965  126B                     i1l1897:
  9966                           
  9967                           ;MAIN_M.c: 334:         return 1;
  9968  126B  1403               	setc
  9969  126C  2A6E               	goto	i1l176
  9970  126D                     i1l1903:
  9971                           
  9972                           ;MAIN_M.c: 336:         return 0;
  9973  126D  1003               	clrc
  9974  126E                     i1l176:
  9975  126E  0008               	return
  9976  126F                     __end_ofi1_ANTI_REBOTE:
  9977  007E                     btemp	set	126	;btemp
  9978  007E                     wtemp0	set	126
  9979                           
  9980                           	psect	idloc
  9981                           
  9982                           ;Config register IDLOC0 @ 0x2000
  9983                           ;	unspecified, using default values
  9984  2000                     	org	8192
  9985  2000  3FFF               	dw	16383
  9986                           
  9987                           ;Config register IDLOC1 @ 0x2001
  9988                           ;	unspecified, using default values
  9989  2001                     	org	8193
  9990  2001  3FFF               	dw	16383
  9991                           
  9992                           ;Config register IDLOC2 @ 0x2002
  9993                           ;	unspecified, using default values
  9994  2002                     	org	8194
  9995  2002  3FFF               	dw	16383
  9996                           
  9997                           ;Config register IDLOC3 @ 0x2003
  9998                           ;	unspecified, using default values
  9999  2003                     	org	8195
 10000  2003  3FFF               	dw	16383
 10001                           
 10002                           	psect	config
 10003                           
 10004                           ;Config register CONFIG1 @ 0x2007
 10005                           ;	Oscillator Selection bits
 10006                           ;	FOSC = INTRC_NOCLKOUT, INTOSCIO oscillator: I/O function on RA6/OSC2/CLKOUT pin, I/O f
      +                          unction on RA7/OSC1/CLKIN
 10007                           ;	Watchdog Timer Enable bit
 10008                           ;	WDTE = OFF, WDT disabled and can be enabled by SWDTEN bit of the WDTCON register
 10009                           ;	Power-up Timer Enable bit
 10010                           ;	PWRTE = OFF, PWRT disabled
 10011                           ;	RE3/MCLR pin function select bit
 10012                           ;	MCLRE = OFF, RE3/MCLR pin function is digital input, MCLR internally tied to VDD
 10013                           ;	Code Protection bit
 10014                           ;	CP = OFF, Program memory code protection is disabled
 10015                           ;	Data Code Protection bit
 10016                           ;	CPD = OFF, Data memory code protection is disabled
 10017                           ;	Brown Out Reset Selection bits
 10018                           ;	BOREN = OFF, BOR disabled
 10019                           ;	Internal External Switchover bit
 10020                           ;	IESO = OFF, Internal/External Switchover mode is disabled
 10021                           ;	Fail-Safe Clock Monitor Enabled bit
 10022                           ;	FCMEN = OFF, Fail-Safe Clock Monitor is disabled
 10023                           ;	Low Voltage Programming Enable bit
 10024                           ;	LVP = OFF, RB3 pin has digital I/O, HV on MCLR must be used for programming
 10025                           ;	In-Circuit Debugger Mode bit
 10026                           ;	DEBUG = 0x1, unprogrammed default
 10027  2007                     	org	8199
 10028  2007  20D4               	dw	8404
 10029                           
 10030                           ;Config register CONFIG2 @ 0x2008
 10031                           ;	Brown-out Reset Selection bit
 10032                           ;	BOR4V = BOR40V, Brown-out Reset set to 4.0V
 10033                           ;	Flash Program Memory Self Write Enable bits
 10034                           ;	WRT = OFF, Write protection off
 10035  2008                     	org	8200
 10036  2008  3FFF               	dw	16383

Data Sizes:
    Strings     9
    Constant    0
    Data        20
    BSS         13
    Persistent  0
    Stack       0

Auto Spaces:
    Space          Size  Autos    Used
    COMMON           14      7      10
    BANK0            80     80      80
    BANK1            80     57      76
    BANK3            96      0      11
    BANK2            96      0       0

Pointer List with Targets:

    LCD_STRING@a	PTR unsigned char  size(2) Largest target is 11
		 -> STR_3(CODE[3]), Date(BANK3[11]), Time(BANK1[9]), STR_2(CODE[2]), 
		 -> STR_1(CODE[4]), 


Critical Paths under _main in COMMON

    None.

Critical Paths under _isr in COMMON

    _isr->i1_ANTI_REBOTE

Critical Paths under _main in BANK0

    _setup->_I2C_Master_Init
    _LCD_INIT->_LCD_COM
    _I2C_Master_Init->___lldiv
    _UNIDAD->___wmul
    _DECENA->___wmul
    ___wmul->_CENTENA
    ___flsub->___wmul
    _CENTENA->___fltol
    ___fltol->___fldiv
    ___flmul->___xxtofl
    ___fldiv->___flmul
    _RTC_WRITE->_I2C_Master_Write
    _RTC_READ->_I2C_Master_Read
    _PAM->_BCD_DECIMAL
    _BCD_DECIMAL->___bmul
    _LCD_CLEAR->_LCD_PORT
    _LCD_XY->_LCD_COM
    _LCD_COM->_LCD_PORT
    _LCD_STRING->_LCD_CHAR
    _LCD_CHAR->_LCD_PORT
    ___awdiv->___wmul

Critical Paths under _isr in BANK0

    None.

Critical Paths under _main in BANK1

    _main->_UNIDAD
    _UNIDAD->_DECENA
    _DECENA->___awdiv
    ___wmul->_CENTENA
    ___flsub->___wmul
    _RTC_PRINT->___awdiv
    _CONFIGURAR_v2->_DECIMAL_BCD
    _DECIMAL_BCD->___awdiv
    ___awdiv->___flsub

Critical Paths under _isr in BANK1

    None.

Critical Paths under _main in BANK3

    None.

Critical Paths under _isr in BANK3

    None.

Critical Paths under _main in BANK2

    None.

Critical Paths under _isr in BANK2

    None.

Call Graph Tables:

 ---------------------------------------------------------------------------------
 (Depth) Function   	        Calls       Base Space   Used Autos Params    Refs
 ---------------------------------------------------------------------------------
 (0) _main                                                 4     4      0   64635
                                             53 BANK1      4     4      0
                            _CENTENA
                      _CONFIGURAR_v2
                             _DECENA
                    _I2C_Master_Read
                   _I2C_Master_Start
                    _I2C_Master_Stop
                   _I2C_Master_Write
                           _LCD_CHAR
                          _LCD_CLEAR
                         _LCD_STRING
                             _LCD_XY
                                _PAM
                          _RTC_PRINT
                           _RTC_READ
                          _RTC_WRITE
                             _UNIDAD
                              _setup
 ---------------------------------------------------------------------------------
 (1) _setup                                                0     0      0     589
                    _I2C_Master_Init
                            _IOC_INT
                           _LCD_INIT
                         _OSCILLATOR
 ---------------------------------------------------------------------------------
 (2) _OSCILLATOR                                           3     3      0      22
                                              0 BANK0      3     3      0
 ---------------------------------------------------------------------------------
 (2) _LCD_INIT                                             2     2      0      93
                                              4 BANK0      2     2      0
                            _LCD_COM
                           _LCD_PORT
 ---------------------------------------------------------------------------------
 (2) _IOC_INT                                              1     1      0      62
                                              0 BANK0      1     1      0
 ---------------------------------------------------------------------------------
 (2) _I2C_Master_Init                                      8     4      4     412
                                             14 BANK0      8     4      4
                            ___lldiv
 ---------------------------------------------------------------------------------
 (3) ___lldiv                                             14     6      8     314
                                              0 BANK0     14     6      8
 ---------------------------------------------------------------------------------
 (1) _UNIDAD                                              15    15      0   27169
                                             38 BANK1     15    15      0
                            _CENTENA
                             _DECENA
                            ___flmul
                            ___flsub
                            ___fltol
                             ___wmul
                           ___xxtofl
 ---------------------------------------------------------------------------------
 (2) _DECENA                                              12    12      0   14293
                                             26 BANK1     12    12      0
                            _CENTENA
                            ___awdiv
                            ___flmul
                            ___flsub
                            ___fltol
                             ___wmul
                           ___xxtofl
 ---------------------------------------------------------------------------------
 (2) ___wmul                                               6     2      4     676
                                             78 BANK0      2     2      0
                                              5 BANK1      4     0      4
                            _CENTENA (ARG)
                            ___fltol (ARG)
                           ___xxtofl (ARG)
 ---------------------------------------------------------------------------------
 (2) ___flsub                                              8     0      8    2741
                                              9 BANK1      8     0      8
                            _CENTENA (ARG)
                            ___fladd
                            ___flmul (ARG)
                            ___fltol (ARG)
                             ___wmul (ARG)
                           ___xxtofl (ARG)
 ---------------------------------------------------------------------------------
 (3) ___fladd                                             20    12      8    2136
                                              0 BANK0     20    12      8
 ---------------------------------------------------------------------------------
 (3) _CENTENA                                              6     6      0    5274
                                             77 BANK0      1     1      0
                                              0 BANK1      5     5      0
                            ___fldiv
                            ___flmul
                            ___fltol
                           ___xxtofl
 ---------------------------------------------------------------------------------
 (2) ___xxtofl                                            14    10      4     778
                                              0 BANK0     14    10      4
 ---------------------------------------------------------------------------------
 (2) ___fltol                                             11     7      4     457
                                             66 BANK0     11     7      4
                            ___fladd (ARG)
                            ___fldiv (ARG)
                            ___flmul (ARG)
                           ___xxtofl (ARG)
 ---------------------------------------------------------------------------------
 (2) ___flmul                                             26    18      8    2721
                                             14 BANK0     26    18      8
                          __Umul8_16
                           ___xxtofl (ARG)
 ---------------------------------------------------------------------------------
 (3) __Umul8_16                                            9     7      2     799
                                              0 BANK0      9     7      2
 ---------------------------------------------------------------------------------
 (4) ___fldiv                                             26    18      8    1273
                                             40 BANK0     26    18      8
                            ___flmul (ARG)
                           ___xxtofl (ARG)
 ---------------------------------------------------------------------------------
 (1) _RTC_WRITE                                            7     2      5    2104
                                              2 BANK0      7     2      5
                   _I2C_Master_Start
                    _I2C_Master_Stop
                   _I2C_Master_Write
 ---------------------------------------------------------------------------------
 (1) _RTC_READ                                             8     4      4    2113
                                              6 BANK0      8     4      4
                    _I2C_Master_Read
                   _I2C_Master_Start
                    _I2C_Master_Stop
                   _I2C_Master_Write
 ---------------------------------------------------------------------------------
 (2) _I2C_Master_Write                                     2     0      2     661
                                              0 BANK0      2     0      2
                    _I2C_Master_Wait
 ---------------------------------------------------------------------------------
 (2) _I2C_Master_Stop                                      0     0      0       0
                    _I2C_Master_Wait
 ---------------------------------------------------------------------------------
 (2) _I2C_Master_Start                                     0     0      0       0
                    _I2C_Master_Wait
 ---------------------------------------------------------------------------------
 (2) _I2C_Master_Read                                      6     4      2     245
                                              0 BANK0      6     4      2
                    _I2C_Master_Wait
 ---------------------------------------------------------------------------------
 (3) _I2C_Master_Wait                                      0     0      0       0
 ---------------------------------------------------------------------------------
 (1) _RTC_PRINT                                            9     9      0    4756
                                             26 BANK1      9     9      0
                        _BCD_DECIMAL
                         _LCD_STRING
                             _LCD_XY
                            ___awdiv
                            ___awmod
 ---------------------------------------------------------------------------------
 (1) _PAM                                                  3     2      1     631
                                              8 BANK0      3     2      1
                        _ANTI_REBOTE
                        _BCD_DECIMAL
 ---------------------------------------------------------------------------------
 (2) _BCD_DECIMAL                                          4     4      0     212
                                              4 BANK0      4     4      0
                             ___bmul
 ---------------------------------------------------------------------------------
 (3) ___bmul                                               4     3      1     168
                                              0 BANK0      4     3      1
 ---------------------------------------------------------------------------------
 (2) _ANTI_REBOTE                                          4     4      0      70
                                              0 BANK0      4     4      0
 ---------------------------------------------------------------------------------
 (1) _LCD_CLEAR                                            0     0      0      31
                           _LCD_PORT
 ---------------------------------------------------------------------------------
 (1) _CONFIGURAR_v2                                        5     2      3    5429
                                             32 BANK1      5     2      3
                        _DECIMAL_BCD
                         _LCD_STRING
                             _LCD_XY
                           _Parpadeo
 ---------------------------------------------------------------------------------
 (2) _Parpadeo                                             3     3      0      24
                                              0 BANK0      3     3      0
 ---------------------------------------------------------------------------------
 (2) _LCD_XY                                               2     1      1     636
                                              4 BANK0      2     1      1
                            _LCD_COM
 ---------------------------------------------------------------------------------
 (3) _LCD_COM                                              3     3      0      62
                                              1 BANK0      3     3      0
                           _LCD_PORT
 ---------------------------------------------------------------------------------
 (2) _LCD_STRING                                           7     5      2     642
                                              4 BANK0      7     5      2
                           _LCD_CHAR
 ---------------------------------------------------------------------------------
 (3) _LCD_CHAR                                             3     3      0      62
                                              1 BANK0      3     3      0
                           _LCD_PORT
 ---------------------------------------------------------------------------------
 (3) _LCD_PORT                                             1     1      0      31
                                              0 BANK0      1     1      0
 ---------------------------------------------------------------------------------
 (2) _DECIMAL_BCD                                          6     6      0    2920
                                             26 BANK1      6     6      0
                            ___awdiv
                            ___awmod
 ---------------------------------------------------------------------------------
 (2) ___awmod                                              7     3      4    1360
                                              0 BANK0      7     3      4
 ---------------------------------------------------------------------------------
 (3) ___awdiv                                              9     5      4    1516
                                             17 BANK1      9     5      4
                            _CENTENA (ARG)
                            ___flmul (ARG)
                            ___flsub (ARG)
                            ___fltol (ARG)
                             ___wmul (ARG)
                           ___xxtofl (ARG)
 ---------------------------------------------------------------------------------
 Estimated maximum stack depth 4
 ---------------------------------------------------------------------------------
 (Depth) Function   	        Calls       Base Space   Used Autos Params    Refs
 ---------------------------------------------------------------------------------
 (6) _isr                                                  3     3      0      45
                                              4 COMMON     3     3      0
                      i1_ANTI_REBOTE
 ---------------------------------------------------------------------------------
 (7) i1_ANTI_REBOTE                                        4     4      0      45
                                              0 COMMON     4     4      0
 ---------------------------------------------------------------------------------
 Estimated maximum stack depth 7
 ---------------------------------------------------------------------------------

 Call Graph Graphs:

 _main (ROOT)
   _CENTENA
     ___fldiv
       ___flmul (ARG)
         __Umul8_16
         ___xxtofl (ARG)
       ___xxtofl (ARG)
     ___flmul
     ___fltol
       ___fladd (ARG)
       ___fldiv (ARG)
       ___flmul (ARG)
       ___xxtofl (ARG)
     ___xxtofl
   _CONFIGURAR_v2
     _DECIMAL_BCD
       ___awdiv
         _CENTENA (ARG)
         ___flmul (ARG)
         ___flsub (ARG)
           _CENTENA (ARG)
           ___fladd (ARG)
           ___flmul (ARG)
           ___fltol (ARG)
           ___wmul (ARG)
             _CENTENA (ARG)
             ___fltol (ARG)
             ___xxtofl (ARG)
           ___xxtofl (ARG)
         ___fltol (ARG)
         ___wmul (ARG)
         ___xxtofl (ARG)
       ___awmod
     _LCD_STRING
       _LCD_CHAR
         _LCD_PORT
     _LCD_XY
       _LCD_COM
         _LCD_PORT
     _Parpadeo
   _DECENA
     _CENTENA
     ___awdiv
     ___flmul
     ___flsub
     ___fltol
     ___wmul
     ___xxtofl
   _I2C_Master_Read
     _I2C_Master_Wait
   _I2C_Master_Start
     _I2C_Master_Wait
   _I2C_Master_Stop
     _I2C_Master_Wait
   _I2C_Master_Write
     _I2C_Master_Wait
   _LCD_CHAR
   _LCD_CLEAR
     _LCD_PORT
   _LCD_STRING
   _LCD_XY
   _PAM
     _ANTI_REBOTE
     _BCD_DECIMAL
       ___bmul
   _RTC_PRINT
     _BCD_DECIMAL
     _LCD_STRING
     _LCD_XY
     ___awdiv
     ___awmod
   _RTC_READ
     _I2C_Master_Read
     _I2C_Master_Start
     _I2C_Master_Stop
     _I2C_Master_Write
   _RTC_WRITE
     _I2C_Master_Start
     _I2C_Master_Stop
     _I2C_Master_Write
   _UNIDAD
     _CENTENA
     _DECENA
     ___flmul
     ___flsub
     ___fltol
     ___wmul
     ___xxtofl
   _setup
     _I2C_Master_Init
       ___lldiv
     _IOC_INT
     _LCD_INIT
       _LCD_COM
       _LCD_PORT
     _OSCILLATOR

 _isr (ROOT)
   i1_ANTI_REBOTE

 Address spaces:
Name               Size   Autos  Total    Cost      Usage
BANK3               60      0       B       9       11.5%
BITBANK3            60      0       0       8        0.0%
SFR3                 0      0       0       4        0.0%
BITSFR3              0      0       0       4        0.0%
BANK2               60      0       0      11        0.0%
BITBANK2            60      0       0      10        0.0%
SFR2                 0      0       0       5        0.0%
BITSFR2              0      0       0       5        0.0%
BANK1               50     39      4C       7       95.0%
BITBANK1            50      0       0       6        0.0%
SFR1                 0      0       0       2        0.0%
BITSFR1              0      0       0       2        0.0%
BANK0               50     50      50       5      100.0%
BITBANK0            50      0       0       4        0.0%
SFR0                 0      0       0       1        0.0%
BITSFR0              0      0       0       1        0.0%
COMMON               E      7       A       1       71.4%
BITCOMMON            E      0       0       0        0.0%
CODE                 0      0       0       0        0.0%
DATA                 0      0      B1      12        0.0%
ABS                  0      0      B1       3        0.0%
NULL                 0      0       0       0        0.0%
STACK                0      0       0       2        0.0%
EEDATA             100      0       0       0        0.0%


Microchip Technology PIC Macro Assembler V2.35 build 20211206165544 
Symbol Table                                                                                   Sun Aug 06 13:33:49 2023

            ___fldiv@aexp 0061              ___fldiv@bexp 0060                         _p 0077  
                       pc 0002              ___fldiv@sign 0059            ___bmul@product 0022  
            ___awdiv@sign 00B7                        fsr 0004       ___wmul@multiplicand 00A7  
           RTC_PRINT@dia1 00C0             RTC_PRINT@mes1 00C1             RTC_PRINT@min1 00BE  
           RTC_PRINT@seg1 00BD       __Umul8_16@word_mpld 0026                       l201 09BB  
                     l211 1583                       l204 075C                       l220 15B3  
                     l213 1589                       l221 15DD                       l150 07FD  
                     l230 1139                       l142 1643                       l214 158F  
                     l207 116F                       l215 1595                       l224 10FC  
                     l216 159B                       l136 147C                       l153 13F0  
                     l217 15A1                       l242 11BD                       l170 1273  
                     l218 15A7                       l227 11A1                       l139 0D8A  
                     l219 15AD                       l236 11F7                       l156 11D9  
                     l164 1218                       l413 1186                       l167 1306  
                     l159 133F                       l423 16AB                       l239 1520  
                     l248 1436                       l176 129F                       l281 1146  
                     l290 110E                       l275 13B2                       l540 1714  
                     l284 1105                       l293 1121                       l701 0574  
                     l278 113A                       l198 1783                       l711 05BA  
                     l296 12C7                       l553 157B                       l297 12CA  
                     l705 0598                       l298 12D1                       l722 061A  
                     l714 05F8                       l723 0626                       l387 1356  
                     l580 17EA                       l820 083D                       l573 17FF  
                     l389 1378                       l822 08D4                       l726 14CC  
                     l583 17FF                       l760 0B8C                       l752 0B0A  
                     l736 0A18                       l680 0402                       l833 089E  
                     l738 0B98                       l834 08AA                       l826 0882  
                     l684 04A9                       l693 0626                       l758 0B7C  
                     l782 030A                       l686 0480                       l776 039E  
                     l795 122F                       l788 0392                       l797 1241  
                     _RB0 0030                       _RB1 0031                       _RE0 0048  
                     _RE1 0049                       _PAM 11F8                       _POT 00E2  
                     _dia 00DB                       _mes 00DA                       _min 00DD  
                     _isr 075D                       _seg 00DE                       fsr0 0004  
          CONFIGURAR_v2@x 00C4            CONFIGURAR_v2@y 00C0                       indf 0000  
            ___awmod@sign 0026           __end_of_CENTENA 1784               LCD_STRING@a 0024  
             LCD_STRING@i 0029              ___flmul@aexp 0040              ___flmul@bexp 0041  
            RTC_WRITE@I2C 0022              ___flmul@sign 003B              ___flmul@temp 0046  
            ___flmul@prod 0042            RTC_PRINT@hora1 00BF           __end_of_LCD_COM 11A2  
                    ?_PAM 0028            RTC_PRINT@year1 00C2           __end_of_IOC_INT 1170  
            ___fltol@exp1 006C                      l2101 17B8                      l2111 17C6  
                    l2103 17BA                      l2121 17EF                      l2105 17BE  
                    l2113 17D8                      l2201 0448                      l3003 11FB  
                    l2123 17F4                      l2211 048D                      l2203 044C  
                    l2131 03B0                      l3005 11FF                      l2301 05FD  
                    l2213 048F                      l2221 04A1                      l2205 044D  
                    l2141 03C4                      l2133 03B1                      l2125 039F  
                    l3007 1208                      l2119 17DF                      l2311 0614  
                    l2303 0602                      l2231 04D2                      l2223 04AD  
                    l2215 0493                      l2207 0464                      l2151 03DA  
                    l2135 03B6                      l2143 03C6                      l2127 03A6  
                    l3009 1215                      l2401 0ABD                      l2321 09C3  
                    l2081 1238                      l2073 121C                      l2313 0616  
                    l2305 060A                      l2241 04E9                      l2233 04D6  
                    l2225 04B2                      l2217 0494                      l2209 0484  
                    l2161 03EF                      l2153 03E0                      l2145 03CE  
                    l2137 03BB                      l2129 03AC                      l3211 1102  
                    l2411 0ADA                      l2403 0AC3                      l2331 09D8  
                    l2323 09C9                      l2083 123D                      l2075 121E  
                    l2091 1791                      l2315 0621                      l2307 060F  
                    l2251 054C                      l2243 04EA                      l2235 04DA  
                    l2219 049D                      l2171 040C                      l2163 03F7  
                    l2155 03E4                      l2147 03D3                      l2139 03C3  
                    l3203 147D                      l3221 12AD                      l3213 1118  
                    l2421 0AEF                      l2413 0ADB                      l2405 0ACB  
                    l2341 09F0                      l2333 09E0                      l2325 09CD  
                    l2077 1225                      l2501 00A2                      l2317 0625  
                    l2309 0610                      l2261 0581                      l2253 0552  
                    l2245 04F3                      l2237 04E3                      l2229 04BB  
                    l2181 0420                      l2173 0410                      l2165 03F8  
                    l2157 03E5                      l2149 03D9                      l3205 1481  
                    l3301 145A                      l3223 12B6                      l3215 111D  
                    l2431 0B14                      l2423 0AF3                      l2415 0AE4  
                    l2407 0ACD                      l2351 0A05                      l2343 09F6  
                    l2335 09E1                      l2327 09CE                      l2319 09BC  
                    l2079 1229                      l2511 00E5                      l2095 179A  
                    l2271 059C                      l2255 0557                      l2239 04E5  
                    l2247 04F8                      l2191 0434                      l2183 0424  
                    l2175 0414                      l2159 03EA                      l2167 03FA  
                    l3311 1461                      l3303 145D                      l3225 12BB  
                    l3217 12A0                      l3209 10FD                      l3233 1106  
                    l2441 0B52                      l2433 0B22                      l2425 0B07  
                    l2409 0AD6                      l2417 0AEA                      l2361 0A2C  
                    l2353 0A0D                      l2345 09FA                      l2329 09D3  
                    l2337 09E3                      l2521 016E                      l2513 0101  
                    l2505 00AB                      l2097 17AF                      l2089 1784  
                    l2601 081C                      l2273 059F                      l2265 058A  
                    l2249 050E                      l2257 0566                      l2281 05AC  
                    l2193 0438                      l2185 0428                      l2177 0418  
                    l2169 0408                      l3321 1466                      l3313 1462  
                    l3305 145E                      l3401 0E0F                      l3163 10FA  
                    l3171 11AF                      l3251 13F1                      l3243 11DD  
                    l3331 12F3                      l3227 12C3                      l3219 12A5  
                    l3235 110B                      l2451 0B82                      l2443 0B60  
                    l2435 0B26                      l2419 0AEE                      l2363 0A30  
                    l2355 0A0E                      l2347 09FB                      l2339 09EB  
                    l2531 01E1                      l2523 017E                      l2515 012D  
                    l2507 00BB                      l2099 17B0                      l2603 0821  
                    l2291 05BF                      l2283 05AD                      l2275 05A1  
                    l2267 0593                      l2259 057C                      l2195 043C  
                    l2187 042C                      l2179 041C                      l3323 1467  
                    l3315 1463                      l3307 145F                      l3411 0E5C  
                    l3403 0E26                      l3173 11BA                      l3165 11A5  
                    l3253 13F6                      l3181 1194                      l3245 11E2  
                    l3333 12FE                      l3229 12CB                      l3341 1335  
                    l2453 0B86                      l2445 0B6F                      l2437 0B3F  
                    l2429 0B0F                      l2381 0A71                      l2373 0A47  
                    l2349 0A00                      l2357 0A10                      l2541 028E  
                    l2533 01FE                      l2525 019B                      l2517 0149  
                    l2509 00C8                      l2461 003E                      l2621 086B  
                    l2613 084E                      l2605 0825                      l2293 05C4  
                    l2285 05B1                      l2277 05A6                      l2269 0597  
                    l2197 0440                      l2189 0430                      l3237 08D8  
                    l3261 1160                      l3325 1468                      l3317 1464  
                    l3309 1460                      l3421 0EF8                      l3413 0E6F  
                    l3405 0E2C                      l3167 11A6                      l3255 1412  
                    l3183 119E                      l3175 118A                      l3247 11EA  
                    l3335 1303                      l3351 161D                      l3343 15DE  
                    l2455 0B88                      l2447 0B73                      l2439 0B45  
                    l2391 0A8F                      l2383 0A73                      l2375 0A59  
                    l2359 0A20                      l2367 0A39                      l2551 02DA  
                    l2543 02B6                      l2535 022B                      l2527 01AB  
                    l2519 0165                      l2471 0055                      l2463 0045  
                    l2631 08A2                      l2623 0879                      l2615 0853  
                    l2607 0835                      l2295 05D2                      l2287 05B7  
                    l2279 05A8                      l2199 0444                      l3191 1344  
                    l3239 09BA                      l2711 166A                      l2703 1644  
                    l3263 116C                      l3271 14D3                      l3327 146D  
                    l3319 1465                      l3431 0FA6                      l3415 0E86  
                    l3407 0E3F                      l3423 0EFA                      l2801 156D  
                    l3169 11AC                      l3257 141A                      l3177 118B  
                    l3249 11F0                      l3329 12D5                      l3185 113A  
                    l3353 162D                      l3345 15FE                      l2449 0B7B  
                    l2385 0A78                      l2393 0A98                      l2377 0A61  
                    l2369 0A3E                      l2561 02EF                      l2553 02DB  
                    l2545 02BF                      l2537 023B                      l2529 01C8  
                    l2481 0071                      l2473 005A                      l2465 004B  
                    l2641 08CC                      l2633 08AC                      l2625 0889  
                    l2617 0860                      l2609 0845                      l2297 05D6  
                    l3193 134A                      l3361 062A                      l2721 169D  
                    l2713 1673                      l2705 1656                      l3265 116D  
                    l3273 14D6                      l3281 1437                      l3441 0FC0  
                    l3433 0FAA                      l3417 0E8C                      l3425 0F83  
                    l3409 0E56                      l2731 16B3                      l2803 1572  
                    l3179 1191                      l3371 0D57                      l3187 1140  
                    l3355 1632                      l3347 1609                      l3339 1307  
                    l2395 0AAA                      l2387 0A8A                      l2379 0A69  
                    l2571 0314                      l2563 02F3                      l2555 02E4  
                    l2547 02CD                      l2539 0268                      l2491 0086  
                    l2483 0077                      l2475 0062                      l2467 004F  
                    l2635 08C2                      l2627 0894                      l2619 0867  
                    l2299 05F4                      l3195 135F                      l3363 075B  
                    l2715 1685                      l2707 1659                      l2723 16A3  
                    l3267 116E                      l3259 115D                      l3275 14E1  
                    l3291 1447                      l3283 143D                      l3451 0FEF  
                    l3443 0FCB                      l3435 0FAE                      l3427 0F90  
                    l3419 0EF7                      l2741 16C7                      l2733 16B8  
                    l2805 1577                      l2821 1277                      l3373 0D62  
                    l3357 163D                      l3349 160E                      l2397 0AAB  
                    l2389 0A8E                      l2581 0352                      l2573 0322  
                    l2565 0307                      l2549 02D6                      l2557 02EA  
                    l2493 008E                      l2485 007B                      l2477 0064  
                    l2469 0050                      l2637 08C7                      l2629 0898  
                    l2645 1718                      l3197 1366                      l3189 1340  
                    l2717 1693                      l2709 1666                      l3277 14F1  
                    l3269 14CD                      l3293 144A                      l3285 1440  
                    l3453 0FF7                      l3445 0FD4                      l3437 0FB2  
                    l3429 0F9B                      l3381 0D95                      l2751 16DD  
                    l2743 16C9                      l2735 16BA                      l2727 16AC  
                    l3367 112D                      l2831 129C                      l2823 127B  
                    l2815 126F                      l3375 0D7B                      l2399 0AB9  
                    l2591 0386                      l2583 035D                      l2575 0326  
                    l2559 02EE                      l2495 0090                      l2487 007C  
                    l2479 006C                      l2639 08CB                      l2647 1782  
                    l3199 136C                      l2719 1694                      l3279 14F7  
                    l3295 144D                      l3287 1441                      l3447 0FDC  
                    l3439 0FB7                      l3391 0DC7                      l3383 0DA0  
                    l2761 1700                      l2753 16E1                      l2745 16CF  
                    l2737 16BE                      l2729 16AF                      l2825 127F  
                    l3369 0B99                      l2593 038A                      l2585 036C  
                    l2577 033F                      l2569 030F                      l2497 0098  
                    l2489 0081                      l3297 1451                      l3289 1444  
                    l3449 0FE7                      l3393 0DCC                      l3385 0DB2  
                    l3377 0D8B                      l2755 16F2                      l2747 16D2  
                    l2763 1706                      l2739 16C3                      l2771 1521  
                    l2827 128A                      l2691 1174                      l2595 038B  
                    l2587 0376                      l2579 0345                      l2499 009D  
                    l2931 13B0                      l2923 1379                      l3299 1454  
                    l3395 0DDF                      l3387 0DB7                      l3379 0D90  
                    l2765 170B                      l2757 16F8                      l2749 16D9  
                    l2781 1533                      l2773 1524                      l2941 07DF  
                    l2837 129E                      l2829 1296                      l2693 1178  
                    l2597 0396                      l2589 0378                      l2933 13B1  
                    l2925 137D                      l3397 0DF6                      l3389 0DC2  
                    l2767 1710                      l2759 16F9                      l2791 154C  
                    l2783 1538                      l2775 1528                      l2951 13B6  
                    l2943 07E3                      l2695 117C                      l2935 11C1  
                    l2927 1380                      l3479 15C3                      l3399 0DFC  
                    l2793 1550                      l2785 153E                      l2777 152D  
                    l2945 07ED                      l2697 117E                      l2689 1173  
                    l2929 13AF                      l2795 155A                      l2787 1541  
                    l2779 152F                      l2947 07F5                      l2939 07DB  
                    l2699 1185                      l2891 157F                      l2797 1560  
                    l2789 1548                      l2949 07F9                      l2799 1567  
                    l2895 15B9                      ?_isr 0070                      STR_1 0810  
                    STR_2 0817                      STR_3 0814                      u3000 0B0E  
                    u3001 0B0D                      u3010 0B14                      u2210 123D  
                    u3011 0B13                      u2211 123C                      u3020 0B26  
                    u3100 007B                      u2300 17EF                      u2220 1791  
                    u3021 0B25                      u2205 1230                      u3101 007A  
                    u2301 17EE                      u2221 1790                      u3030 0B35  
                    u3110 0081                      u2310 17F4                      u2230 17A8  
                    u3111 0080                      u2311 17F3                      u3040 0B52  
                    u3120 0086                      u2240 17BE                      u2400 040C  
                    u2320 03B0                      u3041 0B51                      u3201 018D  
                    u3121 0085                      u2241 17BD                      u2401 040B  
                    u2321 03AF                      u3050 0B6F                      u3202 0194  
                    u3130 009D                      u2250 17C5                      u2410 0464  
                    u2330 03B6                      u3051 0B6E                      u3035 0B30  
                    u3211 01BA                      u3203 019B                      u3131 009C  
                    u2251 17C4                      u2235 17A3                      u2411 0463  
                    u2331 03B5                      u3060 0B86                      u3212 01C1  
                    u3140 00A2                      u2420 046F                      u2340 03BB  
                    u4020 1390                      u3061 0B85                      u3045 0B4E  
                    u3213 01C8                      u3141 00A1                      u2501 04C4  
                    u2421 046D                      u2341 03BA                      u2190 1229  
                    u3070 004F                      u2270 17D7                      u2510 04D6  
                    u2502 04CB                      u2430 0470                      u2350 03D9  
                    u3055 0B6B                      u2191 1228                      u3231 01F0  
                    u3151 00F3                      u3071 004E                      u2271 17D6  
                    u2511 04D5                      u2503 04D2                      u2415 0460  
                    u2351 03D8                      u4040 07F5                      u3400 0335  
                    u3320 02DA                      u3232 01F7                      u3152 00FA  
                    u3080 0055                      u2280 17DE                      u2600 0581  
                    u2520 04DA                      u2440 0484                      u2360 03E4  
                    u4041 07F4                      u3321 02D9                      u3305 02B8  
                    u3241 021D                      u3233 01FE                      u3225 01CA  
                    u3161 010F                      u3153 0101                      u3081 0054  
                    u2281 17DD                      u2265 17C7                      u2601 0580  
                    u2521 04D9                      u2441 0483                      u2361 03E3  
                    u4025 138B                      u4050 07F9                      u3410 0352  
                    u3242 0224                      u3162 0116                      u3090 005A  
                    u2530 04E9                      u2450 0493                      u2370 03EA  
                    u4210 136C                      u4051 07F8                      u4035 11CB  
                    u3411 0351                      u3315 02CF                      u3251 024A  
                    u3243 022B                      u3171 013B                      u3163 011D  
                    u3091 0059                      u2531 04E8                      u2451 0492  
                    u2371 03E9                      u4211 136B                      u4060 07FD  
                    u4220 12C3                      u3420 036C                      u3340 02EE  
                    u3260 0274                      u3252 0251                      u3172 0142  
                    u3500 0888                      u2700 05D6                      u2620 0597  
                    u2380 03EF                      u4300 0DFC                      u4061 07FC  
                    u4221 12C2                      u3421 036B                      u3405 0330  
                    u3341 02ED                      u3253 0258                      u3181 0157  
                    u3173 0149                      u3501 0887                      u2701 05D5  
                    u2621 0596                      u2381 03EE                      u4205 1360  
                    u4301 0DFB                      u4230 11E2                      u3430 038A  
                    u3350 02F3                      u3182 015E                      u2710 05E5  
                    u2630 059C                      u2550 050E                      u2470 04A9  
                    u2390 0408                      u4310 0E2C                      u4231 11E1  
                    u3431 0389                      u3415 034E                      u3351 02F2  
                    u3335 02DD                      u3271 0280                      u3183 0165  
                    u2295 17E1                      u2631 059B                      u2615 058C  
                    u2551 050D                      u2471 04A8                      u2391 0407  
                    u4311 0E2B                      u4240 11F0                      u4080 11FF  
                    u4160 1140                      u2800 09D8                      u3360 0307  
                    u3280 029C                      u3272 0287                      u3520 0898  
                    u3440 0821                      u2720 05F4                      u2640 05A6  
                    u2480 04AD                      u4320 0E5C                      u4241 11EF  
                    u4081 11FE                      u4161 113F                      u2801 09D7  
                    u3425 0368                      u3361 0306                      u3273 028E  
                    u3265 026F                      u3521 0897                      u3441 0820  
                    u2721 05F3                      u2641 05A5                      u2561 0525  
                    u2553 050A                      u2545 04EC                      u2481 04AC  
                    u2465 0496                      u4321 0E5B                      u4250 1400  
                    u4090 1208                      u4170 1146                      u2810 09FA  
                    u3370 030E                      u3530 089E                      u3450 0825  
                    u2730 05FD                      u2650 05AC                      u2570 0539  
                    u2562 0526                      u2490 04B2                      u4330 0E8C  
                    u4075 13CB                      u4091 1207                      u4171 1145  
                    u2811 09F9                      u3371 030D                      u3291 02A8  
                    u3195 0167                      u3531 089D                      u3515 088D  
                    u3451 0824                      u2731 05FC                      u2715 05E0  
                    u2651 05AB                      u2571 053A                      u2563 052B  
                    u2491 04B1                      u4331 0E8B                      u4260 1424  
                    u2820 0A00                      u3380 0314                      u3292 02AF  
                    u3540 08A2                      u3460 0845                      u2740 0602  
                    u2660 05B1                      u2580 0557                      u2572 053F  
                    u2564 052C                      u4180 134A                      u3700 1685  
                    u2821 09FF                      u3381 0313                      u3293 02B6  
                    u3285 0297                      u3541 08A1                      u3461 0844  
                    u2741 0601                      u2661 05B0                      u2581 0556  
                    u2573 0540                      u2565 0531                      u4181 1349  
                    u3701 1684                      u4270 1436                      u2910 0AAA  
                    u2830 0A05                      u3390 0326                      u3550 08B7  
                    u2750 060F                      u2670 05B7                      u2590 057C  
                    u2566 0532                      u4271 1435                      u4407 1638  
                    u2911 0AA9                      u2831 0A04                      u3391 0325  
                    u2751 060E                      u2671 05B6                      u2591 057B  
                    u3640 1178                      u2920 0AC3                      u2840 0A20  
                    u3560 08C7                      u3480 0866                      u2760 0614  
                    u2680 05BE                      u3720 16A3                      u4280 0DC7  
                    u3641 1177                      u4417 0D83                      u2921 0AC2  
                    u2905 0A91                      u2841 0A1F                      u3561 08C6  
                    u3481 0865                      u2761 0613                      u2681 05BD  
                    u3721 16A2                      u3705 1681                      u4281 0DC6  
                    u3810 1706                      u3730 16B3                      u3650 1185  
                    u2930 0ACB                      u2850 0A3E                      u3570 08CB  
                    u2770 0625                      u2690 05C4                      u4290 0DCC  
                    u3811 1705                      u3731 16B2                      u4427 1285  
                    u3651 1184                      u2931 0ACA                      u2915 0AA6  
                    u2851 0A3D                      u3571 08CA                      u3555 08B2  
                    u3475 0858                      u2771 0624                      u2691 05C3  
                    u4195 1359                      u3715 1695                      u4291 0DCB  
                    u4347 0DBD                      u3820 170B                      u3740 16BE  
                    u3900 156D                      u2860 0A78                      u2780 09CD  
                    u3660 1656                      u3821 170A                      u3805 16FA  
                    u3741 16BD                      u3901 156C                      u4437 07E9  
                    u2861 0A77                      u2781 09CC                      u3661 1655  
                    u4357 14DC                      u3750 16CF                      u3910 1572  
                    u3830 1528                      u2950 0ADA                      u2790 09D3  
                    u3751 16CE                      u3911 1571                      u3831 1527  
                    u4447 119A                      u2951 0AD9                      u2791 09D2  
                    u3495 087A                      u4367 14ED                      u3840 1533  
                    u3920 1277                      u3680 166A                      u3841 1532  
                    u4457 11B5                      u3921 1276                      u2945 0ACF  
                    u3681 1669                      u4377 14FD                      u3770 16E1  
                    u3850 153E                      u3930 127B                      u2970 0AEE  
                    u2890 0A8E                      u3771 16E0                      u3851 153D  
                    u3931 127A                      u4387 133B                      u2971 0AED  
                    u2891 0A8D                      u2875 0A7A                      u3675 165B  
                    u3940 1296                      u2980 0AF3                      u3765 16D3  
                    u3941 1295                      u4397 1604                      u2981 0AF2  
                    u2965 0ADD                      u2885 0A83                      u3790 16F2  
                    u3870 1550                      u3950 129C                      u2990 0B07  
                    u3791 16F1                      u3871 154F                      u3951 129B  
                    u2991 0B06                      u3695 166C                      u3880 155A  
                    u3785 16E2                      u3881 1559                      u3865 1542  
                    u3795 16EE                      u3885 1556                      u3895 1561  
                    _Date 0190                      _Time 00E3                      _main 0D8B  
                    _hora 00DC                      _year 00D9                      btemp 007E  
  CONFIGURAR_v2@parametro 00C1                      start 000C               ?_OSCILLATOR 0070  
         ___fldiv@new_exp 005A         ___bmul@multiplier 0023                     ??_PAM 0029  
        __end_of_LCD_CHAR 11BE          __end_of_LCD_INIT 1521          __end_of_LCD_PORT 10FD  
                   ??_isr 0074          ?_I2C_Master_Init 002E          ?_I2C_Master_Read 0020  
        ?_I2C_Master_Wait 0070          ?_I2C_Master_Stop 0070             ___fltol@sign1 006B  
         __end_of___fladd 0627                     ?_main 0070           __end_of___fldiv 0B99  
         __end_of___awdiv 1715           __end_of___awmod 157C           __end_of___flmul 039F  
         __end_of___flsub 14CD           __end_of___fltol 1800                     _ANSEL 0188  
         __end_of___lldiv 16AC           ___awdiv@divisor 00B1                     i1l106 0775  
                   i1l118 07D4                     i1l170 1244                     i1l176 126E  
         ___awdiv@counter 00B6                     _PORTB 0006                     _PORTD 0008  
                   _PORTE 0009                     _TRISB 0086                     _TRISD 0088  
                   _TRISE 0089            BCD_DECIMAL@num 0027          __end_of_RTC_READ 1644  
                   _setup 1437          CONFIGURAR_v2@rtc 00C2                     pclath 000A  
                   status 0003                     wtemp0 007E           __initialization 000F  
            __end_of_main 1000         __end_of_LCD_CLEAR 113A                 ??_CENTENA 00A0  
        __end_of_Parpadeo 07FE     __end_of_CONFIGURAR_v2 1307                    ??_main 00D5  
               ??_LCD_COM 0021                 ??_IOC_INT 0020                    PAM@rtc 0028  
       ?_I2C_Master_Start 0070         ?_I2C_Master_Write 0020        ??_I2C_Master_Start 0020  
      ??_I2C_Master_Write 0022                    _DECENA 08D5          ___awdiv@dividend 00B3  
                  ?_setup 0070                    _ANSELH 0189                    u200_20 077E  
                  u200_21 077D                    _LCD_XY 11DA                    u201_20 0787  
                  u201_21 0786                    i1l1903 126D                    i1l1911 0767  
                  u210_20 07C4                    u202_20 0791                    u210_21 07C3  
                  u202_21 0790                    i1l1913 0770                    i1l1921 078B  
                  i1l1931 079E                    i1l1923 0791                    i1l1915 0779  
                  i1l1907 075D                    i1l1941 07B7                    i1l1933 07A4  
                  i1l1925 0792                    i1l1917 077E                    i1l1909 0761  
                  i1l1951 07CC                    i1l1943 07B9                    i1l1935 07AA  
                  i1l1927 0797                    i1l1919 0787                    u211_20 07CC  
                  u203_20 0797                    i1l1881 1242                    i1l1953 07D2  
                  u211_21 07CB                    i1l1945 07BF                    i1l1937 07AB  
                  i1l1929 079D                    u203_21 0796                    i1l1891 1252  
                  i1l1955 07D3                    i1l1947 07C4                    i1l1939 07B1  
                  i1l1893 125B                    i1l1949 07C6                    i1l1895 1265  
                  i1l1887 124A                    u212_20 07D2                    u204_20 079D  
                  i1l1897 126B                    i1l1889 124E                    u212_21 07D1  
                  u204_21 079C                    u205_20 07A4                    u205_21 07A3  
                  u206_20 07AA                    u206_21 07A9                    u207_20 07B1  
                  u207_21 07B0                    u208_20 07B7                    u208_21 07B6  
                  u209_20 07BF                    u209_21 07BE                    u192_20 124A  
                  u192_21 1249                    u193_20 124E                    u193_21 124D  
                  u194_20 1265                    u194_21 1264                    u195_20 126B  
                  u195_21 126A                    u196_20 0761                    u196_21 0760  
                  u197_20 0767                    u197_21 0766                    u198_20 0770  
                  u198_21 076F                    u446_27 1256                    u199_20 0779  
                  u199_21 0778                    _UNIDAD 0627                    _SSPADD 0093  
                  _TRISC3 043B                    _TRISC4 043C                    _SSPCON 0014  
                  _SSPBUF 0013          __end_of___xxtofl 08D5                    ___bmul 1170  
           i1_ANTI_REBOTE 1242                 ??___fladd 0028                    ___wmul 1340  
               ??___fldiv 0050                 ??___awdiv 00B5                    _decena 00E0  
               ??___awmod 0024                 ??___flmul 0036                 ??___flsub 0070  
               ??___fltol 0066                 ??___lldiv 0028         __end_of_RTC_PRINT 0D8B  
       __end_of_RTC_WRITE 1340          ___awdiv@quotient 00B8           ___awmod@divisor 0020  
                  _select 0079           ___awmod@counter 0025                    _unidad 00E1  
                  saved_w 007E                 LCD_CHAR@a 0023                 ?_LCD_CHAR 0070  
            ___xxtofl@arg 002A                 ?_LCD_INIT 0070              ___xxtofl@exp 0029  
            ___xxtofl@val 0020                 ?_LCD_PORT 0070   __end_of__initialization 003A  
               LCD_PORT@a 0020                ___fltol@f1 0062       ___bmul@multiplicand 0020  
            ??_LCD_STRING 0026            ?i1_ANTI_REBOTE 0070            __pcstackCOMMON 0070  
            __pidataBANK1 110F              __pidataBANK3 1122               OSCILLATOR@f 0022  
               ?_RTC_READ 0026             __end_of_setup 147D                   DECENA@c 00C5  
          DECIMAL_BCD@num 00BF            _OPTION_REGbits 0081                   ?_DECENA 0070  
      __end_of_LCD_STRING 1437                   ??_setup 0036                __pbssBANK1 00D9  
                 ?_LCD_XY 0024                ??_LCD_CHAR 0021                ??_LCD_INIT 0024  
              ??_LCD_PORT 0020                   LCD_XY@x 0025                   LCD_XY@y 0024  
                 ?_UNIDAD 0070                 ?_Parpadeo 0070              ??_OSCILLATOR 0020  
     ANTI_REBOTE@contador 0022         __end_of__Umul8_16 1242             ??_BCD_DECIMAL 0024  
              __pmaintext 0D8B                   ?___bmul 0020                   UNIDAD@c 00D4  
                 ?___wmul 00A5                __pintentry 0004             ??_DECIMAL_BCD 00BA  
              ??_RTC_READ 002A                   _CENTENA 1715                   _LCD_COM 1187  
                 _IOC_INT 115A                 ?___xxtofl 0020        __end_of_OSCILLATOR 15DE  
            PAM@parametro 002A                 RTC_READ@d 0028                   _SSPCON2 0091  
                 _SSPSTAT 0094                __stringtab 0800                ??_Parpadeo 0020  
         ??i1_ANTI_REBOTE 0070                   ___fladd 039F                   ___fldiv 09BC  
                 ___awdiv 16AC                   ___awmod 1521                   ___flmul 003E  
                 ___flsub 147D                   ___fltol 1784                   ___lldiv 1644  
                 _centena 00DF       __end_of_BCD_DECIMAL 11DA                   __ptext1 1437  
                 __ptext2 157C                   __ptext3 14CD                   __ptext4 115A  
                 __ptext5 1379                   __ptext6 1644                   __ptext7 0627  
                 __ptext8 08D5                   __ptext9 1340                 _LCD_CLEAR 112D  
              ??___xxtofl 0024          ___awmod@dividend 0022       __end_of_DECIMAL_BCD 13F1  
    end_of_initialization 003A           ___lldiv@divisor 0020           ___lldiv@counter 002D  
           ??_ANTI_REBOTE 0020        RTC_WRITE@parametro 0026          I2C_Master_Init@c 002E  
        I2C_Master_Read@a 0020               RTC_READ@I2C 0026               RTC_READ@RTC 002C  
               _RTC_PRINT 0B99               ___fladd@grs 0033                ?_LCD_CLEAR 0070  
               _RTC_WRITE 1307             ___xxtofl@sign 0028                 _TRISCbits 0087  
             ___fldiv@grs 005C               ___fldiv@rem 0055            __end_of_DECENA 09BC  
             ___flmul@grs 003C            __end_of_LCD_XY 11F8               _DECENA$1173 00C1  
          __end_of_UNIDAD 075D               _BCD_DECIMAL 11BE            __end_of___bmul 1187  
          __end_of___wmul 1379               _DECIMAL_BCD 13B3       __end_of_ANTI_REBOTE 12A0  
               Parpadeo@j 0022                ?_RTC_PRINT 0070                ?_RTC_WRITE 0022  
     start_initialization 000F               __end_of_PAM 1219               __end_of_isr 07DB  
                ??_DECENA 00BA                  ??_LCD_XY 0025         ??_I2C_Master_Init 0032  
       ??_I2C_Master_Read 0022         ??_I2C_Master_Wait 0020                  ??_UNIDAD 00C6  
       ??_I2C_Master_Stop 0020                  CENTENA@c 006D                  ??___bmul 0021  
                ??___wmul 006E                init_fetch0 1147                 __Umul8_16 1219  
             __pdataBANK1 00E3               __pdataBANK3 0190                  ?_CENTENA 0070  
           _CONFIGURAR_v2 12D2                 ___fladd@a 0024                 ___fladd@b 0020  
                ?_LCD_COM 0070                  LCD_COM@a 0023                 ___fldiv@a 0048  
               ___fldiv@b 004C               ??_LCD_CLEAR 0021                  ?_IOC_INT 0070  
               ___flmul@a 0032                 ___flmul@b 002E               __pbssCOMMON 0077  
               ___flsub@a 00A9                 ___flsub@b 00AD                 ___latbits 0002  
           __pcstackBANK0 0020             __pcstackBANK1 00A0                  IOC_INT@a 0020  
        _I2C_Master_Start 10FD          _I2C_Master_Write 1118               _ANTI_REBOTE 126F  
                ?___fladd 0020                  ?___fldiv 0048                  ?___awdiv 00B1  
                ?___awmod 0020                  ?___flmul 002E                  ?___flsub 00A9  
                ?___fltol 0062                  ?___lldiv 0020                ?__Umul8_16 0020  
               __pstrings 0800            ?_CONFIGURAR_v2 00C0               ??_RTC_PRINT 00BA  
             ??_RTC_WRITE 0027                 _parametro 0078                  _LCD_CHAR 11A2  
                _LCD_INIT 14CD                  _LCD_PORT 10F7         interrupt_function 0004  
          ___wmul@product 006E                  _IOCBbits 0096                  _PIE1bits 008C  
                _PIR1bits 000C     __end_ofi1_ANTI_REBOTE 126F                  _RTC_READ 15DE  
             __stringbase 080F         ___wmul@multiplier 00A5                RTC_WRITE@d 0024  
                _WPUBbits 0095       I2C_Master_Read@temp 0024                  _Parpadeo 07DB  
   i1ANTI_REBOTE@contador 0072              ?_BCD_DECIMAL 0070              ANTI_REBOTE@i 0023  
             ??__Umul8_16 0022           ??_CONFIGURAR_v2 00C3              ?_DECIMAL_BCD 0070  
      __end_of__stringtab 0810           _I2C_Master_Init 1379           _I2C_Master_Read 12A0  
                ___xxtofl 0819           _I2C_Master_Wait 113A           _I2C_Master_Stop 1106  
                __ptext10 147D                  __ptext11 039F                  __ptext20 1118  
                __ptext12 1715                  __ptext21 1106                  __ptext13 0819  
                __ptext30 112D                  __ptext22 10FD                  __ptext14 1784  
                __ptext31 12D2                  __ptext23 12A0                  __ptext15 003E  
                __ptext40 16AC                  __ptext32 07DB                  __ptext24 113A  
                __ptext16 1219                  __ptext41 075D                  __ptext33 11DA  
                __ptext25 0B99                  __ptext17 09BC                  __ptext42 1242  
                __ptext34 1187                  __ptext26 11F8                  __ptext18 1307  
                __ptext35 13F1                  __ptext27 11BE                  __ptext19 15DE  
                __ptext36 11A2                  __ptext28 1170                  __ptext37 10F7  
                __ptext29 126F                  __ptext38 13B3                  __ptext39 1521  
              _LCD_STRING 13F1            i1ANTI_REBOTE@i 0073  __end_of_I2C_Master_Start 1106  
__end_of_I2C_Master_Write 1122                _INTCONbits 000B               _UNIDAD$1174 00CA  
             _UNIDAD$1175 00D2               _UNIDAD$1176 00CE                  init_ram0 114B  
                intlevel1 0000          ___lldiv@dividend 0024                _OSCILLATOR 157C  
               stringcode 080A                _OSCCONbits 008F              ?_ANTI_REBOTE 0070  
 __end_of_I2C_Master_Init 13B3   __end_of_I2C_Master_Read 12D2   __end_of_I2C_Master_Wait 1147  
 __end_of_I2C_Master_Stop 110F    __Umul8_16@multiplicand 0020          ___lldiv@quotient 0029  
       I2C_Master_Write@d 0020                  stringdir 080A                  stringtab 0800  
             _SSPCON2bits 0091             ___fladd@signs 0030              ___fladd@aexp 0031  
            ___fladd@bexp 0032      __Umul8_16@multiplier 0028         __Umul8_16@product 0024  
             ?_LCD_STRING 0024  
