

Microchip MPLAB XC8 Assembler V2.35 build 20211206165544 
                                                                                               Sat Aug 05 21:07:44 2023

Microchip MPLAB XC8 C Compiler v2.35 (Free license) build 20211206165544 Og1 
     1                           	processor	16F887
     2                           	pagewidth 120
     3                           	opt	flic
     4                           	psect	strings,global,class=STRING,delta=2,noexec
     5                           	psect	cinit,global,class=CODE,merge=1,delta=2
     6                           	psect	bssCOMMON,global,class=COMMON,space=1,delta=1,noexec
     7                           	psect	bssBANK1,global,class=BANK1,space=1,delta=1,noexec
     8                           	psect	cstackBANK1,global,class=BANK1,space=1,delta=1,noexec
     9                           	psect	cstackCOMMON,global,class=COMMON,space=1,delta=1,noexec
    10                           	psect	cstackBANK0,global,class=BANK0,space=1,delta=1,noexec
    11                           	psect	maintext,global,class=CODE,split=1,delta=2
    12                           	psect	text1,local,class=CODE,merge=1,delta=2
    13                           	psect	text2,local,class=CODE,merge=1,delta=2
    14                           	psect	text3,local,class=CODE,merge=1,delta=2
    15                           	psect	text4,local,class=CODE,merge=1,delta=2
    16                           	psect	text5,local,class=CODE,merge=1,delta=2
    17                           	psect	text6,local,class=CODE,merge=1,delta=2,group=1
    18                           	psect	text7,local,class=CODE,merge=1,delta=2
    19                           	psect	text8,local,class=CODE,merge=1,delta=2
    20                           	psect	text9,local,class=CODE,merge=1,delta=2,group=1
    21                           	psect	text10,local,class=CODE,merge=1,delta=2,group=1
    22                           	psect	text11,local,class=CODE,merge=1,delta=2,group=1
    23                           	psect	text12,local,class=CODE,merge=1,delta=2
    24                           	psect	text13,local,class=CODE,merge=1,delta=2,group=1
    25                           	psect	text14,local,class=CODE,merge=1,delta=2,group=1
    26                           	psect	text15,local,class=CODE,merge=1,delta=2,group=1
    27                           	psect	text16,local,class=CODE,merge=1,delta=2,group=1
    28                           	psect	text17,local,class=CODE,merge=1,delta=2,group=1
    29                           	psect	text18,local,class=CODE,merge=1,delta=2
    30                           	psect	text19,local,class=CODE,merge=1,delta=2
    31                           	psect	text20,local,class=CODE,merge=1,delta=2
    32                           	psect	text21,local,class=CODE,merge=1,delta=2
    33                           	psect	text22,local,class=CODE,merge=1,delta=2
    34                           	psect	text23,local,class=CODE,merge=1,delta=2
    35                           	psect	text24,local,class=CODE,merge=1,delta=2
    36                           	psect	text25,local,class=CODE,merge=1,delta=2
    37                           	psect	text26,local,class=CODE,merge=1,delta=2
    38                           	psect	text27,local,class=CODE,merge=1,delta=2
    39                           	psect	text28,local,class=CODE,merge=1,delta=2,group=1
    40                           	psect	text29,local,class=CODE,merge=1,delta=2,group=1
    41                           	psect	text30,local,class=CODE,merge=1,delta=2
    42                           	psect	text31,local,class=CODE,merge=1,delta=2
    43                           	psect	text32,local,class=CODE,merge=1,delta=2
    44                           	psect	text33,local,class=CODE,merge=1,delta=2
    45                           	psect	text34,local,class=CODE,merge=1,delta=2
    46                           	psect	text35,local,class=CODE,merge=1,delta=2
    47                           	psect	text36,local,class=CODE,merge=1,delta=2
    48                           	psect	text37,local,class=CODE,merge=1,delta=2
    49                           	psect	text38,local,class=CODE,merge=1,delta=2,group=1
    50                           	psect	text39,local,class=CODE,merge=1,delta=2
    51                           	psect	intentry,global,class=CODE,delta=2
    52                           	psect	idloc,global,abs,ovrld,class=IDLOC,space=5,delta=2,noexec
    53                           	psect	config,global,abs,ovrld,class=CONFIG,space=4,delta=2,noexec
    54                           	dabs	1,0x7E,2
    55  0000                     
    56                           ; Version 2.40
    57                           ; Generated 17/11/2021 GMT
    58                           ; 
    59                           ; Copyright © 2021, Microchip Technology Inc. and its subsidiaries ("Microchip")
    60                           ; All rights reserved.
    61                           ; 
    62                           ; This software is developed by Microchip Technology Inc. and its subsidiaries ("Microch
      +                          ip").
    63                           ; 
    64                           ; Redistribution and use in source and binary forms, with or without modification, are
    65                           ; permitted provided that the following conditions are met:
    66                           ; 
    67                           ;     1. Redistributions of source code must retain the above copyright notice, this lis
      +                          t of
    68                           ;        conditions and the following disclaimer.
    69                           ; 
    70                           ;     2. Redistributions in binary form must reproduce the above copyright notice, this 
      +                          list
    71                           ;        of conditions and the following disclaimer in the documentation and/or other
    72                           ;        materials provided with the distribution. Publication is not required when
    73                           ;        this file is used in an embedded application.
    74                           ; 
    75                           ;     3. Microchip's name may not be used to endorse or promote products derived from th
      +                          is
    76                           ;        software without specific prior written permission.
    77                           ; 
    78                           ; THIS SOFTWARE IS PROVIDED BY MICROCHIP "AS IS" AND ANY EXPRESS OR IMPLIED WARRANTIES,
    79                           ; INCLUDING, BUT NOT LIMITED TO, THE IMPLIED WARRANTIES OF MERCHANTABILITY AND FITNESS F
      +                          OR
    80                           ; PURPOSE ARE DISCLAIMED.  IN NO EVENT SHALL MICROCHIP BE LIABLE FOR ANY DIRECT, INDIREC
      +                          T,
    81                           ; INCIDENTAL, SPECIAL, EXEMPLARY, OR CONSEQUENTIAL DAMAGES (INCLUDING BUT NOT LIMITED TO
    82                           ; PROCUREMENT OF SUBSTITUTE GOODS OR SERVICES; LOSS OF USE, DATA OR PROFITS; OR BUSINESS
    83                           ; INTERRUPTION) HOWSOEVER CAUSED AND ON ANY THEORY OF LIABILITY, WHETHER IN CONTRACT, ST
      +                          RICT
    84                           ; LIABILITY, OR TORT (INCLUDING NEGLIGENCE OR OTHERWISE) ARISING IN ANY WAY OUT OF THE U
      +                          SE OF
    85                           ; THIS SOFTWARE, EVEN IF ADVISED OF THE POSSIBILITY OF SUCH DAMAGE.
    86                           ; 
    87                           ; 
    88                           ; Code-generator required, PIC16F887 Definitions
    89                           ; 
    90                           ; SFR Addresses
    91  0000                     	;# 
    92  0001                     	;# 
    93  0002                     	;# 
    94  0003                     	;# 
    95  0004                     	;# 
    96  0005                     	;# 
    97  0006                     	;# 
    98  0007                     	;# 
    99  0008                     	;# 
   100  0009                     	;# 
   101  000A                     	;# 
   102  000B                     	;# 
   103  000C                     	;# 
   104  000D                     	;# 
   105  000E                     	;# 
   106  000E                     	;# 
   107  000F                     	;# 
   108  0010                     	;# 
   109  0011                     	;# 
   110  0012                     	;# 
   111  0013                     	;# 
   112  0014                     	;# 
   113  0015                     	;# 
   114  0015                     	;# 
   115  0016                     	;# 
   116  0017                     	;# 
   117  0018                     	;# 
   118  0019                     	;# 
   119  001A                     	;# 
   120  001B                     	;# 
   121  001B                     	;# 
   122  001C                     	;# 
   123  001D                     	;# 
   124  001E                     	;# 
   125  001F                     	;# 
   126  0081                     	;# 
   127  0085                     	;# 
   128  0086                     	;# 
   129  0087                     	;# 
   130  0088                     	;# 
   131  0089                     	;# 
   132  008C                     	;# 
   133  008D                     	;# 
   134  008E                     	;# 
   135  008F                     	;# 
   136  0090                     	;# 
   137  0091                     	;# 
   138  0092                     	;# 
   139  0093                     	;# 
   140  0093                     	;# 
   141  0093                     	;# 
   142  0094                     	;# 
   143  0095                     	;# 
   144  0096                     	;# 
   145  0097                     	;# 
   146  0098                     	;# 
   147  0099                     	;# 
   148  009A                     	;# 
   149  009B                     	;# 
   150  009C                     	;# 
   151  009D                     	;# 
   152  009E                     	;# 
   153  009F                     	;# 
   154  0105                     	;# 
   155  0107                     	;# 
   156  0108                     	;# 
   157  0109                     	;# 
   158  010C                     	;# 
   159  010C                     	;# 
   160  010D                     	;# 
   161  010E                     	;# 
   162  010F                     	;# 
   163  0185                     	;# 
   164  0187                     	;# 
   165  0188                     	;# 
   166  0189                     	;# 
   167  018C                     	;# 
   168  018D                     	;# 
   169  0000                     	;# 
   170  0001                     	;# 
   171  0002                     	;# 
   172  0003                     	;# 
   173  0004                     	;# 
   174  0005                     	;# 
   175  0006                     	;# 
   176  0007                     	;# 
   177  0008                     	;# 
   178  0009                     	;# 
   179  000A                     	;# 
   180  000B                     	;# 
   181  000C                     	;# 
   182  000D                     	;# 
   183  000E                     	;# 
   184  000E                     	;# 
   185  000F                     	;# 
   186  0010                     	;# 
   187  0011                     	;# 
   188  0012                     	;# 
   189  0013                     	;# 
   190  0014                     	;# 
   191  0015                     	;# 
   192  0015                     	;# 
   193  0016                     	;# 
   194  0017                     	;# 
   195  0018                     	;# 
   196  0019                     	;# 
   197  001A                     	;# 
   198  001B                     	;# 
   199  001B                     	;# 
   200  001C                     	;# 
   201  001D                     	;# 
   202  001E                     	;# 
   203  001F                     	;# 
   204  0081                     	;# 
   205  0085                     	;# 
   206  0086                     	;# 
   207  0087                     	;# 
   208  0088                     	;# 
   209  0089                     	;# 
   210  008C                     	;# 
   211  008D                     	;# 
   212  008E                     	;# 
   213  008F                     	;# 
   214  0090                     	;# 
   215  0091                     	;# 
   216  0092                     	;# 
   217  0093                     	;# 
   218  0093                     	;# 
   219  0093                     	;# 
   220  0094                     	;# 
   221  0095                     	;# 
   222  0096                     	;# 
   223  0097                     	;# 
   224  0098                     	;# 
   225  0099                     	;# 
   226  009A                     	;# 
   227  009B                     	;# 
   228  009C                     	;# 
   229  009D                     	;# 
   230  009E                     	;# 
   231  009F                     	;# 
   232  0105                     	;# 
   233  0107                     	;# 
   234  0108                     	;# 
   235  0109                     	;# 
   236  010C                     	;# 
   237  010C                     	;# 
   238  010D                     	;# 
   239  010E                     	;# 
   240  010F                     	;# 
   241  0185                     	;# 
   242  0187                     	;# 
   243  0188                     	;# 
   244  0189                     	;# 
   245  018C                     	;# 
   246  018D                     	;# 
   247  0000                     	;# 
   248  0001                     	;# 
   249  0002                     	;# 
   250  0003                     	;# 
   251  0004                     	;# 
   252  0005                     	;# 
   253  0006                     	;# 
   254  0007                     	;# 
   255  0008                     	;# 
   256  0009                     	;# 
   257  000A                     	;# 
   258  000B                     	;# 
   259  000C                     	;# 
   260  000D                     	;# 
   261  000E                     	;# 
   262  000E                     	;# 
   263  000F                     	;# 
   264  0010                     	;# 
   265  0011                     	;# 
   266  0012                     	;# 
   267  0013                     	;# 
   268  0014                     	;# 
   269  0015                     	;# 
   270  0015                     	;# 
   271  0016                     	;# 
   272  0017                     	;# 
   273  0018                     	;# 
   274  0019                     	;# 
   275  001A                     	;# 
   276  001B                     	;# 
   277  001B                     	;# 
   278  001C                     	;# 
   279  001D                     	;# 
   280  001E                     	;# 
   281  001F                     	;# 
   282  0081                     	;# 
   283  0085                     	;# 
   284  0086                     	;# 
   285  0087                     	;# 
   286  0088                     	;# 
   287  0089                     	;# 
   288  008C                     	;# 
   289  008D                     	;# 
   290  008E                     	;# 
   291  008F                     	;# 
   292  0090                     	;# 
   293  0091                     	;# 
   294  0092                     	;# 
   295  0093                     	;# 
   296  0093                     	;# 
   297  0093                     	;# 
   298  0094                     	;# 
   299  0095                     	;# 
   300  0096                     	;# 
   301  0097                     	;# 
   302  0098                     	;# 
   303  0099                     	;# 
   304  009A                     	;# 
   305  009B                     	;# 
   306  009C                     	;# 
   307  009D                     	;# 
   308  009E                     	;# 
   309  009F                     	;# 
   310  0105                     	;# 
   311  0107                     	;# 
   312  0108                     	;# 
   313  0109                     	;# 
   314  010C                     	;# 
   315  010C                     	;# 
   316  010D                     	;# 
   317  010E                     	;# 
   318  010F                     	;# 
   319  0185                     	;# 
   320  0187                     	;# 
   321  0188                     	;# 
   322  0189                     	;# 
   323  018C                     	;# 
   324  018D                     	;# 
   325  0000                     	;# 
   326  0001                     	;# 
   327  0002                     	;# 
   328  0003                     	;# 
   329  0004                     	;# 
   330  0005                     	;# 
   331  0006                     	;# 
   332  0007                     	;# 
   333  0008                     	;# 
   334  0009                     	;# 
   335  000A                     	;# 
   336  000B                     	;# 
   337  000C                     	;# 
   338  000D                     	;# 
   339  000E                     	;# 
   340  000E                     	;# 
   341  000F                     	;# 
   342  0010                     	;# 
   343  0011                     	;# 
   344  0012                     	;# 
   345  0013                     	;# 
   346  0014                     	;# 
   347  0015                     	;# 
   348  0015                     	;# 
   349  0016                     	;# 
   350  0017                     	;# 
   351  0018                     	;# 
   352  0019                     	;# 
   353  001A                     	;# 
   354  001B                     	;# 
   355  001B                     	;# 
   356  001C                     	;# 
   357  001D                     	;# 
   358  001E                     	;# 
   359  001F                     	;# 
   360  0081                     	;# 
   361  0085                     	;# 
   362  0086                     	;# 
   363  0087                     	;# 
   364  0088                     	;# 
   365  0089                     	;# 
   366  008C                     	;# 
   367  008D                     	;# 
   368  008E                     	;# 
   369  008F                     	;# 
   370  0090                     	;# 
   371  0091                     	;# 
   372  0092                     	;# 
   373  0093                     	;# 
   374  0093                     	;# 
   375  0093                     	;# 
   376  0094                     	;# 
   377  0095                     	;# 
   378  0096                     	;# 
   379  0097                     	;# 
   380  0098                     	;# 
   381  0099                     	;# 
   382  009A                     	;# 
   383  009B                     	;# 
   384  009C                     	;# 
   385  009D                     	;# 
   386  009E                     	;# 
   387  009F                     	;# 
   388  0105                     	;# 
   389  0107                     	;# 
   390  0108                     	;# 
   391  0109                     	;# 
   392  010C                     	;# 
   393  010C                     	;# 
   394  010D                     	;# 
   395  010E                     	;# 
   396  010F                     	;# 
   397  0185                     	;# 
   398  0187                     	;# 
   399  0188                     	;# 
   400  0189                     	;# 
   401  018C                     	;# 
   402  018D                     	;# 
   403  000C                     _PIR1bits	set	12
   404  0013                     _SSPBUF	set	19
   405  0014                     _SSPCON	set	20
   406  0006                     _PORTB	set	6
   407  0009                     _PORTE	set	9
   408  0008                     _PORTD	set	8
   409  0005                     _PORTA	set	5
   410  000B                     _INTCONbits	set	11
   411  0049                     _RE1	set	73
   412  0048                     _RE0	set	72
   413  0031                     _RB1	set	49
   414  0030                     _RB0	set	48
   415  008C                     _PIE1bits	set	140
   416  0091                     _SSPCON2bits	set	145
   417  0087                     _TRISCbits	set	135
   418  0094                     _SSPSTAT	set	148
   419  0093                     _SSPADD	set	147
   420  0091                     _SSPCON2	set	145
   421  008F                     _OSCCONbits	set	143
   422  0096                     _IOCBbits	set	150
   423  0095                     _WPUBbits	set	149
   424  0081                     _OPTION_REGbits	set	129
   425  0085                     _TRISA	set	133
   426  0086                     _TRISB	set	134
   427  0089                     _TRISE	set	137
   428  0088                     _TRISD	set	136
   429  043C                     _TRISC4	set	1084
   430  043B                     _TRISC3	set	1083
   431  0189                     _ANSELH	set	393
   432  0188                     _ANSEL	set	392
   433                           
   434                           	psect	strings
   435  1000                     __pstrings:
   436  1000                     stringtab:
   437  1000                     __stringtab:
   438  1000                     stringcode:	
   439                           ;	String table - string pointers are 1 byte each
   440                           
   441  1000                     stringdir:
   442  1000  3010               	movlw	high stringdir
   443  1001  008A               	movwf	10
   444  1002  0804               	movf	4,w
   445  1003  0A84               	incf	4,f
   446  1004  0782               	addwf	2,f
   447  1005                     __stringbase:
   448  1005  3400               	retlw	0
   449  1006                     __end_of__stringtab:
   450  1006                     STR_1:
   451  1006  3453               	retlw	83	;'S'
   452  1007  3431               	retlw	49	;'1'
   453  1008  343A               	retlw	58	;':'
   454  1009  3400               	retlw	0
   455  100A                     STR_8:
   456  100A  3420               	retlw	32	;' '
   457  100B  3420               	retlw	32	;' '
   458  100C  3400               	retlw	0
   459  100D                     STR_7:
   460  100D  3432               	retlw	50	;'2'
   461  100E  3430               	retlw	48	;'0'
   462  100F  3400               	retlw	0
   463  1010                     STR_2:
   464  1010  342E               	retlw	46	;'.'
   465  1011  3400               	retlw	0
   466  1012                     STR_5:
   467  1012  342F               	retlw	47	;'/'
   468  1013  3400               	retlw	0
   469  1012                     
   470                           	psect	cinit
   471  000F                     start_initialization:	
   472                           ; #config settings
   473                           
   474  000F                     __initialization:
   475                           
   476                           ; Clear objects allocated to COMMON
   477  000F  01F6               	clrf	__pbssCOMMON& (0+127)
   478  0010  01F7               	clrf	(__pbssCOMMON+1)& (0+127)
   479  0011  01F8               	clrf	(__pbssCOMMON+2)& (0+127)
   480  0012  01F9               	clrf	(__pbssCOMMON+3)& (0+127)
   481                           
   482                           ; Clear objects allocated to BANK1
   483  0013  1683               	bsf	3,5	;RP0=1, select bank1
   484  0014  1303               	bcf	3,6	;RP1=0, select bank1
   485  0015  01D7               	clrf	__pbssBANK1& (0+127)
   486  0016  01D8               	clrf	(__pbssBANK1+1)& (0+127)
   487  0017  01D9               	clrf	(__pbssBANK1+2)& (0+127)
   488  0018  01DA               	clrf	(__pbssBANK1+3)& (0+127)
   489  0019  01DB               	clrf	(__pbssBANK1+4)& (0+127)
   490  001A  01DC               	clrf	(__pbssBANK1+5)& (0+127)
   491  001B  01DD               	clrf	(__pbssBANK1+6)& (0+127)
   492  001C  01DE               	clrf	(__pbssBANK1+7)& (0+127)
   493  001D  01DF               	clrf	(__pbssBANK1+8)& (0+127)
   494  001E                     end_of_initialization:	
   495                           ;End of C runtime variable initialization code
   496                           
   497  001E                     __end_of__initialization:
   498  001E  0183               	clrf	3
   499  001F  120A  118A  2B83   	ljmp	_main	;jump to C main() function
   500                           
   501                           	psect	bssCOMMON
   502  0076                     __pbssCOMMON:
   503  0076                     _parametro:
   504  0076                     	ds	1
   505  0077                     _select:
   506  0077                     	ds	1
   507  0078                     _min:
   508  0078                     	ds	1
   509  0079                     _POT:
   510  0079                     	ds	1
   511                           
   512                           	psect	bssBANK1
   513  00D7                     __pbssBANK1:
   514  00D7                     _p:
   515  00D7                     	ds	1
   516  00D8                     _year:
   517  00D8                     	ds	1
   518  00D9                     _mes:
   519  00D9                     	ds	1
   520  00DA                     _dia:
   521  00DA                     	ds	1
   522  00DB                     _hora:
   523  00DB                     	ds	1
   524  00DC                     _seg:
   525  00DC                     	ds	1
   526  00DD                     _centena:
   527  00DD                     	ds	1
   528  00DE                     _decena:
   529  00DE                     	ds	1
   530  00DF                     _unidad:
   531  00DF                     	ds	1
   532                           
   533                           	psect	cstackBANK1
   534  00A0                     __pcstackBANK1:
   535  00A0                     ??_CENTENA:
   536                           
   537                           ; 1 bytes @ 0x0
   538  00A0                     	ds	5
   539  00A5                     ?___wmul:
   540  00A5                     ___wmul@multiplier:	
   541                           ; 2 bytes @ 0x5
   542                           
   543                           
   544                           ; 2 bytes @ 0x5
   545  00A5                     	ds	2
   546  00A7                     ___wmul@multiplicand:
   547                           
   548                           ; 2 bytes @ 0x7
   549  00A7                     	ds	2
   550  00A9                     ?___flsub:
   551  00A9                     ___flsub@a:	
   552                           ; 4 bytes @ 0x9
   553                           
   554                           
   555                           ; 4 bytes @ 0x9
   556  00A9                     	ds	4
   557  00AD                     ___flsub@b:
   558                           
   559                           ; 4 bytes @ 0xD
   560  00AD                     	ds	4
   561  00B1                     ?___awdiv:
   562  00B1                     ___awdiv@divisor:	
   563                           ; 2 bytes @ 0x11
   564                           
   565                           
   566                           ; 2 bytes @ 0x11
   567  00B1                     	ds	2
   568  00B3                     ___awdiv@dividend:
   569                           
   570                           ; 2 bytes @ 0x13
   571  00B3                     	ds	2
   572  00B5                     ??___awdiv:
   573                           
   574                           ; 1 bytes @ 0x15
   575  00B5                     	ds	1
   576  00B6                     ___awdiv@counter:
   577                           
   578                           ; 1 bytes @ 0x16
   579  00B6                     	ds	1
   580  00B7                     ___awdiv@sign:
   581                           
   582                           ; 1 bytes @ 0x17
   583  00B7                     	ds	1
   584  00B8                     ___awdiv@quotient:
   585                           
   586                           ; 2 bytes @ 0x18
   587  00B8                     	ds	2
   588  00BA                     ??_DECIMAL_BCD:
   589  00BA                     ??_DECENA:	
   590                           ; 1 bytes @ 0x1A
   591                           
   592                           
   593                           ; 1 bytes @ 0x1A
   594  00BA                     	ds	5
   595  00BF                     DECIMAL_BCD@num:
   596                           
   597                           ; 1 bytes @ 0x1F
   598  00BF                     	ds	2
   599  00C1                     _DECENA$1159:
   600                           
   601                           ; 4 bytes @ 0x21
   602  00C1                     	ds	4
   603  00C5                     DECENA@c:
   604                           
   605                           ; 1 bytes @ 0x25
   606  00C5                     	ds	1
   607  00C6                     ??_UNIDAD:
   608                           
   609                           ; 1 bytes @ 0x26
   610  00C6                     	ds	4
   611  00CA                     _UNIDAD$1160:
   612                           
   613                           ; 4 bytes @ 0x2A
   614  00CA                     	ds	4
   615  00CE                     _UNIDAD$1162:
   616                           
   617                           ; 4 bytes @ 0x2E
   618  00CE                     	ds	4
   619  00D2                     _UNIDAD$1161:
   620                           
   621                           ; 2 bytes @ 0x32
   622  00D2                     	ds	2
   623  00D4                     UNIDAD@c:
   624                           
   625                           ; 1 bytes @ 0x34
   626  00D4                     	ds	1
   627  00D5                     ??_main:
   628                           
   629                           ; 1 bytes @ 0x35
   630  00D5                     	ds	2
   631                           
   632                           	psect	cstackCOMMON
   633  0070                     __pcstackCOMMON:
   634  0070                     ?_setup:
   635  0070                     ?_I2C_Master_Start:	
   636                           ; 1 bytes @ 0x0
   637                           
   638  0070                     ?_I2C_Master_Stop:	
   639                           ; 1 bytes @ 0x0
   640                           
   641  0070                     ?_BCD_DECIMAL:	
   642                           ; 1 bytes @ 0x0
   643                           
   644  0070                     ?_DECIMAL_BCD:	
   645                           ; 1 bytes @ 0x0
   646                           
   647  0070                     ?_CENTENA:	
   648                           ; 1 bytes @ 0x0
   649                           
   650  0070                     ?_DECENA:	
   651                           ; 1 bytes @ 0x0
   652                           
   653  0070                     ?_UNIDAD:	
   654                           ; 1 bytes @ 0x0
   655                           
   656  0070                     ?_LCD_CLEAR:	
   657                           ; 1 bytes @ 0x0
   658                           
   659  0070                     ?_LCD_STRING:	
   660                           ; 1 bytes @ 0x0
   661                           
   662  0070                     ?_LCD_CHAR:	
   663                           ; 1 bytes @ 0x0
   664                           
   665  0070                     ?_RTC_PRINT:	
   666                           ; 1 bytes @ 0x0
   667                           
   668  0070                     ?_OSCILLATOR:	
   669                           ; 1 bytes @ 0x0
   670                           
   671  0070                     ?_IOC_INT:	
   672                           ; 1 bytes @ 0x0
   673                           
   674  0070                     ?_LCD_INIT:	
   675                           ; 1 bytes @ 0x0
   676                           
   677  0070                     ?_Parpadeo:	
   678                           ; 1 bytes @ 0x0
   679                           
   680  0070                     ?_isr:	
   681                           ; 1 bytes @ 0x0
   682                           
   683  0070                     ??_isr:	
   684                           ; 1 bytes @ 0x0
   685                           
   686  0070                     ?_main:	
   687                           ; 1 bytes @ 0x0
   688                           
   689  0070                     ?_LCD_PORT:	
   690                           ; 1 bytes @ 0x0
   691                           
   692  0070                     ?_LCD_COM:	
   693                           ; 1 bytes @ 0x0
   694                           
   695  0070                     ?_I2C_Master_Wait:	
   696                           ; 1 bytes @ 0x0
   697                           
   698                           
   699                           ; 1 bytes @ 0x0
   700  0070                     	ds	4
   701  0074                     ??_I2C_Master_Start:
   702  0074                     ?_I2C_Master_Write:	
   703                           ; 1 bytes @ 0x4
   704                           
   705  0074                     ??_I2C_Master_Stop:	
   706                           ; 1 bytes @ 0x4
   707                           
   708  0074                     ??_OSCILLATOR:	
   709                           ; 1 bytes @ 0x4
   710                           
   711  0074                     ??_IOC_INT:	
   712                           ; 1 bytes @ 0x4
   713                           
   714  0074                     ??_Parpadeo:	
   715                           ; 1 bytes @ 0x4
   716                           
   717  0074                     ??_LCD_PORT:	
   718                           ; 1 bytes @ 0x4
   719                           
   720  0074                     ??_I2C_Master_Wait:	
   721                           ; 1 bytes @ 0x4
   722                           
   723  0074                     ?___bmul:	
   724                           ; 1 bytes @ 0x4
   725                           
   726  0074                     ??___lldiv:	
   727                           ; 1 bytes @ 0x4
   728                           
   729  0074                     ??___awmod:	
   730                           ; 1 bytes @ 0x4
   731                           
   732  0074                     ?_I2C_Master_Read:	
   733                           ; 1 bytes @ 0x4
   734                           
   735  0074                     ?__Umul8_16:	
   736                           ; 2 bytes @ 0x4
   737                           
   738  0074                     IOC_INT@a:	
   739                           ; 2 bytes @ 0x4
   740                           
   741  0074                     LCD_PORT@a:	
   742                           ; 1 bytes @ 0x4
   743                           
   744  0074                     ___bmul@multiplicand:	
   745                           ; 1 bytes @ 0x4
   746                           
   747  0074                     __Umul8_16@multiplicand:	
   748                           ; 1 bytes @ 0x4
   749                           
   750  0074                     I2C_Master_Write@d:	
   751                           ; 1 bytes @ 0x4
   752                           
   753  0074                     I2C_Master_Read@a:	
   754                           ; 2 bytes @ 0x4
   755                           
   756                           
   757                           ; 2 bytes @ 0x4
   758  0074                     	ds	1
   759  0075                     ??_LCD_CLEAR:
   760  0075                     ??___bmul:	
   761                           ; 1 bytes @ 0x5
   762                           
   763  0075                     LCD_COM@a:	
   764                           ; 1 bytes @ 0x5
   765                           
   766  0075                     LCD_CHAR@a:	
   767                           ; 1 bytes @ 0x5
   768                           
   769                           
   770                           ; 1 bytes @ 0x5
   771  0075                     	ds	1
   772  0076                     ??_setup:
   773  0076                     ??_I2C_Master_Write:	
   774                           ; 1 bytes @ 0x6
   775                           
   776  0076                     ??_LCD_XY:	
   777                           ; 1 bytes @ 0x6
   778                           
   779  0076                     ??_LCD_STRING:	
   780                           ; 1 bytes @ 0x6
   781                           
   782  0076                     ??___wmul:	
   783                           ; 1 bytes @ 0x6
   784                           
   785  0076                     ??___flsub:	
   786                           ; 1 bytes @ 0x6
   787                           
   788                           
   789                           	psect	cstackBANK0
   790  0020                     __pcstackBANK0:	
   791                           ; 1 bytes @ 0x6
   792                           
   793  0020                     ??_I2C_Master_Read:
   794  0020                     ?_RTC_WRITE:	
   795                           ; 1 bytes @ 0x0
   796                           
   797  0020                     ??_LCD_CHAR:	
   798                           ; 1 bytes @ 0x0
   799                           
   800  0020                     ??__Umul8_16:	
   801                           ; 1 bytes @ 0x0
   802                           
   803  0020                     ??_LCD_COM:	
   804                           ; 1 bytes @ 0x0
   805                           
   806  0020                     ?___awmod:	
   807                           ; 1 bytes @ 0x0
   808                           
   809  0020                     ?___lldiv:	
   810                           ; 2 bytes @ 0x0
   811                           
   812  0020                     ?___fladd:	
   813                           ; 4 bytes @ 0x0
   814                           
   815  0020                     ?___xxtofl:	
   816                           ; 4 bytes @ 0x0
   817                           
   818  0020                     Parpadeo@j:	
   819                           ; 4 bytes @ 0x0
   820                           
   821  0020                     OSCILLATOR@f:	
   822                           ; 1 bytes @ 0x0
   823                           
   824  0020                     ___bmul@product:	
   825                           ; 1 bytes @ 0x0
   826                           
   827  0020                     RTC_WRITE@I2C:	
   828                           ; 1 bytes @ 0x0
   829                           
   830  0020                     ___awmod@divisor:	
   831                           ; 2 bytes @ 0x0
   832                           
   833  0020                     ___lldiv@divisor:	
   834                           ; 2 bytes @ 0x0
   835                           
   836  0020                     ___fladd@b:	
   837                           ; 4 bytes @ 0x0
   838                           
   839  0020                     ___xxtofl@val:	
   840                           ; 4 bytes @ 0x0
   841                           
   842                           
   843                           ; 4 bytes @ 0x0
   844  0020                     	ds	1
   845  0021                     ___bmul@multiplier:
   846                           
   847                           ; 1 bytes @ 0x1
   848  0021                     	ds	1
   849  0022                     ??_BCD_DECIMAL:
   850  0022                     ?_LCD_XY:	
   851                           ; 1 bytes @ 0x2
   852                           
   853  0022                     ??_RTC_PRINT:	
   854                           ; 1 bytes @ 0x2
   855                           
   856  0022                     ??_LCD_INIT:	
   857                           ; 1 bytes @ 0x2
   858                           
   859  0022                     LCD_XY@y:	
   860                           ; 1 bytes @ 0x2
   861                           
   862  0022                     RTC_WRITE@d:	
   863                           ; 1 bytes @ 0x2
   864                           
   865  0022                     LCD_STRING@i:	
   866                           ; 2 bytes @ 0x2
   867                           
   868  0022                     I2C_Master_Read@temp:	
   869                           ; 2 bytes @ 0x2
   870                           
   871  0022                     ___awmod@dividend:	
   872                           ; 2 bytes @ 0x2
   873                           
   874  0022                     __Umul8_16@product:	
   875                           ; 2 bytes @ 0x2
   876                           
   877                           
   878                           ; 2 bytes @ 0x2
   879  0022                     	ds	1
   880  0023                     LCD_XY@x:
   881                           
   882                           ; 1 bytes @ 0x3
   883  0023                     	ds	1
   884  0024                     ??___xxtofl:
   885  0024                     ?_RTC_READ:	
   886                           ; 1 bytes @ 0x4
   887                           
   888  0024                     RTC_PRINT@s10:	
   889                           ; 2 bytes @ 0x4
   890                           
   891  0024                     RTC_WRITE@parametro:	
   892                           ; 1 bytes @ 0x4
   893                           
   894  0024                     LCD_STRING@a:	
   895                           ; 1 bytes @ 0x4
   896                           
   897  0024                     ___awmod@counter:	
   898                           ; 1 bytes @ 0x4
   899                           
   900  0024                     RTC_READ@I2C:	
   901                           ; 1 bytes @ 0x4
   902                           
   903  0024                     __Umul8_16@word_mpld:	
   904                           ; 2 bytes @ 0x4
   905                           
   906  0024                     ___lldiv@dividend:	
   907                           ; 2 bytes @ 0x4
   908                           
   909  0024                     ___fladd@a:	
   910                           ; 4 bytes @ 0x4
   911                           
   912                           
   913                           ; 4 bytes @ 0x4
   914  0024                     	ds	1
   915  0025                     ?_CONFIGURAR:
   916  0025                     ??_RTC_WRITE:	
   917                           ; 1 bytes @ 0x5
   918                           
   919  0025                     RTC_PRINT@s:	
   920                           ; 1 bytes @ 0x5
   921                           
   922  0025                     CONFIGURAR@y:	
   923                           ; 1 bytes @ 0x5
   924                           
   925  0025                     BCD_DECIMAL@num:	
   926                           ; 1 bytes @ 0x5
   927                           
   928  0025                     ___awmod@sign:	
   929                           ; 1 bytes @ 0x5
   930                           
   931                           
   932                           ; 1 bytes @ 0x5
   933  0025                     	ds	1
   934  0026                     ??_CONFIGURAR:
   935  0026                     RTC_PRINT@Val:	
   936                           ; 1 bytes @ 0x6
   937                           
   938  0026                     __Umul8_16@multiplier:	
   939                           ; 1 bytes @ 0x6
   940                           
   941  0026                     RTC_READ@d:	
   942                           ; 1 bytes @ 0x6
   943                           
   944                           
   945                           ; 2 bytes @ 0x6
   946  0026                     	ds	1
   947  0027                     CONFIGURAR@x:
   948                           
   949                           ; 1 bytes @ 0x7
   950  0027                     	ds	1
   951  0028                     ??_RTC_READ:
   952  0028                     ??___fladd:	
   953                           ; 1 bytes @ 0x8
   954                           
   955  0028                     ___xxtofl@sign:	
   956                           ; 1 bytes @ 0x8
   957                           
   958  0028                     ___lldiv@quotient:	
   959                           ; 1 bytes @ 0x8
   960                           
   961                           
   962                           ; 4 bytes @ 0x8
   963  0028                     	ds	1
   964  0029                     ___xxtofl@exp:
   965                           
   966                           ; 1 bytes @ 0x9
   967  0029                     	ds	1
   968  002A                     RTC_READ@RTC:
   969  002A                     ___xxtofl@arg:	
   970                           ; 2 bytes @ 0xA
   971                           
   972                           
   973                           ; 4 bytes @ 0xA
   974  002A                     	ds	2
   975  002C                     ___lldiv@counter:
   976                           
   977                           ; 1 bytes @ 0xC
   978  002C                     	ds	1
   979  002D                     ?_I2C_Master_Init:
   980  002D                     I2C_Master_Init@c:	
   981                           ; 1 bytes @ 0xD
   982                           
   983                           
   984                           ; 4 bytes @ 0xD
   985  002D                     	ds	1
   986  002E                     ?___flmul:
   987  002E                     ___flmul@b:	
   988                           ; 4 bytes @ 0xE
   989                           
   990                           
   991                           ; 4 bytes @ 0xE
   992  002E                     	ds	2
   993  0030                     ___fladd@signs:
   994                           
   995                           ; 1 bytes @ 0x10
   996  0030                     	ds	1
   997  0031                     ??_I2C_Master_Init:
   998  0031                     ___fladd@aexp:	
   999                           ; 1 bytes @ 0x11
  1000                           
  1001                           
  1002                           ; 1 bytes @ 0x11
  1003  0031                     	ds	1
  1004  0032                     ___fladd@bexp:
  1005  0032                     ___flmul@a:	
  1006                           ; 1 bytes @ 0x12
  1007                           
  1008                           
  1009                           ; 4 bytes @ 0x12
  1010  0032                     	ds	1
  1011  0033                     ___fladd@grs:
  1012                           
  1013                           ; 1 bytes @ 0x13
  1014  0033                     	ds	3
  1015  0036                     ??___flmul:
  1016                           
  1017                           ; 1 bytes @ 0x16
  1018  0036                     	ds	5
  1019  003B                     ___flmul@sign:
  1020                           
  1021                           ; 1 bytes @ 0x1B
  1022  003B                     	ds	1
  1023  003C                     ___flmul@aexp:
  1024                           
  1025                           ; 1 bytes @ 0x1C
  1026  003C                     	ds	1
  1027  003D                     ___flmul@grs:
  1028                           
  1029                           ; 4 bytes @ 0x1D
  1030  003D                     	ds	4
  1031  0041                     ___flmul@bexp:
  1032                           
  1033                           ; 1 bytes @ 0x21
  1034  0041                     	ds	1
  1035  0042                     ___flmul@prod:
  1036                           
  1037                           ; 4 bytes @ 0x22
  1038  0042                     	ds	4
  1039  0046                     ___flmul@temp:
  1040                           
  1041                           ; 2 bytes @ 0x26
  1042  0046                     	ds	2
  1043  0048                     ?___fldiv:
  1044  0048                     ___fldiv@a:	
  1045                           ; 4 bytes @ 0x28
  1046                           
  1047                           
  1048                           ; 4 bytes @ 0x28
  1049  0048                     	ds	4
  1050  004C                     ___fldiv@b:
  1051                           
  1052                           ; 4 bytes @ 0x2C
  1053  004C                     	ds	4
  1054  0050                     ??___fldiv:
  1055                           
  1056                           ; 1 bytes @ 0x30
  1057  0050                     	ds	5
  1058  0055                     ___fldiv@rem:
  1059                           
  1060                           ; 4 bytes @ 0x35
  1061  0055                     	ds	4
  1062  0059                     ___fldiv@sign:
  1063                           
  1064                           ; 1 bytes @ 0x39
  1065  0059                     	ds	1
  1066  005A                     ___fldiv@new_exp:
  1067                           
  1068                           ; 2 bytes @ 0x3A
  1069  005A                     	ds	2
  1070  005C                     ___fldiv@grs:
  1071                           
  1072                           ; 4 bytes @ 0x3C
  1073  005C                     	ds	4
  1074  0060                     ___fldiv@bexp:
  1075                           
  1076                           ; 1 bytes @ 0x40
  1077  0060                     	ds	1
  1078  0061                     ___fldiv@aexp:
  1079                           
  1080                           ; 1 bytes @ 0x41
  1081  0061                     	ds	1
  1082  0062                     ?___fltol:
  1083  0062                     ___fltol@f1:	
  1084                           ; 4 bytes @ 0x42
  1085                           
  1086                           
  1087                           ; 4 bytes @ 0x42
  1088  0062                     	ds	4
  1089  0066                     ??___fltol:
  1090                           
  1091                           ; 1 bytes @ 0x46
  1092  0066                     	ds	5
  1093  006B                     ___fltol@sign1:
  1094                           
  1095                           ; 1 bytes @ 0x4B
  1096  006B                     	ds	1
  1097  006C                     ___fltol@exp1:
  1098                           
  1099                           ; 1 bytes @ 0x4C
  1100  006C                     	ds	1
  1101  006D                     CENTENA@c:
  1102                           
  1103                           ; 1 bytes @ 0x4D
  1104  006D                     	ds	1
  1105  006E                     ___wmul@product:
  1106                           
  1107                           ; 2 bytes @ 0x4E
  1108  006E                     	ds	2
  1109                           
  1110                           	psect	maintext
  1111  0383                     __pmaintext:	
  1112 ;;
  1113 ;;Main: autosize = 0, tempsize = 2, incstack = 0, save=0
  1114 ;;
  1115 ;; *************** function _main *****************
  1116 ;; Defined at:
  1117 ;;		line 84 in file "MAIN_M.c"
  1118 ;; Parameters:    Size  Location     Type
  1119 ;;		None
  1120 ;; Auto vars:     Size  Location     Type
  1121 ;;		None
  1122 ;; Return value:  Size  Location     Type
  1123 ;;                  1    wreg      void 
  1124 ;; Registers used:
  1125 ;;		wreg, fsr0l, fsr0h, status,2, status,0, btemp+1, pclath, cstack
  1126 ;; Tracked objects:
  1127 ;;		On entry : B00/0
  1128 ;;		On exit  : 0/0
  1129 ;;		Unchanged: 0/0
  1130 ;; Data sizes:     COMMON   BANK0   BANK1   BANK3   BANK2
  1131 ;;      Params:         0       0       0       0       0
  1132 ;;      Locals:         0       0       0       0       0
  1133 ;;      Temps:          0       0       2       0       0
  1134 ;;      Totals:         0       0       2       0       0
  1135 ;;Total ram usage:        2 bytes
  1136 ;; Hardware stack levels required when called: 6
  1137 ;; This function calls:
  1138 ;;		_BCD_DECIMAL
  1139 ;;		_CENTENA
  1140 ;;		_CONFIGURAR
  1141 ;;		_DECENA
  1142 ;;		_DECIMAL_BCD
  1143 ;;		_I2C_Master_Read
  1144 ;;		_I2C_Master_Start
  1145 ;;		_I2C_Master_Stop
  1146 ;;		_I2C_Master_Write
  1147 ;;		_LCD_CHAR
  1148 ;;		_LCD_CLEAR
  1149 ;;		_LCD_STRING
  1150 ;;		_LCD_XY
  1151 ;;		_RTC_PRINT
  1152 ;;		_RTC_READ
  1153 ;;		_RTC_WRITE
  1154 ;;		_UNIDAD
  1155 ;;		_setup
  1156 ;; This function is called by:
  1157 ;;		Startup code after reset
  1158 ;; This function uses a non-reentrant model
  1159 ;;
  1160                           
  1161  0383                     _main:	
  1162                           ;psect for function _main
  1163                           
  1164  0383                     l3906:	
  1165                           ;incstack = 0
  1166                           ; Regs used in _main: [wreg-fsr0h+status,2+status,0+btemp+1+pclath+cstack]
  1167                           
  1168                           
  1169                           ;MAIN_M.c: 85:     setup();
  1170  0383  160A  118A  25DF  120A  118A  	fcall	_setup
  1171  0388                     l3908:
  1172                           
  1173                           ;MAIN_M.c: 88:         I2C_Master_Start();
  1174  0388  160A  118A  2379  120A  118A  	fcall	_I2C_Master_Start
  1175  038D                     l3910:
  1176                           
  1177                           ;MAIN_M.c: 89:         I2C_Master_Write(0x81);
  1178  038D  3081               	movlw	129
  1179  038E  00F4               	movwf	I2C_Master_Write@d
  1180  038F  3000               	movlw	0
  1181  0390  00F5               	movwf	I2C_Master_Write@d+1
  1182  0391  160A  118A  238B  120A  118A  	fcall	_I2C_Master_Write
  1183  0396                     l3912:
  1184                           
  1185                           ;MAIN_M.c: 90:         POT = I2C_Master_Read(0);
  1186  0396  3000               	movlw	0
  1187  0397  00F4               	movwf	I2C_Master_Read@a
  1188  0398  00F5               	movwf	I2C_Master_Read@a+1
  1189  0399  120A  158A  2006  120A  118A  	fcall	_I2C_Master_Read
  1190  039E  0874               	movf	?_I2C_Master_Read,w
  1191  039F  1683               	bsf	3,5	;RP0=1, select bank1
  1192  03A0  1303               	bcf	3,6	;RP1=0, select bank1
  1193  03A1  00D5               	movwf	??_main^(0+128)
  1194  03A2  0855               	movf	??_main^(0+128),w
  1195  03A3  00F9               	movwf	_POT
  1196  03A4                     l3914:
  1197                           
  1198                           ;MAIN_M.c: 91:         I2C_Master_Stop();
  1199  03A4  160A  118A  2382  120A  118A  	fcall	_I2C_Master_Stop
  1200  03A9                     l3916:
  1201                           
  1202                           ;MAIN_M.c: 92:         _delay((unsigned long)((10)*(8000000/4000.0)));
  1203  03A9  301A               	movlw	26
  1204  03AA  1683               	bsf	3,5	;RP0=1, select bank1
  1205  03AB  1303               	bcf	3,6	;RP1=0, select bank1
  1206  03AC  00D6               	movwf	(??_main^(0+128)+1)
  1207  03AD  30F7               	movlw	247
  1208  03AE  00D5               	movwf	??_main^(0+128)
  1209  03AF                     u5637:
  1210  03AF  0BD5               	decfsz	??_main^(0+128),f
  1211  03B0  2BAF               	goto	u5637
  1212  03B1  0BD6               	decfsz	(??_main^(0+128)+1),f
  1213  03B2  2BAF               	goto	u5637
  1214  03B3  2BB4               	nop2
  1215  03B4                     l3918:
  1216                           
  1217                           ;MAIN_M.c: 94:         if(select !=0){
  1218  03B4  0877               	movf	_select,w
  1219  03B5  1903               	btfsc	3,2
  1220  03B6  2BB8               	goto	u5531
  1221  03B7  2BB9               	goto	u5530
  1222  03B8                     u5531:
  1223  03B8  2D15               	goto	l3974
  1224  03B9                     u5530:
  1225  03B9                     l3920:
  1226                           
  1227                           ;MAIN_M.c: 96:             if(select == 1){
  1228  03B9  0377               	decf	_select,w
  1229  03BA  1D03               	btfss	3,2
  1230  03BB  2BBD               	goto	u5541
  1231  03BC  2BBE               	goto	u5540
  1232  03BD                     u5541:
  1233  03BD  2BF3               	goto	l3932
  1234  03BE                     u5540:
  1235  03BE                     l3922:
  1236                           
  1237                           ;MAIN_M.c: 97:                 if(!RB0){
  1238  03BE  1283               	bcf	3,5	;RP0=0, select bank0
  1239  03BF  1303               	bcf	3,6	;RP1=0, select bank0
  1240  03C0  1806               	btfsc	6,0	;volatile
  1241  03C1  2BC3               	goto	u5551
  1242  03C2  2BC4               	goto	u5550
  1243  03C3                     u5551:
  1244  03C3  2BDC               	goto	l3928
  1245  03C4                     u5550:
  1246  03C4                     l3924:
  1247                           
  1248                           ;MAIN_M.c: 98:                     parametro = BCD_DECIMAL(hora);
  1249  03C4  1683               	bsf	3,5	;RP0=1, select bank1
  1250  03C5  1303               	bcf	3,6	;RP1=0, select bank1
  1251  03C6  085B               	movf	_hora^(0+128),w
  1252  03C7  160A  118A  2406  120A  118A  	fcall	_BCD_DECIMAL
  1253  03CC  1683               	bsf	3,5	;RP0=1, select bank1
  1254  03CD  1303               	bcf	3,6	;RP1=0, select bank1
  1255  03CE  00D5               	movwf	??_main^(0+128)
  1256  03CF  0855               	movf	??_main^(0+128),w
  1257  03D0  00F6               	movwf	_parametro
  1258  03D1                     l3926:
  1259                           
  1260                           ;MAIN_M.c: 99:                     _delay((unsigned long)((10)*(8000000/4000.0)));
  1261  03D1  301A               	movlw	26
  1262  03D2  1683               	bsf	3,5	;RP0=1, select bank1
  1263  03D3  1303               	bcf	3,6	;RP1=0, select bank1
  1264  03D4  00D6               	movwf	(??_main^(0+128)+1)
  1265  03D5  30F7               	movlw	247
  1266  03D6  00D5               	movwf	??_main^(0+128)
  1267  03D7                     u5647:
  1268  03D7  0BD5               	decfsz	??_main^(0+128),f
  1269  03D8  2BD7               	goto	u5647
  1270  03D9  0BD6               	decfsz	(??_main^(0+128)+1),f
  1271  03DA  2BD7               	goto	u5647
  1272  03DB  2BDC               	nop2
  1273  03DC                     l3928:
  1274                           
  1275                           ;MAIN_M.c: 101:                 hora = DECIMAL_BCD(parametro);
  1276  03DC  0876               	movf	_parametro,w
  1277  03DD  160A  118A  25A1  120A  118A  	fcall	_DECIMAL_BCD
  1278  03E2  1683               	bsf	3,5	;RP0=1, select bank1
  1279  03E3  1303               	bcf	3,6	;RP1=0, select bank1
  1280  03E4  00D5               	movwf	??_main^(0+128)
  1281  03E5  0855               	movf	??_main^(0+128),w
  1282  03E6  00DB               	movwf	_hora^(0+128)
  1283  03E7                     l3930:
  1284                           
  1285                           ;MAIN_M.c: 102:                 CONFIGURAR(1,8);
  1286  03E7  3008               	movlw	8
  1287  03E8  00D5               	movwf	??_main^(0+128)
  1288  03E9  0855               	movf	??_main^(0+128),w
  1289  03EA  1283               	bcf	3,5	;RP0=0, select bank0
  1290  03EB  1303               	bcf	3,6	;RP1=0, select bank0
  1291  03EC  00A5               	movwf	CONFIGURAR@y
  1292  03ED  3001               	movlw	1
  1293  03EE  160A  118A  23D2  120A  118A  	fcall	_CONFIGURAR
  1294  03F3                     l3932:
  1295                           
  1296                           ;MAIN_M.c: 104:             if(select == 2){
  1297  03F3  3002               	movlw	2
  1298  03F4  0677               	xorwf	_select,w
  1299  03F5  1D03               	btfss	3,2
  1300  03F6  2BF8               	goto	u5561
  1301  03F7  2BF9               	goto	u5560
  1302  03F8                     u5561:
  1303  03F8  2C2C               	goto	l3944
  1304  03F9                     u5560:
  1305  03F9                     l3934:
  1306                           
  1307                           ;MAIN_M.c: 105:                 if(!RB0){
  1308  03F9  1283               	bcf	3,5	;RP0=0, select bank0
  1309  03FA  1303               	bcf	3,6	;RP1=0, select bank0
  1310  03FB  1806               	btfsc	6,0	;volatile
  1311  03FC  2BFE               	goto	u5571
  1312  03FD  2BFF               	goto	u5570
  1313  03FE                     u5571:
  1314  03FE  2C15               	goto	l3940
  1315  03FF                     u5570:
  1316  03FF                     l3936:
  1317                           
  1318                           ;MAIN_M.c: 106:                     parametro = BCD_DECIMAL(min);
  1319  03FF  0878               	movf	_min,w
  1320  0400  160A  118A  2406  120A  118A  	fcall	_BCD_DECIMAL
  1321  0405  1683               	bsf	3,5	;RP0=1, select bank1
  1322  0406  1303               	bcf	3,6	;RP1=0, select bank1
  1323  0407  00D5               	movwf	??_main^(0+128)
  1324  0408  0855               	movf	??_main^(0+128),w
  1325  0409  00F6               	movwf	_parametro
  1326  040A                     l3938:
  1327                           
  1328                           ;MAIN_M.c: 107:                     _delay((unsigned long)((10)*(8000000/4000.0)));
  1329  040A  301A               	movlw	26
  1330  040B  1683               	bsf	3,5	;RP0=1, select bank1
  1331  040C  1303               	bcf	3,6	;RP1=0, select bank1
  1332  040D  00D6               	movwf	(??_main^(0+128)+1)
  1333  040E  30F7               	movlw	247
  1334  040F  00D5               	movwf	??_main^(0+128)
  1335  0410                     u5657:
  1336  0410  0BD5               	decfsz	??_main^(0+128),f
  1337  0411  2C10               	goto	u5657
  1338  0412  0BD6               	decfsz	(??_main^(0+128)+1),f
  1339  0413  2C10               	goto	u5657
  1340  0414  2C15               	nop2
  1341  0415                     l3940:
  1342                           
  1343                           ;MAIN_M.c: 109:                 min = DECIMAL_BCD(parametro);
  1344  0415  0876               	movf	_parametro,w
  1345  0416  160A  118A  25A1  120A  118A  	fcall	_DECIMAL_BCD
  1346  041B  1683               	bsf	3,5	;RP0=1, select bank1
  1347  041C  1303               	bcf	3,6	;RP1=0, select bank1
  1348  041D  00D5               	movwf	??_main^(0+128)
  1349  041E  0855               	movf	??_main^(0+128),w
  1350  041F  00F8               	movwf	_min
  1351  0420                     l3942:
  1352                           
  1353                           ;MAIN_M.c: 110:                 CONFIGURAR(1,11);
  1354  0420  300B               	movlw	11
  1355  0421  00D5               	movwf	??_main^(0+128)
  1356  0422  0855               	movf	??_main^(0+128),w
  1357  0423  1283               	bcf	3,5	;RP0=0, select bank0
  1358  0424  1303               	bcf	3,6	;RP1=0, select bank0
  1359  0425  00A5               	movwf	CONFIGURAR@y
  1360  0426  3001               	movlw	1
  1361  0427  160A  118A  23D2  120A  118A  	fcall	_CONFIGURAR
  1362  042C                     l3944:
  1363                           
  1364                           ;MAIN_M.c: 112:             if(select == 3){
  1365  042C  3003               	movlw	3
  1366  042D  0677               	xorwf	_select,w
  1367  042E  1D03               	btfss	3,2
  1368  042F  2C31               	goto	u5581
  1369  0430  2C32               	goto	u5580
  1370  0431                     u5581:
  1371  0431  2C67               	goto	l3956
  1372  0432                     u5580:
  1373  0432                     l3946:
  1374                           
  1375                           ;MAIN_M.c: 113:                 if(!RB0){
  1376  0432  1283               	bcf	3,5	;RP0=0, select bank0
  1377  0433  1303               	bcf	3,6	;RP1=0, select bank0
  1378  0434  1806               	btfsc	6,0	;volatile
  1379  0435  2C37               	goto	u5591
  1380  0436  2C38               	goto	u5590
  1381  0437                     u5591:
  1382  0437  2C50               	goto	l3952
  1383  0438                     u5590:
  1384  0438                     l3948:
  1385                           
  1386                           ;MAIN_M.c: 114:                     parametro = BCD_DECIMAL(mes);
  1387  0438  1683               	bsf	3,5	;RP0=1, select bank1
  1388  0439  1303               	bcf	3,6	;RP1=0, select bank1
  1389  043A  0859               	movf	_mes^(0+128),w
  1390  043B  160A  118A  2406  120A  118A  	fcall	_BCD_DECIMAL
  1391  0440  1683               	bsf	3,5	;RP0=1, select bank1
  1392  0441  1303               	bcf	3,6	;RP1=0, select bank1
  1393  0442  00D5               	movwf	??_main^(0+128)
  1394  0443  0855               	movf	??_main^(0+128),w
  1395  0444  00F6               	movwf	_parametro
  1396  0445                     l3950:
  1397                           
  1398                           ;MAIN_M.c: 115:                     _delay((unsigned long)((10)*(8000000/4000.0)));
  1399  0445  301A               	movlw	26
  1400  0446  1683               	bsf	3,5	;RP0=1, select bank1
  1401  0447  1303               	bcf	3,6	;RP1=0, select bank1
  1402  0448  00D6               	movwf	(??_main^(0+128)+1)
  1403  0449  30F7               	movlw	247
  1404  044A  00D5               	movwf	??_main^(0+128)
  1405  044B                     u5667:
  1406  044B  0BD5               	decfsz	??_main^(0+128),f
  1407  044C  2C4B               	goto	u5667
  1408  044D  0BD6               	decfsz	(??_main^(0+128)+1),f
  1409  044E  2C4B               	goto	u5667
  1410  044F  2C50               	nop2
  1411  0450                     l3952:
  1412                           
  1413                           ;MAIN_M.c: 117:                 mes = DECIMAL_BCD(parametro);
  1414  0450  0876               	movf	_parametro,w
  1415  0451  160A  118A  25A1  120A  118A  	fcall	_DECIMAL_BCD
  1416  0456  1683               	bsf	3,5	;RP0=1, select bank1
  1417  0457  1303               	bcf	3,6	;RP1=0, select bank1
  1418  0458  00D5               	movwf	??_main^(0+128)
  1419  0459  0855               	movf	??_main^(0+128),w
  1420  045A  00D9               	movwf	_mes^(0+128)
  1421  045B                     l3954:
  1422                           
  1423                           ;MAIN_M.c: 118:                 CONFIGURAR(2,9);
  1424  045B  3009               	movlw	9
  1425  045C  00D5               	movwf	??_main^(0+128)
  1426  045D  0855               	movf	??_main^(0+128),w
  1427  045E  1283               	bcf	3,5	;RP0=0, select bank0
  1428  045F  1303               	bcf	3,6	;RP1=0, select bank0
  1429  0460  00A5               	movwf	CONFIGURAR@y
  1430  0461  3002               	movlw	2
  1431  0462  160A  118A  23D2  120A  118A  	fcall	_CONFIGURAR
  1432  0467                     l3956:
  1433                           
  1434                           ;MAIN_M.c: 120:             if(select == 4){
  1435  0467  3004               	movlw	4
  1436  0468  0677               	xorwf	_select,w
  1437  0469  1D03               	btfss	3,2
  1438  046A  2C6C               	goto	u5601
  1439  046B  2C6D               	goto	u5600
  1440  046C                     u5601:
  1441  046C  2CA2               	goto	l3968
  1442  046D                     u5600:
  1443  046D                     l3958:
  1444                           
  1445                           ;MAIN_M.c: 121:                 if(!RB0){
  1446  046D  1283               	bcf	3,5	;RP0=0, select bank0
  1447  046E  1303               	bcf	3,6	;RP1=0, select bank0
  1448  046F  1806               	btfsc	6,0	;volatile
  1449  0470  2C72               	goto	u5611
  1450  0471  2C73               	goto	u5610
  1451  0472                     u5611:
  1452  0472  2C8B               	goto	l3964
  1453  0473                     u5610:
  1454  0473                     l3960:
  1455                           
  1456                           ;MAIN_M.c: 122:                     parametro = BCD_DECIMAL(year);
  1457  0473  1683               	bsf	3,5	;RP0=1, select bank1
  1458  0474  1303               	bcf	3,6	;RP1=0, select bank1
  1459  0475  0858               	movf	_year^(0+128),w
  1460  0476  160A  118A  2406  120A  118A  	fcall	_BCD_DECIMAL
  1461  047B  1683               	bsf	3,5	;RP0=1, select bank1
  1462  047C  1303               	bcf	3,6	;RP1=0, select bank1
  1463  047D  00D5               	movwf	??_main^(0+128)
  1464  047E  0855               	movf	??_main^(0+128),w
  1465  047F  00F6               	movwf	_parametro
  1466  0480                     l3962:
  1467                           
  1468                           ;MAIN_M.c: 123:                     _delay((unsigned long)((10)*(8000000/4000.0)));
  1469  0480  301A               	movlw	26
  1470  0481  1683               	bsf	3,5	;RP0=1, select bank1
  1471  0482  1303               	bcf	3,6	;RP1=0, select bank1
  1472  0483  00D6               	movwf	(??_main^(0+128)+1)
  1473  0484  30F7               	movlw	247
  1474  0485  00D5               	movwf	??_main^(0+128)
  1475  0486                     u5677:
  1476  0486  0BD5               	decfsz	??_main^(0+128),f
  1477  0487  2C86               	goto	u5677
  1478  0488  0BD6               	decfsz	(??_main^(0+128)+1),f
  1479  0489  2C86               	goto	u5677
  1480  048A  2C8B               	nop2
  1481  048B                     l3964:
  1482                           
  1483                           ;MAIN_M.c: 125:                 year = DECIMAL_BCD(parametro);
  1484  048B  0876               	movf	_parametro,w
  1485  048C  160A  118A  25A1  120A  118A  	fcall	_DECIMAL_BCD
  1486  0491  1683               	bsf	3,5	;RP0=1, select bank1
  1487  0492  1303               	bcf	3,6	;RP1=0, select bank1
  1488  0493  00D5               	movwf	??_main^(0+128)
  1489  0494  0855               	movf	??_main^(0+128),w
  1490  0495  00D8               	movwf	_year^(0+128)
  1491  0496                     l3966:
  1492                           
  1493                           ;MAIN_M.c: 126:                 CONFIGURAR(2,14);
  1494  0496  300E               	movlw	14
  1495  0497  00D5               	movwf	??_main^(0+128)
  1496  0498  0855               	movf	??_main^(0+128),w
  1497  0499  1283               	bcf	3,5	;RP0=0, select bank0
  1498  049A  1303               	bcf	3,6	;RP1=0, select bank0
  1499  049B  00A5               	movwf	CONFIGURAR@y
  1500  049C  3002               	movlw	2
  1501  049D  160A  118A  23D2  120A  118A  	fcall	_CONFIGURAR
  1502  04A2                     l3968:
  1503                           
  1504                           ;MAIN_M.c: 129:             if(select == 5){
  1505  04A2  3005               	movlw	5
  1506  04A3  0677               	xorwf	_select,w
  1507  04A4  1D03               	btfss	3,2
  1508  04A5  2CA7               	goto	u5621
  1509  04A6  2CA8               	goto	u5620
  1510  04A7                     u5621:
  1511  04A7  2D9E               	goto	l3976
  1512  04A8                     u5620:
  1513  04A8                     l3970:
  1514                           
  1515                           ;MAIN_M.c: 130:                 RTC_WRITE(0xD0,0x02,hora);
  1516  04A8  30D0               	movlw	208
  1517  04A9  1283               	bcf	3,5	;RP0=0, select bank0
  1518  04AA  1303               	bcf	3,6	;RP1=0, select bank0
  1519  04AB  00A0               	movwf	RTC_WRITE@I2C
  1520  04AC  3000               	movlw	0
  1521  04AD  00A1               	movwf	RTC_WRITE@I2C+1
  1522  04AE  3002               	movlw	2
  1523  04AF  00A2               	movwf	RTC_WRITE@d
  1524  04B0  3000               	movlw	0
  1525  04B1  00A3               	movwf	RTC_WRITE@d+1
  1526  04B2  1683               	bsf	3,5	;RP0=1, select bank1
  1527  04B3  1303               	bcf	3,6	;RP1=0, select bank1
  1528  04B4  085B               	movf	_hora^(0+128),w
  1529  04B5  00D5               	movwf	??_main^(0+128)
  1530  04B6  0855               	movf	??_main^(0+128),w
  1531  04B7  1283               	bcf	3,5	;RP0=0, select bank0
  1532  04B8  1303               	bcf	3,6	;RP1=0, select bank0
  1533  04B9  00A4               	movwf	RTC_WRITE@parametro
  1534  04BA  160A  118A  24F5  120A  118A  	fcall	_RTC_WRITE
  1535                           
  1536                           ;MAIN_M.c: 131:                 RTC_WRITE(0xD0,0x01,min);
  1537  04BF  30D0               	movlw	208
  1538  04C0  1283               	bcf	3,5	;RP0=0, select bank0
  1539  04C1  1303               	bcf	3,6	;RP1=0, select bank0
  1540  04C2  00A0               	movwf	RTC_WRITE@I2C
  1541  04C3  3000               	movlw	0
  1542  04C4  00A1               	movwf	RTC_WRITE@I2C+1
  1543  04C5  3001               	movlw	1
  1544  04C6  00A2               	movwf	RTC_WRITE@d
  1545  04C7  3000               	movlw	0
  1546  04C8  00A3               	movwf	RTC_WRITE@d+1
  1547  04C9  0878               	movf	_min,w
  1548  04CA  1683               	bsf	3,5	;RP0=1, select bank1
  1549  04CB  1303               	bcf	3,6	;RP1=0, select bank1
  1550  04CC  00D5               	movwf	??_main^(0+128)
  1551  04CD  0855               	movf	??_main^(0+128),w
  1552  04CE  1283               	bcf	3,5	;RP0=0, select bank0
  1553  04CF  1303               	bcf	3,6	;RP1=0, select bank0
  1554  04D0  00A4               	movwf	RTC_WRITE@parametro
  1555  04D1  160A  118A  24F5  120A  118A  	fcall	_RTC_WRITE
  1556                           
  1557                           ;MAIN_M.c: 132:                 RTC_WRITE(0xD0,0x05,mes);
  1558  04D6  30D0               	movlw	208
  1559  04D7  1283               	bcf	3,5	;RP0=0, select bank0
  1560  04D8  1303               	bcf	3,6	;RP1=0, select bank0
  1561  04D9  00A0               	movwf	RTC_WRITE@I2C
  1562  04DA  3000               	movlw	0
  1563  04DB  00A1               	movwf	RTC_WRITE@I2C+1
  1564  04DC  3005               	movlw	5
  1565  04DD  00A2               	movwf	RTC_WRITE@d
  1566  04DE  3000               	movlw	0
  1567  04DF  00A3               	movwf	RTC_WRITE@d+1
  1568  04E0  1683               	bsf	3,5	;RP0=1, select bank1
  1569  04E1  1303               	bcf	3,6	;RP1=0, select bank1
  1570  04E2  0859               	movf	_mes^(0+128),w
  1571  04E3  00D5               	movwf	??_main^(0+128)
  1572  04E4  0855               	movf	??_main^(0+128),w
  1573  04E5  1283               	bcf	3,5	;RP0=0, select bank0
  1574  04E6  1303               	bcf	3,6	;RP1=0, select bank0
  1575  04E7  00A4               	movwf	RTC_WRITE@parametro
  1576  04E8  160A  118A  24F5  120A  118A  	fcall	_RTC_WRITE
  1577                           
  1578                           ;MAIN_M.c: 133:                 RTC_WRITE(0xD0,0x06,year);
  1579  04ED  30D0               	movlw	208
  1580  04EE  1283               	bcf	3,5	;RP0=0, select bank0
  1581  04EF  1303               	bcf	3,6	;RP1=0, select bank0
  1582  04F0  00A0               	movwf	RTC_WRITE@I2C
  1583  04F1  3000               	movlw	0
  1584  04F2  00A1               	movwf	RTC_WRITE@I2C+1
  1585  04F3  3006               	movlw	6
  1586  04F4  00A2               	movwf	RTC_WRITE@d
  1587  04F5  3000               	movlw	0
  1588  04F6  00A3               	movwf	RTC_WRITE@d+1
  1589  04F7  1683               	bsf	3,5	;RP0=1, select bank1
  1590  04F8  1303               	bcf	3,6	;RP1=0, select bank1
  1591  04F9  0858               	movf	_year^(0+128),w
  1592  04FA  00D5               	movwf	??_main^(0+128)
  1593  04FB  0855               	movf	??_main^(0+128),w
  1594  04FC  1283               	bcf	3,5	;RP0=0, select bank0
  1595  04FD  1303               	bcf	3,6	;RP1=0, select bank0
  1596  04FE  00A4               	movwf	RTC_WRITE@parametro
  1597  04FF  160A  118A  24F5  120A  118A  	fcall	_RTC_WRITE
  1598                           
  1599                           ;MAIN_M.c: 134:                 RTC_WRITE(0xD0,0x00,0x00);
  1600  0504  30D0               	movlw	208
  1601  0505  1283               	bcf	3,5	;RP0=0, select bank0
  1602  0506  1303               	bcf	3,6	;RP1=0, select bank0
  1603  0507  00A0               	movwf	RTC_WRITE@I2C
  1604  0508  3000               	movlw	0
  1605  0509  00A1               	movwf	RTC_WRITE@I2C+1
  1606  050A  3000               	movlw	0
  1607  050B  00A2               	movwf	RTC_WRITE@d
  1608  050C  00A3               	movwf	RTC_WRITE@d+1
  1609  050D  01A4               	clrf	RTC_WRITE@parametro
  1610  050E  160A  118A  24F5  120A  118A  	fcall	_RTC_WRITE
  1611  0513                     l3972:
  1612                           
  1613                           ;MAIN_M.c: 135:                 select = 0;
  1614  0513  01F7               	clrf	_select
  1615  0514  2D9E               	goto	l3976
  1616  0515                     l3974:
  1617                           
  1618                           ;MAIN_M.c: 141:         seg = RTC_READ(0xD0,0x00);
  1619  0515  30D0               	movlw	208
  1620  0516  1283               	bcf	3,5	;RP0=0, select bank0
  1621  0517  1303               	bcf	3,6	;RP1=0, select bank0
  1622  0518  00A4               	movwf	RTC_READ@I2C
  1623  0519  3000               	movlw	0
  1624  051A  00A5               	movwf	RTC_READ@I2C+1
  1625  051B  3000               	movlw	0
  1626  051C  00A6               	movwf	RTC_READ@d
  1627  051D  00A7               	movwf	RTC_READ@d+1
  1628  051E  160A  118A  2734  120A  118A  	fcall	_RTC_READ
  1629  0523  1283               	bcf	3,5	;RP0=0, select bank0
  1630  0524  1303               	bcf	3,6	;RP1=0, select bank0
  1631  0525  0824               	movf	?_RTC_READ,w
  1632  0526  1683               	bsf	3,5	;RP0=1, select bank1
  1633  0527  1303               	bcf	3,6	;RP1=0, select bank1
  1634  0528  00D5               	movwf	??_main^(0+128)
  1635  0529  0855               	movf	??_main^(0+128),w
  1636  052A  00DC               	movwf	_seg^(0+128)
  1637                           
  1638                           ;MAIN_M.c: 142:         min = RTC_READ(0xD0,0x01);
  1639  052B  30D0               	movlw	208
  1640  052C  1283               	bcf	3,5	;RP0=0, select bank0
  1641  052D  1303               	bcf	3,6	;RP1=0, select bank0
  1642  052E  00A4               	movwf	RTC_READ@I2C
  1643  052F  3000               	movlw	0
  1644  0530  00A5               	movwf	RTC_READ@I2C+1
  1645  0531  3001               	movlw	1
  1646  0532  00A6               	movwf	RTC_READ@d
  1647  0533  3000               	movlw	0
  1648  0534  00A7               	movwf	RTC_READ@d+1
  1649  0535  160A  118A  2734  120A  118A  	fcall	_RTC_READ
  1650  053A  1283               	bcf	3,5	;RP0=0, select bank0
  1651  053B  1303               	bcf	3,6	;RP1=0, select bank0
  1652  053C  0824               	movf	?_RTC_READ,w
  1653  053D  1683               	bsf	3,5	;RP0=1, select bank1
  1654  053E  1303               	bcf	3,6	;RP1=0, select bank1
  1655  053F  00D5               	movwf	??_main^(0+128)
  1656  0540  0855               	movf	??_main^(0+128),w
  1657  0541  00F8               	movwf	_min
  1658                           
  1659                           ;MAIN_M.c: 143:         hora = RTC_READ(0xD0,0x02);
  1660  0542  30D0               	movlw	208
  1661  0543  1283               	bcf	3,5	;RP0=0, select bank0
  1662  0544  1303               	bcf	3,6	;RP1=0, select bank0
  1663  0545  00A4               	movwf	RTC_READ@I2C
  1664  0546  3000               	movlw	0
  1665  0547  00A5               	movwf	RTC_READ@I2C+1
  1666  0548  3002               	movlw	2
  1667  0549  00A6               	movwf	RTC_READ@d
  1668  054A  3000               	movlw	0
  1669  054B  00A7               	movwf	RTC_READ@d+1
  1670  054C  160A  118A  2734  120A  118A  	fcall	_RTC_READ
  1671  0551  1283               	bcf	3,5	;RP0=0, select bank0
  1672  0552  1303               	bcf	3,6	;RP1=0, select bank0
  1673  0553  0824               	movf	?_RTC_READ,w
  1674  0554  1683               	bsf	3,5	;RP0=1, select bank1
  1675  0555  1303               	bcf	3,6	;RP1=0, select bank1
  1676  0556  00D5               	movwf	??_main^(0+128)
  1677  0557  0855               	movf	??_main^(0+128),w
  1678  0558  00DB               	movwf	_hora^(0+128)
  1679                           
  1680                           ;MAIN_M.c: 144:         dia = RTC_READ(0xD0,0x04);
  1681  0559  30D0               	movlw	208
  1682  055A  1283               	bcf	3,5	;RP0=0, select bank0
  1683  055B  1303               	bcf	3,6	;RP1=0, select bank0
  1684  055C  00A4               	movwf	RTC_READ@I2C
  1685  055D  3000               	movlw	0
  1686  055E  00A5               	movwf	RTC_READ@I2C+1
  1687  055F  3004               	movlw	4
  1688  0560  00A6               	movwf	RTC_READ@d
  1689  0561  3000               	movlw	0
  1690  0562  00A7               	movwf	RTC_READ@d+1
  1691  0563  160A  118A  2734  120A  118A  	fcall	_RTC_READ
  1692  0568  1283               	bcf	3,5	;RP0=0, select bank0
  1693  0569  1303               	bcf	3,6	;RP1=0, select bank0
  1694  056A  0824               	movf	?_RTC_READ,w
  1695  056B  1683               	bsf	3,5	;RP0=1, select bank1
  1696  056C  1303               	bcf	3,6	;RP1=0, select bank1
  1697  056D  00D5               	movwf	??_main^(0+128)
  1698  056E  0855               	movf	??_main^(0+128),w
  1699  056F  00DA               	movwf	_dia^(0+128)
  1700                           
  1701                           ;MAIN_M.c: 145:         mes = RTC_READ(0xD0,0x05);
  1702  0570  30D0               	movlw	208
  1703  0571  1283               	bcf	3,5	;RP0=0, select bank0
  1704  0572  1303               	bcf	3,6	;RP1=0, select bank0
  1705  0573  00A4               	movwf	RTC_READ@I2C
  1706  0574  3000               	movlw	0
  1707  0575  00A5               	movwf	RTC_READ@I2C+1
  1708  0576  3005               	movlw	5
  1709  0577  00A6               	movwf	RTC_READ@d
  1710  0578  3000               	movlw	0
  1711  0579  00A7               	movwf	RTC_READ@d+1
  1712  057A  160A  118A  2734  120A  118A  	fcall	_RTC_READ
  1713  057F  1283               	bcf	3,5	;RP0=0, select bank0
  1714  0580  1303               	bcf	3,6	;RP1=0, select bank0
  1715  0581  0824               	movf	?_RTC_READ,w
  1716  0582  1683               	bsf	3,5	;RP0=1, select bank1
  1717  0583  1303               	bcf	3,6	;RP1=0, select bank1
  1718  0584  00D5               	movwf	??_main^(0+128)
  1719  0585  0855               	movf	??_main^(0+128),w
  1720  0586  00D9               	movwf	_mes^(0+128)
  1721                           
  1722                           ;MAIN_M.c: 146:         year = RTC_READ(0xD0,0x06);
  1723  0587  30D0               	movlw	208
  1724  0588  1283               	bcf	3,5	;RP0=0, select bank0
  1725  0589  1303               	bcf	3,6	;RP1=0, select bank0
  1726  058A  00A4               	movwf	RTC_READ@I2C
  1727  058B  3000               	movlw	0
  1728  058C  00A5               	movwf	RTC_READ@I2C+1
  1729  058D  3006               	movlw	6
  1730  058E  00A6               	movwf	RTC_READ@d
  1731  058F  3000               	movlw	0
  1732  0590  00A7               	movwf	RTC_READ@d+1
  1733  0591  160A  118A  2734  120A  118A  	fcall	_RTC_READ
  1734  0596  1283               	bcf	3,5	;RP0=0, select bank0
  1735  0597  1303               	bcf	3,6	;RP1=0, select bank0
  1736  0598  0824               	movf	?_RTC_READ,w
  1737  0599  1683               	bsf	3,5	;RP0=1, select bank1
  1738  059A  1303               	bcf	3,6	;RP1=0, select bank1
  1739  059B  00D5               	movwf	??_main^(0+128)
  1740  059C  0855               	movf	??_main^(0+128),w
  1741  059D  00D8               	movwf	_year^(0+128)
  1742  059E                     l3976:
  1743                           
  1744                           ;MAIN_M.c: 149:         centena = CENTENA(POT);
  1745  059E  0879               	movf	_POT,w
  1746  059F  120A  158A  210D  120A  118A  	fcall	_CENTENA
  1747  05A4  1683               	bsf	3,5	;RP0=1, select bank1
  1748  05A5  1303               	bcf	3,6	;RP1=0, select bank1
  1749  05A6  00D5               	movwf	??_main^(0+128)
  1750  05A7  0855               	movf	??_main^(0+128),w
  1751  05A8  00DD               	movwf	_centena^(0+128)
  1752  05A9                     l3978:
  1753                           
  1754                           ;MAIN_M.c: 150:         decena = DECENA(POT);
  1755  05A9  0879               	movf	_POT,w
  1756  05AA  120A  158A  22B4  120A  118A  	fcall	_DECENA
  1757  05AF  1683               	bsf	3,5	;RP0=1, select bank1
  1758  05B0  1303               	bcf	3,6	;RP1=0, select bank1
  1759  05B1  00D5               	movwf	??_main^(0+128)
  1760  05B2  0855               	movf	??_main^(0+128),w
  1761  05B3  00DE               	movwf	_decena^(0+128)
  1762  05B4                     l3980:
  1763                           
  1764                           ;MAIN_M.c: 151:         unidad = UNIDAD(POT);
  1765  05B4  0879               	movf	_POT,w
  1766  05B5  120A  118A  2672  120A  118A  	fcall	_UNIDAD
  1767  05BA  1683               	bsf	3,5	;RP0=1, select bank1
  1768  05BB  1303               	bcf	3,6	;RP1=0, select bank1
  1769  05BC  00D5               	movwf	??_main^(0+128)
  1770  05BD  0855               	movf	??_main^(0+128),w
  1771  05BE  00DF               	movwf	_unidad^(0+128)
  1772  05BF                     l3982:
  1773                           
  1774                           ;MAIN_M.c: 153:         centena += '0';
  1775  05BF  3030               	movlw	48
  1776  05C0  00D5               	movwf	??_main^(0+128)
  1777  05C1  0855               	movf	??_main^(0+128),w
  1778  05C2  07DD               	addwf	_centena^(0+128),f
  1779  05C3                     l3984:
  1780                           
  1781                           ;MAIN_M.c: 154:         decena += '0';
  1782  05C3  3030               	movlw	48
  1783  05C4  00D5               	movwf	??_main^(0+128)
  1784  05C5  0855               	movf	??_main^(0+128),w
  1785  05C6  07DE               	addwf	_decena^(0+128),f
  1786  05C7                     l3986:
  1787                           
  1788                           ;MAIN_M.c: 155:         unidad += '0';
  1789  05C7  3030               	movlw	48
  1790  05C8  00D5               	movwf	??_main^(0+128)
  1791  05C9  0855               	movf	??_main^(0+128),w
  1792  05CA  07DF               	addwf	_unidad^(0+128),f
  1793  05CB                     l3988:
  1794                           
  1795                           ;MAIN_M.c: 158:         LCD_CLEAR();
  1796  05CB  160A  118A  23A1  120A  118A  	fcall	_LCD_CLEAR
  1797  05D0                     l3990:
  1798                           
  1799                           ;MAIN_M.c: 159:         LCD_XY(1,0);
  1800  05D0  1283               	bcf	3,5	;RP0=0, select bank0
  1801  05D1  1303               	bcf	3,6	;RP1=0, select bank0
  1802  05D2  01A2               	clrf	LCD_XY@y
  1803  05D3  3001               	movlw	1
  1804  05D4  160A  118A  243E  120A  118A  	fcall	_LCD_XY
  1805  05D9                     l3992:
  1806                           
  1807                           ;MAIN_M.c: 160:         LCD_STRING("S1:");
  1808  05D9  3001               	movlw	(low ((STR_1-__stringbase)| (0+32768)))& (0+255)
  1809  05DA  160A  118A  24A3  120A  118A  	fcall	_LCD_STRING
  1810  05DF                     l3994:
  1811                           
  1812                           ;MAIN_M.c: 161:         LCD_XY(2,0);
  1813  05DF  1283               	bcf	3,5	;RP0=0, select bank0
  1814  05E0  1303               	bcf	3,6	;RP1=0, select bank0
  1815  05E1  01A2               	clrf	LCD_XY@y
  1816  05E2  3002               	movlw	2
  1817  05E3  160A  118A  243E  120A  118A  	fcall	_LCD_XY
  1818  05E8                     l3996:
  1819                           
  1820                           ;MAIN_M.c: 162:         LCD_CHAR(centena);
  1821  05E8  1683               	bsf	3,5	;RP0=1, select bank1
  1822  05E9  1303               	bcf	3,6	;RP1=0, select bank1
  1823  05EA  085D               	movf	_centena^(0+128),w
  1824  05EB  160A  118A  2422  120A  118A  	fcall	_LCD_CHAR
  1825  05F0                     l3998:
  1826                           
  1827                           ;MAIN_M.c: 163:         LCD_STRING(".");
  1828  05F0  300B               	movlw	(low ((STR_2-__stringbase)| (0+32768)))& (0+255)
  1829  05F1  160A  118A  24A3  120A  118A  	fcall	_LCD_STRING
  1830  05F6                     l4000:
  1831                           
  1832                           ;MAIN_M.c: 164:         LCD_CHAR(decena);
  1833  05F6  1683               	bsf	3,5	;RP0=1, select bank1
  1834  05F7  1303               	bcf	3,6	;RP1=0, select bank1
  1835  05F8  085E               	movf	_decena^(0+128),w
  1836  05F9  160A  118A  2422  120A  118A  	fcall	_LCD_CHAR
  1837  05FE                     l4002:
  1838                           
  1839                           ;MAIN_M.c: 165:         LCD_CHAR(unidad);
  1840  05FE  1683               	bsf	3,5	;RP0=1, select bank1
  1841  05FF  1303               	bcf	3,6	;RP1=0, select bank1
  1842  0600  085F               	movf	_unidad^(0+128),w
  1843  0601  160A  118A  2422  120A  118A  	fcall	_LCD_CHAR
  1844  0606                     l4004:
  1845                           
  1846                           ;MAIN_M.c: 168:         LCD_XY(1,8);
  1847  0606  3008               	movlw	8
  1848  0607  1683               	bsf	3,5	;RP0=1, select bank1
  1849  0608  1303               	bcf	3,6	;RP1=0, select bank1
  1850  0609  00D5               	movwf	??_main^(0+128)
  1851  060A  0855               	movf	??_main^(0+128),w
  1852  060B  1283               	bcf	3,5	;RP0=0, select bank0
  1853  060C  1303               	bcf	3,6	;RP1=0, select bank0
  1854  060D  00A2               	movwf	LCD_XY@y
  1855  060E  3001               	movlw	1
  1856  060F  160A  118A  243E  120A  118A  	fcall	_LCD_XY
  1857  0614                     l4006:
  1858                           
  1859                           ;MAIN_M.c: 169:         RTC_PRINT(hora);
  1860  0614  1683               	bsf	3,5	;RP0=1, select bank1
  1861  0615  1303               	bcf	3,6	;RP1=0, select bank1
  1862  0616  085B               	movf	_hora^(0+128),w
  1863  0617  160A  118A  247E  120A  118A  	fcall	_RTC_PRINT
  1864  061C                     l4008:
  1865                           
  1866                           ;MAIN_M.c: 170:         LCD_STRING(":");
  1867  061C  3003               	movlw	(low (((STR_1+2)-__stringbase)| (0+32768)))& (0+255)
  1868  061D  160A  118A  24A3  120A  118A  	fcall	_LCD_STRING
  1869  0622                     l4010:
  1870                           
  1871                           ;MAIN_M.c: 173:         RTC_PRINT(min);
  1872  0622  0878               	movf	_min,w
  1873  0623  160A  118A  247E  120A  118A  	fcall	_RTC_PRINT
  1874  0628                     l4012:
  1875                           
  1876                           ;MAIN_M.c: 174:         LCD_STRING(":");
  1877  0628  3003               	movlw	(low (((STR_1+2)-__stringbase)| (0+32768)))& (0+255)
  1878  0629  160A  118A  24A3  120A  118A  	fcall	_LCD_STRING
  1879  062E                     l4014:
  1880                           
  1881                           ;MAIN_M.c: 177:         RTC_PRINT(seg);
  1882  062E  1683               	bsf	3,5	;RP0=1, select bank1
  1883  062F  1303               	bcf	3,6	;RP1=0, select bank1
  1884  0630  085C               	movf	_seg^(0+128),w
  1885  0631  160A  118A  247E  120A  118A  	fcall	_RTC_PRINT
  1886  0636                     l4016:
  1887                           
  1888                           ;MAIN_M.c: 180:         LCD_XY(2,6);
  1889  0636  3006               	movlw	6
  1890  0637  1683               	bsf	3,5	;RP0=1, select bank1
  1891  0638  1303               	bcf	3,6	;RP1=0, select bank1
  1892  0639  00D5               	movwf	??_main^(0+128)
  1893  063A  0855               	movf	??_main^(0+128),w
  1894  063B  1283               	bcf	3,5	;RP0=0, select bank0
  1895  063C  1303               	bcf	3,6	;RP1=0, select bank0
  1896  063D  00A2               	movwf	LCD_XY@y
  1897  063E  3002               	movlw	2
  1898  063F  160A  118A  243E  120A  118A  	fcall	_LCD_XY
  1899  0644                     l4018:
  1900                           
  1901                           ;MAIN_M.c: 181:         RTC_PRINT(dia);
  1902  0644  1683               	bsf	3,5	;RP0=1, select bank1
  1903  0645  1303               	bcf	3,6	;RP1=0, select bank1
  1904  0646  085A               	movf	_dia^(0+128),w
  1905  0647  160A  118A  247E  120A  118A  	fcall	_RTC_PRINT
  1906  064C                     l4020:
  1907                           
  1908                           ;MAIN_M.c: 182:         LCD_STRING("/");
  1909  064C  300D               	movlw	(low ((STR_5-__stringbase)| (0+32768)))& (0+255)
  1910  064D  160A  118A  24A3  120A  118A  	fcall	_LCD_STRING
  1911  0652                     l4022:
  1912                           
  1913                           ;MAIN_M.c: 185:         RTC_PRINT(mes);
  1914  0652  1683               	bsf	3,5	;RP0=1, select bank1
  1915  0653  1303               	bcf	3,6	;RP1=0, select bank1
  1916  0654  0859               	movf	_mes^(0+128),w
  1917  0655  160A  118A  247E  120A  118A  	fcall	_RTC_PRINT
  1918  065A                     l4024:
  1919                           
  1920                           ;MAIN_M.c: 186:         LCD_STRING("/");
  1921  065A  300D               	movlw	(low ((STR_5-__stringbase)| (0+32768)))& (0+255)
  1922  065B  160A  118A  24A3  120A  118A  	fcall	_LCD_STRING
  1923  0660                     l4026:
  1924                           
  1925                           ;MAIN_M.c: 189:         LCD_STRING("20");
  1926  0660  3008               	movlw	(low ((STR_7-__stringbase)| (0+32768)))& (0+255)
  1927  0661  160A  118A  24A3  120A  118A  	fcall	_LCD_STRING
  1928  0666                     l4028:
  1929                           
  1930                           ;MAIN_M.c: 190:         RTC_PRINT(year);
  1931  0666  1683               	bsf	3,5	;RP0=1, select bank1
  1932  0667  1303               	bcf	3,6	;RP1=0, select bank1
  1933  0668  0858               	movf	_year^(0+128),w
  1934  0669  160A  118A  247E  120A  118A  	fcall	_RTC_PRINT
  1935  066E  2B88               	goto	l3908
  1936  066F  120A  118A  280C   	ljmp	start
  1937  0672                     __end_of_main:
  1938                           
  1939                           	psect	text1
  1940  15DF                     __ptext1:	
  1941 ;; *************** function _setup *****************
  1942 ;; Defined at:
  1943 ;;		line 195 in file "MAIN_M.c"
  1944 ;; Parameters:    Size  Location     Type
  1945 ;;		None
  1946 ;; Auto vars:     Size  Location     Type
  1947 ;;		None
  1948 ;; Return value:  Size  Location     Type
  1949 ;;                  1    wreg      void 
  1950 ;; Registers used:
  1951 ;;		wreg, fsr0l, fsr0h, status,2, status,0, pclath, cstack
  1952 ;; Tracked objects:
  1953 ;;		On entry : 0/0
  1954 ;;		On exit  : 0/0
  1955 ;;		Unchanged: 0/0
  1956 ;; Data sizes:     COMMON   BANK0   BANK1   BANK3   BANK2
  1957 ;;      Params:         0       0       0       0       0
  1958 ;;      Locals:         0       0       0       0       0
  1959 ;;      Temps:          0       0       0       0       0
  1960 ;;      Totals:         0       0       0       0       0
  1961 ;;Total ram usage:        0 bytes
  1962 ;; Hardware stack levels used: 1
  1963 ;; Hardware stack levels required when called: 4
  1964 ;; This function calls:
  1965 ;;		_I2C_Master_Init
  1966 ;;		_IOC_INT
  1967 ;;		_LCD_INIT
  1968 ;;		_OSCILLATOR
  1969 ;; This function is called by:
  1970 ;;		_main
  1971 ;; This function uses a non-reentrant model
  1972 ;;
  1973                           
  1974  15DF                     _setup:	
  1975                           ;psect for function _setup
  1976                           
  1977  15DF                     l3808:	
  1978                           ;incstack = 0
  1979                           ; Regs used in _setup: [wreg-fsr0h+status,2+status,0+pclath+cstack]
  1980                           
  1981                           
  1982                           ;MAIN_M.c: 197:     OSCILLATOR(1);
  1983  15DF  3001               	movlw	1
  1984  15E0  160A  118A  26D2  160A  118A  	fcall	_OSCILLATOR
  1985  15E5                     l3810:
  1986                           
  1987                           ;MAIN_M.c: 200:     ANSEL = 0x00;
  1988  15E5  1683               	bsf	3,5	;RP0=1, select bank3
  1989  15E6  1703               	bsf	3,6	;RP1=1, select bank3
  1990  15E7  0188               	clrf	8	;volatile
  1991  15E8                     l3812:
  1992                           
  1993                           ;MAIN_M.c: 201:     ANSELH = 0x00;
  1994  15E8  0189               	clrf	9	;volatile
  1995  15E9                     l3814:
  1996                           
  1997                           ;MAIN_M.c: 203:     TRISD = 0x00;
  1998  15E9  1683               	bsf	3,5	;RP0=1, select bank1
  1999  15EA  1303               	bcf	3,6	;RP1=0, select bank1
  2000  15EB  0188               	clrf	8	;volatile
  2001  15EC                     l3816:
  2002                           
  2003                           ;MAIN_M.c: 204:     PORTD = 0x00;
  2004  15EC  1283               	bcf	3,5	;RP0=0, select bank0
  2005  15ED  1303               	bcf	3,6	;RP1=0, select bank0
  2006  15EE  0188               	clrf	8	;volatile
  2007  15EF                     l3818:
  2008                           
  2009                           ;MAIN_M.c: 205:     TRISE = 0x00;
  2010  15EF  1683               	bsf	3,5	;RP0=1, select bank1
  2011  15F0  1303               	bcf	3,6	;RP1=0, select bank1
  2012  15F1  0189               	clrf	9	;volatile
  2013  15F2                     l3820:
  2014                           
  2015                           ;MAIN_M.c: 206:     PORTE = 0x00;
  2016  15F2  1283               	bcf	3,5	;RP0=0, select bank0
  2017  15F3  1303               	bcf	3,6	;RP1=0, select bank0
  2018  15F4  0189               	clrf	9	;volatile
  2019  15F5                     l3822:
  2020                           
  2021                           ;MAIN_M.c: 208:     TRISB = 0b00000011;
  2022  15F5  3003               	movlw	3
  2023  15F6  1683               	bsf	3,5	;RP0=1, select bank1
  2024  15F7  1303               	bcf	3,6	;RP1=0, select bank1
  2025  15F8  0086               	movwf	6	;volatile
  2026  15F9                     l3824:
  2027                           
  2028                           ;MAIN_M.c: 209:     PORTB = 0x00;
  2029  15F9  1283               	bcf	3,5	;RP0=0, select bank0
  2030  15FA  1303               	bcf	3,6	;RP1=0, select bank0
  2031  15FB  0186               	clrf	6	;volatile
  2032  15FC                     l3826:
  2033                           
  2034                           ;MAIN_M.c: 211:     PORTA = 0x00;
  2035  15FC  0185               	clrf	5	;volatile
  2036  15FD                     l3828:
  2037                           
  2038                           ;MAIN_M.c: 212:     TRISA = 0x00;
  2039  15FD  1683               	bsf	3,5	;RP0=1, select bank1
  2040  15FE  1303               	bcf	3,6	;RP1=0, select bank1
  2041  15FF  0185               	clrf	5	;volatile
  2042  1600                     l3830:
  2043                           
  2044                           ;MAIN_M.c: 215:     IOC_INT(0b00000011);
  2045  1600  3003               	movlw	3
  2046  1601  160A  118A  2395  160A  118A  	fcall	_IOC_INT
  2047  1606                     l3832:
  2048                           
  2049                           ;MAIN_M.c: 217:     POT = 0;
  2050  1606  01F9               	clrf	_POT
  2051  1607                     l3834:
  2052                           
  2053                           ;MAIN_M.c: 218:     unidad = 0;
  2054  1607  1683               	bsf	3,5	;RP0=1, select bank1
  2055  1608  1303               	bcf	3,6	;RP1=0, select bank1
  2056  1609  01DF               	clrf	_unidad^(0+128)
  2057  160A                     l3836:
  2058                           
  2059                           ;MAIN_M.c: 219:     decena = 0;
  2060  160A  01DE               	clrf	_decena^(0+128)
  2061  160B                     l3838:
  2062                           
  2063                           ;MAIN_M.c: 220:     centena = 0;
  2064  160B  01DD               	clrf	_centena^(0+128)
  2065  160C                     l3840:
  2066                           
  2067                           ;MAIN_M.c: 222:     seg = 0;
  2068  160C  01DC               	clrf	_seg^(0+128)
  2069  160D                     l3842:
  2070                           
  2071                           ;MAIN_M.c: 223:     min = 0;
  2072  160D  01F8               	clrf	_min
  2073  160E                     l3844:
  2074                           
  2075                           ;MAIN_M.c: 224:     hora=0 ;
  2076  160E  01DB               	clrf	_hora^(0+128)
  2077  160F                     l3846:
  2078                           
  2079                           ;MAIN_M.c: 225:     dia = 0;
  2080  160F  01DA               	clrf	_dia^(0+128)
  2081  1610                     l3848:
  2082                           
  2083                           ;MAIN_M.c: 226:     mes = 0;
  2084  1610  01D9               	clrf	_mes^(0+128)
  2085  1611                     l3850:
  2086                           
  2087                           ;MAIN_M.c: 227:     year=0;
  2088  1611  01D8               	clrf	_year^(0+128)
  2089  1612                     l3852:
  2090                           
  2091                           ;MAIN_M.c: 229:     LCD_INIT();
  2092  1612  120A  118A  27A8  160A  118A  	fcall	_LCD_INIT
  2093  1617                     l3854:
  2094                           
  2095                           ;MAIN_M.c: 230:     I2C_Master_Init(100000);
  2096  1617  3000               	movlw	0
  2097  1618  1283               	bcf	3,5	;RP0=0, select bank0
  2098  1619  1303               	bcf	3,6	;RP1=0, select bank0
  2099  161A  00B0               	movwf	I2C_Master_Init@c+3
  2100  161B  3001               	movlw	1
  2101  161C  00AF               	movwf	I2C_Master_Init@c+2
  2102  161D  3086               	movlw	134
  2103  161E  00AE               	movwf	I2C_Master_Init@c+1
  2104  161F  30A0               	movlw	160
  2105  1620  00AD               	movwf	I2C_Master_Init@c
  2106  1621  160A  118A  2567  160A  118A  	fcall	_I2C_Master_Init
  2107  1626                     l140:
  2108  1626  0008               	return
  2109  1627                     __end_of_setup:
  2110                           
  2111                           	psect	text2
  2112  16D2                     __ptext2:	
  2113 ;; *************** function _OSCILLATOR *****************
  2114 ;; Defined at:
  2115 ;;		line 40 in file "LCD.c"
  2116 ;; Parameters:    Size  Location     Type
  2117 ;;  f               1    wreg     unsigned char 
  2118 ;; Auto vars:     Size  Location     Type
  2119 ;;  f               1    0[BANK0 ] unsigned char 
  2120 ;; Return value:  Size  Location     Type
  2121 ;;                  1    wreg      void 
  2122 ;; Registers used:
  2123 ;;		wreg, fsr0l, fsr0h, status,2, status,0
  2124 ;; Tracked objects:
  2125 ;;		On entry : 0/0
  2126 ;;		On exit  : 0/0
  2127 ;;		Unchanged: 0/0
  2128 ;; Data sizes:     COMMON   BANK0   BANK1   BANK3   BANK2
  2129 ;;      Params:         0       0       0       0       0
  2130 ;;      Locals:         0       1       0       0       0
  2131 ;;      Temps:          2       0       0       0       0
  2132 ;;      Totals:         2       1       0       0       0
  2133 ;;Total ram usage:        3 bytes
  2134 ;; Hardware stack levels used: 1
  2135 ;; Hardware stack levels required when called: 1
  2136 ;; This function calls:
  2137 ;;		Nothing
  2138 ;; This function is called by:
  2139 ;;		_setup
  2140 ;; This function uses a non-reentrant model
  2141 ;;
  2142                           
  2143  16D2                     _OSCILLATOR:	
  2144                           ;psect for function _OSCILLATOR
  2145                           
  2146                           
  2147                           ;incstack = 0
  2148                           ; Regs used in _OSCILLATOR: [wreg-fsr0h+status,2+status,0]
  2149                           ;OSCILLATOR@f stored from wreg
  2150  16D2  1283               	bcf	3,5	;RP0=0, select bank0
  2151  16D3  1303               	bcf	3,6	;RP1=0, select bank0
  2152  16D4  00A0               	movwf	OSCILLATOR@f
  2153  16D5                     l3710:
  2154                           
  2155                           ;LCD.c: 41:     OSCCONbits.SCS = 1;
  2156  16D5  1683               	bsf	3,5	;RP0=1, select bank1
  2157  16D6  1303               	bcf	3,6	;RP1=0, select bank1
  2158  16D7  140F               	bsf	15,0	;volatile
  2159                           
  2160                           ;LCD.c: 43:     switch(f){
  2161  16D8  2F0F               	goto	l3714
  2162  16D9                     l200:	
  2163                           ;LCD.c: 44:         case(1):
  2164                           
  2165                           
  2166                           ;LCD.c: 45:             OSCCONbits.IRCF2 =1;
  2167  16D9  1683               	bsf	3,5	;RP0=1, select bank1
  2168  16DA  1303               	bcf	3,6	;RP1=0, select bank1
  2169  16DB  170F               	bsf	15,6	;volatile
  2170                           
  2171                           ;LCD.c: 46:             OSCCONbits.IRCF1 =1;
  2172  16DC  168F               	bsf	15,5	;volatile
  2173                           
  2174                           ;LCD.c: 47:             OSCCONbits.IRCF0 =1;
  2175  16DD  160F               	bsf	15,4	;volatile
  2176                           
  2177                           ;LCD.c: 48:             break;
  2178  16DE  2F33               	goto	l210
  2179  16DF                     l202:	
  2180                           ;LCD.c: 50:         case(2):
  2181                           
  2182                           
  2183                           ;LCD.c: 51:             OSCCONbits.IRCF2 =1;
  2184  16DF  1683               	bsf	3,5	;RP0=1, select bank1
  2185  16E0  1303               	bcf	3,6	;RP1=0, select bank1
  2186  16E1  170F               	bsf	15,6	;volatile
  2187                           
  2188                           ;LCD.c: 52:             OSCCONbits.IRCF1 =1;
  2189  16E2  168F               	bsf	15,5	;volatile
  2190                           
  2191                           ;LCD.c: 53:             OSCCONbits.IRCF0 =0;
  2192  16E3  120F               	bcf	15,4	;volatile
  2193                           
  2194                           ;LCD.c: 54:             break;
  2195  16E4  2F33               	goto	l210
  2196  16E5                     l203:	
  2197                           ;LCD.c: 56:         case(3):
  2198                           
  2199                           
  2200                           ;LCD.c: 57:             OSCCONbits.IRCF2 =1;
  2201  16E5  1683               	bsf	3,5	;RP0=1, select bank1
  2202  16E6  1303               	bcf	3,6	;RP1=0, select bank1
  2203  16E7  170F               	bsf	15,6	;volatile
  2204                           
  2205                           ;LCD.c: 58:             OSCCONbits.IRCF1 =0;
  2206  16E8  128F               	bcf	15,5	;volatile
  2207                           
  2208                           ;LCD.c: 59:             OSCCONbits.IRCF0 =1;
  2209  16E9  160F               	bsf	15,4	;volatile
  2210                           
  2211                           ;LCD.c: 60:             break;
  2212  16EA  2F33               	goto	l210
  2213  16EB                     l204:	
  2214                           ;LCD.c: 62:         case(4):
  2215                           
  2216                           
  2217                           ;LCD.c: 63:             OSCCONbits.IRCF2 =1;
  2218  16EB  1683               	bsf	3,5	;RP0=1, select bank1
  2219  16EC  1303               	bcf	3,6	;RP1=0, select bank1
  2220  16ED  170F               	bsf	15,6	;volatile
  2221                           
  2222                           ;LCD.c: 64:             OSCCONbits.IRCF1 =0;
  2223  16EE  128F               	bcf	15,5	;volatile
  2224                           
  2225                           ;LCD.c: 65:             OSCCONbits.IRCF0 =0;
  2226  16EF  120F               	bcf	15,4	;volatile
  2227                           
  2228                           ;LCD.c: 66:             break;
  2229  16F0  2F33               	goto	l210
  2230  16F1                     l205:	
  2231                           ;LCD.c: 68:         case(5):
  2232                           
  2233                           
  2234                           ;LCD.c: 69:             OSCCONbits.IRCF2 =0;
  2235  16F1  1683               	bsf	3,5	;RP0=1, select bank1
  2236  16F2  1303               	bcf	3,6	;RP1=0, select bank1
  2237  16F3  130F               	bcf	15,6	;volatile
  2238                           
  2239                           ;LCD.c: 70:             OSCCONbits.IRCF1 =1;
  2240  16F4  168F               	bsf	15,5	;volatile
  2241                           
  2242                           ;LCD.c: 71:             OSCCONbits.IRCF0 =1;
  2243  16F5  160F               	bsf	15,4	;volatile
  2244                           
  2245                           ;LCD.c: 72:             break;
  2246  16F6  2F33               	goto	l210
  2247  16F7                     l206:	
  2248                           ;LCD.c: 74:         case(6):
  2249                           
  2250                           
  2251                           ;LCD.c: 75:             OSCCONbits.IRCF2 =0;
  2252  16F7  1683               	bsf	3,5	;RP0=1, select bank1
  2253  16F8  1303               	bcf	3,6	;RP1=0, select bank1
  2254  16F9  130F               	bcf	15,6	;volatile
  2255                           
  2256                           ;LCD.c: 76:             OSCCONbits.IRCF1 =1;
  2257  16FA  168F               	bsf	15,5	;volatile
  2258                           
  2259                           ;LCD.c: 77:             OSCCONbits.IRCF0 =0;
  2260  16FB  120F               	bcf	15,4	;volatile
  2261                           
  2262                           ;LCD.c: 78:             break;
  2263  16FC  2F33               	goto	l210
  2264  16FD                     l207:	
  2265                           ;LCD.c: 80:         case(7):
  2266                           
  2267                           
  2268                           ;LCD.c: 81:             OSCCONbits.IRCF2 =0;
  2269  16FD  1683               	bsf	3,5	;RP0=1, select bank1
  2270  16FE  1303               	bcf	3,6	;RP1=0, select bank1
  2271  16FF  130F               	bcf	15,6	;volatile
  2272                           
  2273                           ;LCD.c: 82:             OSCCONbits.IRCF1 =0;
  2274  1700  128F               	bcf	15,5	;volatile
  2275                           
  2276                           ;LCD.c: 83:             OSCCONbits.IRCF0 =1;
  2277  1701  160F               	bsf	15,4	;volatile
  2278                           
  2279                           ;LCD.c: 84:             break;
  2280  1702  2F33               	goto	l210
  2281  1703                     l208:	
  2282                           ;LCD.c: 86:         case(8):
  2283                           
  2284                           
  2285                           ;LCD.c: 87:             OSCCONbits.IRCF2 =0;
  2286  1703  1683               	bsf	3,5	;RP0=1, select bank1
  2287  1704  1303               	bcf	3,6	;RP1=0, select bank1
  2288  1705  130F               	bcf	15,6	;volatile
  2289                           
  2290                           ;LCD.c: 88:             OSCCONbits.IRCF1 =0;
  2291  1706  128F               	bcf	15,5	;volatile
  2292                           
  2293                           ;LCD.c: 89:             OSCCONbits.IRCF0 =0;
  2294  1707  120F               	bcf	15,4	;volatile
  2295                           
  2296                           ;LCD.c: 90:             break;
  2297  1708  2F33               	goto	l210
  2298  1709                     l209:	
  2299                           ;LCD.c: 92:         default:
  2300                           
  2301                           
  2302                           ;LCD.c: 93:             OSCCONbits.IRCF2 =1;
  2303  1709  1683               	bsf	3,5	;RP0=1, select bank1
  2304  170A  1303               	bcf	3,6	;RP1=0, select bank1
  2305  170B  170F               	bsf	15,6	;volatile
  2306                           
  2307                           ;LCD.c: 94:             OSCCONbits.IRCF1 =1;
  2308  170C  168F               	bsf	15,5	;volatile
  2309                           
  2310                           ;LCD.c: 95:             OSCCONbits.IRCF0 =0;
  2311  170D  120F               	bcf	15,4	;volatile
  2312                           
  2313                           ;LCD.c: 96:             break;
  2314  170E  2F33               	goto	l210
  2315  170F                     l3714:
  2316  170F  1283               	bcf	3,5	;RP0=0, select bank0
  2317  1710  1303               	bcf	3,6	;RP1=0, select bank0
  2318  1711  0820               	movf	OSCILLATOR@f,w
  2319  1712  00F4               	movwf	??_OSCILLATOR
  2320  1713  01F5               	clrf	??_OSCILLATOR+1
  2321                           
  2322                           ; Switch on 2 bytes has been partitioned into a top level switch of size 1, and 1 sub-sw
      +                          itches
  2323                           ; Switch size 1, requested type "simple"
  2324                           ; Number of cases is 1, Range of values is 0 to 0
  2325                           ; switch strategies available:
  2326                           ; Name         Instructions Cycles
  2327                           ; simple_byte            4     3 (average)
  2328                           ; direct_byte           11     8 (fixed)
  2329                           ; jumptable            260     6 (fixed)
  2330                           ;	Chosen strategy is simple_byte
  2331  1714  0875               	movf	??_OSCILLATOR+1,w
  2332  1715  3A00               	xorlw	0	; case 0
  2333  1716  1903               	skipnz
  2334  1717  2F19               	goto	l4054
  2335  1718  2F09               	goto	l209
  2336  1719                     l4054:
  2337                           
  2338                           ; Switch size 1, requested type "simple"
  2339                           ; Number of cases is 8, Range of values is 1 to 8
  2340                           ; switch strategies available:
  2341                           ; Name         Instructions Cycles
  2342                           ; simple_byte           25    13 (average)
  2343                           ; direct_byte           35    11 (fixed)
  2344                           ; jumptable            263     9 (fixed)
  2345                           ;	Chosen strategy is simple_byte
  2346  1719  0874               	movf	??_OSCILLATOR,w
  2347  171A  3A01               	xorlw	1	; case 1
  2348  171B  1903               	skipnz
  2349  171C  2ED9               	goto	l200
  2350  171D  3A03               	xorlw	3	; case 2
  2351  171E  1903               	skipnz
  2352  171F  2EDF               	goto	l202
  2353  1720  3A01               	xorlw	1	; case 3
  2354  1721  1903               	skipnz
  2355  1722  2EE5               	goto	l203
  2356  1723  3A07               	xorlw	7	; case 4
  2357  1724  1903               	skipnz
  2358  1725  2EEB               	goto	l204
  2359  1726  3A01               	xorlw	1	; case 5
  2360  1727  1903               	skipnz
  2361  1728  2EF1               	goto	l205
  2362  1729  3A03               	xorlw	3	; case 6
  2363  172A  1903               	skipnz
  2364  172B  2EF7               	goto	l206
  2365  172C  3A01               	xorlw	1	; case 7
  2366  172D  1903               	skipnz
  2367  172E  2EFD               	goto	l207
  2368  172F  3A0F               	xorlw	15	; case 8
  2369  1730  1903               	skipnz
  2370  1731  2F03               	goto	l208
  2371  1732  2F09               	goto	l209
  2372  1733                     l210:
  2373  1733  0008               	return
  2374  1734                     __end_of_OSCILLATOR:
  2375                           
  2376                           	psect	text3
  2377  07A8                     __ptext3:	
  2378 ;; *************** function _LCD_INIT *****************
  2379 ;; Defined at:
  2380 ;;		line 121 in file "LCD.c"
  2381 ;; Parameters:    Size  Location     Type
  2382 ;;		None
  2383 ;; Auto vars:     Size  Location     Type
  2384 ;;		None
  2385 ;; Return value:  Size  Location     Type
  2386 ;;                  1    wreg      void 
  2387 ;; Registers used:
  2388 ;;		wreg, status,2, status,0, pclath, cstack
  2389 ;; Tracked objects:
  2390 ;;		On entry : 0/0
  2391 ;;		On exit  : 0/0
  2392 ;;		Unchanged: 0/0
  2393 ;; Data sizes:     COMMON   BANK0   BANK1   BANK3   BANK2
  2394 ;;      Params:         0       0       0       0       0
  2395 ;;      Locals:         0       0       0       0       0
  2396 ;;      Temps:          0       2       0       0       0
  2397 ;;      Totals:         0       2       0       0       0
  2398 ;;Total ram usage:        2 bytes
  2399 ;; Hardware stack levels used: 1
  2400 ;; Hardware stack levels required when called: 3
  2401 ;; This function calls:
  2402 ;;		_LCD_COM
  2403 ;;		_LCD_PORT
  2404 ;; This function is called by:
  2405 ;;		_setup
  2406 ;; This function uses a non-reentrant model
  2407 ;;
  2408                           
  2409  07A8                     _LCD_INIT:	
  2410                           ;psect for function _LCD_INIT
  2411                           
  2412  07A8                     l3720:	
  2413                           ;incstack = 0
  2414                           ; Regs used in _LCD_INIT: [wreg+status,2+status,0+pclath+cstack]
  2415                           
  2416                           
  2417                           ;LCD.c: 122:     LCD_PORT(0x00);
  2418  07A8  3000               	movlw	0
  2419  07A9  120A  158A  2000  120A  118A  	fcall	_LCD_PORT
  2420  07AE                     l3722:
  2421                           
  2422                           ;LCD.c: 123:  RE0 = 0;
  2423  07AE  1283               	bcf	3,5	;RP0=0, select bank0
  2424  07AF  1303               	bcf	3,6	;RP1=0, select bank0
  2425  07B0  1009               	bcf	9,0	;volatile
  2426  07B1                     l3724:
  2427                           
  2428                           ;LCD.c: 124:  _delay((unsigned long)((25)*(8000000/4000.0)));
  2429  07B1  3041               	movlw	65
  2430  07B2  1283               	bcf	3,5	;RP0=0, select bank0
  2431  07B3  1303               	bcf	3,6	;RP1=0, select bank0
  2432  07B4  00A3               	movwf	??_LCD_INIT+1
  2433  07B5  30ED               	movlw	237
  2434  07B6  00A2               	movwf	??_LCD_INIT
  2435  07B7                     u5687:
  2436  07B7  0BA2               	decfsz	??_LCD_INIT,f
  2437  07B8  2FB7               	goto	u5687
  2438  07B9  0BA3               	decfsz	??_LCD_INIT+1,f
  2439  07BA  2FB7               	goto	u5687
  2440  07BB  2FBC               	nop2
  2441  07BC                     l3726:
  2442                           
  2443                           ;LCD.c: 126:     LCD_COM(0x30);
  2444  07BC  3030               	movlw	48
  2445  07BD  160A  118A  23EB  120A  118A  	fcall	_LCD_COM
  2446                           
  2447                           ;LCD.c: 127:   _delay((unsigned long)((5)*(8000000/4000.0)));
  2448  07C2  300D               	movlw	13
  2449  07C3  1283               	bcf	3,5	;RP0=0, select bank0
  2450  07C4  1303               	bcf	3,6	;RP1=0, select bank0
  2451  07C5  00A3               	movwf	??_LCD_INIT+1
  2452  07C6  30FB               	movlw	251
  2453  07C7  00A2               	movwf	??_LCD_INIT
  2454  07C8                     u5697:
  2455  07C8  0BA2               	decfsz	??_LCD_INIT,f
  2456  07C9  2FC8               	goto	u5697
  2457  07CA  0BA3               	decfsz	??_LCD_INIT+1,f
  2458  07CB  2FC8               	goto	u5697
  2459  07CC                     l3728:
  2460                           
  2461                           ;LCD.c: 128:     LCD_COM(0x30);
  2462  07CC  3030               	movlw	48
  2463  07CD  160A  118A  23EB  120A  118A  	fcall	_LCD_COM
  2464  07D2                     l3730:
  2465                           
  2466                           ;LCD.c: 129:       _delay((unsigned long)((15)*(8000000/4000.0)));
  2467  07D2  3027               	movlw	39
  2468  07D3  1283               	bcf	3,5	;RP0=0, select bank0
  2469  07D4  1303               	bcf	3,6	;RP1=0, select bank0
  2470  07D5  00A3               	movwf	??_LCD_INIT+1
  2471  07D6  30F4               	movlw	244
  2472  07D7  00A2               	movwf	??_LCD_INIT
  2473  07D8                     u5707:
  2474  07D8  0BA2               	decfsz	??_LCD_INIT,f
  2475  07D9  2FD8               	goto	u5707
  2476  07DA  0BA3               	decfsz	??_LCD_INIT+1,f
  2477  07DB  2FD8               	goto	u5707
  2478  07DC  0000               	nop
  2479                           
  2480                           ;LCD.c: 130:     LCD_COM(0x30);
  2481  07DD  3030               	movlw	48
  2482  07DE  160A  118A  23EB  120A  118A  	fcall	_LCD_COM
  2483                           
  2484                           ;LCD.c: 132:     LCD_COM(0x38);
  2485  07E3  3038               	movlw	56
  2486  07E4  160A  118A  23EB  120A  118A  	fcall	_LCD_COM
  2487                           
  2488                           ;LCD.c: 133:     LCD_COM(0x0C);
  2489  07E9  300C               	movlw	12
  2490  07EA  160A  118A  23EB  120A  118A  	fcall	_LCD_COM
  2491                           
  2492                           ;LCD.c: 134:     LCD_COM(0x01);
  2493  07EF  3001               	movlw	1
  2494  07F0  160A  118A  23EB  120A  118A  	fcall	_LCD_COM
  2495                           
  2496                           ;LCD.c: 135:     LCD_COM(0x06);
  2497  07F5  3006               	movlw	6
  2498  07F6  160A  118A  23EB  120A  118A  	fcall	_LCD_COM
  2499  07FB                     l228:
  2500  07FB  0008               	return
  2501  07FC                     __end_of_LCD_INIT:
  2502                           
  2503                           	psect	text4
  2504  1395                     __ptext4:	
  2505 ;; *************** function _IOC_INT *****************
  2506 ;; Defined at:
  2507 ;;		line 28 in file "LCD.c"
  2508 ;; Parameters:    Size  Location     Type
  2509 ;;  a               1    wreg     unsigned char 
  2510 ;; Auto vars:     Size  Location     Type
  2511 ;;  a               1    4[COMMON] unsigned char 
  2512 ;; Return value:  Size  Location     Type
  2513 ;;                  1    wreg      void 
  2514 ;; Registers used:
  2515 ;;		wreg
  2516 ;; Tracked objects:
  2517 ;;		On entry : 0/0
  2518 ;;		On exit  : 0/0
  2519 ;;		Unchanged: 0/0
  2520 ;; Data sizes:     COMMON   BANK0   BANK1   BANK3   BANK2
  2521 ;;      Params:         0       0       0       0       0
  2522 ;;      Locals:         1       0       0       0       0
  2523 ;;      Temps:          0       0       0       0       0
  2524 ;;      Totals:         1       0       0       0       0
  2525 ;;Total ram usage:        1 bytes
  2526 ;; Hardware stack levels used: 1
  2527 ;; Hardware stack levels required when called: 1
  2528 ;; This function calls:
  2529 ;;		Nothing
  2530 ;; This function is called by:
  2531 ;;		_setup
  2532 ;; This function uses a non-reentrant model
  2533 ;;
  2534                           
  2535  1395                     _IOC_INT:	
  2536                           ;psect for function _IOC_INT
  2537                           
  2538                           
  2539                           ;incstack = 0
  2540                           ; Regs used in _IOC_INT: [wreg]
  2541                           ;IOC_INT@a stored from wreg
  2542  1395  00F4               	movwf	IOC_INT@a
  2543  1396                     l2782:
  2544                           
  2545                           ;LCD.c: 31:     OPTION_REGbits.nRBPU = 0;
  2546  1396  1683               	bsf	3,5	;RP0=1, select bank1
  2547  1397  1303               	bcf	3,6	;RP1=0, select bank1
  2548  1398  1381               	bcf	1,7	;volatile
  2549  1399                     l2784:
  2550                           
  2551                           ;LCD.c: 32:     WPUBbits.WPUB = a;
  2552  1399  0874               	movf	IOC_INT@a,w
  2553  139A  0095               	movwf	21	;volatile
  2554                           
  2555                           ;LCD.c: 33:     IOCBbits.IOCB = a;
  2556  139B  0874               	movf	IOC_INT@a,w
  2557  139C  0096               	movwf	22	;volatile
  2558  139D                     l2786:
  2559                           
  2560                           ;LCD.c: 34:     INTCONbits.RBIE = 1;
  2561  139D  158B               	bsf	11,3	;volatile
  2562  139E                     l2788:
  2563                           
  2564                           ;LCD.c: 35:     INTCONbits.RBIF = 0;
  2565  139E  100B               	bcf	11,0	;volatile
  2566  139F                     l2790:
  2567                           
  2568                           ;LCD.c: 36:     INTCONbits.GIE = 1;
  2569  139F  178B               	bsf	11,7	;volatile
  2570  13A0                     l196:
  2571  13A0  0008               	return
  2572  13A1                     __end_of_IOC_INT:
  2573                           
  2574                           	psect	text5
  2575  1567                     __ptext5:	
  2576 ;; *************** function _I2C_Master_Init *****************
  2577 ;; Defined at:
  2578 ;;		line 13 in file "I2CM.c"
  2579 ;; Parameters:    Size  Location     Type
  2580 ;;  c               4   13[BANK0 ] const unsigned long 
  2581 ;; Auto vars:     Size  Location     Type
  2582 ;;		None
  2583 ;; Return value:  Size  Location     Type
  2584 ;;                  1    wreg      void 
  2585 ;; Registers used:
  2586 ;;		wreg, status,2, status,0, pclath, cstack
  2587 ;; Tracked objects:
  2588 ;;		On entry : 0/0
  2589 ;;		On exit  : 0/0
  2590 ;;		Unchanged: 0/0
  2591 ;; Data sizes:     COMMON   BANK0   BANK1   BANK3   BANK2
  2592 ;;      Params:         0       4       0       0       0
  2593 ;;      Locals:         0       0       0       0       0
  2594 ;;      Temps:          0       4       0       0       0
  2595 ;;      Totals:         0       8       0       0       0
  2596 ;;Total ram usage:        8 bytes
  2597 ;; Hardware stack levels used: 1
  2598 ;; Hardware stack levels required when called: 2
  2599 ;; This function calls:
  2600 ;;		___lldiv
  2601 ;; This function is called by:
  2602 ;;		_setup
  2603 ;; This function uses a non-reentrant model
  2604 ;;
  2605                           
  2606  1567                     _I2C_Master_Init:	
  2607                           ;psect for function _I2C_Master_Init
  2608                           
  2609  1567                     l3732:	
  2610                           ;incstack = 0
  2611                           ; Regs used in _I2C_Master_Init: [wreg+status,2+status,0+pclath+cstack]
  2612                           
  2613                           
  2614                           ;I2CM.c: 13: void I2C_Master_Init(const unsigned long c);I2CM.c: 14: {;I2CM.c: 15:     S
      +                          SPCON = 0b00101000;
  2615  1567  3028               	movlw	40
  2616  1568  1283               	bcf	3,5	;RP0=0, select bank0
  2617  1569  1303               	bcf	3,6	;RP1=0, select bank0
  2618  156A  0094               	movwf	20	;volatile
  2619  156B                     l3734:
  2620                           
  2621                           ;I2CM.c: 16:     SSPCON2 = 0;
  2622  156B  1683               	bsf	3,5	;RP0=1, select bank1
  2623  156C  1303               	bcf	3,6	;RP1=0, select bank1
  2624  156D  0191               	clrf	17	;volatile
  2625  156E                     l3736:
  2626                           
  2627                           ;I2CM.c: 17:     SSPADD = (8000000/(4*c))-1;
  2628  156E  1283               	bcf	3,5	;RP0=0, select bank0
  2629  156F  1303               	bcf	3,6	;RP1=0, select bank0
  2630  1570  082D               	movf	I2C_Master_Init@c,w
  2631  1571  00B1               	movwf	??_I2C_Master_Init
  2632  1572  082E               	movf	I2C_Master_Init@c+1,w
  2633  1573  00B2               	movwf	??_I2C_Master_Init+1
  2634  1574  082F               	movf	I2C_Master_Init@c+2,w
  2635  1575  00B3               	movwf	??_I2C_Master_Init+2
  2636  1576  0830               	movf	I2C_Master_Init@c+3,w
  2637  1577  00B4               	movwf	??_I2C_Master_Init+3
  2638  1578  3002               	movlw	2
  2639  1579                     u5355:
  2640  1579  1003               	clrc
  2641  157A  0DB1               	rlf	??_I2C_Master_Init,f
  2642  157B  0DB2               	rlf	??_I2C_Master_Init+1,f
  2643  157C  0DB3               	rlf	??_I2C_Master_Init+2,f
  2644  157D  0DB4               	rlf	??_I2C_Master_Init+3,f
  2645  157E                     u5350:
  2646  157E  3EFF               	addlw	-1
  2647  157F  1D03               	skipz
  2648  1580  2D79               	goto	u5355
  2649  1581  0834               	movf	??_I2C_Master_Init+3,w
  2650  1582  00A3               	movwf	___lldiv@divisor+3
  2651  1583  0833               	movf	??_I2C_Master_Init+2,w
  2652  1584  00A2               	movwf	___lldiv@divisor+2
  2653  1585  0832               	movf	??_I2C_Master_Init+1,w
  2654  1586  00A1               	movwf	___lldiv@divisor+1
  2655  1587  0831               	movf	??_I2C_Master_Init,w
  2656  1588  00A0               	movwf	___lldiv@divisor
  2657  1589  3000               	movlw	0
  2658  158A  00A7               	movwf	___lldiv@dividend+3
  2659  158B  307A               	movlw	122
  2660  158C  00A6               	movwf	___lldiv@dividend+2
  2661  158D  3012               	movlw	18
  2662  158E  00A5               	movwf	___lldiv@dividend+1
  2663  158F  3000               	movlw	0
  2664  1590  00A4               	movwf	___lldiv@dividend
  2665  1591  160A  118A  2798  160A  118A  	fcall	___lldiv
  2666  1596  1283               	bcf	3,5	;RP0=0, select bank0
  2667  1597  1303               	bcf	3,6	;RP1=0, select bank0
  2668  1598  0820               	movf	?___lldiv,w
  2669  1599  3EFF               	addlw	255
  2670  159A  1683               	bsf	3,5	;RP0=1, select bank1
  2671  159B  1303               	bcf	3,6	;RP1=0, select bank1
  2672  159C  0093               	movwf	19	;volatile
  2673  159D                     l3738:
  2674                           
  2675                           ;I2CM.c: 18:     SSPSTAT = 0;
  2676  159D  0194               	clrf	20	;volatile
  2677  159E                     l3740:
  2678                           
  2679                           ;I2CM.c: 19:     TRISCbits.TRISC3 = 1;
  2680  159E  1587               	bsf	7,3	;volatile
  2681  159F                     l3742:
  2682                           
  2683                           ;I2CM.c: 20:     TRISCbits.TRISC4 = 1;
  2684  159F  1607               	bsf	7,4	;volatile
  2685  15A0                     l264:
  2686  15A0  0008               	return
  2687  15A1                     __end_of_I2C_Master_Init:
  2688                           
  2689                           	psect	text6
  2690  1798                     __ptext6:	
  2691 ;; *************** function ___lldiv *****************
  2692 ;; Defined at:
  2693 ;;		line 5 in file "C:\Program Files\Microchip\xc8\v2.35\pic\sources\c90\common\__lldiv.c"
  2694 ;; Parameters:    Size  Location     Type
  2695 ;;  divisor         4    0[BANK0 ] unsigned long 
  2696 ;;  dividend        4    4[BANK0 ] unsigned long 
  2697 ;; Auto vars:     Size  Location     Type
  2698 ;;  quotient        4    8[BANK0 ] unsigned long 
  2699 ;;  counter         1   12[BANK0 ] unsigned char 
  2700 ;; Return value:  Size  Location     Type
  2701 ;;                  4    0[BANK0 ] unsigned long 
  2702 ;; Registers used:
  2703 ;;		wreg, status,2, status,0
  2704 ;; Tracked objects:
  2705 ;;		On entry : 0/0
  2706 ;;		On exit  : 0/0
  2707 ;;		Unchanged: 0/0
  2708 ;; Data sizes:     COMMON   BANK0   BANK1   BANK3   BANK2
  2709 ;;      Params:         0       8       0       0       0
  2710 ;;      Locals:         0       5       0       0       0
  2711 ;;      Temps:          1       0       0       0       0
  2712 ;;      Totals:         1      13       0       0       0
  2713 ;;Total ram usage:       14 bytes
  2714 ;; Hardware stack levels used: 1
  2715 ;; Hardware stack levels required when called: 1
  2716 ;; This function calls:
  2717 ;;		Nothing
  2718 ;; This function is called by:
  2719 ;;		_I2C_Master_Init
  2720 ;; This function uses a non-reentrant model
  2721 ;;
  2722                           
  2723  1798                     ___lldiv:	
  2724                           ;psect for function ___lldiv
  2725                           
  2726  1798                     l3586:	
  2727                           ;incstack = 0
  2728                           ; Regs used in ___lldiv: [wreg+status,2+status,0]
  2729                           
  2730  1798  3000               	movlw	0
  2731  1799  1283               	bcf	3,5	;RP0=0, select bank0
  2732  179A  1303               	bcf	3,6	;RP1=0, select bank0
  2733  179B  00AB               	movwf	___lldiv@quotient+3
  2734  179C  3000               	movlw	0
  2735  179D  00AA               	movwf	___lldiv@quotient+2
  2736  179E  3000               	movlw	0
  2737  179F  00A9               	movwf	___lldiv@quotient+1
  2738  17A0  3000               	movlw	0
  2739  17A1  00A8               	movwf	___lldiv@quotient
  2740  17A2  0823               	movf	___lldiv@divisor+3,w
  2741  17A3  0422               	iorwf	___lldiv@divisor+2,w
  2742  17A4  0421               	iorwf	___lldiv@divisor+1,w
  2743  17A5  0420               	iorwf	___lldiv@divisor,w
  2744  17A6  1903               	skipnz
  2745  17A7  2FA9               	goto	u5141
  2746  17A8  2FAA               	goto	u5140
  2747  17A9                     u5141:
  2748  17A9  2FF7               	goto	l3606
  2749  17AA                     u5140:
  2750  17AA                     l3588:
  2751  17AA  01AC               	clrf	___lldiv@counter
  2752  17AB  0AAC               	incf	___lldiv@counter,f
  2753  17AC  2FBA               	goto	l3592
  2754  17AD                     l3590:
  2755  17AD  3001               	movlw	1
  2756  17AE  00F4               	movwf	??___lldiv
  2757  17AF                     u5155:
  2758  17AF  1003               	clrc
  2759  17B0  0DA0               	rlf	___lldiv@divisor,f
  2760  17B1  0DA1               	rlf	___lldiv@divisor+1,f
  2761  17B2  0DA2               	rlf	___lldiv@divisor+2,f
  2762  17B3  0DA3               	rlf	___lldiv@divisor+3,f
  2763  17B4  0BF4               	decfsz	??___lldiv,f
  2764  17B5  2FAF               	goto	u5155
  2765  17B6  3001               	movlw	1
  2766  17B7  00F4               	movwf	??___lldiv
  2767  17B8  0874               	movf	??___lldiv,w
  2768  17B9  07AC               	addwf	___lldiv@counter,f
  2769  17BA                     l3592:
  2770  17BA  1FA3               	btfss	___lldiv@divisor+3,7
  2771  17BB  2FBD               	goto	u5161
  2772  17BC  2FBE               	goto	u5160
  2773  17BD                     u5161:
  2774  17BD  2FAD               	goto	l3590
  2775  17BE                     u5160:
  2776  17BE                     l3594:
  2777  17BE  3001               	movlw	1
  2778  17BF  00F4               	movwf	??___lldiv
  2779  17C0                     u5175:
  2780  17C0  1003               	clrc
  2781  17C1  0DA8               	rlf	___lldiv@quotient,f
  2782  17C2  0DA9               	rlf	___lldiv@quotient+1,f
  2783  17C3  0DAA               	rlf	___lldiv@quotient+2,f
  2784  17C4  0DAB               	rlf	___lldiv@quotient+3,f
  2785  17C5  0BF4               	decfsz	??___lldiv,f
  2786  17C6  2FC0               	goto	u5175
  2787  17C7                     l3596:
  2788  17C7  0823               	movf	___lldiv@divisor+3,w
  2789  17C8  0227               	subwf	___lldiv@dividend+3,w
  2790  17C9  1D03               	skipz
  2791  17CA  2FD5               	goto	u5185
  2792  17CB  0822               	movf	___lldiv@divisor+2,w
  2793  17CC  0226               	subwf	___lldiv@dividend+2,w
  2794  17CD  1D03               	skipz
  2795  17CE  2FD5               	goto	u5185
  2796  17CF  0821               	movf	___lldiv@divisor+1,w
  2797  17D0  0225               	subwf	___lldiv@dividend+1,w
  2798  17D1  1D03               	skipz
  2799  17D2  2FD5               	goto	u5185
  2800  17D3  0820               	movf	___lldiv@divisor,w
  2801  17D4  0224               	subwf	___lldiv@dividend,w
  2802  17D5                     u5185:
  2803  17D5  1C03               	skipc
  2804  17D6  2FD8               	goto	u5181
  2805  17D7  2FD9               	goto	u5180
  2806  17D8                     u5181:
  2807  17D8  2FE8               	goto	l3602
  2808  17D9                     u5180:
  2809  17D9                     l3598:
  2810  17D9  0820               	movf	___lldiv@divisor,w
  2811  17DA  02A4               	subwf	___lldiv@dividend,f
  2812  17DB  0821               	movf	___lldiv@divisor+1,w
  2813  17DC  1C03               	skipc
  2814  17DD  0F21               	incfsz	___lldiv@divisor+1,w
  2815  17DE  02A5               	subwf	___lldiv@dividend+1,f
  2816  17DF  0822               	movf	___lldiv@divisor+2,w
  2817  17E0  1C03               	skipc
  2818  17E1  0F22               	incfsz	___lldiv@divisor+2,w
  2819  17E2  02A6               	subwf	___lldiv@dividend+2,f
  2820  17E3  0823               	movf	___lldiv@divisor+3,w
  2821  17E4  1C03               	skipc
  2822  17E5  0F23               	incfsz	___lldiv@divisor+3,w
  2823  17E6  02A7               	subwf	___lldiv@dividend+3,f
  2824  17E7                     l3600:
  2825  17E7  1428               	bsf	___lldiv@quotient,0
  2826  17E8                     l3602:
  2827  17E8  3001               	movlw	1
  2828  17E9                     u5195:
  2829  17E9  1003               	clrc
  2830  17EA  0CA3               	rrf	___lldiv@divisor+3,f
  2831  17EB  0CA2               	rrf	___lldiv@divisor+2,f
  2832  17EC  0CA1               	rrf	___lldiv@divisor+1,f
  2833  17ED  0CA0               	rrf	___lldiv@divisor,f
  2834  17EE  3EFF               	addlw	-1
  2835  17EF  1D03               	skipz
  2836  17F0  2FE9               	goto	u5195
  2837  17F1                     l3604:
  2838  17F1  3001               	movlw	1
  2839  17F2  02AC               	subwf	___lldiv@counter,f
  2840  17F3  1D03               	btfss	3,2
  2841  17F4  2FF6               	goto	u5201
  2842  17F5  2FF7               	goto	u5200
  2843  17F6                     u5201:
  2844  17F6  2FBE               	goto	l3594
  2845  17F7                     u5200:
  2846  17F7                     l3606:
  2847  17F7  082B               	movf	___lldiv@quotient+3,w
  2848  17F8  00A3               	movwf	?___lldiv+3
  2849  17F9  082A               	movf	___lldiv@quotient+2,w
  2850  17FA  00A2               	movwf	?___lldiv+2
  2851  17FB  0829               	movf	___lldiv@quotient+1,w
  2852  17FC  00A1               	movwf	?___lldiv+1
  2853  17FD  0828               	movf	___lldiv@quotient,w
  2854  17FE  00A0               	movwf	?___lldiv
  2855  17FF                     l412:
  2856  17FF  0008               	return
  2857  1800                     __end_of___lldiv:
  2858                           
  2859                           	psect	text7
  2860  0672                     __ptext7:	
  2861 ;; *************** function _UNIDAD *****************
  2862 ;; Defined at:
  2863 ;;		line 22 in file "LCD.c"
  2864 ;; Parameters:    Size  Location     Type
  2865 ;;  c               1    wreg     unsigned char 
  2866 ;; Auto vars:     Size  Location     Type
  2867 ;;  c               1   52[BANK1 ] unsigned char 
  2868 ;; Return value:  Size  Location     Type
  2869 ;;                  1    wreg      unsigned char 
  2870 ;; Registers used:
  2871 ;;		wreg, status,2, status,0, btemp+1, pclath, cstack
  2872 ;; Tracked objects:
  2873 ;;		On entry : 0/0
  2874 ;;		On exit  : 0/0
  2875 ;;		Unchanged: 0/0
  2876 ;; Data sizes:     COMMON   BANK0   BANK1   BANK3   BANK2
  2877 ;;      Params:         0       0       0       0       0
  2878 ;;      Locals:         0       0      11       0       0
  2879 ;;      Temps:          0       0       4       0       0
  2880 ;;      Totals:         0       0      15       0       0
  2881 ;;Total ram usage:       15 bytes
  2882 ;; Hardware stack levels used: 1
  2883 ;; Hardware stack levels required when called: 5
  2884 ;; This function calls:
  2885 ;;		_CENTENA
  2886 ;;		_DECENA
  2887 ;;		___flmul
  2888 ;;		___flsub
  2889 ;;		___fltol
  2890 ;;		___wmul
  2891 ;;		___xxtofl
  2892 ;; This function is called by:
  2893 ;;		_main
  2894 ;; This function uses a non-reentrant model
  2895 ;;
  2896                           
  2897  0672                     _UNIDAD:	
  2898                           ;psect for function _UNIDAD
  2899                           
  2900                           
  2901                           ;incstack = 0
  2902                           ; Regs used in _UNIDAD: [wreg+status,2+status,0+btemp+1+pclath+cstack]
  2903                           ;UNIDAD@c stored from wreg
  2904  0672  1683               	bsf	3,5	;RP0=1, select bank1
  2905  0673  1303               	bcf	3,6	;RP1=0, select bank1
  2906  0674  00D4               	movwf	UNIDAD@c^(0+128)
  2907  0675                     l3892:
  2908                           
  2909                           ;LCD.c: 23:     c = (uint8_t)((c*1.9607) - CENTENA(c)*100 - DECENA(c)*10);
  2910  0675  3064               	movlw	100
  2911  0676  00A7               	movwf	___wmul@multiplicand^(0+128)
  2912  0677  3000               	movlw	0
  2913  0678  00A8               	movwf	(___wmul@multiplicand^(0+128)+1)
  2914  0679  0854               	movf	UNIDAD@c^(0+128),w
  2915  067A  120A  158A  210D  120A  118A  	fcall	_CENTENA
  2916  067F  1683               	bsf	3,5	;RP0=1, select bank1
  2917  0680  1303               	bcf	3,6	;RP1=0, select bank1
  2918  0681  00C6               	movwf	??_UNIDAD^(0+128)
  2919  0682  01C7               	clrf	(??_UNIDAD^(0+128)+1)
  2920  0683  0846               	movf	??_UNIDAD^(0+128),w
  2921  0684  00A5               	movwf	___wmul@multiplier^(0+128)
  2922  0685  0847               	movf	(??_UNIDAD+1)^(0+128),w
  2923  0686  00A6               	movwf	(___wmul@multiplier+1)^(0+128)
  2924  0687  160A  118A  252E  120A  118A  	fcall	___wmul
  2925  068C  1683               	bsf	3,5	;RP0=1, select bank1
  2926  068D  1303               	bcf	3,6	;RP1=0, select bank1
  2927  068E  0825               	movf	?___wmul^(0+128),w
  2928  068F  00CA               	movwf	_UNIDAD$1160^(0+128)
  2929  0690  0826               	movf	(?___wmul+1)^(0+128),w
  2930  0691  00CB               	movwf	(_UNIDAD$1160+1)^(0+128)
  2931  0692  3000               	movlw	0
  2932  0693  1BCB               	btfsc	(_UNIDAD$1160+1)^(0+128),7
  2933  0694  30FF               	movlw	255
  2934  0695  00CC               	movwf	(_UNIDAD$1160+2)^(0+128)
  2935  0696  00CD               	movwf	(_UNIDAD$1160+3)^(0+128)
  2936                           
  2937                           ;LCD.c: 23:     c = (uint8_t)((c*1.9607) - CENTENA(c)*100 - DECENA(c)*10);
  2938  0697  0854               	movf	UNIDAD@c^(0+128),w
  2939  0698  120A  158A  22B4  120A  118A  	fcall	_DECENA
  2940  069D  1683               	bsf	3,5	;RP0=1, select bank1
  2941  069E  1303               	bcf	3,6	;RP1=0, select bank1
  2942  069F  00C6               	movwf	??_UNIDAD^(0+128)
  2943  06A0  01C7               	clrf	(??_UNIDAD^(0+128)+1)
  2944  06A1  0846               	movf	??_UNIDAD^(0+128),w
  2945  06A2  00D2               	movwf	_UNIDAD$1161^(0+128)
  2946  06A3  0847               	movf	(??_UNIDAD+1)^(0+128),w
  2947  06A4  00D3               	movwf	(_UNIDAD$1161+1)^(0+128)
  2948                           
  2949                           ;LCD.c: 23:     c = (uint8_t)((c*1.9607) - CENTENA(c)*100 - DECENA(c)*10);
  2950  06A5  0854               	movf	UNIDAD@c^(0+128),w
  2951  06A6  00C6               	movwf	??_UNIDAD^(0+128)
  2952  06A7  01C7               	clrf	(??_UNIDAD^(0+128)+1)
  2953  06A8  01C8               	clrf	(??_UNIDAD^(0+128)+2)
  2954  06A9  01C9               	clrf	(??_UNIDAD^(0+128)+3)
  2955  06AA  0849               	movf	(??_UNIDAD+3)^(0+128),w
  2956  06AB  1283               	bcf	3,5	;RP0=0, select bank0
  2957  06AC  1303               	bcf	3,6	;RP1=0, select bank0
  2958  06AD  00A3               	movwf	___xxtofl@val+3
  2959  06AE  1683               	bsf	3,5	;RP0=1, select bank1
  2960  06AF  1303               	bcf	3,6	;RP1=0, select bank1
  2961  06B0  0848               	movf	(??_UNIDAD+2)^(0+128),w
  2962  06B1  1283               	bcf	3,5	;RP0=0, select bank0
  2963  06B2  1303               	bcf	3,6	;RP1=0, select bank0
  2964  06B3  00A2               	movwf	___xxtofl@val+2
  2965  06B4  1683               	bsf	3,5	;RP0=1, select bank1
  2966  06B5  1303               	bcf	3,6	;RP1=0, select bank1
  2967  06B6  0847               	movf	(??_UNIDAD+1)^(0+128),w
  2968  06B7  1283               	bcf	3,5	;RP0=0, select bank0
  2969  06B8  1303               	bcf	3,6	;RP1=0, select bank0
  2970  06B9  00A1               	movwf	___xxtofl@val+1
  2971  06BA  1683               	bsf	3,5	;RP0=1, select bank1
  2972  06BB  1303               	bcf	3,6	;RP1=0, select bank1
  2973  06BC  0846               	movf	??_UNIDAD^(0+128),w
  2974  06BD  1283               	bcf	3,5	;RP0=0, select bank0
  2975  06BE  1303               	bcf	3,6	;RP1=0, select bank0
  2976  06BF  00A0               	movwf	___xxtofl@val
  2977  06C0  3001               	movlw	1
  2978  06C1  120A  158A  21F8  120A  118A  	fcall	___xxtofl
  2979  06C6  1283               	bcf	3,5	;RP0=0, select bank0
  2980  06C7  1303               	bcf	3,6	;RP1=0, select bank0
  2981  06C8  0823               	movf	?___xxtofl+3,w
  2982  06C9  00B5               	movwf	___flmul@a+3
  2983  06CA  0822               	movf	?___xxtofl+2,w
  2984  06CB  00B4               	movwf	___flmul@a+2
  2985  06CC  0821               	movf	?___xxtofl+1,w
  2986  06CD  00B3               	movwf	___flmul@a+1
  2987  06CE  0820               	movf	?___xxtofl,w
  2988  06CF  00B2               	movwf	___flmul@a
  2989  06D0  303F               	movlw	63
  2990  06D1  00B1               	movwf	___flmul@b+3
  2991  06D2  30FA               	movlw	250
  2992  06D3  00B0               	movwf	___flmul@b+2
  2993  06D4  30F8               	movlw	248
  2994  06D5  00AF               	movwf	___flmul@b+1
  2995  06D6  3038               	movlw	56
  2996  06D7  00AE               	movwf	___flmul@b
  2997  06D8  120A  118A  2022  120A  118A  	fcall	___flmul
  2998  06DD  1283               	bcf	3,5	;RP0=0, select bank0
  2999  06DE  1303               	bcf	3,6	;RP1=0, select bank0
  3000  06DF  0831               	movf	?___flmul+3,w
  3001  06E0  1683               	bsf	3,5	;RP0=1, select bank1
  3002  06E1  1303               	bcf	3,6	;RP1=0, select bank1
  3003  06E2  00B0               	movwf	(___flsub@b+3)^(0+128)
  3004  06E3  1283               	bcf	3,5	;RP0=0, select bank0
  3005  06E4  1303               	bcf	3,6	;RP1=0, select bank0
  3006  06E5  0830               	movf	?___flmul+2,w
  3007  06E6  1683               	bsf	3,5	;RP0=1, select bank1
  3008  06E7  1303               	bcf	3,6	;RP1=0, select bank1
  3009  06E8  00AF               	movwf	(___flsub@b+2)^(0+128)
  3010  06E9  1283               	bcf	3,5	;RP0=0, select bank0
  3011  06EA  1303               	bcf	3,6	;RP1=0, select bank0
  3012  06EB  082F               	movf	?___flmul+1,w
  3013  06EC  1683               	bsf	3,5	;RP0=1, select bank1
  3014  06ED  1303               	bcf	3,6	;RP1=0, select bank1
  3015  06EE  00AE               	movwf	(___flsub@b+1)^(0+128)
  3016  06EF  1283               	bcf	3,5	;RP0=0, select bank0
  3017  06F0  1303               	bcf	3,6	;RP1=0, select bank0
  3018  06F1  082E               	movf	?___flmul,w
  3019  06F2  1683               	bsf	3,5	;RP0=1, select bank1
  3020  06F3  1303               	bcf	3,6	;RP1=0, select bank1
  3021  06F4  00AD               	movwf	___flsub@b^(0+128)
  3022  06F5  084D               	movf	(_UNIDAD$1160+3)^(0+128),w
  3023  06F6  1283               	bcf	3,5	;RP0=0, select bank0
  3024  06F7  1303               	bcf	3,6	;RP1=0, select bank0
  3025  06F8  00A3               	movwf	___xxtofl@val+3
  3026  06F9  1683               	bsf	3,5	;RP0=1, select bank1
  3027  06FA  1303               	bcf	3,6	;RP1=0, select bank1
  3028  06FB  084C               	movf	(_UNIDAD$1160+2)^(0+128),w
  3029  06FC  1283               	bcf	3,5	;RP0=0, select bank0
  3030  06FD  1303               	bcf	3,6	;RP1=0, select bank0
  3031  06FE  00A2               	movwf	___xxtofl@val+2
  3032  06FF  1683               	bsf	3,5	;RP0=1, select bank1
  3033  0700  1303               	bcf	3,6	;RP1=0, select bank1
  3034  0701  084B               	movf	(_UNIDAD$1160+1)^(0+128),w
  3035  0702  1283               	bcf	3,5	;RP0=0, select bank0
  3036  0703  1303               	bcf	3,6	;RP1=0, select bank0
  3037  0704  00A1               	movwf	___xxtofl@val+1
  3038  0705  1683               	bsf	3,5	;RP0=1, select bank1
  3039  0706  1303               	bcf	3,6	;RP1=0, select bank1
  3040  0707  084A               	movf	_UNIDAD$1160^(0+128),w
  3041  0708  1283               	bcf	3,5	;RP0=0, select bank0
  3042  0709  1303               	bcf	3,6	;RP1=0, select bank0
  3043  070A  00A0               	movwf	___xxtofl@val
  3044  070B  3001               	movlw	1
  3045  070C  120A  158A  21F8  120A  118A  	fcall	___xxtofl
  3046  0711  1283               	bcf	3,5	;RP0=0, select bank0
  3047  0712  1303               	bcf	3,6	;RP1=0, select bank0
  3048  0713  0823               	movf	?___xxtofl+3,w
  3049  0714  1683               	bsf	3,5	;RP0=1, select bank1
  3050  0715  1303               	bcf	3,6	;RP1=0, select bank1
  3051  0716  00AC               	movwf	(___flsub@a+3)^(0+128)
  3052  0717  1283               	bcf	3,5	;RP0=0, select bank0
  3053  0718  1303               	bcf	3,6	;RP1=0, select bank0
  3054  0719  0822               	movf	?___xxtofl+2,w
  3055  071A  1683               	bsf	3,5	;RP0=1, select bank1
  3056  071B  1303               	bcf	3,6	;RP1=0, select bank1
  3057  071C  00AB               	movwf	(___flsub@a+2)^(0+128)
  3058  071D  1283               	bcf	3,5	;RP0=0, select bank0
  3059  071E  1303               	bcf	3,6	;RP1=0, select bank0
  3060  071F  0821               	movf	?___xxtofl+1,w
  3061  0720  1683               	bsf	3,5	;RP0=1, select bank1
  3062  0721  1303               	bcf	3,6	;RP1=0, select bank1
  3063  0722  00AA               	movwf	(___flsub@a+1)^(0+128)
  3064  0723  1283               	bcf	3,5	;RP0=0, select bank0
  3065  0724  1303               	bcf	3,6	;RP1=0, select bank0
  3066  0725  0820               	movf	?___xxtofl,w
  3067  0726  1683               	bsf	3,5	;RP0=1, select bank1
  3068  0727  1303               	bcf	3,6	;RP1=0, select bank1
  3069  0728  00A9               	movwf	___flsub@a^(0+128)
  3070  0729  160A  118A  2627  120A  118A  	fcall	___flsub
  3071  072E  1683               	bsf	3,5	;RP0=1, select bank1
  3072  072F  1303               	bcf	3,6	;RP1=0, select bank1
  3073  0730  082C               	movf	(?___flsub+3)^(0+128),w
  3074  0731  00D1               	movwf	(_UNIDAD$1162+3)^(0+128)
  3075  0732  082B               	movf	(?___flsub+2)^(0+128),w
  3076  0733  00D0               	movwf	(_UNIDAD$1162+2)^(0+128)
  3077  0734  082A               	movf	(?___flsub+1)^(0+128),w
  3078  0735  00CF               	movwf	(_UNIDAD$1162+1)^(0+128)
  3079  0736  0829               	movf	?___flsub^(0+128),w
  3080  0737  00CE               	movwf	_UNIDAD$1162^(0+128)
  3081                           
  3082                           ;LCD.c: 23:     c = (uint8_t)((c*1.9607) - CENTENA(c)*100 - DECENA(c)*10);
  3083  0738  0851               	movf	(_UNIDAD$1162+3)^(0+128),w
  3084  0739  00B0               	movwf	(___flsub@b+3)^(0+128)
  3085  073A  0850               	movf	(_UNIDAD$1162+2)^(0+128),w
  3086  073B  00AF               	movwf	(___flsub@b+2)^(0+128)
  3087  073C  084F               	movf	(_UNIDAD$1162+1)^(0+128),w
  3088  073D  00AE               	movwf	(___flsub@b+1)^(0+128)
  3089  073E  084E               	movf	_UNIDAD$1162^(0+128),w
  3090  073F  00AD               	movwf	___flsub@b^(0+128)
  3091  0740  300A               	movlw	10
  3092  0741  00A7               	movwf	___wmul@multiplicand^(0+128)
  3093  0742  3000               	movlw	0
  3094  0743  00A8               	movwf	(___wmul@multiplicand^(0+128)+1)
  3095  0744  0853               	movf	(_UNIDAD$1161+1)^(0+128),w
  3096  0745  00A6               	movwf	(___wmul@multiplier+1)^(0+128)
  3097  0746  0852               	movf	_UNIDAD$1161^(0+128),w
  3098  0747  00A5               	movwf	___wmul@multiplier^(0+128)
  3099  0748  160A  118A  252E  120A  118A  	fcall	___wmul
  3100  074D  1683               	bsf	3,5	;RP0=1, select bank1
  3101  074E  1303               	bcf	3,6	;RP1=0, select bank1
  3102  074F  0825               	movf	?___wmul^(0+128),w
  3103  0750  1283               	bcf	3,5	;RP0=0, select bank0
  3104  0751  1303               	bcf	3,6	;RP1=0, select bank0
  3105  0752  00A0               	movwf	___xxtofl@val
  3106  0753  1683               	bsf	3,5	;RP0=1, select bank1
  3107  0754  1303               	bcf	3,6	;RP1=0, select bank1
  3108  0755  0826               	movf	(?___wmul+1)^(0+128),w
  3109  0756  1283               	bcf	3,5	;RP0=0, select bank0
  3110  0757  1303               	bcf	3,6	;RP1=0, select bank0
  3111  0758  00A1               	movwf	___xxtofl@val+1
  3112  0759  3000               	movlw	0
  3113  075A  1BA1               	btfsc	___xxtofl@val+1,7
  3114  075B  30FF               	movlw	255
  3115  075C  00A2               	movwf	___xxtofl@val+2
  3116  075D  00A3               	movwf	___xxtofl@val+3
  3117  075E  3001               	movlw	1
  3118  075F  120A  158A  21F8  120A  118A  	fcall	___xxtofl
  3119  0764  1283               	bcf	3,5	;RP0=0, select bank0
  3120  0765  1303               	bcf	3,6	;RP1=0, select bank0
  3121  0766  0823               	movf	?___xxtofl+3,w
  3122  0767  1683               	bsf	3,5	;RP0=1, select bank1
  3123  0768  1303               	bcf	3,6	;RP1=0, select bank1
  3124  0769  00AC               	movwf	(___flsub@a+3)^(0+128)
  3125  076A  1283               	bcf	3,5	;RP0=0, select bank0
  3126  076B  1303               	bcf	3,6	;RP1=0, select bank0
  3127  076C  0822               	movf	?___xxtofl+2,w
  3128  076D  1683               	bsf	3,5	;RP0=1, select bank1
  3129  076E  1303               	bcf	3,6	;RP1=0, select bank1
  3130  076F  00AB               	movwf	(___flsub@a+2)^(0+128)
  3131  0770  1283               	bcf	3,5	;RP0=0, select bank0
  3132  0771  1303               	bcf	3,6	;RP1=0, select bank0
  3133  0772  0821               	movf	?___xxtofl+1,w
  3134  0773  1683               	bsf	3,5	;RP0=1, select bank1
  3135  0774  1303               	bcf	3,6	;RP1=0, select bank1
  3136  0775  00AA               	movwf	(___flsub@a+1)^(0+128)
  3137  0776  1283               	bcf	3,5	;RP0=0, select bank0
  3138  0777  1303               	bcf	3,6	;RP1=0, select bank0
  3139  0778  0820               	movf	?___xxtofl,w
  3140  0779  1683               	bsf	3,5	;RP0=1, select bank1
  3141  077A  1303               	bcf	3,6	;RP1=0, select bank1
  3142  077B  00A9               	movwf	___flsub@a^(0+128)
  3143  077C  160A  118A  2627  120A  118A  	fcall	___flsub
  3144  0781  1683               	bsf	3,5	;RP0=1, select bank1
  3145  0782  1303               	bcf	3,6	;RP1=0, select bank1
  3146  0783  082C               	movf	(?___flsub+3)^(0+128),w
  3147  0784  1283               	bcf	3,5	;RP0=0, select bank0
  3148  0785  1303               	bcf	3,6	;RP1=0, select bank0
  3149  0786  00E5               	movwf	___fltol@f1+3
  3150  0787  1683               	bsf	3,5	;RP0=1, select bank1
  3151  0788  1303               	bcf	3,6	;RP1=0, select bank1
  3152  0789  082B               	movf	(?___flsub+2)^(0+128),w
  3153  078A  1283               	bcf	3,5	;RP0=0, select bank0
  3154  078B  1303               	bcf	3,6	;RP1=0, select bank0
  3155  078C  00E4               	movwf	___fltol@f1+2
  3156  078D  1683               	bsf	3,5	;RP0=1, select bank1
  3157  078E  1303               	bcf	3,6	;RP1=0, select bank1
  3158  078F  082A               	movf	(?___flsub+1)^(0+128),w
  3159  0790  1283               	bcf	3,5	;RP0=0, select bank0
  3160  0791  1303               	bcf	3,6	;RP1=0, select bank0
  3161  0792  00E3               	movwf	___fltol@f1+1
  3162  0793  1683               	bsf	3,5	;RP0=1, select bank1
  3163  0794  1303               	bcf	3,6	;RP1=0, select bank1
  3164  0795  0829               	movf	?___flsub^(0+128),w
  3165  0796  1283               	bcf	3,5	;RP0=0, select bank0
  3166  0797  1303               	bcf	3,6	;RP1=0, select bank0
  3167  0798  00E2               	movwf	___fltol@f1
  3168  0799  120A  158A  217C  120A  118A  	fcall	___fltol
  3169  079E  1283               	bcf	3,5	;RP0=0, select bank0
  3170  079F  1303               	bcf	3,6	;RP1=0, select bank0
  3171  07A0  0862               	movf	?___fltol,w
  3172  07A1  1683               	bsf	3,5	;RP0=1, select bank1
  3173  07A2  1303               	bcf	3,6	;RP1=0, select bank1
  3174  07A3  00C6               	movwf	??_UNIDAD^(0+128)
  3175  07A4  0846               	movf	??_UNIDAD^(0+128),w
  3176  07A5  00D4               	movwf	UNIDAD@c^(0+128)
  3177  07A6                     l3894:
  3178                           
  3179                           ;LCD.c: 24:     return c;
  3180  07A6  0854               	movf	UNIDAD@c^(0+128),w
  3181  07A7                     l193:
  3182  07A7  0008               	return
  3183  07A8                     __end_of_UNIDAD:
  3184                           
  3185                           	psect	text8
  3186  0AB4                     __ptext8:	
  3187 ;; *************** function _DECENA *****************
  3188 ;; Defined at:
  3189 ;;		line 17 in file "LCD.c"
  3190 ;; Parameters:    Size  Location     Type
  3191 ;;  c               1    wreg     unsigned char 
  3192 ;; Auto vars:     Size  Location     Type
  3193 ;;  c               1   37[BANK1 ] unsigned char 
  3194 ;; Return value:  Size  Location     Type
  3195 ;;                  1    wreg      unsigned char 
  3196 ;; Registers used:
  3197 ;;		wreg, status,2, status,0, btemp+1, pclath, cstack
  3198 ;; Tracked objects:
  3199 ;;		On entry : 0/0
  3200 ;;		On exit  : 0/0
  3201 ;;		Unchanged: 0/0
  3202 ;; Data sizes:     COMMON   BANK0   BANK1   BANK3   BANK2
  3203 ;;      Params:         0       0       0       0       0
  3204 ;;      Locals:         0       0       5       0       0
  3205 ;;      Temps:          0       0       7       0       0
  3206 ;;      Totals:         0       0      12       0       0
  3207 ;;Total ram usage:       12 bytes
  3208 ;; Hardware stack levels used: 1
  3209 ;; Hardware stack levels required when called: 4
  3210 ;; This function calls:
  3211 ;;		_CENTENA
  3212 ;;		___awdiv
  3213 ;;		___flmul
  3214 ;;		___flsub
  3215 ;;		___fltol
  3216 ;;		___wmul
  3217 ;;		___xxtofl
  3218 ;; This function is called by:
  3219 ;;		_main
  3220 ;;		_UNIDAD
  3221 ;; This function uses a non-reentrant model
  3222 ;;
  3223                           
  3224  0AB4                     _DECENA:	
  3225                           ;psect for function _DECENA
  3226                           
  3227                           
  3228                           ;incstack = 0
  3229                           ; Regs used in _DECENA: [wreg+status,2+status,0+btemp+1+pclath+cstack]
  3230                           ;DECENA@c stored from wreg
  3231  0AB4  1683               	bsf	3,5	;RP0=1, select bank1
  3232  0AB5  1303               	bcf	3,6	;RP1=0, select bank1
  3233  0AB6  00C5               	movwf	DECENA@c^(0+128)
  3234  0AB7                     l3688:
  3235                           
  3236                           ;LCD.c: 18:     c = (uint8_t)((c*1.9607) - CENTENA(c)*100)/10;
  3237  0AB7  3064               	movlw	100
  3238  0AB8  00A7               	movwf	___wmul@multiplicand^(0+128)
  3239  0AB9  3000               	movlw	0
  3240  0ABA  00A8               	movwf	(___wmul@multiplicand^(0+128)+1)
  3241  0ABB  0845               	movf	DECENA@c^(0+128),w
  3242  0ABC  120A  158A  210D  120A  158A  	fcall	_CENTENA
  3243  0AC1  1683               	bsf	3,5	;RP0=1, select bank1
  3244  0AC2  1303               	bcf	3,6	;RP1=0, select bank1
  3245  0AC3  00BA               	movwf	??_DECENA^(0+128)
  3246  0AC4  01BB               	clrf	(??_DECENA^(0+128)+1)
  3247  0AC5  083A               	movf	??_DECENA^(0+128),w
  3248  0AC6  00A5               	movwf	___wmul@multiplier^(0+128)
  3249  0AC7  083B               	movf	(??_DECENA+1)^(0+128),w
  3250  0AC8  00A6               	movwf	(___wmul@multiplier+1)^(0+128)
  3251  0AC9  160A  118A  252E  120A  158A  	fcall	___wmul
  3252  0ACE  1683               	bsf	3,5	;RP0=1, select bank1
  3253  0ACF  1303               	bcf	3,6	;RP1=0, select bank1
  3254  0AD0  0825               	movf	?___wmul^(0+128),w
  3255  0AD1  00C1               	movwf	_DECENA$1159^(0+128)
  3256  0AD2  0826               	movf	(?___wmul+1)^(0+128),w
  3257  0AD3  00C2               	movwf	(_DECENA$1159+1)^(0+128)
  3258  0AD4  3000               	movlw	0
  3259  0AD5  1BC2               	btfsc	(_DECENA$1159+1)^(0+128),7
  3260  0AD6  30FF               	movlw	255
  3261  0AD7  00C3               	movwf	(_DECENA$1159+2)^(0+128)
  3262  0AD8  00C4               	movwf	(_DECENA$1159+3)^(0+128)
  3263                           
  3264                           ;LCD.c: 18:     c = (uint8_t)((c*1.9607) - CENTENA(c)*100)/10;
  3265  0AD9  300A               	movlw	10
  3266  0ADA  00B1               	movwf	___awdiv@divisor^(0+128)
  3267  0ADB  3000               	movlw	0
  3268  0ADC  00B2               	movwf	(___awdiv@divisor^(0+128)+1)
  3269  0ADD  0845               	movf	DECENA@c^(0+128),w
  3270  0ADE  00BA               	movwf	??_DECENA^(0+128)
  3271  0ADF  01BB               	clrf	(??_DECENA^(0+128)+1)
  3272  0AE0  01BC               	clrf	(??_DECENA^(0+128)+2)
  3273  0AE1  01BD               	clrf	(??_DECENA^(0+128)+3)
  3274  0AE2  083D               	movf	(??_DECENA+3)^(0+128),w
  3275  0AE3  1283               	bcf	3,5	;RP0=0, select bank0
  3276  0AE4  1303               	bcf	3,6	;RP1=0, select bank0
  3277  0AE5  00A3               	movwf	___xxtofl@val+3
  3278  0AE6  1683               	bsf	3,5	;RP0=1, select bank1
  3279  0AE7  1303               	bcf	3,6	;RP1=0, select bank1
  3280  0AE8  083C               	movf	(??_DECENA+2)^(0+128),w
  3281  0AE9  1283               	bcf	3,5	;RP0=0, select bank0
  3282  0AEA  1303               	bcf	3,6	;RP1=0, select bank0
  3283  0AEB  00A2               	movwf	___xxtofl@val+2
  3284  0AEC  1683               	bsf	3,5	;RP0=1, select bank1
  3285  0AED  1303               	bcf	3,6	;RP1=0, select bank1
  3286  0AEE  083B               	movf	(??_DECENA+1)^(0+128),w
  3287  0AEF  1283               	bcf	3,5	;RP0=0, select bank0
  3288  0AF0  1303               	bcf	3,6	;RP1=0, select bank0
  3289  0AF1  00A1               	movwf	___xxtofl@val+1
  3290  0AF2  1683               	bsf	3,5	;RP0=1, select bank1
  3291  0AF3  1303               	bcf	3,6	;RP1=0, select bank1
  3292  0AF4  083A               	movf	??_DECENA^(0+128),w
  3293  0AF5  1283               	bcf	3,5	;RP0=0, select bank0
  3294  0AF6  1303               	bcf	3,6	;RP1=0, select bank0
  3295  0AF7  00A0               	movwf	___xxtofl@val
  3296  0AF8  3001               	movlw	1
  3297  0AF9  120A  158A  21F8  120A  158A  	fcall	___xxtofl
  3298  0AFE  1283               	bcf	3,5	;RP0=0, select bank0
  3299  0AFF  1303               	bcf	3,6	;RP1=0, select bank0
  3300  0B00  0823               	movf	?___xxtofl+3,w
  3301  0B01  00B5               	movwf	___flmul@a+3
  3302  0B02  0822               	movf	?___xxtofl+2,w
  3303  0B03  00B4               	movwf	___flmul@a+2
  3304  0B04  0821               	movf	?___xxtofl+1,w
  3305  0B05  00B3               	movwf	___flmul@a+1
  3306  0B06  0820               	movf	?___xxtofl,w
  3307  0B07  00B2               	movwf	___flmul@a
  3308  0B08  303F               	movlw	63
  3309  0B09  00B1               	movwf	___flmul@b+3
  3310  0B0A  30FA               	movlw	250
  3311  0B0B  00B0               	movwf	___flmul@b+2
  3312  0B0C  30F8               	movlw	248
  3313  0B0D  00AF               	movwf	___flmul@b+1
  3314  0B0E  3038               	movlw	56
  3315  0B0F  00AE               	movwf	___flmul@b
  3316  0B10  120A  118A  2022  120A  158A  	fcall	___flmul
  3317  0B15  1283               	bcf	3,5	;RP0=0, select bank0
  3318  0B16  1303               	bcf	3,6	;RP1=0, select bank0
  3319  0B17  0831               	movf	?___flmul+3,w
  3320  0B18  1683               	bsf	3,5	;RP0=1, select bank1
  3321  0B19  1303               	bcf	3,6	;RP1=0, select bank1
  3322  0B1A  00B0               	movwf	(___flsub@b+3)^(0+128)
  3323  0B1B  1283               	bcf	3,5	;RP0=0, select bank0
  3324  0B1C  1303               	bcf	3,6	;RP1=0, select bank0
  3325  0B1D  0830               	movf	?___flmul+2,w
  3326  0B1E  1683               	bsf	3,5	;RP0=1, select bank1
  3327  0B1F  1303               	bcf	3,6	;RP1=0, select bank1
  3328  0B20  00AF               	movwf	(___flsub@b+2)^(0+128)
  3329  0B21  1283               	bcf	3,5	;RP0=0, select bank0
  3330  0B22  1303               	bcf	3,6	;RP1=0, select bank0
  3331  0B23  082F               	movf	?___flmul+1,w
  3332  0B24  1683               	bsf	3,5	;RP0=1, select bank1
  3333  0B25  1303               	bcf	3,6	;RP1=0, select bank1
  3334  0B26  00AE               	movwf	(___flsub@b+1)^(0+128)
  3335  0B27  1283               	bcf	3,5	;RP0=0, select bank0
  3336  0B28  1303               	bcf	3,6	;RP1=0, select bank0
  3337  0B29  082E               	movf	?___flmul,w
  3338  0B2A  1683               	bsf	3,5	;RP0=1, select bank1
  3339  0B2B  1303               	bcf	3,6	;RP1=0, select bank1
  3340  0B2C  00AD               	movwf	___flsub@b^(0+128)
  3341  0B2D  0844               	movf	(_DECENA$1159+3)^(0+128),w
  3342  0B2E  1283               	bcf	3,5	;RP0=0, select bank0
  3343  0B2F  1303               	bcf	3,6	;RP1=0, select bank0
  3344  0B30  00A3               	movwf	___xxtofl@val+3
  3345  0B31  1683               	bsf	3,5	;RP0=1, select bank1
  3346  0B32  1303               	bcf	3,6	;RP1=0, select bank1
  3347  0B33  0843               	movf	(_DECENA$1159+2)^(0+128),w
  3348  0B34  1283               	bcf	3,5	;RP0=0, select bank0
  3349  0B35  1303               	bcf	3,6	;RP1=0, select bank0
  3350  0B36  00A2               	movwf	___xxtofl@val+2
  3351  0B37  1683               	bsf	3,5	;RP0=1, select bank1
  3352  0B38  1303               	bcf	3,6	;RP1=0, select bank1
  3353  0B39  0842               	movf	(_DECENA$1159+1)^(0+128),w
  3354  0B3A  1283               	bcf	3,5	;RP0=0, select bank0
  3355  0B3B  1303               	bcf	3,6	;RP1=0, select bank0
  3356  0B3C  00A1               	movwf	___xxtofl@val+1
  3357  0B3D  1683               	bsf	3,5	;RP0=1, select bank1
  3358  0B3E  1303               	bcf	3,6	;RP1=0, select bank1
  3359  0B3F  0841               	movf	_DECENA$1159^(0+128),w
  3360  0B40  1283               	bcf	3,5	;RP0=0, select bank0
  3361  0B41  1303               	bcf	3,6	;RP1=0, select bank0
  3362  0B42  00A0               	movwf	___xxtofl@val
  3363  0B43  3001               	movlw	1
  3364  0B44  120A  158A  21F8  120A  158A  	fcall	___xxtofl
  3365  0B49  1283               	bcf	3,5	;RP0=0, select bank0
  3366  0B4A  1303               	bcf	3,6	;RP1=0, select bank0
  3367  0B4B  0823               	movf	?___xxtofl+3,w
  3368  0B4C  1683               	bsf	3,5	;RP0=1, select bank1
  3369  0B4D  1303               	bcf	3,6	;RP1=0, select bank1
  3370  0B4E  00AC               	movwf	(___flsub@a+3)^(0+128)
  3371  0B4F  1283               	bcf	3,5	;RP0=0, select bank0
  3372  0B50  1303               	bcf	3,6	;RP1=0, select bank0
  3373  0B51  0822               	movf	?___xxtofl+2,w
  3374  0B52  1683               	bsf	3,5	;RP0=1, select bank1
  3375  0B53  1303               	bcf	3,6	;RP1=0, select bank1
  3376  0B54  00AB               	movwf	(___flsub@a+2)^(0+128)
  3377  0B55  1283               	bcf	3,5	;RP0=0, select bank0
  3378  0B56  1303               	bcf	3,6	;RP1=0, select bank0
  3379  0B57  0821               	movf	?___xxtofl+1,w
  3380  0B58  1683               	bsf	3,5	;RP0=1, select bank1
  3381  0B59  1303               	bcf	3,6	;RP1=0, select bank1
  3382  0B5A  00AA               	movwf	(___flsub@a+1)^(0+128)
  3383  0B5B  1283               	bcf	3,5	;RP0=0, select bank0
  3384  0B5C  1303               	bcf	3,6	;RP1=0, select bank0
  3385  0B5D  0820               	movf	?___xxtofl,w
  3386  0B5E  1683               	bsf	3,5	;RP0=1, select bank1
  3387  0B5F  1303               	bcf	3,6	;RP1=0, select bank1
  3388  0B60  00A9               	movwf	___flsub@a^(0+128)
  3389  0B61  160A  118A  2627  120A  158A  	fcall	___flsub
  3390  0B66  1683               	bsf	3,5	;RP0=1, select bank1
  3391  0B67  1303               	bcf	3,6	;RP1=0, select bank1
  3392  0B68  082C               	movf	(?___flsub+3)^(0+128),w
  3393  0B69  1283               	bcf	3,5	;RP0=0, select bank0
  3394  0B6A  1303               	bcf	3,6	;RP1=0, select bank0
  3395  0B6B  00E5               	movwf	___fltol@f1+3
  3396  0B6C  1683               	bsf	3,5	;RP0=1, select bank1
  3397  0B6D  1303               	bcf	3,6	;RP1=0, select bank1
  3398  0B6E  082B               	movf	(?___flsub+2)^(0+128),w
  3399  0B6F  1283               	bcf	3,5	;RP0=0, select bank0
  3400  0B70  1303               	bcf	3,6	;RP1=0, select bank0
  3401  0B71  00E4               	movwf	___fltol@f1+2
  3402  0B72  1683               	bsf	3,5	;RP0=1, select bank1
  3403  0B73  1303               	bcf	3,6	;RP1=0, select bank1
  3404  0B74  082A               	movf	(?___flsub+1)^(0+128),w
  3405  0B75  1283               	bcf	3,5	;RP0=0, select bank0
  3406  0B76  1303               	bcf	3,6	;RP1=0, select bank0
  3407  0B77  00E3               	movwf	___fltol@f1+1
  3408  0B78  1683               	bsf	3,5	;RP0=1, select bank1
  3409  0B79  1303               	bcf	3,6	;RP1=0, select bank1
  3410  0B7A  0829               	movf	?___flsub^(0+128),w
  3411  0B7B  1283               	bcf	3,5	;RP0=0, select bank0
  3412  0B7C  1303               	bcf	3,6	;RP1=0, select bank0
  3413  0B7D  00E2               	movwf	___fltol@f1
  3414  0B7E  120A  158A  217C  120A  158A  	fcall	___fltol
  3415  0B83  1283               	bcf	3,5	;RP0=0, select bank0
  3416  0B84  1303               	bcf	3,6	;RP1=0, select bank0
  3417  0B85  0862               	movf	?___fltol,w
  3418  0B86  1683               	bsf	3,5	;RP0=1, select bank1
  3419  0B87  1303               	bcf	3,6	;RP1=0, select bank1
  3420  0B88  00BE               	movwf	(??_DECENA+4)^(0+128)
  3421  0B89  01BF               	clrf	((??_DECENA+4)^(0+128)+1)
  3422  0B8A  083E               	movf	(??_DECENA+4)^(0+128),w
  3423  0B8B  00B3               	movwf	___awdiv@dividend^(0+128)
  3424  0B8C  083F               	movf	(??_DECENA+5)^(0+128),w
  3425  0B8D  00B4               	movwf	(___awdiv@dividend+1)^(0+128)
  3426  0B8E  120A  158A  2036  120A  158A  	fcall	___awdiv
  3427  0B93  1683               	bsf	3,5	;RP0=1, select bank1
  3428  0B94  1303               	bcf	3,6	;RP1=0, select bank1
  3429  0B95  0831               	movf	?___awdiv^(0+128),w
  3430  0B96  00C0               	movwf	(??_DECENA+6)^(0+128)
  3431  0B97  0840               	movf	(??_DECENA+6)^(0+128),w
  3432  0B98  00C5               	movwf	DECENA@c^(0+128)
  3433  0B99                     l3690:
  3434                           
  3435                           ;LCD.c: 19:     return c;
  3436  0B99  0845               	movf	DECENA@c^(0+128),w
  3437  0B9A                     l190:
  3438  0B9A  0008               	return
  3439  0B9B                     __end_of_DECENA:
  3440                           
  3441                           	psect	text9
  3442  152E                     __ptext9:	
  3443 ;; *************** function ___wmul *****************
  3444 ;; Defined at:
  3445 ;;		line 15 in file "C:\Program Files\Microchip\xc8\v2.35\pic\sources\c90\common\Umul16.c"
  3446 ;; Parameters:    Size  Location     Type
  3447 ;;  multiplier      2    5[BANK1 ] unsigned int 
  3448 ;;  multiplicand    2    7[BANK1 ] unsigned int 
  3449 ;; Auto vars:     Size  Location     Type
  3450 ;;  product         2   78[BANK0 ] unsigned int 
  3451 ;; Return value:  Size  Location     Type
  3452 ;;                  2    5[BANK1 ] unsigned int 
  3453 ;; Registers used:
  3454 ;;		wreg, status,2, status,0
  3455 ;; Tracked objects:
  3456 ;;		On entry : 0/0
  3457 ;;		On exit  : 0/0
  3458 ;;		Unchanged: 0/0
  3459 ;; Data sizes:     COMMON   BANK0   BANK1   BANK3   BANK2
  3460 ;;      Params:         0       0       4       0       0
  3461 ;;      Locals:         0       2       0       0       0
  3462 ;;      Temps:          0       0       0       0       0
  3463 ;;      Totals:         0       2       4       0       0
  3464 ;;Total ram usage:        6 bytes
  3465 ;; Hardware stack levels used: 1
  3466 ;; Hardware stack levels required when called: 1
  3467 ;; This function calls:
  3468 ;;		Nothing
  3469 ;; This function is called by:
  3470 ;;		_DECENA
  3471 ;;		_UNIDAD
  3472 ;; This function uses a non-reentrant model
  3473 ;;
  3474                           
  3475  152E                     ___wmul:	
  3476                           ;psect for function ___wmul
  3477                           
  3478  152E                     l2634:	
  3479                           ;incstack = 0
  3480                           ; Regs used in ___wmul: [wreg+status,2+status,0]
  3481                           
  3482  152E  1283               	bcf	3,5	;RP0=0, select bank0
  3483  152F  1303               	bcf	3,6	;RP1=0, select bank0
  3484  1530  01EE               	clrf	___wmul@product
  3485  1531  01EF               	clrf	___wmul@product+1
  3486  1532                     l2636:
  3487  1532  1683               	bsf	3,5	;RP0=1, select bank1
  3488  1533  1303               	bcf	3,6	;RP1=0, select bank1
  3489  1534  1C25               	btfss	___wmul@multiplier^(0+128),0
  3490  1535  2D37               	goto	u3491
  3491  1536  2D38               	goto	u3490
  3492  1537                     u3491:
  3493  1537  2D44               	goto	l376
  3494  1538                     u3490:
  3495  1538                     l2638:
  3496  1538  0827               	movf	___wmul@multiplicand^(0+128),w
  3497  1539  1283               	bcf	3,5	;RP0=0, select bank0
  3498  153A  1303               	bcf	3,6	;RP1=0, select bank0
  3499  153B  07EE               	addwf	___wmul@product,f
  3500  153C  1803               	skipnc
  3501  153D  0AEF               	incf	___wmul@product+1,f
  3502  153E  1683               	bsf	3,5	;RP0=1, select bank1
  3503  153F  1303               	bcf	3,6	;RP1=0, select bank1
  3504  1540  0828               	movf	(___wmul@multiplicand+1)^(0+128),w
  3505  1541  1283               	bcf	3,5	;RP0=0, select bank0
  3506  1542  1303               	bcf	3,6	;RP1=0, select bank0
  3507  1543  07EF               	addwf	___wmul@product+1,f
  3508  1544                     l376:
  3509  1544  3001               	movlw	1
  3510  1545  1683               	bsf	3,5	;RP0=1, select bank1
  3511  1546  1303               	bcf	3,6	;RP1=0, select bank1
  3512  1547                     u3505:
  3513  1547  1003               	clrc
  3514  1548  0DA7               	rlf	___wmul@multiplicand^(0+128),f
  3515  1549  0DA8               	rlf	(___wmul@multiplicand+1)^(0+128),f
  3516  154A  3EFF               	addlw	-1
  3517  154B  1D03               	skipz
  3518  154C  2D47               	goto	u3505
  3519  154D                     l2640:
  3520  154D  3001               	movlw	1
  3521  154E                     u3515:
  3522  154E  1003               	clrc
  3523  154F  0CA6               	rrf	(___wmul@multiplier+1)^(0+128),f
  3524  1550  0CA5               	rrf	___wmul@multiplier^(0+128),f
  3525  1551  3EFF               	addlw	-1
  3526  1552  1D03               	skipz
  3527  1553  2D4E               	goto	u3515
  3528  1554                     l2642:
  3529  1554  0825               	movf	___wmul@multiplier^(0+128),w
  3530  1555  0426               	iorwf	(___wmul@multiplier+1)^(0+128),w
  3531  1556  1D03               	btfss	3,2
  3532  1557  2D59               	goto	u3521
  3533  1558  2D5A               	goto	u3520
  3534  1559                     u3521:
  3535  1559  2D32               	goto	l2636
  3536  155A                     u3520:
  3537  155A                     l2644:
  3538  155A  1283               	bcf	3,5	;RP0=0, select bank0
  3539  155B  1303               	bcf	3,6	;RP1=0, select bank0
  3540  155C  086F               	movf	___wmul@product+1,w
  3541  155D  1683               	bsf	3,5	;RP0=1, select bank1
  3542  155E  1303               	bcf	3,6	;RP1=0, select bank1
  3543  155F  00A6               	movwf	(?___wmul+1)^(0+128)
  3544  1560  1283               	bcf	3,5	;RP0=0, select bank0
  3545  1561  1303               	bcf	3,6	;RP1=0, select bank0
  3546  1562  086E               	movf	___wmul@product,w
  3547  1563  1683               	bsf	3,5	;RP0=1, select bank1
  3548  1564  1303               	bcf	3,6	;RP1=0, select bank1
  3549  1565  00A5               	movwf	?___wmul^(0+128)
  3550  1566                     l378:
  3551  1566  0008               	return
  3552  1567                     __end_of___wmul:
  3553                           
  3554                           	psect	text10
  3555  1627                     __ptext10:	
  3556 ;; *************** function ___flsub *****************
  3557 ;; Defined at:
  3558 ;;		line 242 in file "C:\Program Files\Microchip\xc8\v2.35\pic\sources\c90\common\sprcadd.c"
  3559 ;; Parameters:    Size  Location     Type
  3560 ;;  a               4    9[BANK1 ] unsigned int 
  3561 ;;  b               4   13[BANK1 ] unsigned int 
  3562 ;; Auto vars:     Size  Location     Type
  3563 ;;		None
  3564 ;; Return value:  Size  Location     Type
  3565 ;;                  4    9[BANK1 ] unsigned int 
  3566 ;; Registers used:
  3567 ;;		wreg, status,2, status,0, btemp+1, pclath, cstack
  3568 ;; Tracked objects:
  3569 ;;		On entry : 0/0
  3570 ;;		On exit  : 0/0
  3571 ;;		Unchanged: 0/0
  3572 ;; Data sizes:     COMMON   BANK0   BANK1   BANK3   BANK2
  3573 ;;      Params:         0       0       8       0       0
  3574 ;;      Locals:         0       0       0       0       0
  3575 ;;      Temps:          0       0       0       0       0
  3576 ;;      Totals:         0       0       8       0       0
  3577 ;;Total ram usage:        8 bytes
  3578 ;; Hardware stack levels used: 1
  3579 ;; Hardware stack levels required when called: 2
  3580 ;; This function calls:
  3581 ;;		___fladd
  3582 ;; This function is called by:
  3583 ;;		_DECENA
  3584 ;;		_UNIDAD
  3585 ;; This function uses a non-reentrant model
  3586 ;;
  3587                           
  3588  1627                     ___flsub:	
  3589                           ;psect for function ___flsub
  3590                           
  3591  1627                     l3654:	
  3592                           ;incstack = 0
  3593                           ; Regs used in ___flsub: [wreg+status,2+status,0+btemp+1+pclath+cstack]
  3594                           
  3595  1627  3080               	movlw	128
  3596  1628  1683               	bsf	3,5	;RP0=1, select bank1
  3597  1629  1303               	bcf	3,6	;RP1=0, select bank1
  3598  162A  06AC               	xorwf	(___flsub@a+3)^(0+128),f
  3599  162B                     l3656:
  3600  162B  0830               	movf	(___flsub@b+3)^(0+128),w
  3601  162C  1283               	bcf	3,5	;RP0=0, select bank0
  3602  162D  1303               	bcf	3,6	;RP1=0, select bank0
  3603  162E  00A3               	movwf	___fladd@b+3
  3604  162F  1683               	bsf	3,5	;RP0=1, select bank1
  3605  1630  1303               	bcf	3,6	;RP1=0, select bank1
  3606  1631  082F               	movf	(___flsub@b+2)^(0+128),w
  3607  1632  1283               	bcf	3,5	;RP0=0, select bank0
  3608  1633  1303               	bcf	3,6	;RP1=0, select bank0
  3609  1634  00A2               	movwf	___fladd@b+2
  3610  1635  1683               	bsf	3,5	;RP0=1, select bank1
  3611  1636  1303               	bcf	3,6	;RP1=0, select bank1
  3612  1637  082E               	movf	(___flsub@b+1)^(0+128),w
  3613  1638  1283               	bcf	3,5	;RP0=0, select bank0
  3614  1639  1303               	bcf	3,6	;RP1=0, select bank0
  3615  163A  00A1               	movwf	___fladd@b+1
  3616  163B  1683               	bsf	3,5	;RP0=1, select bank1
  3617  163C  1303               	bcf	3,6	;RP1=0, select bank1
  3618  163D  082D               	movf	___flsub@b^(0+128),w
  3619  163E  1283               	bcf	3,5	;RP0=0, select bank0
  3620  163F  1303               	bcf	3,6	;RP1=0, select bank0
  3621  1640  00A0               	movwf	___fladd@b
  3622  1641  1683               	bsf	3,5	;RP0=1, select bank1
  3623  1642  1303               	bcf	3,6	;RP1=0, select bank1
  3624  1643  082C               	movf	(___flsub@a+3)^(0+128),w
  3625  1644  1283               	bcf	3,5	;RP0=0, select bank0
  3626  1645  1303               	bcf	3,6	;RP1=0, select bank0
  3627  1646  00A7               	movwf	___fladd@a+3
  3628  1647  1683               	bsf	3,5	;RP0=1, select bank1
  3629  1648  1303               	bcf	3,6	;RP1=0, select bank1
  3630  1649  082B               	movf	(___flsub@a+2)^(0+128),w
  3631  164A  1283               	bcf	3,5	;RP0=0, select bank0
  3632  164B  1303               	bcf	3,6	;RP1=0, select bank0
  3633  164C  00A6               	movwf	___fladd@a+2
  3634  164D  1683               	bsf	3,5	;RP0=1, select bank1
  3635  164E  1303               	bcf	3,6	;RP1=0, select bank1
  3636  164F  082A               	movf	(___flsub@a+1)^(0+128),w
  3637  1650  1283               	bcf	3,5	;RP0=0, select bank0
  3638  1651  1303               	bcf	3,6	;RP1=0, select bank0
  3639  1652  00A5               	movwf	___fladd@a+1
  3640  1653  1683               	bsf	3,5	;RP0=1, select bank1
  3641  1654  1303               	bcf	3,6	;RP1=0, select bank1
  3642  1655  0829               	movf	___flsub@a^(0+128),w
  3643  1656  1283               	bcf	3,5	;RP0=0, select bank0
  3644  1657  1303               	bcf	3,6	;RP1=0, select bank0
  3645  1658  00A4               	movwf	___fladd@a
  3646  1659  120A  158A  2578  160A  118A  	fcall	___fladd
  3647  165E  1283               	bcf	3,5	;RP0=0, select bank0
  3648  165F  1303               	bcf	3,6	;RP1=0, select bank0
  3649  1660  0823               	movf	?___fladd+3,w
  3650  1661  1683               	bsf	3,5	;RP0=1, select bank1
  3651  1662  1303               	bcf	3,6	;RP1=0, select bank1
  3652  1663  00AC               	movwf	(?___flsub+3)^(0+128)
  3653  1664  1283               	bcf	3,5	;RP0=0, select bank0
  3654  1665  1303               	bcf	3,6	;RP1=0, select bank0
  3655  1666  0822               	movf	?___fladd+2,w
  3656  1667  1683               	bsf	3,5	;RP0=1, select bank1
  3657  1668  1303               	bcf	3,6	;RP1=0, select bank1
  3658  1669  00AB               	movwf	(?___flsub+2)^(0+128)
  3659  166A  1283               	bcf	3,5	;RP0=0, select bank0
  3660  166B  1303               	bcf	3,6	;RP1=0, select bank0
  3661  166C  0821               	movf	?___fladd+1,w
  3662  166D  1683               	bsf	3,5	;RP0=1, select bank1
  3663  166E  1303               	bcf	3,6	;RP1=0, select bank1
  3664  166F  00AA               	movwf	(?___flsub+1)^(0+128)
  3665  1670  1283               	bcf	3,5	;RP0=0, select bank0
  3666  1671  1303               	bcf	3,6	;RP1=0, select bank0
  3667  1672  0820               	movf	?___fladd,w
  3668  1673  1683               	bsf	3,5	;RP0=1, select bank1
  3669  1674  1303               	bcf	3,6	;RP1=0, select bank1
  3670  1675  00A9               	movwf	?___flsub^(0+128)
  3671  1676                     l715:
  3672  1676  0008               	return
  3673  1677                     __end_of___flsub:
  3674                           
  3675                           	psect	text11
  3676  0D78                     __ptext11:	
  3677 ;; *************** function ___fladd *****************
  3678 ;; Defined at:
  3679 ;;		line 10 in file "C:\Program Files\Microchip\xc8\v2.35\pic\sources\c90\common\sprcadd.c"
  3680 ;; Parameters:    Size  Location     Type
  3681 ;;  b               4    0[BANK0 ] unsigned int 
  3682 ;;  a               4    4[BANK0 ] unsigned int 
  3683 ;; Auto vars:     Size  Location     Type
  3684 ;;  grs             1   19[BANK0 ] unsigned char 
  3685 ;;  bexp            1   18[BANK0 ] unsigned char 
  3686 ;;  aexp            1   17[BANK0 ] unsigned char 
  3687 ;;  signs           1   16[BANK0 ] unsigned char 
  3688 ;; Return value:  Size  Location     Type
  3689 ;;                  4    0[BANK0 ] unsigned char 
  3690 ;; Registers used:
  3691 ;;		wreg, status,2, status,0, btemp+1
  3692 ;; Tracked objects:
  3693 ;;		On entry : 0/0
  3694 ;;		On exit  : 0/0
  3695 ;;		Unchanged: 0/0
  3696 ;; Data sizes:     COMMON   BANK0   BANK1   BANK3   BANK2
  3697 ;;      Params:         0       8       0       0       0
  3698 ;;      Locals:         0       4       0       0       0
  3699 ;;      Temps:          0       8       0       0       0
  3700 ;;      Totals:         0      20       0       0       0
  3701 ;;Total ram usage:       20 bytes
  3702 ;; Hardware stack levels used: 1
  3703 ;; Hardware stack levels required when called: 1
  3704 ;; This function calls:
  3705 ;;		Nothing
  3706 ;; This function is called by:
  3707 ;;		___flsub
  3708 ;; This function uses a non-reentrant model
  3709 ;;
  3710                           
  3711  0D78                     ___fladd:	
  3712                           ;psect for function ___fladd
  3713                           
  3714  0D78                     l3178:	
  3715                           ;incstack = 0
  3716                           ; Regs used in ___fladd: [wreg+status,2+status,0+btemp+1]
  3717                           
  3718  0D78  1283               	bcf	3,5	;RP0=0, select bank0
  3719  0D79  1303               	bcf	3,6	;RP1=0, select bank0
  3720  0D7A  0823               	movf	___fladd@b+3,w
  3721  0D7B  3980               	andlw	128
  3722  0D7C  00A8               	movwf	??___fladd
  3723  0D7D  0828               	movf	??___fladd,w
  3724  0D7E  00B0               	movwf	___fladd@signs
  3725  0D7F                     l3180:
  3726  0D7F  0823               	movf	___fladd@b+3,w
  3727  0D80  00A8               	movwf	??___fladd
  3728  0D81  0728               	addwf	??___fladd,w
  3729  0D82  00A9               	movwf	??___fladd+1
  3730  0D83  0829               	movf	??___fladd+1,w
  3731  0D84  00B2               	movwf	___fladd@bexp
  3732  0D85                     l3182:
  3733  0D85  1FA2               	btfss	___fladd@b+2,7
  3734  0D86  2D88               	goto	u4151
  3735  0D87  2D89               	goto	u4150
  3736  0D88                     u4151:
  3737  0D88  2D8A               	goto	l3186
  3738  0D89                     u4150:
  3739  0D89                     l3184:
  3740  0D89  1432               	bsf	___fladd@bexp,0
  3741  0D8A                     l3186:
  3742  0D8A  0832               	movf	___fladd@bexp,w
  3743  0D8B  1903               	btfsc	3,2
  3744  0D8C  2D8E               	goto	u4161
  3745  0D8D  2D8F               	goto	u4160
  3746  0D8E                     u4161:
  3747  0D8E  2D9F               	goto	l3196
  3748  0D8F                     u4160:
  3749  0D8F                     l3188:
  3750  0D8F  0A32               	incf	___fladd@bexp,w
  3751  0D90  1D03               	btfss	3,2
  3752  0D91  2D93               	goto	u4171
  3753  0D92  2D94               	goto	u4170
  3754  0D93                     u4171:
  3755  0D93  2D9C               	goto	l3192
  3756  0D94                     u4170:
  3757  0D94                     l3190:
  3758  0D94  3000               	movlw	0
  3759  0D95  00A3               	movwf	___fladd@b+3
  3760  0D96  3000               	movlw	0
  3761  0D97  00A2               	movwf	___fladd@b+2
  3762  0D98  3000               	movlw	0
  3763  0D99  00A1               	movwf	___fladd@b+1
  3764  0D9A  3000               	movlw	0
  3765  0D9B  00A0               	movwf	___fladd@b
  3766  0D9C                     l3192:
  3767  0D9C  17A2               	bsf	___fladd@b+2,7
  3768  0D9D                     l3194:
  3769  0D9D  01A3               	clrf	___fladd@b+3
  3770  0D9E  2DA7               	goto	l3198
  3771  0D9F                     l3196:
  3772  0D9F  3000               	movlw	0
  3773  0DA0  00A3               	movwf	___fladd@b+3
  3774  0DA1  3000               	movlw	0
  3775  0DA2  00A2               	movwf	___fladd@b+2
  3776  0DA3  3000               	movlw	0
  3777  0DA4  00A1               	movwf	___fladd@b+1
  3778  0DA5  3000               	movlw	0
  3779  0DA6  00A0               	movwf	___fladd@b
  3780  0DA7                     l3198:
  3781  0DA7  0827               	movf	___fladd@a+3,w
  3782  0DA8  3980               	andlw	128
  3783  0DA9  00A8               	movwf	??___fladd
  3784  0DAA  0828               	movf	??___fladd,w
  3785  0DAB  00B1               	movwf	___fladd@aexp
  3786  0DAC                     l3200:
  3787  0DAC  0831               	movf	___fladd@aexp,w
  3788  0DAD  0630               	xorwf	___fladd@signs,w
  3789  0DAE  1903               	skipnz
  3790  0DAF  2DB1               	goto	u4181
  3791  0DB0  2DB2               	goto	u4180
  3792  0DB1                     u4181:
  3793  0DB1  2DB3               	goto	l3204
  3794  0DB2                     u4180:
  3795  0DB2                     l3202:
  3796  0DB2  1730               	bsf	___fladd@signs,6
  3797  0DB3                     l3204:
  3798  0DB3  0827               	movf	___fladd@a+3,w
  3799  0DB4  00A8               	movwf	??___fladd
  3800  0DB5  0728               	addwf	??___fladd,w
  3801  0DB6  00A9               	movwf	??___fladd+1
  3802  0DB7  0829               	movf	??___fladd+1,w
  3803  0DB8  00B1               	movwf	___fladd@aexp
  3804  0DB9                     l3206:
  3805  0DB9  1FA6               	btfss	___fladd@a+2,7
  3806  0DBA  2DBC               	goto	u4191
  3807  0DBB  2DBD               	goto	u4190
  3808  0DBC                     u4191:
  3809  0DBC  2DBE               	goto	l3210
  3810  0DBD                     u4190:
  3811  0DBD                     l3208:
  3812  0DBD  1431               	bsf	___fladd@aexp,0
  3813  0DBE                     l3210:
  3814  0DBE  0831               	movf	___fladd@aexp,w
  3815  0DBF  1903               	btfsc	3,2
  3816  0DC0  2DC2               	goto	u4201
  3817  0DC1  2DC3               	goto	u4200
  3818  0DC2                     u4201:
  3819  0DC2  2DD3               	goto	l3220
  3820  0DC3                     u4200:
  3821  0DC3                     l3212:
  3822  0DC3  0A31               	incf	___fladd@aexp,w
  3823  0DC4  1D03               	btfss	3,2
  3824  0DC5  2DC7               	goto	u4211
  3825  0DC6  2DC8               	goto	u4210
  3826  0DC7                     u4211:
  3827  0DC7  2DD0               	goto	l3216
  3828  0DC8                     u4210:
  3829  0DC8                     l3214:
  3830  0DC8  3000               	movlw	0
  3831  0DC9  00A7               	movwf	___fladd@a+3
  3832  0DCA  3000               	movlw	0
  3833  0DCB  00A6               	movwf	___fladd@a+2
  3834  0DCC  3000               	movlw	0
  3835  0DCD  00A5               	movwf	___fladd@a+1
  3836  0DCE  3000               	movlw	0
  3837  0DCF  00A4               	movwf	___fladd@a
  3838  0DD0                     l3216:
  3839  0DD0  17A6               	bsf	___fladd@a+2,7
  3840  0DD1                     l3218:
  3841  0DD1  01A7               	clrf	___fladd@a+3
  3842  0DD2  2DDB               	goto	l669
  3843  0DD3                     l3220:
  3844  0DD3  3000               	movlw	0
  3845  0DD4  00A7               	movwf	___fladd@a+3
  3846  0DD5  3000               	movlw	0
  3847  0DD6  00A6               	movwf	___fladd@a+2
  3848  0DD7  3000               	movlw	0
  3849  0DD8  00A5               	movwf	___fladd@a+1
  3850  0DD9  3000               	movlw	0
  3851  0DDA  00A4               	movwf	___fladd@a
  3852  0DDB                     l669:
  3853  0DDB  0832               	movf	___fladd@bexp,w
  3854  0DDC  0231               	subwf	___fladd@aexp,w
  3855  0DDD  1803               	skipnc
  3856  0DDE  2DE0               	goto	u4221
  3857  0DDF  2DE1               	goto	u4220
  3858  0DE0                     u4221:
  3859  0DE0  2E25               	goto	l3256
  3860  0DE1                     u4220:
  3861  0DE1                     l3222:
  3862  0DE1  1F30               	btfss	___fladd@signs,6
  3863  0DE2  2DE4               	goto	u4231
  3864  0DE3  2DE5               	goto	u4230
  3865  0DE4                     u4231:
  3866  0DE4  2DE9               	goto	l3226
  3867  0DE5                     u4230:
  3868  0DE5                     l3224:
  3869  0DE5  3080               	movlw	128
  3870  0DE6  00A8               	movwf	??___fladd
  3871  0DE7  0828               	movf	??___fladd,w
  3872  0DE8  06B0               	xorwf	___fladd@signs,f
  3873  0DE9                     l3226:
  3874  0DE9  0832               	movf	___fladd@bexp,w
  3875  0DEA  00A8               	movwf	??___fladd
  3876  0DEB  0828               	movf	??___fladd,w
  3877  0DEC  00B3               	movwf	___fladd@grs
  3878  0DED                     l3228:
  3879  0DED  0831               	movf	___fladd@aexp,w
  3880  0DEE  00A8               	movwf	??___fladd
  3881  0DEF  0828               	movf	??___fladd,w
  3882  0DF0  00B2               	movwf	___fladd@bexp
  3883  0DF1                     l3230:
  3884  0DF1  0833               	movf	___fladd@grs,w
  3885  0DF2  00A8               	movwf	??___fladd
  3886  0DF3  0828               	movf	??___fladd,w
  3887  0DF4  00B1               	movwf	___fladd@aexp
  3888  0DF5                     l3232:
  3889  0DF5  0820               	movf	___fladd@b,w
  3890  0DF6  00A8               	movwf	??___fladd
  3891  0DF7  0828               	movf	??___fladd,w
  3892  0DF8  00B3               	movwf	___fladd@grs
  3893  0DF9                     l3234:
  3894  0DF9  0824               	movf	___fladd@a,w
  3895  0DFA  00A8               	movwf	??___fladd
  3896  0DFB  0828               	movf	??___fladd,w
  3897  0DFC  00A0               	movwf	___fladd@b
  3898  0DFD                     l3236:
  3899  0DFD  0833               	movf	___fladd@grs,w
  3900  0DFE  00A8               	movwf	??___fladd
  3901  0DFF  0828               	movf	??___fladd,w
  3902  0E00  00A4               	movwf	___fladd@a
  3903  0E01                     l3238:
  3904  0E01  0821               	movf	___fladd@b+1,w
  3905  0E02  00A8               	movwf	??___fladd
  3906  0E03  0828               	movf	??___fladd,w
  3907  0E04  00B3               	movwf	___fladd@grs
  3908  0E05                     l3240:
  3909  0E05  0825               	movf	___fladd@a+1,w
  3910  0E06  00A8               	movwf	??___fladd
  3911  0E07  0828               	movf	??___fladd,w
  3912  0E08  00A1               	movwf	___fladd@b+1
  3913  0E09                     l3242:
  3914  0E09  0833               	movf	___fladd@grs,w
  3915  0E0A  00A8               	movwf	??___fladd
  3916  0E0B  0828               	movf	??___fladd,w
  3917  0E0C  00A5               	movwf	___fladd@a+1
  3918  0E0D                     l3244:
  3919  0E0D  0822               	movf	___fladd@b+2,w
  3920  0E0E  00A8               	movwf	??___fladd
  3921  0E0F  0828               	movf	??___fladd,w
  3922  0E10  00B3               	movwf	___fladd@grs
  3923  0E11                     l3246:
  3924  0E11  0826               	movf	___fladd@a+2,w
  3925  0E12  00A8               	movwf	??___fladd
  3926  0E13  0828               	movf	??___fladd,w
  3927  0E14  00A2               	movwf	___fladd@b+2
  3928  0E15                     l3248:
  3929  0E15  0833               	movf	___fladd@grs,w
  3930  0E16  00A8               	movwf	??___fladd
  3931  0E17  0828               	movf	??___fladd,w
  3932  0E18  00A6               	movwf	___fladd@a+2
  3933  0E19                     l3250:
  3934  0E19  0823               	movf	___fladd@b+3,w
  3935  0E1A  00A8               	movwf	??___fladd
  3936  0E1B  0828               	movf	??___fladd,w
  3937  0E1C  00B3               	movwf	___fladd@grs
  3938  0E1D                     l3252:
  3939  0E1D  0827               	movf	___fladd@a+3,w
  3940  0E1E  00A8               	movwf	??___fladd
  3941  0E1F  0828               	movf	??___fladd,w
  3942  0E20  00A3               	movwf	___fladd@b+3
  3943  0E21                     l3254:
  3944  0E21  0833               	movf	___fladd@grs,w
  3945  0E22  00A8               	movwf	??___fladd
  3946  0E23  0828               	movf	??___fladd,w
  3947  0E24  00A7               	movwf	___fladd@a+3
  3948  0E25                     l3256:
  3949  0E25  01B3               	clrf	___fladd@grs
  3950  0E26                     l3258:
  3951  0E26  0831               	movf	___fladd@aexp,w
  3952  0E27  00A8               	movwf	??___fladd
  3953  0E28  01A9               	clrf	??___fladd+1
  3954  0E29  0829               	movf	??___fladd+1,w
  3955  0E2A  00AB               	movwf	??___fladd+3
  3956  0E2B  0832               	movf	___fladd@bexp,w
  3957  0E2C  0228               	subwf	??___fladd,w
  3958  0E2D  00AA               	movwf	??___fladd+2
  3959  0E2E  1C03               	skipc
  3960  0E2F  03AB               	decf	??___fladd+3,f
  3961  0E30  082B               	movf	??___fladd+3,w
  3962  0E31  3A80               	xorlw	128
  3963  0E32  00FF               	movwf	btemp+1
  3964  0E33  3080               	movlw	128
  3965  0E34  027F               	subwf	btemp+1,w
  3966  0E35  1D03               	skipz
  3967  0E36  2E39               	goto	u4245
  3968  0E37  301A               	movlw	26
  3969  0E38  022A               	subwf	??___fladd+2,w
  3970  0E39                     u4245:
  3971  0E39  1C03               	skipc
  3972  0E3A  2E3C               	goto	u4241
  3973  0E3B  2E3D               	goto	u4240
  3974  0E3C                     u4241:
  3975  0E3C  2E7A               	goto	l3274
  3976  0E3D                     u4240:
  3977  0E3D                     l3260:
  3978  0E3D  1283               	bcf	3,5	;RP0=0, select bank0
  3979  0E3E  1303               	bcf	3,6	;RP1=0, select bank0
  3980  0E3F  0823               	movf	___fladd@b+3,w
  3981  0E40  0422               	iorwf	___fladd@b+2,w
  3982  0E41  0421               	iorwf	___fladd@b+1,w
  3983  0E42  0420               	iorwf	___fladd@b,w
  3984  0E43  1D03               	skipz
  3985  0E44  2E46               	goto	u4251
  3986  0E45  2E48               	goto	u4250
  3987  0E46                     u4251:
  3988  0E46  3001               	movlw	1
  3989  0E47  2E49               	goto	u4260
  3990  0E48                     u4250:
  3991  0E48  3000               	movlw	0
  3992  0E49                     u4260:
  3993  0E49  00A8               	movwf	??___fladd
  3994  0E4A  0828               	movf	??___fladd,w
  3995  0E4B  00B3               	movwf	___fladd@grs
  3996  0E4C  3000               	movlw	0
  3997  0E4D  00A3               	movwf	___fladd@b+3
  3998  0E4E  3000               	movlw	0
  3999  0E4F  00A2               	movwf	___fladd@b+2
  4000  0E50  3000               	movlw	0
  4001  0E51  00A1               	movwf	___fladd@b+1
  4002  0E52  3000               	movlw	0
  4003  0E53  00A0               	movwf	___fladd@b
  4004  0E54  0831               	movf	___fladd@aexp,w
  4005  0E55  00A8               	movwf	??___fladd
  4006  0E56  0828               	movf	??___fladd,w
  4007  0E57  00B2               	movwf	___fladd@bexp
  4008  0E58  2E82               	goto	l673
  4009  0E59                     l675:
  4010  0E59  1C33               	btfss	___fladd@grs,0
  4011  0E5A  2E5C               	goto	u4271
  4012  0E5B  2E5D               	goto	u4270
  4013  0E5C                     u4271:
  4014  0E5C  2E66               	goto	l3264
  4015  0E5D                     u4270:
  4016  0E5D                     l3262:
  4017  0E5D  0833               	movf	___fladd@grs,w
  4018  0E5E  00A8               	movwf	??___fladd
  4019  0E5F  1003               	clrc
  4020  0E60  0C28               	rrf	??___fladd,w
  4021  0E61  3801               	iorlw	1
  4022  0E62  00A9               	movwf	??___fladd+1
  4023  0E63  0829               	movf	??___fladd+1,w
  4024  0E64  00B3               	movwf	___fladd@grs
  4025  0E65  2E68               	goto	l3266
  4026  0E66                     l3264:
  4027  0E66  1003               	clrc
  4028  0E67  0CB3               	rrf	___fladd@grs,f
  4029  0E68                     l3266:
  4030  0E68  1C20               	btfss	___fladd@b,0
  4031  0E69  2E6B               	goto	u4281
  4032  0E6A  2E6C               	goto	u4280
  4033  0E6B                     u4281:
  4034  0E6B  2E6D               	goto	l3270
  4035  0E6C                     u4280:
  4036  0E6C                     l3268:
  4037  0E6C  17B3               	bsf	___fladd@grs,7
  4038  0E6D                     l3270:
  4039  0E6D  3001               	movlw	1
  4040  0E6E  00A8               	movwf	??___fladd
  4041  0E6F                     u4295:
  4042  0E6F  0D23               	rlf	___fladd@b+3,w
  4043  0E70  0CA3               	rrf	___fladd@b+3,f
  4044  0E71  0CA2               	rrf	___fladd@b+2,f
  4045  0E72  0CA1               	rrf	___fladd@b+1,f
  4046  0E73  0CA0               	rrf	___fladd@b,f
  4047  0E74  0BA8               	decfsz	??___fladd& (0+127),f
  4048  0E75  2E6F               	goto	u4295
  4049  0E76                     l3272:
  4050  0E76  3001               	movlw	1
  4051  0E77  00A8               	movwf	??___fladd
  4052  0E78  0828               	movf	??___fladd,w
  4053  0E79  07B2               	addwf	___fladd@bexp,f
  4054  0E7A                     l3274:
  4055  0E7A  1283               	bcf	3,5	;RP0=0, select bank0
  4056  0E7B  1303               	bcf	3,6	;RP1=0, select bank0
  4057  0E7C  0831               	movf	___fladd@aexp,w
  4058  0E7D  0232               	subwf	___fladd@bexp,w
  4059  0E7E  1C03               	skipc
  4060  0E7F  2E81               	goto	u4301
  4061  0E80  2E82               	goto	u4300
  4062  0E81                     u4301:
  4063  0E81  2E59               	goto	l675
  4064  0E82                     u4300:
  4065  0E82                     l673:
  4066  0E82  1B30               	btfsc	___fladd@signs,6
  4067  0E83  2E85               	goto	u4311
  4068  0E84  2E86               	goto	u4310
  4069  0E85                     u4311:
  4070  0E85  2ED1               	goto	l3300
  4071  0E86                     u4310:
  4072  0E86                     l3276:
  4073  0E86  0832               	movf	___fladd@bexp,w
  4074  0E87  1D03               	btfss	3,2
  4075  0E88  2E8A               	goto	u4321
  4076  0E89  2E8B               	goto	u4320
  4077  0E8A                     u4321:
  4078  0E8A  2E94               	goto	l3282
  4079  0E8B                     u4320:
  4080  0E8B                     l3278:
  4081  0E8B  3000               	movlw	0
  4082  0E8C  00A3               	movwf	?___fladd+3
  4083  0E8D  3000               	movlw	0
  4084  0E8E  00A2               	movwf	?___fladd+2
  4085  0E8F  3000               	movlw	0
  4086  0E90  00A1               	movwf	?___fladd+1
  4087  0E91  3000               	movlw	0
  4088  0E92  00A0               	movwf	?___fladd
  4089  0E93  2FFF               	goto	l682
  4090  0E94                     l3282:
  4091  0E94  0824               	movf	___fladd@a,w
  4092  0E95  07A0               	addwf	___fladd@b,f
  4093  0E96  0825               	movf	___fladd@a+1,w
  4094  0E97  1103               	clrz
  4095  0E98  1803               	skipnc
  4096  0E99  3E01               	addlw	1
  4097  0E9A  1903               	skipnz
  4098  0E9B  2E9D               	goto	u4331
  4099  0E9C  07A1               	addwf	___fladd@b+1,f
  4100  0E9D                     u4331:
  4101  0E9D  0826               	movf	___fladd@a+2,w
  4102  0E9E  1103               	clrz
  4103  0E9F  1803               	skipnc
  4104  0EA0  3E01               	addlw	1
  4105  0EA1  1903               	skipnz
  4106  0EA2  2EA4               	goto	u4332
  4107  0EA3  07A2               	addwf	___fladd@b+2,f
  4108  0EA4                     u4332:
  4109  0EA4  0827               	movf	___fladd@a+3,w
  4110  0EA5  1103               	clrz
  4111  0EA6  1803               	skipnc
  4112  0EA7  3E01               	addlw	1
  4113  0EA8  1903               	skipnz
  4114  0EA9  2EAB               	goto	u4333
  4115  0EAA  07A3               	addwf	___fladd@b+3,f
  4116  0EAB                     u4333:
  4117  0EAB                     l3284:
  4118  0EAB  1C23               	btfss	___fladd@b+3,0
  4119  0EAC  2EAE               	goto	u4341
  4120  0EAD  2EAF               	goto	u4340
  4121  0EAE                     u4341:
  4122  0EAE  2F85               	goto	l3334
  4123  0EAF                     u4340:
  4124  0EAF                     l3286:
  4125  0EAF  1C33               	btfss	___fladd@grs,0
  4126  0EB0  2EB2               	goto	u4351
  4127  0EB1  2EB3               	goto	u4350
  4128  0EB2                     u4351:
  4129  0EB2  2EBC               	goto	l3290
  4130  0EB3                     u4350:
  4131  0EB3                     l3288:
  4132  0EB3  0833               	movf	___fladd@grs,w
  4133  0EB4  00A8               	movwf	??___fladd
  4134  0EB5  1003               	clrc
  4135  0EB6  0C28               	rrf	??___fladd,w
  4136  0EB7  3801               	iorlw	1
  4137  0EB8  00A9               	movwf	??___fladd+1
  4138  0EB9  0829               	movf	??___fladd+1,w
  4139  0EBA  00B3               	movwf	___fladd@grs
  4140  0EBB  2EBE               	goto	l3292
  4141  0EBC                     l3290:
  4142  0EBC  1003               	clrc
  4143  0EBD  0CB3               	rrf	___fladd@grs,f
  4144  0EBE                     l3292:
  4145  0EBE  1C20               	btfss	___fladd@b,0
  4146  0EBF  2EC1               	goto	u4361
  4147  0EC0  2EC2               	goto	u4360
  4148  0EC1                     u4361:
  4149  0EC1  2EC3               	goto	l3296
  4150  0EC2                     u4360:
  4151  0EC2                     l3294:
  4152  0EC2  17B3               	bsf	___fladd@grs,7
  4153  0EC3                     l3296:
  4154  0EC3  3001               	movlw	1
  4155  0EC4  00A8               	movwf	??___fladd
  4156  0EC5                     u4375:
  4157  0EC5  0D23               	rlf	___fladd@b+3,w
  4158  0EC6  0CA3               	rrf	___fladd@b+3,f
  4159  0EC7  0CA2               	rrf	___fladd@b+2,f
  4160  0EC8  0CA1               	rrf	___fladd@b+1,f
  4161  0EC9  0CA0               	rrf	___fladd@b,f
  4162  0ECA  0BA8               	decfsz	??___fladd& (0+127),f
  4163  0ECB  2EC5               	goto	u4375
  4164  0ECC                     l3298:
  4165  0ECC  3001               	movlw	1
  4166  0ECD  00A8               	movwf	??___fladd
  4167  0ECE  0828               	movf	??___fladd,w
  4168  0ECF  07B2               	addwf	___fladd@bexp,f
  4169  0ED0  2F85               	goto	l3334
  4170  0ED1                     l3300:
  4171  0ED1  0823               	movf	___fladd@b+3,w
  4172  0ED2  3A80               	xorlw	128
  4173  0ED3  00FF               	movwf	btemp+1
  4174  0ED4  0827               	movf	___fladd@a+3,w
  4175  0ED5  3A80               	xorlw	128
  4176  0ED6  027F               	subwf	btemp+1,w
  4177  0ED7  1D03               	skipz
  4178  0ED8  2EE3               	goto	u4383
  4179  0ED9  0826               	movf	___fladd@a+2,w
  4180  0EDA  0222               	subwf	___fladd@b+2,w
  4181  0EDB  1D03               	skipz
  4182  0EDC  2EE3               	goto	u4383
  4183  0EDD  0825               	movf	___fladd@a+1,w
  4184  0EDE  0221               	subwf	___fladd@b+1,w
  4185  0EDF  1D03               	skipz
  4186  0EE0  2EE3               	goto	u4383
  4187  0EE1  0824               	movf	___fladd@a,w
  4188  0EE2  0220               	subwf	___fladd@b,w
  4189  0EE3                     u4383:
  4190  0EE3  1803               	skipnc
  4191  0EE4  2EE6               	goto	u4381
  4192  0EE5  2EE7               	goto	u4380
  4193  0EE6                     u4381:
  4194  0EE6  2F3F               	goto	l3310
  4195  0EE7                     u4380:
  4196  0EE7                     l3302:
  4197  0EE7  30FF               	movlw	255
  4198  0EE8  00A8               	movwf	??___fladd
  4199  0EE9  30FF               	movlw	255
  4200  0EEA  00A9               	movwf	??___fladd+1
  4201  0EEB  30FF               	movlw	255
  4202  0EEC  00AA               	movwf	??___fladd+2
  4203  0EED  30FF               	movlw	255
  4204  0EEE  00AB               	movwf	??___fladd+3
  4205  0EEF  0824               	movf	___fladd@a,w
  4206  0EF0  00AC               	movwf	??___fladd+4
  4207  0EF1  0825               	movf	___fladd@a+1,w
  4208  0EF2  00AD               	movwf	??___fladd+5
  4209  0EF3  0826               	movf	___fladd@a+2,w
  4210  0EF4  00AE               	movwf	??___fladd+6
  4211  0EF5  0827               	movf	___fladd@a+3,w
  4212  0EF6  00AF               	movwf	??___fladd+7
  4213  0EF7  0820               	movf	___fladd@b,w
  4214  0EF8  02AC               	subwf	??___fladd+4,f
  4215  0EF9  0821               	movf	___fladd@b+1,w
  4216  0EFA  1C03               	skipc
  4217  0EFB  0F21               	incfsz	___fladd@b+1,w
  4218  0EFC  2EFE               	goto	u4391
  4219  0EFD  2EFF               	goto	u4392
  4220  0EFE                     u4391:
  4221  0EFE  02AD               	subwf	??___fladd+5,f
  4222  0EFF                     u4392:
  4223  0EFF  0822               	movf	___fladd@b+2,w
  4224  0F00  1C03               	skipc
  4225  0F01  0F22               	incfsz	___fladd@b+2,w
  4226  0F02  2F04               	goto	u4393
  4227  0F03  2F05               	goto	u4394
  4228  0F04                     u4393:
  4229  0F04  02AE               	subwf	??___fladd+6,f
  4230  0F05                     u4394:
  4231  0F05  0823               	movf	___fladd@b+3,w
  4232  0F06  1C03               	skipc
  4233  0F07  0F23               	incfsz	___fladd@b+3,w
  4234  0F08  2F0A               	goto	u4395
  4235  0F09  2F0B               	goto	u4396
  4236  0F0A                     u4395:
  4237  0F0A  02AF               	subwf	??___fladd+7,f
  4238  0F0B                     u4396:
  4239  0F0B  082C               	movf	??___fladd+4,w
  4240  0F0C  07A8               	addwf	??___fladd,f
  4241  0F0D  082D               	movf	??___fladd+5,w
  4242  0F0E  1803               	skipnc
  4243  0F0F  0F2D               	incfsz	??___fladd+5,w
  4244  0F10  2F12               	goto	u4400
  4245  0F11  2F13               	goto	u4401
  4246  0F12                     u4400:
  4247  0F12  07A9               	addwf	??___fladd+1,f
  4248  0F13                     u4401:
  4249  0F13  082E               	movf	??___fladd+6,w
  4250  0F14  1803               	skipnc
  4251  0F15  0F2E               	incfsz	??___fladd+6,w
  4252  0F16  2F18               	goto	u4402
  4253  0F17  2F19               	goto	u4403
  4254  0F18                     u4402:
  4255  0F18  07AA               	addwf	??___fladd+2,f
  4256  0F19                     u4403:
  4257  0F19  082F               	movf	??___fladd+7,w
  4258  0F1A  1803               	skipnc
  4259  0F1B  0A2F               	incf	??___fladd+7,w
  4260  0F1C  07AB               	addwf	??___fladd+3,f
  4261  0F1D  082B               	movf	??___fladd+3,w
  4262  0F1E  00A3               	movwf	___fladd@b+3
  4263  0F1F  082A               	movf	??___fladd+2,w
  4264  0F20  00A2               	movwf	___fladd@b+2
  4265  0F21  0829               	movf	??___fladd+1,w
  4266  0F22  00A1               	movwf	___fladd@b+1
  4267  0F23  0828               	movf	??___fladd,w
  4268  0F24  00A0               	movwf	___fladd@b
  4269  0F25                     l3304:
  4270  0F25  3080               	movlw	128
  4271  0F26  00A8               	movwf	??___fladd
  4272  0F27  0828               	movf	??___fladd,w
  4273  0F28  06B0               	xorwf	___fladd@signs,f
  4274  0F29  09B3               	comf	___fladd@grs,f
  4275  0F2A  0AB3               	incf	___fladd@grs,f
  4276  0F2B                     l3306:
  4277  0F2B  0833               	movf	___fladd@grs,w
  4278  0F2C  1D03               	btfss	3,2
  4279  0F2D  2F2F               	goto	u4411
  4280  0F2E  2F30               	goto	u4410
  4281  0F2F                     u4411:
  4282  0F2F  2F4D               	goto	l690
  4283  0F30                     u4410:
  4284  0F30                     l3308:
  4285  0F30  3001               	movlw	1
  4286  0F31  07A0               	addwf	___fladd@b,f
  4287  0F32  3000               	movlw	0
  4288  0F33  1803               	skipnc
  4289  0F34  3001               	movlw	1
  4290  0F35  07A1               	addwf	___fladd@b+1,f
  4291  0F36  3000               	movlw	0
  4292  0F37  1803               	skipnc
  4293  0F38  3001               	movlw	1
  4294  0F39  07A2               	addwf	___fladd@b+2,f
  4295  0F3A  3000               	movlw	0
  4296  0F3B  1803               	skipnc
  4297  0F3C  3001               	movlw	1
  4298  0F3D  07A3               	addwf	___fladd@b+3,f
  4299  0F3E  2F4D               	goto	l690
  4300  0F3F                     l3310:
  4301  0F3F  0824               	movf	___fladd@a,w
  4302  0F40  02A0               	subwf	___fladd@b,f
  4303  0F41  0825               	movf	___fladd@a+1,w
  4304  0F42  1C03               	skipc
  4305  0F43  0F25               	incfsz	___fladd@a+1,w
  4306  0F44  02A1               	subwf	___fladd@b+1,f
  4307  0F45  0826               	movf	___fladd@a+2,w
  4308  0F46  1C03               	skipc
  4309  0F47  0F26               	incfsz	___fladd@a+2,w
  4310  0F48  02A2               	subwf	___fladd@b+2,f
  4311  0F49  0827               	movf	___fladd@a+3,w
  4312  0F4A  1C03               	skipc
  4313  0F4B  0F27               	incfsz	___fladd@a+3,w
  4314  0F4C  02A3               	subwf	___fladd@b+3,f
  4315  0F4D                     l690:
  4316  0F4D  0823               	movf	___fladd@b+3,w
  4317  0F4E  0422               	iorwf	___fladd@b+2,w
  4318  0F4F  0421               	iorwf	___fladd@b+1,w
  4319  0F50  0420               	iorwf	___fladd@b,w
  4320  0F51  1D03               	skipz
  4321  0F52  2F54               	goto	u4421
  4322  0F53  2F55               	goto	u4420
  4323  0F54                     u4421:
  4324  0F54  2F81               	goto	l3332
  4325  0F55                     u4420:
  4326  0F55                     l3312:
  4327  0F55  0833               	movf	___fladd@grs,w
  4328  0F56  1D03               	btfss	3,2
  4329  0F57  2F59               	goto	u4431
  4330  0F58  2F5A               	goto	u4430
  4331  0F59                     u4431:
  4332  0F59  2F81               	goto	l3332
  4333  0F5A                     u4430:
  4334  0F5A                     l3314:
  4335  0F5A  3000               	movlw	0
  4336  0F5B  00A3               	movwf	?___fladd+3
  4337  0F5C  3000               	movlw	0
  4338  0F5D  00A2               	movwf	?___fladd+2
  4339  0F5E  3000               	movlw	0
  4340  0F5F  00A1               	movwf	?___fladd+1
  4341  0F60  3000               	movlw	0
  4342  0F61  00A0               	movwf	?___fladd
  4343  0F62  2FFF               	goto	l682
  4344  0F63                     l3318:
  4345  0F63  3001               	movlw	1
  4346  0F64  00A8               	movwf	??___fladd
  4347  0F65                     u4445:
  4348  0F65  1003               	clrc
  4349  0F66  0DA0               	rlf	___fladd@b,f
  4350  0F67  0DA1               	rlf	___fladd@b+1,f
  4351  0F68  0DA2               	rlf	___fladd@b+2,f
  4352  0F69  0DA3               	rlf	___fladd@b+3,f
  4353  0F6A  0BA8               	decfsz	??___fladd,f
  4354  0F6B  2F65               	goto	u4445
  4355  0F6C                     l3320:
  4356  0F6C  1FB3               	btfss	___fladd@grs,7
  4357  0F6D  2F6F               	goto	u4451
  4358  0F6E  2F70               	goto	u4450
  4359  0F6F                     u4451:
  4360  0F6F  2F71               	goto	l694
  4361  0F70                     u4450:
  4362  0F70                     l3322:
  4363  0F70  1420               	bsf	___fladd@b,0
  4364  0F71                     l694:
  4365  0F71  1C33               	btfss	___fladd@grs,0
  4366  0F72  2F74               	goto	u4461
  4367  0F73  2F75               	goto	u4460
  4368  0F74                     u4461:
  4369  0F74  2F78               	goto	l3326
  4370  0F75                     u4460:
  4371  0F75                     l3324:
  4372  0F75  1403               	setc
  4373  0F76  0DB3               	rlf	___fladd@grs,f
  4374  0F77  2F7A               	goto	l3328
  4375  0F78                     l3326:
  4376  0F78  1003               	clrc
  4377  0F79  0DB3               	rlf	___fladd@grs,f
  4378  0F7A                     l3328:
  4379  0F7A  0832               	movf	___fladd@bexp,w
  4380  0F7B  1903               	btfsc	3,2
  4381  0F7C  2F7E               	goto	u4471
  4382  0F7D  2F7F               	goto	u4470
  4383  0F7E                     u4471:
  4384  0F7E  2F81               	goto	l3332
  4385  0F7F                     u4470:
  4386  0F7F                     l3330:
  4387  0F7F  3001               	movlw	1
  4388  0F80  02B2               	subwf	___fladd@bexp,f
  4389  0F81                     l3332:
  4390  0F81  1FA2               	btfss	___fladd@b+2,7
  4391  0F82  2F84               	goto	u4481
  4392  0F83  2F85               	goto	u4480
  4393  0F84                     u4481:
  4394  0F84  2F63               	goto	l3318
  4395  0F85                     u4480:
  4396  0F85                     l3334:
  4397  0F85  01B1               	clrf	___fladd@aexp
  4398  0F86                     l3336:
  4399  0F86  1FB3               	btfss	___fladd@grs,7
  4400  0F87  2F89               	goto	u4491
  4401  0F88  2F8A               	goto	u4490
  4402  0F89                     u4491:
  4403  0F89  2F98               	goto	l3344
  4404  0F8A                     u4490:
  4405  0F8A                     l3338:
  4406  0F8A  0833               	movf	___fladd@grs,w
  4407  0F8B  397F               	andlw	127
  4408  0F8C  1903               	btfsc	3,2
  4409  0F8D  2F8F               	goto	u4501
  4410  0F8E  2F90               	goto	u4500
  4411  0F8F                     u4501:
  4412  0F8F  2F93               	goto	l700
  4413  0F90                     u4500:
  4414  0F90                     l3340:
  4415  0F90  01B1               	clrf	___fladd@aexp
  4416  0F91  0AB1               	incf	___fladd@aexp,f
  4417  0F92  2F98               	goto	l3344
  4418  0F93                     l700:
  4419  0F93  1C20               	btfss	___fladd@b,0
  4420  0F94  2F96               	goto	u4511
  4421  0F95  2F97               	goto	u4510
  4422  0F96                     u4511:
  4423  0F96  2F98               	goto	l3344
  4424  0F97                     u4510:
  4425  0F97  2F90               	goto	l3340
  4426  0F98                     l3344:
  4427  0F98  0831               	movf	___fladd@aexp,w
  4428  0F99  1903               	btfsc	3,2
  4429  0F9A  2F9C               	goto	u4521
  4430  0F9B  2F9D               	goto	u4520
  4431  0F9C                     u4521:
  4432  0F9C  2FD1               	goto	l703
  4433  0F9D                     u4520:
  4434  0F9D                     l3346:
  4435  0F9D  3001               	movlw	1
  4436  0F9E  07A0               	addwf	___fladd@b,f
  4437  0F9F  3000               	movlw	0
  4438  0FA0  1803               	skipnc
  4439  0FA1  3001               	movlw	1
  4440  0FA2  07A1               	addwf	___fladd@b+1,f
  4441  0FA3  3000               	movlw	0
  4442  0FA4  1803               	skipnc
  4443  0FA5  3001               	movlw	1
  4444  0FA6  07A2               	addwf	___fladd@b+2,f
  4445  0FA7  3000               	movlw	0
  4446  0FA8  1803               	skipnc
  4447  0FA9  3001               	movlw	1
  4448  0FAA  07A3               	addwf	___fladd@b+3,f
  4449  0FAB                     l3348:
  4450  0FAB  1C23               	btfss	___fladd@b+3,0
  4451  0FAC  2FAE               	goto	u4531
  4452  0FAD  2FAF               	goto	u4530
  4453  0FAE                     u4531:
  4454  0FAE  2FD1               	goto	l703
  4455  0FAF                     u4530:
  4456  0FAF                     l3350:
  4457  0FAF  0820               	movf	___fladd@b,w
  4458  0FB0  00A8               	movwf	??___fladd
  4459  0FB1  0821               	movf	___fladd@b+1,w
  4460  0FB2  00A9               	movwf	??___fladd+1
  4461  0FB3  0822               	movf	___fladd@b+2,w
  4462  0FB4  00AA               	movwf	??___fladd+2
  4463  0FB5  0823               	movf	___fladd@b+3,w
  4464  0FB6  00AB               	movwf	??___fladd+3
  4465  0FB7  3001               	movlw	1
  4466  0FB8  00AC               	movwf	??___fladd+4
  4467  0FB9                     u4545:
  4468  0FB9  0D2B               	rlf	??___fladd+3,w
  4469  0FBA  0CAB               	rrf	??___fladd+3,f
  4470  0FBB  0CAA               	rrf	??___fladd+2,f
  4471  0FBC  0CA9               	rrf	??___fladd+1,f
  4472  0FBD  0CA8               	rrf	??___fladd,f
  4473  0FBE                     u4540:
  4474  0FBE  0BAC               	decfsz	??___fladd+4,f
  4475  0FBF  2FB9               	goto	u4545
  4476  0FC0  082B               	movf	??___fladd+3,w
  4477  0FC1  00A3               	movwf	___fladd@b+3
  4478  0FC2  082A               	movf	??___fladd+2,w
  4479  0FC3  00A2               	movwf	___fladd@b+2
  4480  0FC4  0829               	movf	??___fladd+1,w
  4481  0FC5  00A1               	movwf	___fladd@b+1
  4482  0FC6  0828               	movf	??___fladd,w
  4483  0FC7  00A0               	movwf	___fladd@b
  4484  0FC8  0A32               	incf	___fladd@bexp,w
  4485  0FC9  1903               	btfsc	3,2
  4486  0FCA  2FCC               	goto	u4551
  4487  0FCB  2FCD               	goto	u4550
  4488  0FCC                     u4551:
  4489  0FCC  2FD1               	goto	l703
  4490  0FCD                     u4550:
  4491  0FCD                     l3352:
  4492  0FCD  3001               	movlw	1
  4493  0FCE  00A8               	movwf	??___fladd
  4494  0FCF  0828               	movf	??___fladd,w
  4495  0FD0  07B2               	addwf	___fladd@bexp,f
  4496  0FD1                     l703:
  4497  0FD1  0A32               	incf	___fladd@bexp,w
  4498  0FD2  1903               	btfsc	3,2
  4499  0FD3  2FD5               	goto	u4561
  4500  0FD4  2FD6               	goto	u4560
  4501  0FD5                     u4561:
  4502  0FD5  2FDB               	goto	l3356
  4503  0FD6                     u4560:
  4504  0FD6                     l3354:
  4505  0FD6  0832               	movf	___fladd@bexp,w
  4506  0FD7  1D03               	btfss	3,2
  4507  0FD8  2FDA               	goto	u4571
  4508  0FD9  2FDB               	goto	u4570
  4509  0FDA                     u4571:
  4510  0FDA  2FE9               	goto	l3362
  4511  0FDB                     u4570:
  4512  0FDB                     l3356:
  4513  0FDB  3000               	movlw	0
  4514  0FDC  00A3               	movwf	___fladd@b+3
  4515  0FDD  3000               	movlw	0
  4516  0FDE  00A2               	movwf	___fladd@b+2
  4517  0FDF  3000               	movlw	0
  4518  0FE0  00A1               	movwf	___fladd@b+1
  4519  0FE1  3000               	movlw	0
  4520  0FE2  00A0               	movwf	___fladd@b
  4521  0FE3                     l3358:
  4522  0FE3  0832               	movf	___fladd@bexp,w
  4523  0FE4  1D03               	btfss	3,2
  4524  0FE5  2FE7               	goto	u4581
  4525  0FE6  2FE8               	goto	u4580
  4526  0FE7                     u4581:
  4527  0FE7  2FE9               	goto	l3362
  4528  0FE8                     u4580:
  4529  0FE8                     l3360:
  4530  0FE8  01B0               	clrf	___fladd@signs
  4531  0FE9                     l3362:
  4532  0FE9  1C32               	btfss	___fladd@bexp,0
  4533  0FEA  2FEC               	goto	u4591
  4534  0FEB  2FED               	goto	u4590
  4535  0FEC                     u4591:
  4536  0FEC  2FEF               	goto	l3366
  4537  0FED                     u4590:
  4538  0FED                     l3364:
  4539  0FED  17A2               	bsf	___fladd@b+2,7
  4540  0FEE  2FF3               	goto	l711
  4541  0FEF                     l3366:
  4542  0FEF  307F               	movlw	127
  4543  0FF0  00A8               	movwf	??___fladd
  4544  0FF1  0828               	movf	??___fladd,w
  4545  0FF2  05A2               	andwf	___fladd@b+2,f
  4546  0FF3                     l711:
  4547  0FF3  0832               	movf	___fladd@bexp,w
  4548  0FF4  00A8               	movwf	??___fladd
  4549  0FF5  1003               	clrc
  4550  0FF6  0C28               	rrf	??___fladd,w
  4551  0FF7  00A9               	movwf	??___fladd+1
  4552  0FF8  0829               	movf	??___fladd+1,w
  4553  0FF9  00A3               	movwf	___fladd@b+3
  4554  0FFA                     l3368:
  4555  0FFA  1FB0               	btfss	___fladd@signs,7
  4556  0FFB  2FFD               	goto	u4601
  4557  0FFC  2FFE               	goto	u4600
  4558  0FFD                     u4601:
  4559  0FFD  2FFF               	goto	l712
  4560  0FFE                     u4600:
  4561  0FFE                     l3370:
  4562  0FFE  17A3               	bsf	___fladd@b+3,7
  4563  0FFF                     l712:
  4564  0FFF                     l682:
  4565  0FFF  0008               	return
  4566  1000                     __end_of___fladd:
  4567                           
  4568                           	psect	text12
  4569  090D                     __ptext12:	
  4570 ;; *************** function _CENTENA *****************
  4571 ;; Defined at:
  4572 ;;		line 13 in file "LCD.c"
  4573 ;; Parameters:    Size  Location     Type
  4574 ;;  c               1    wreg     unsigned char 
  4575 ;; Auto vars:     Size  Location     Type
  4576 ;;  c               1   77[BANK0 ] unsigned char 
  4577 ;; Return value:  Size  Location     Type
  4578 ;;                  1    wreg      unsigned char 
  4579 ;; Registers used:
  4580 ;;		wreg, status,2, status,0, btemp+1, pclath, cstack
  4581 ;; Tracked objects:
  4582 ;;		On entry : 0/0
  4583 ;;		On exit  : 0/0
  4584 ;;		Unchanged: 0/0
  4585 ;; Data sizes:     COMMON   BANK0   BANK1   BANK3   BANK2
  4586 ;;      Params:         0       0       0       0       0
  4587 ;;      Locals:         0       1       0       0       0
  4588 ;;      Temps:          0       0       5       0       0
  4589 ;;      Totals:         0       1       5       0       0
  4590 ;;Total ram usage:        6 bytes
  4591 ;; Hardware stack levels used: 1
  4592 ;; Hardware stack levels required when called: 3
  4593 ;; This function calls:
  4594 ;;		___fldiv
  4595 ;;		___flmul
  4596 ;;		___fltol
  4597 ;;		___xxtofl
  4598 ;; This function is called by:
  4599 ;;		_main
  4600 ;;		_DECENA
  4601 ;;		_UNIDAD
  4602 ;; This function uses a non-reentrant model
  4603 ;;
  4604                           
  4605  090D                     _CENTENA:	
  4606                           ;psect for function _CENTENA
  4607                           
  4608                           
  4609                           ;incstack = 0
  4610                           ; Regs used in _CENTENA: [wreg+status,2+status,0+btemp+1+pclath+cstack]
  4611                           ;CENTENA@c stored from wreg
  4612  090D  1283               	bcf	3,5	;RP0=0, select bank0
  4613  090E  1303               	bcf	3,6	;RP1=0, select bank0
  4614  090F  00ED               	movwf	CENTENA@c
  4615  0910                     l3556:
  4616                           
  4617                           ;LCD.c: 14:     c = (uint8_t)((c*1.9607)/100);
  4618  0910  086D               	movf	CENTENA@c,w
  4619  0911  1683               	bsf	3,5	;RP0=1, select bank1
  4620  0912  1303               	bcf	3,6	;RP1=0, select bank1
  4621  0913  00A0               	movwf	??_CENTENA^(0+128)
  4622  0914  01A1               	clrf	(??_CENTENA^(0+128)+1)
  4623  0915  01A2               	clrf	(??_CENTENA^(0+128)+2)
  4624  0916  01A3               	clrf	(??_CENTENA^(0+128)+3)
  4625  0917  0823               	movf	(??_CENTENA+3)^(0+128),w
  4626  0918  1283               	bcf	3,5	;RP0=0, select bank0
  4627  0919  1303               	bcf	3,6	;RP1=0, select bank0
  4628  091A  00A3               	movwf	___xxtofl@val+3
  4629  091B  1683               	bsf	3,5	;RP0=1, select bank1
  4630  091C  1303               	bcf	3,6	;RP1=0, select bank1
  4631  091D  0822               	movf	(??_CENTENA+2)^(0+128),w
  4632  091E  1283               	bcf	3,5	;RP0=0, select bank0
  4633  091F  1303               	bcf	3,6	;RP1=0, select bank0
  4634  0920  00A2               	movwf	___xxtofl@val+2
  4635  0921  1683               	bsf	3,5	;RP0=1, select bank1
  4636  0922  1303               	bcf	3,6	;RP1=0, select bank1
  4637  0923  0821               	movf	(??_CENTENA+1)^(0+128),w
  4638  0924  1283               	bcf	3,5	;RP0=0, select bank0
  4639  0925  1303               	bcf	3,6	;RP1=0, select bank0
  4640  0926  00A1               	movwf	___xxtofl@val+1
  4641  0927  1683               	bsf	3,5	;RP0=1, select bank1
  4642  0928  1303               	bcf	3,6	;RP1=0, select bank1
  4643  0929  0820               	movf	??_CENTENA^(0+128),w
  4644  092A  1283               	bcf	3,5	;RP0=0, select bank0
  4645  092B  1303               	bcf	3,6	;RP1=0, select bank0
  4646  092C  00A0               	movwf	___xxtofl@val
  4647  092D  3001               	movlw	1
  4648  092E  120A  158A  21F8  120A  158A  	fcall	___xxtofl
  4649  0933  1283               	bcf	3,5	;RP0=0, select bank0
  4650  0934  1303               	bcf	3,6	;RP1=0, select bank0
  4651  0935  0823               	movf	?___xxtofl+3,w
  4652  0936  00B5               	movwf	___flmul@a+3
  4653  0937  0822               	movf	?___xxtofl+2,w
  4654  0938  00B4               	movwf	___flmul@a+2
  4655  0939  0821               	movf	?___xxtofl+1,w
  4656  093A  00B3               	movwf	___flmul@a+1
  4657  093B  0820               	movf	?___xxtofl,w
  4658  093C  00B2               	movwf	___flmul@a
  4659  093D  303F               	movlw	63
  4660  093E  00B1               	movwf	___flmul@b+3
  4661  093F  30FA               	movlw	250
  4662  0940  00B0               	movwf	___flmul@b+2
  4663  0941  30F8               	movlw	248
  4664  0942  00AF               	movwf	___flmul@b+1
  4665  0943  3038               	movlw	56
  4666  0944  00AE               	movwf	___flmul@b
  4667  0945  120A  118A  2022  120A  158A  	fcall	___flmul
  4668  094A  1283               	bcf	3,5	;RP0=0, select bank0
  4669  094B  1303               	bcf	3,6	;RP1=0, select bank0
  4670  094C  0831               	movf	?___flmul+3,w
  4671  094D  00CF               	movwf	___fldiv@b+3
  4672  094E  0830               	movf	?___flmul+2,w
  4673  094F  00CE               	movwf	___fldiv@b+2
  4674  0950  082F               	movf	?___flmul+1,w
  4675  0951  00CD               	movwf	___fldiv@b+1
  4676  0952  082E               	movf	?___flmul,w
  4677  0953  00CC               	movwf	___fldiv@b
  4678  0954  3042               	movlw	66
  4679  0955  00CB               	movwf	___fldiv@a+3
  4680  0956  30C8               	movlw	200
  4681  0957  00CA               	movwf	___fldiv@a+2
  4682  0958  3000               	movlw	0
  4683  0959  00C9               	movwf	___fldiv@a+1
  4684  095A  3000               	movlw	0
  4685  095B  00C8               	movwf	___fldiv@a
  4686  095C  120A  158A  239B  120A  158A  	fcall	___fldiv
  4687  0961  1283               	bcf	3,5	;RP0=0, select bank0
  4688  0962  1303               	bcf	3,6	;RP1=0, select bank0
  4689  0963  084B               	movf	?___fldiv+3,w
  4690  0964  00E5               	movwf	___fltol@f1+3
  4691  0965  084A               	movf	?___fldiv+2,w
  4692  0966  00E4               	movwf	___fltol@f1+2
  4693  0967  0849               	movf	?___fldiv+1,w
  4694  0968  00E3               	movwf	___fltol@f1+1
  4695  0969  0848               	movf	?___fldiv,w
  4696  096A  00E2               	movwf	___fltol@f1
  4697  096B  120A  158A  217C  120A  158A  	fcall	___fltol
  4698  0970  1283               	bcf	3,5	;RP0=0, select bank0
  4699  0971  1303               	bcf	3,6	;RP1=0, select bank0
  4700  0972  0862               	movf	?___fltol,w
  4701  0973  1683               	bsf	3,5	;RP0=1, select bank1
  4702  0974  1303               	bcf	3,6	;RP1=0, select bank1
  4703  0975  00A4               	movwf	(??_CENTENA+4)^(0+128)
  4704  0976  0824               	movf	(??_CENTENA+4)^(0+128),w
  4705  0977  1283               	bcf	3,5	;RP0=0, select bank0
  4706  0978  1303               	bcf	3,6	;RP1=0, select bank0
  4707  0979  00ED               	movwf	CENTENA@c
  4708  097A                     l3558:
  4709                           
  4710                           ;LCD.c: 15:     return c;
  4711  097A  086D               	movf	CENTENA@c,w
  4712  097B                     l187:
  4713  097B  0008               	return
  4714  097C                     __end_of_CENTENA:
  4715                           
  4716                           	psect	text13
  4717  09F8                     __ptext13:	
  4718 ;; *************** function ___xxtofl *****************
  4719 ;; Defined at:
  4720 ;;		line 10 in file "C:\Program Files\Microchip\xc8\v2.35\pic\sources\c90\common\xxtofl.c"
  4721 ;; Parameters:    Size  Location     Type
  4722 ;;  sign            1    wreg     unsigned char 
  4723 ;;  val             4    0[BANK0 ] long 
  4724 ;; Auto vars:     Size  Location     Type
  4725 ;;  sign            1    8[BANK0 ] unsigned char 
  4726 ;;  arg             4   10[BANK0 ] unsigned long 
  4727 ;;  exp             1    9[BANK0 ] unsigned char 
  4728 ;; Return value:  Size  Location     Type
  4729 ;;                  4    0[BANK0 ] unsigned char 
  4730 ;; Registers used:
  4731 ;;		wreg, status,2, status,0
  4732 ;; Tracked objects:
  4733 ;;		On entry : 0/0
  4734 ;;		On exit  : 0/0
  4735 ;;		Unchanged: 0/0
  4736 ;; Data sizes:     COMMON   BANK0   BANK1   BANK3   BANK2
  4737 ;;      Params:         0       4       0       0       0
  4738 ;;      Locals:         0       6       0       0       0
  4739 ;;      Temps:          0       4       0       0       0
  4740 ;;      Totals:         0      14       0       0       0
  4741 ;;Total ram usage:       14 bytes
  4742 ;; Hardware stack levels used: 1
  4743 ;; Hardware stack levels required when called: 1
  4744 ;; This function calls:
  4745 ;;		Nothing
  4746 ;; This function is called by:
  4747 ;;		_CENTENA
  4748 ;;		_DECENA
  4749 ;;		_UNIDAD
  4750 ;; This function uses a non-reentrant model
  4751 ;;
  4752                           
  4753  09F8                     ___xxtofl:	
  4754                           ;psect for function ___xxtofl
  4755                           
  4756                           
  4757                           ;incstack = 0
  4758                           ; Regs used in ___xxtofl: [wreg+status,2+status,0]
  4759                           ;___xxtofl@sign stored from wreg
  4760  09F8  1283               	bcf	3,5	;RP0=0, select bank0
  4761  09F9  1303               	bcf	3,6	;RP1=0, select bank0
  4762  09FA  00A8               	movwf	___xxtofl@sign
  4763  09FB                     l3512:
  4764  09FB  0828               	movf	___xxtofl@sign,w
  4765  09FC  1903               	btfsc	3,2
  4766  09FD  29FF               	goto	u4981
  4767  09FE  2A00               	goto	u4980
  4768  09FF                     u4981:
  4769  09FF  2A14               	goto	l3518
  4770  0A00                     u4980:
  4771  0A00                     l3514:
  4772  0A00  1FA3               	btfss	___xxtofl@val+3,7
  4773  0A01  2A03               	goto	u4991
  4774  0A02  2A04               	goto	u4990
  4775  0A03                     u4991:
  4776  0A03  2A14               	goto	l3518
  4777  0A04                     u4990:
  4778  0A04                     l3516:
  4779  0A04  0920               	comf	___xxtofl@val,w
  4780  0A05  00AA               	movwf	___xxtofl@arg
  4781  0A06  0921               	comf	___xxtofl@val+1,w
  4782  0A07  00AB               	movwf	___xxtofl@arg+1
  4783  0A08  0922               	comf	___xxtofl@val+2,w
  4784  0A09  00AC               	movwf	___xxtofl@arg+2
  4785  0A0A  0923               	comf	___xxtofl@val+3,w
  4786  0A0B  00AD               	movwf	___xxtofl@arg+3
  4787  0A0C  0AAA               	incf	___xxtofl@arg,f
  4788  0A0D  1903               	skipnz
  4789  0A0E  0AAB               	incf	___xxtofl@arg+1,f
  4790  0A0F  1903               	skipnz
  4791  0A10  0AAC               	incf	___xxtofl@arg+2,f
  4792  0A11  1903               	skipnz
  4793  0A12  0AAD               	incf	___xxtofl@arg+3,f
  4794  0A13  2A1C               	goto	l809
  4795  0A14                     l3518:
  4796  0A14  0823               	movf	___xxtofl@val+3,w
  4797  0A15  00AD               	movwf	___xxtofl@arg+3
  4798  0A16  0822               	movf	___xxtofl@val+2,w
  4799  0A17  00AC               	movwf	___xxtofl@arg+2
  4800  0A18  0821               	movf	___xxtofl@val+1,w
  4801  0A19  00AB               	movwf	___xxtofl@arg+1
  4802  0A1A  0820               	movf	___xxtofl@val,w
  4803  0A1B  00AA               	movwf	___xxtofl@arg
  4804  0A1C                     l809:
  4805  0A1C  0823               	movf	___xxtofl@val+3,w
  4806  0A1D  0422               	iorwf	___xxtofl@val+2,w
  4807  0A1E  0421               	iorwf	___xxtofl@val+1,w
  4808  0A1F  0420               	iorwf	___xxtofl@val,w
  4809  0A20  1D03               	skipz
  4810  0A21  2A23               	goto	u5001
  4811  0A22  2A24               	goto	u5000
  4812  0A23                     u5001:
  4813  0A23  2A2D               	goto	l3524
  4814  0A24                     u5000:
  4815  0A24                     l3520:
  4816  0A24  3000               	movlw	0
  4817  0A25  00A3               	movwf	?___xxtofl+3
  4818  0A26  3000               	movlw	0
  4819  0A27  00A2               	movwf	?___xxtofl+2
  4820  0A28  3000               	movlw	0
  4821  0A29  00A1               	movwf	?___xxtofl+1
  4822  0A2A  3000               	movlw	0
  4823  0A2B  00A0               	movwf	?___xxtofl
  4824  0A2C  2AB3               	goto	l811
  4825  0A2D                     l3524:
  4826  0A2D  3096               	movlw	150
  4827  0A2E  00A4               	movwf	??___xxtofl
  4828  0A2F  0824               	movf	??___xxtofl,w
  4829  0A30  00A9               	movwf	___xxtofl@exp
  4830  0A31  2A3F               	goto	l3528
  4831  0A32                     l3526:
  4832  0A32  3001               	movlw	1
  4833  0A33  00A4               	movwf	??___xxtofl
  4834  0A34  0824               	movf	??___xxtofl,w
  4835  0A35  07A9               	addwf	___xxtofl@exp,f
  4836  0A36  3001               	movlw	1
  4837  0A37                     u5015:
  4838  0A37  1003               	clrc
  4839  0A38  0CAD               	rrf	___xxtofl@arg+3,f
  4840  0A39  0CAC               	rrf	___xxtofl@arg+2,f
  4841  0A3A  0CAB               	rrf	___xxtofl@arg+1,f
  4842  0A3B  0CAA               	rrf	___xxtofl@arg,f
  4843  0A3C  3EFF               	addlw	-1
  4844  0A3D  1D03               	skipz
  4845  0A3E  2A37               	goto	u5015
  4846  0A3F                     l3528:
  4847  0A3F  30FE               	movlw	254
  4848  0A40  052D               	andwf	___xxtofl@arg+3,w
  4849  0A41  1D03               	btfss	3,2
  4850  0A42  2A44               	goto	u5021
  4851  0A43  2A45               	goto	u5020
  4852  0A44                     u5021:
  4853  0A44  2A32               	goto	l3526
  4854  0A45                     u5020:
  4855  0A45  2A61               	goto	l815
  4856  0A46                     l3530:
  4857  0A46  3001               	movlw	1
  4858  0A47  00A4               	movwf	??___xxtofl
  4859  0A48  0824               	movf	??___xxtofl,w
  4860  0A49  07A9               	addwf	___xxtofl@exp,f
  4861  0A4A                     l3532:
  4862  0A4A  3001               	movlw	1
  4863  0A4B  07AA               	addwf	___xxtofl@arg,f
  4864  0A4C  3000               	movlw	0
  4865  0A4D  1803               	skipnc
  4866  0A4E  3001               	movlw	1
  4867  0A4F  07AB               	addwf	___xxtofl@arg+1,f
  4868  0A50  3000               	movlw	0
  4869  0A51  1803               	skipnc
  4870  0A52  3001               	movlw	1
  4871  0A53  07AC               	addwf	___xxtofl@arg+2,f
  4872  0A54  3000               	movlw	0
  4873  0A55  1803               	skipnc
  4874  0A56  3001               	movlw	1
  4875  0A57  07AD               	addwf	___xxtofl@arg+3,f
  4876  0A58                     l3534:
  4877  0A58  3001               	movlw	1
  4878  0A59                     u5035:
  4879  0A59  1003               	clrc
  4880  0A5A  0CAD               	rrf	___xxtofl@arg+3,f
  4881  0A5B  0CAC               	rrf	___xxtofl@arg+2,f
  4882  0A5C  0CAB               	rrf	___xxtofl@arg+1,f
  4883  0A5D  0CAA               	rrf	___xxtofl@arg,f
  4884  0A5E  3EFF               	addlw	-1
  4885  0A5F  1D03               	skipz
  4886  0A60  2A59               	goto	u5035
  4887  0A61                     l815:
  4888  0A61  30FF               	movlw	255
  4889  0A62  052D               	andwf	___xxtofl@arg+3,w
  4890  0A63  1D03               	btfss	3,2
  4891  0A64  2A66               	goto	u5041
  4892  0A65  2A67               	goto	u5040
  4893  0A66                     u5041:
  4894  0A66  2A46               	goto	l3530
  4895  0A67                     u5040:
  4896  0A67  2A73               	goto	l3538
  4897  0A68                     l3536:
  4898  0A68  3001               	movlw	1
  4899  0A69  02A9               	subwf	___xxtofl@exp,f
  4900  0A6A  3001               	movlw	1
  4901  0A6B  00A4               	movwf	??___xxtofl
  4902  0A6C                     u5055:
  4903  0A6C  1003               	clrc
  4904  0A6D  0DAA               	rlf	___xxtofl@arg,f
  4905  0A6E  0DAB               	rlf	___xxtofl@arg+1,f
  4906  0A6F  0DAC               	rlf	___xxtofl@arg+2,f
  4907  0A70  0DAD               	rlf	___xxtofl@arg+3,f
  4908  0A71  0BA4               	decfsz	??___xxtofl,f
  4909  0A72  2A6C               	goto	u5055
  4910  0A73                     l3538:
  4911  0A73  1BAC               	btfsc	___xxtofl@arg+2,7
  4912  0A74  2A76               	goto	u5061
  4913  0A75  2A77               	goto	u5060
  4914  0A76                     u5061:
  4915  0A76  2A7D               	goto	l822
  4916  0A77                     u5060:
  4917  0A77                     l3540:
  4918  0A77  3002               	movlw	2
  4919  0A78  0229               	subwf	___xxtofl@exp,w
  4920  0A79  1803               	skipnc
  4921  0A7A  2A7C               	goto	u5071
  4922  0A7B  2A7D               	goto	u5070
  4923  0A7C                     u5071:
  4924  0A7C  2A68               	goto	l3536
  4925  0A7D                     u5070:
  4926  0A7D                     l822:
  4927  0A7D  1829               	btfsc	___xxtofl@exp,0
  4928  0A7E  2A80               	goto	u5081
  4929  0A7F  2A81               	goto	u5080
  4930  0A80                     u5081:
  4931  0A80  2A89               	goto	l823
  4932  0A81                     u5080:
  4933  0A81                     l3542:
  4934  0A81  30FF               	movlw	255
  4935  0A82  05AA               	andwf	___xxtofl@arg,f
  4936  0A83  30FF               	movlw	255
  4937  0A84  05AB               	andwf	___xxtofl@arg+1,f
  4938  0A85  307F               	movlw	127
  4939  0A86  05AC               	andwf	___xxtofl@arg+2,f
  4940  0A87  30FF               	movlw	255
  4941  0A88  05AD               	andwf	___xxtofl@arg+3,f
  4942  0A89                     l823:
  4943  0A89  1003               	clrc
  4944  0A8A  0CA9               	rrf	___xxtofl@exp,f
  4945  0A8B                     l3544:
  4946  0A8B  0829               	movf	___xxtofl@exp,w
  4947  0A8C  00A4               	movwf	??___xxtofl
  4948  0A8D  01A5               	clrf	??___xxtofl+1
  4949  0A8E  01A6               	clrf	??___xxtofl+2
  4950  0A8F  01A7               	clrf	??___xxtofl+3
  4951  0A90  3018               	movlw	24
  4952  0A91                     u5095:
  4953  0A91  1003               	clrc
  4954  0A92  0DA4               	rlf	??___xxtofl,f
  4955  0A93  0DA5               	rlf	??___xxtofl+1,f
  4956  0A94  0DA6               	rlf	??___xxtofl+2,f
  4957  0A95  0DA7               	rlf	??___xxtofl+3,f
  4958  0A96                     u5090:
  4959  0A96  3EFF               	addlw	-1
  4960  0A97  1D03               	skipz
  4961  0A98  2A91               	goto	u5095
  4962  0A99  0824               	movf	??___xxtofl,w
  4963  0A9A  04AA               	iorwf	___xxtofl@arg,f
  4964  0A9B  0825               	movf	??___xxtofl+1,w
  4965  0A9C  04AB               	iorwf	___xxtofl@arg+1,f
  4966  0A9D  0826               	movf	??___xxtofl+2,w
  4967  0A9E  04AC               	iorwf	___xxtofl@arg+2,f
  4968  0A9F  0827               	movf	??___xxtofl+3,w
  4969  0AA0  04AD               	iorwf	___xxtofl@arg+3,f
  4970  0AA1                     l3546:
  4971  0AA1  0828               	movf	___xxtofl@sign,w
  4972  0AA2  1903               	btfsc	3,2
  4973  0AA3  2AA5               	goto	u5101
  4974  0AA4  2AA6               	goto	u5100
  4975  0AA5                     u5101:
  4976  0AA5  2AAB               	goto	l3552
  4977  0AA6                     u5100:
  4978  0AA6                     l3548:
  4979  0AA6  1FA3               	btfss	___xxtofl@val+3,7
  4980  0AA7  2AA9               	goto	u5111
  4981  0AA8  2AAA               	goto	u5110
  4982  0AA9                     u5111:
  4983  0AA9  2AAB               	goto	l3552
  4984  0AAA                     u5110:
  4985  0AAA                     l3550:
  4986  0AAA  17AD               	bsf	___xxtofl@arg+3,7
  4987  0AAB                     l3552:
  4988  0AAB  082D               	movf	___xxtofl@arg+3,w
  4989  0AAC  00A3               	movwf	?___xxtofl+3
  4990  0AAD  082C               	movf	___xxtofl@arg+2,w
  4991  0AAE  00A2               	movwf	?___xxtofl+2
  4992  0AAF  082B               	movf	___xxtofl@arg+1,w
  4993  0AB0  00A1               	movwf	?___xxtofl+1
  4994  0AB1  082A               	movf	___xxtofl@arg,w
  4995  0AB2  00A0               	movwf	?___xxtofl
  4996  0AB3                     l811:
  4997  0AB3  0008               	return
  4998  0AB4                     __end_of___xxtofl:
  4999                           
  5000                           	psect	text14
  5001  097C                     __ptext14:	
  5002 ;; *************** function ___fltol *****************
  5003 ;; Defined at:
  5004 ;;		line 43 in file "C:\Program Files\Microchip\xc8\v2.35\pic\sources\c90\common\fltol.c"
  5005 ;; Parameters:    Size  Location     Type
  5006 ;;  f1              4   66[BANK0 ] unsigned char 
  5007 ;; Auto vars:     Size  Location     Type
  5008 ;;  exp1            1   76[BANK0 ] unsigned char 
  5009 ;;  sign1           1   75[BANK0 ] unsigned char 
  5010 ;; Return value:  Size  Location     Type
  5011 ;;                  4   66[BANK0 ] long 
  5012 ;; Registers used:
  5013 ;;		wreg, status,2, status,0
  5014 ;; Tracked objects:
  5015 ;;		On entry : 0/0
  5016 ;;		On exit  : 0/0
  5017 ;;		Unchanged: 0/0
  5018 ;; Data sizes:     COMMON   BANK0   BANK1   BANK3   BANK2
  5019 ;;      Params:         0       4       0       0       0
  5020 ;;      Locals:         0       2       0       0       0
  5021 ;;      Temps:          0       5       0       0       0
  5022 ;;      Totals:         0      11       0       0       0
  5023 ;;Total ram usage:       11 bytes
  5024 ;; Hardware stack levels used: 1
  5025 ;; Hardware stack levels required when called: 1
  5026 ;; This function calls:
  5027 ;;		Nothing
  5028 ;; This function is called by:
  5029 ;;		_CENTENA
  5030 ;;		_DECENA
  5031 ;;		_UNIDAD
  5032 ;; This function uses a non-reentrant model
  5033 ;;
  5034                           
  5035  097C                     ___fltol:	
  5036                           ;psect for function ___fltol
  5037                           
  5038  097C                     l3142:	
  5039                           ;incstack = 0
  5040                           ; Regs used in ___fltol: [wreg+status,2+status,0]
  5041                           
  5042  097C  1003               	clrc
  5043  097D  1283               	bcf	3,5	;RP0=0, select bank0
  5044  097E  1303               	bcf	3,6	;RP1=0, select bank0
  5045  097F  0D64               	rlf	___fltol@f1+2,w
  5046  0980  0D65               	rlf	___fltol@f1+3,w
  5047  0981  00E6               	movwf	??___fltol
  5048  0982  0866               	movf	??___fltol,w
  5049  0983  00EC               	movwf	___fltol@exp1
  5050  0984  086C               	movf	___fltol@exp1,w
  5051  0985  1D03               	btfss	3,2
  5052  0986  2988               	goto	u4051
  5053  0987  2989               	goto	u4050
  5054  0988                     u4051:
  5055  0988  2992               	goto	l3148
  5056  0989                     u4050:
  5057  0989                     l3144:
  5058  0989  3000               	movlw	0
  5059  098A  00E5               	movwf	?___fltol+3
  5060  098B  3000               	movlw	0
  5061  098C  00E4               	movwf	?___fltol+2
  5062  098D  3000               	movlw	0
  5063  098E  00E3               	movwf	?___fltol+1
  5064  098F  3000               	movlw	0
  5065  0990  00E2               	movwf	?___fltol
  5066  0991  29F7               	goto	l562
  5067  0992                     l3148:
  5068  0992  0862               	movf	___fltol@f1,w
  5069  0993  00E6               	movwf	??___fltol
  5070  0994  0863               	movf	___fltol@f1+1,w
  5071  0995  00E7               	movwf	??___fltol+1
  5072  0996  0864               	movf	___fltol@f1+2,w
  5073  0997  00E8               	movwf	??___fltol+2
  5074  0998  0865               	movf	___fltol@f1+3,w
  5075  0999  00E9               	movwf	??___fltol+3
  5076  099A  301F               	movlw	31
  5077  099B                     u4065:
  5078  099B  1003               	clrc
  5079  099C  0CE9               	rrf	??___fltol+3,f
  5080  099D  0CE8               	rrf	??___fltol+2,f
  5081  099E  0CE7               	rrf	??___fltol+1,f
  5082  099F  0CE6               	rrf	??___fltol,f
  5083  09A0                     u4060:
  5084  09A0  3EFF               	addlw	-1
  5085  09A1  1D03               	skipz
  5086  09A2  299B               	goto	u4065
  5087  09A3  0866               	movf	??___fltol,w
  5088  09A4  00EA               	movwf	??___fltol+4
  5089  09A5  086A               	movf	??___fltol+4,w
  5090  09A6  00EB               	movwf	___fltol@sign1
  5091  09A7                     l3150:
  5092  09A7  17E4               	bsf	___fltol@f1+2,7
  5093  09A8                     l3152:
  5094  09A8  30FF               	movlw	255
  5095  09A9  05E2               	andwf	___fltol@f1,f
  5096  09AA  30FF               	movlw	255
  5097  09AB  05E3               	andwf	___fltol@f1+1,f
  5098  09AC  30FF               	movlw	255
  5099  09AD  05E4               	andwf	___fltol@f1+2,f
  5100  09AE  3000               	movlw	0
  5101  09AF  05E5               	andwf	___fltol@f1+3,f
  5102  09B0                     l3154:
  5103  09B0  3096               	movlw	150
  5104  09B1  02EC               	subwf	___fltol@exp1,f
  5105  09B2                     l3156:
  5106  09B2  1FEC               	btfss	___fltol@exp1,7
  5107  09B3  29B5               	goto	u4071
  5108  09B4  29B6               	goto	u4070
  5109  09B5                     u4071:
  5110  09B5  29D0               	goto	l3166
  5111  09B6                     u4070:
  5112  09B6                     l3158:
  5113  09B6  086C               	movf	___fltol@exp1,w
  5114  09B7  3A80               	xorlw	128
  5115  09B8  3E97               	addlw	151
  5116  09B9  1803               	skipnc
  5117  09BA  29BC               	goto	u4081
  5118  09BB  29BD               	goto	u4080
  5119  09BC                     u4081:
  5120  09BC  29BE               	goto	l3164
  5121  09BD                     u4080:
  5122  09BD  2989               	goto	l3144
  5123  09BE                     l3164:
  5124  09BE  3001               	movlw	1
  5125  09BF                     u4095:
  5126  09BF  1003               	clrc
  5127  09C0  0CE5               	rrf	___fltol@f1+3,f
  5128  09C1  0CE4               	rrf	___fltol@f1+2,f
  5129  09C2  0CE3               	rrf	___fltol@f1+1,f
  5130  09C3  0CE2               	rrf	___fltol@f1,f
  5131  09C4  3EFF               	addlw	-1
  5132  09C5  1D03               	skipz
  5133  09C6  29BF               	goto	u4095
  5134  09C7  3001               	movlw	1
  5135  09C8  00E6               	movwf	??___fltol
  5136  09C9  0866               	movf	??___fltol,w
  5137  09CA  07EC               	addwf	___fltol@exp1,f
  5138  09CB  1D03               	btfss	3,2
  5139  09CC  29CE               	goto	u4101
  5140  09CD  29CF               	goto	u4100
  5141  09CE                     u4101:
  5142  09CE  29BE               	goto	l3164
  5143  09CF                     u4100:
  5144  09CF  29E7               	goto	l3174
  5145  09D0                     l3166:
  5146  09D0  3020               	movlw	32
  5147  09D1  026C               	subwf	___fltol@exp1,w
  5148  09D2  1C03               	skipc
  5149  09D3  29D5               	goto	u4111
  5150  09D4  29D6               	goto	u4110
  5151  09D5                     u4111:
  5152  09D5  29E2               	goto	l569
  5153  09D6                     u4110:
  5154  09D6  2989               	goto	l3144
  5155  09D7                     l3172:
  5156  09D7  3001               	movlw	1
  5157  09D8  00E6               	movwf	??___fltol
  5158  09D9                     u4125:
  5159  09D9  1003               	clrc
  5160  09DA  0DE2               	rlf	___fltol@f1,f
  5161  09DB  0DE3               	rlf	___fltol@f1+1,f
  5162  09DC  0DE4               	rlf	___fltol@f1+2,f
  5163  09DD  0DE5               	rlf	___fltol@f1+3,f
  5164  09DE  0BE6               	decfsz	??___fltol,f
  5165  09DF  29D9               	goto	u4125
  5166  09E0  3001               	movlw	1
  5167  09E1  02EC               	subwf	___fltol@exp1,f
  5168  09E2                     l569:
  5169  09E2  086C               	movf	___fltol@exp1,w
  5170  09E3  1D03               	btfss	3,2
  5171  09E4  29E6               	goto	u4131
  5172  09E5  29E7               	goto	u4130
  5173  09E6                     u4131:
  5174  09E6  29D7               	goto	l3172
  5175  09E7                     u4130:
  5176  09E7                     l3174:
  5177  09E7  086B               	movf	___fltol@sign1,w
  5178  09E8  1903               	btfsc	3,2
  5179  09E9  29EB               	goto	u4141
  5180  09EA  29EC               	goto	u4140
  5181  09EB                     u4141:
  5182  09EB  29F7               	goto	l572
  5183  09EC                     u4140:
  5184  09EC                     l3176:
  5185  09EC  09E2               	comf	___fltol@f1,f
  5186  09ED  09E3               	comf	___fltol@f1+1,f
  5187  09EE  09E4               	comf	___fltol@f1+2,f
  5188  09EF  09E5               	comf	___fltol@f1+3,f
  5189  09F0  0AE2               	incf	___fltol@f1,f
  5190  09F1  1903               	skipnz
  5191  09F2  0AE3               	incf	___fltol@f1+1,f
  5192  09F3  1903               	skipnz
  5193  09F4  0AE4               	incf	___fltol@f1+2,f
  5194  09F5  1903               	skipnz
  5195  09F6  0AE5               	incf	___fltol@f1+3,f
  5196  09F7                     l572:
  5197  09F7                     l562:
  5198  09F7  0008               	return
  5199  09F8                     __end_of___fltol:
  5200                           
  5201                           	psect	text15
  5202  0022                     __ptext15:	
  5203 ;; *************** function ___flmul *****************
  5204 ;; Defined at:
  5205 ;;		line 8 in file "C:\Program Files\Microchip\xc8\v2.35\pic\sources\c90\common\sprcmul.c"
  5206 ;; Parameters:    Size  Location     Type
  5207 ;;  b               4   14[BANK0 ] long 
  5208 ;;  a               4   18[BANK0 ] long 
  5209 ;; Auto vars:     Size  Location     Type
  5210 ;;  prod            4   34[BANK0 ] struct .
  5211 ;;  grs             4   29[BANK0 ] unsigned long 
  5212 ;;  temp            2   38[BANK0 ] struct .
  5213 ;;  bexp            1   33[BANK0 ] unsigned char 
  5214 ;;  aexp            1   28[BANK0 ] unsigned char 
  5215 ;;  sign            1   27[BANK0 ] unsigned char 
  5216 ;; Return value:  Size  Location     Type
  5217 ;;                  4   14[BANK0 ] unsigned char 
  5218 ;; Registers used:
  5219 ;;		wreg, status,2, status,0, btemp+1, pclath, cstack
  5220 ;; Tracked objects:
  5221 ;;		On entry : 0/0
  5222 ;;		On exit  : 0/0
  5223 ;;		Unchanged: 0/0
  5224 ;; Data sizes:     COMMON   BANK0   BANK1   BANK3   BANK2
  5225 ;;      Params:         0       8       0       0       0
  5226 ;;      Locals:         0      13       0       0       0
  5227 ;;      Temps:          0       5       0       0       0
  5228 ;;      Totals:         0      26       0       0       0
  5229 ;;Total ram usage:       26 bytes
  5230 ;; Hardware stack levels used: 1
  5231 ;; Hardware stack levels required when called: 2
  5232 ;; This function calls:
  5233 ;;		__Umul8_16
  5234 ;; This function is called by:
  5235 ;;		_CENTENA
  5236 ;;		_DECENA
  5237 ;;		_UNIDAD
  5238 ;; This function uses a non-reentrant model
  5239 ;;
  5240                           
  5241  0022                     ___flmul:	
  5242                           ;psect for function ___flmul
  5243                           
  5244  0022                     l3372:	
  5245                           ;incstack = 0
  5246                           ; Regs used in ___flmul: [wreg+status,2+status,0+btemp+1+pclath+cstack]
  5247                           
  5248  0022  1283               	bcf	3,5	;RP0=0, select bank0
  5249  0023  1303               	bcf	3,6	;RP1=0, select bank0
  5250  0024  0831               	movf	___flmul@b+3,w
  5251  0025  3980               	andlw	128
  5252  0026  00B6               	movwf	??___flmul
  5253  0027  0836               	movf	??___flmul,w
  5254  0028  00BB               	movwf	___flmul@sign
  5255  0029                     l3374:
  5256  0029  0831               	movf	___flmul@b+3,w
  5257  002A  00B6               	movwf	??___flmul
  5258  002B  0736               	addwf	??___flmul,w
  5259  002C  00B7               	movwf	??___flmul+1
  5260  002D  0837               	movf	??___flmul+1,w
  5261  002E  00C1               	movwf	___flmul@bexp
  5262  002F                     l3376:
  5263  002F  1FB0               	btfss	___flmul@b+2,7
  5264  0030  2832               	goto	u4611
  5265  0031  2833               	goto	u4610
  5266  0032                     u4611:
  5267  0032  2834               	goto	l3380
  5268  0033                     u4610:
  5269  0033                     l3378:
  5270  0033  1441               	bsf	___flmul@bexp,0
  5271  0034                     l3380:
  5272  0034  0841               	movf	___flmul@bexp,w
  5273  0035  1903               	btfsc	3,2
  5274  0036  2838               	goto	u4621
  5275  0037  2839               	goto	u4620
  5276  0038                     u4621:
  5277  0038  2848               	goto	l3388
  5278  0039                     u4620:
  5279  0039                     l3382:
  5280  0039  0A41               	incf	___flmul@bexp,w
  5281  003A  1D03               	btfss	3,2
  5282  003B  283D               	goto	u4631
  5283  003C  283E               	goto	u4630
  5284  003D                     u4631:
  5285  003D  2846               	goto	l3386
  5286  003E                     u4630:
  5287  003E                     l3384:
  5288  003E  3000               	movlw	0
  5289  003F  00B1               	movwf	___flmul@b+3
  5290  0040  3000               	movlw	0
  5291  0041  00B0               	movwf	___flmul@b+2
  5292  0042  3000               	movlw	0
  5293  0043  00AF               	movwf	___flmul@b+1
  5294  0044  3000               	movlw	0
  5295  0045  00AE               	movwf	___flmul@b
  5296  0046                     l3386:
  5297  0046  17B0               	bsf	___flmul@b+2,7
  5298  0047  2850               	goto	l3390
  5299  0048                     l3388:
  5300  0048  3000               	movlw	0
  5301  0049  00B1               	movwf	___flmul@b+3
  5302  004A  3000               	movlw	0
  5303  004B  00B0               	movwf	___flmul@b+2
  5304  004C  3000               	movlw	0
  5305  004D  00AF               	movwf	___flmul@b+1
  5306  004E  3000               	movlw	0
  5307  004F  00AE               	movwf	___flmul@b
  5308  0050                     l3390:
  5309  0050  0835               	movf	___flmul@a+3,w
  5310  0051  3980               	andlw	128
  5311  0052  00B6               	movwf	??___flmul
  5312  0053  0836               	movf	??___flmul,w
  5313  0054  06BB               	xorwf	___flmul@sign,f
  5314  0055                     l3392:
  5315  0055  0835               	movf	___flmul@a+3,w
  5316  0056  00B6               	movwf	??___flmul
  5317  0057  0736               	addwf	??___flmul,w
  5318  0058  00B7               	movwf	??___flmul+1
  5319  0059  0837               	movf	??___flmul+1,w
  5320  005A  00BC               	movwf	___flmul@aexp
  5321  005B                     l3394:
  5322  005B  1FB4               	btfss	___flmul@a+2,7
  5323  005C  285E               	goto	u4641
  5324  005D  285F               	goto	u4640
  5325  005E                     u4641:
  5326  005E  2860               	goto	l3398
  5327  005F                     u4640:
  5328  005F                     l3396:
  5329  005F  143C               	bsf	___flmul@aexp,0
  5330  0060                     l3398:
  5331  0060  083C               	movf	___flmul@aexp,w
  5332  0061  1903               	btfsc	3,2
  5333  0062  2864               	goto	u4651
  5334  0063  2865               	goto	u4650
  5335  0064                     u4651:
  5336  0064  2874               	goto	l3406
  5337  0065                     u4650:
  5338  0065                     l3400:
  5339  0065  0A3C               	incf	___flmul@aexp,w
  5340  0066  1D03               	btfss	3,2
  5341  0067  2869               	goto	u4661
  5342  0068  286A               	goto	u4660
  5343  0069                     u4661:
  5344  0069  2872               	goto	l3404
  5345  006A                     u4660:
  5346  006A                     l3402:
  5347  006A  3000               	movlw	0
  5348  006B  00B5               	movwf	___flmul@a+3
  5349  006C  3000               	movlw	0
  5350  006D  00B4               	movwf	___flmul@a+2
  5351  006E  3000               	movlw	0
  5352  006F  00B3               	movwf	___flmul@a+1
  5353  0070  3000               	movlw	0
  5354  0071  00B2               	movwf	___flmul@a
  5355  0072                     l3404:
  5356  0072  17B4               	bsf	___flmul@a+2,7
  5357  0073  287C               	goto	l3408
  5358  0074                     l3406:
  5359  0074  3000               	movlw	0
  5360  0075  00B5               	movwf	___flmul@a+3
  5361  0076  3000               	movlw	0
  5362  0077  00B4               	movwf	___flmul@a+2
  5363  0078  3000               	movlw	0
  5364  0079  00B3               	movwf	___flmul@a+1
  5365  007A  3000               	movlw	0
  5366  007B  00B2               	movwf	___flmul@a
  5367  007C                     l3408:
  5368  007C  083C               	movf	___flmul@aexp,w
  5369  007D  1903               	btfsc	3,2
  5370  007E  2880               	goto	u4671
  5371  007F  2881               	goto	u4670
  5372  0080                     u4671:
  5373  0080  2886               	goto	l3412
  5374  0081                     u4670:
  5375  0081                     l3410:
  5376  0081  0841               	movf	___flmul@bexp,w
  5377  0082  1D03               	btfss	3,2
  5378  0083  2885               	goto	u4681
  5379  0084  2886               	goto	u4680
  5380  0085                     u4681:
  5381  0085  288F               	goto	l3416
  5382  0086                     u4680:
  5383  0086                     l3412:
  5384  0086  3000               	movlw	0
  5385  0087  00B1               	movwf	?___flmul+3
  5386  0088  3000               	movlw	0
  5387  0089  00B0               	movwf	?___flmul+2
  5388  008A  3000               	movlw	0
  5389  008B  00AF               	movwf	?___flmul+1
  5390  008C  3000               	movlw	0
  5391  008D  00AE               	movwf	?___flmul
  5392  008E  2B82               	goto	l765
  5393  008F                     l3416:
  5394  008F  082E               	movf	___flmul@b,w
  5395  0090  00B6               	movwf	??___flmul
  5396  0091  0836               	movf	??___flmul,w
  5397  0092  00F4               	movwf	__Umul8_16@multiplicand
  5398  0093  0834               	movf	___flmul@a+2,w
  5399  0094  160A  118A  24CC  120A  118A  	fcall	__Umul8_16
  5400  0099  0875               	movf	?__Umul8_16+1,w
  5401  009A  1283               	bcf	3,5	;RP0=0, select bank0
  5402  009B  1303               	bcf	3,6	;RP1=0, select bank0
  5403  009C  00C7               	movwf	___flmul@temp+1
  5404  009D  0874               	movf	?__Umul8_16,w
  5405  009E  00C6               	movwf	___flmul@temp
  5406  009F                     l3418:
  5407  009F  0846               	movf	___flmul@temp,w
  5408  00A0  00B6               	movwf	??___flmul
  5409  00A1  01B7               	clrf	??___flmul+1
  5410  00A2  01B8               	clrf	??___flmul+2
  5411  00A3  01B9               	clrf	??___flmul+3
  5412  00A4  0839               	movf	??___flmul+3,w
  5413  00A5  00C0               	movwf	___flmul@grs+3
  5414  00A6  0838               	movf	??___flmul+2,w
  5415  00A7  00BF               	movwf	___flmul@grs+2
  5416  00A8  0837               	movf	??___flmul+1,w
  5417  00A9  00BE               	movwf	___flmul@grs+1
  5418  00AA  0836               	movf	??___flmul,w
  5419  00AB  00BD               	movwf	___flmul@grs
  5420  00AC                     l3420:
  5421  00AC  0847               	movf	___flmul@temp+1,w
  5422  00AD  00B6               	movwf	??___flmul
  5423  00AE  01B7               	clrf	??___flmul+1
  5424  00AF  01B8               	clrf	??___flmul+2
  5425  00B0  01B9               	clrf	??___flmul+3
  5426  00B1  0839               	movf	??___flmul+3,w
  5427  00B2  00C5               	movwf	___flmul@prod+3
  5428  00B3  0838               	movf	??___flmul+2,w
  5429  00B4  00C4               	movwf	___flmul@prod+2
  5430  00B5  0837               	movf	??___flmul+1,w
  5431  00B6  00C3               	movwf	___flmul@prod+1
  5432  00B7  0836               	movf	??___flmul,w
  5433  00B8  00C2               	movwf	___flmul@prod
  5434  00B9  082F               	movf	___flmul@b+1,w
  5435  00BA  00B6               	movwf	??___flmul
  5436  00BB  0836               	movf	??___flmul,w
  5437  00BC  00F4               	movwf	__Umul8_16@multiplicand
  5438  00BD  0833               	movf	___flmul@a+1,w
  5439  00BE  160A  118A  24CC  120A  118A  	fcall	__Umul8_16
  5440  00C3  0875               	movf	?__Umul8_16+1,w
  5441  00C4  1283               	bcf	3,5	;RP0=0, select bank0
  5442  00C5  1303               	bcf	3,6	;RP1=0, select bank0
  5443  00C6  00C7               	movwf	___flmul@temp+1
  5444  00C7  0874               	movf	?__Umul8_16,w
  5445  00C8  00C6               	movwf	___flmul@temp
  5446  00C9                     l3422:
  5447  00C9  0846               	movf	___flmul@temp,w
  5448  00CA  00B6               	movwf	??___flmul
  5449  00CB  01B7               	clrf	??___flmul+1
  5450  00CC  01B8               	clrf	??___flmul+2
  5451  00CD  01B9               	clrf	??___flmul+3
  5452  00CE  0836               	movf	??___flmul,w
  5453  00CF  07BD               	addwf	___flmul@grs,f
  5454  00D0  0837               	movf	??___flmul+1,w
  5455  00D1  1103               	clrz
  5456  00D2  1803               	skipnc
  5457  00D3  3E01               	addlw	1
  5458  00D4  1903               	skipnz
  5459  00D5  28D7               	goto	u4691
  5460  00D6  07BE               	addwf	___flmul@grs+1,f
  5461  00D7                     u4691:
  5462  00D7  0838               	movf	??___flmul+2,w
  5463  00D8  1103               	clrz
  5464  00D9  1803               	skipnc
  5465  00DA  3E01               	addlw	1
  5466  00DB  1903               	skipnz
  5467  00DC  28DE               	goto	u4692
  5468  00DD  07BF               	addwf	___flmul@grs+2,f
  5469  00DE                     u4692:
  5470  00DE  0839               	movf	??___flmul+3,w
  5471  00DF  1103               	clrz
  5472  00E0  1803               	skipnc
  5473  00E1  3E01               	addlw	1
  5474  00E2  1903               	skipnz
  5475  00E3  28E5               	goto	u4693
  5476  00E4  07C0               	addwf	___flmul@grs+3,f
  5477  00E5                     u4693:
  5478  00E5                     l3424:
  5479  00E5  0847               	movf	___flmul@temp+1,w
  5480  00E6  00B6               	movwf	??___flmul
  5481  00E7  01B7               	clrf	??___flmul+1
  5482  00E8  01B8               	clrf	??___flmul+2
  5483  00E9  01B9               	clrf	??___flmul+3
  5484  00EA  0836               	movf	??___flmul,w
  5485  00EB  07C2               	addwf	___flmul@prod,f
  5486  00EC  0837               	movf	??___flmul+1,w
  5487  00ED  1103               	clrz
  5488  00EE  1803               	skipnc
  5489  00EF  3E01               	addlw	1
  5490  00F0  1903               	skipnz
  5491  00F1  28F3               	goto	u4701
  5492  00F2  07C3               	addwf	___flmul@prod+1,f
  5493  00F3                     u4701:
  5494  00F3  0838               	movf	??___flmul+2,w
  5495  00F4  1103               	clrz
  5496  00F5  1803               	skipnc
  5497  00F6  3E01               	addlw	1
  5498  00F7  1903               	skipnz
  5499  00F8  28FA               	goto	u4702
  5500  00F9  07C4               	addwf	___flmul@prod+2,f
  5501  00FA                     u4702:
  5502  00FA  0839               	movf	??___flmul+3,w
  5503  00FB  1103               	clrz
  5504  00FC  1803               	skipnc
  5505  00FD  3E01               	addlw	1
  5506  00FE  1903               	skipnz
  5507  00FF  2901               	goto	u4703
  5508  0100  07C5               	addwf	___flmul@prod+3,f
  5509  0101                     u4703:
  5510  0101  0830               	movf	___flmul@b+2,w
  5511  0102  00B6               	movwf	??___flmul
  5512  0103  0836               	movf	??___flmul,w
  5513  0104  00F4               	movwf	__Umul8_16@multiplicand
  5514  0105  0832               	movf	___flmul@a,w
  5515  0106  160A  118A  24CC  120A  118A  	fcall	__Umul8_16
  5516  010B  0875               	movf	?__Umul8_16+1,w
  5517  010C  1283               	bcf	3,5	;RP0=0, select bank0
  5518  010D  1303               	bcf	3,6	;RP1=0, select bank0
  5519  010E  00C7               	movwf	___flmul@temp+1
  5520  010F  0874               	movf	?__Umul8_16,w
  5521  0110  00C6               	movwf	___flmul@temp
  5522  0111                     l3426:
  5523  0111  0846               	movf	___flmul@temp,w
  5524  0112  00B6               	movwf	??___flmul
  5525  0113  01B7               	clrf	??___flmul+1
  5526  0114  01B8               	clrf	??___flmul+2
  5527  0115  01B9               	clrf	??___flmul+3
  5528  0116  0836               	movf	??___flmul,w
  5529  0117  07BD               	addwf	___flmul@grs,f
  5530  0118  0837               	movf	??___flmul+1,w
  5531  0119  1103               	clrz
  5532  011A  1803               	skipnc
  5533  011B  3E01               	addlw	1
  5534  011C  1903               	skipnz
  5535  011D  291F               	goto	u4711
  5536  011E  07BE               	addwf	___flmul@grs+1,f
  5537  011F                     u4711:
  5538  011F  0838               	movf	??___flmul+2,w
  5539  0120  1103               	clrz
  5540  0121  1803               	skipnc
  5541  0122  3E01               	addlw	1
  5542  0123  1903               	skipnz
  5543  0124  2926               	goto	u4712
  5544  0125  07BF               	addwf	___flmul@grs+2,f
  5545  0126                     u4712:
  5546  0126  0839               	movf	??___flmul+3,w
  5547  0127  1103               	clrz
  5548  0128  1803               	skipnc
  5549  0129  3E01               	addlw	1
  5550  012A  1903               	skipnz
  5551  012B  292D               	goto	u4713
  5552  012C  07C0               	addwf	___flmul@grs+3,f
  5553  012D                     u4713:
  5554  012D                     l3428:
  5555  012D  0847               	movf	___flmul@temp+1,w
  5556  012E  00B6               	movwf	??___flmul
  5557  012F  01B7               	clrf	??___flmul+1
  5558  0130  01B8               	clrf	??___flmul+2
  5559  0131  01B9               	clrf	??___flmul+3
  5560  0132  0836               	movf	??___flmul,w
  5561  0133  07C2               	addwf	___flmul@prod,f
  5562  0134  0837               	movf	??___flmul+1,w
  5563  0135  1103               	clrz
  5564  0136  1803               	skipnc
  5565  0137  3E01               	addlw	1
  5566  0138  1903               	skipnz
  5567  0139  293B               	goto	u4721
  5568  013A  07C3               	addwf	___flmul@prod+1,f
  5569  013B                     u4721:
  5570  013B  0838               	movf	??___flmul+2,w
  5571  013C  1103               	clrz
  5572  013D  1803               	skipnc
  5573  013E  3E01               	addlw	1
  5574  013F  1903               	skipnz
  5575  0140  2942               	goto	u4722
  5576  0141  07C4               	addwf	___flmul@prod+2,f
  5577  0142                     u4722:
  5578  0142  0839               	movf	??___flmul+3,w
  5579  0143  1103               	clrz
  5580  0144  1803               	skipnc
  5581  0145  3E01               	addlw	1
  5582  0146  1903               	skipnz
  5583  0147  2949               	goto	u4723
  5584  0148  07C5               	addwf	___flmul@prod+3,f
  5585  0149                     u4723:
  5586  0149                     l3430:
  5587  0149  3008               	movlw	8
  5588  014A  00B6               	movwf	??___flmul
  5589  014B                     u4735:
  5590  014B  1003               	clrc
  5591  014C  0DBD               	rlf	___flmul@grs,f
  5592  014D  0DBE               	rlf	___flmul@grs+1,f
  5593  014E  0DBF               	rlf	___flmul@grs+2,f
  5594  014F  0DC0               	rlf	___flmul@grs+3,f
  5595  0150  0BB6               	decfsz	??___flmul,f
  5596  0151  294B               	goto	u4735
  5597  0152                     l3432:
  5598  0152  082F               	movf	___flmul@b+1,w
  5599  0153  00B6               	movwf	??___flmul
  5600  0154  0836               	movf	??___flmul,w
  5601  0155  00F4               	movwf	__Umul8_16@multiplicand
  5602  0156  0832               	movf	___flmul@a,w
  5603  0157  160A  118A  24CC  120A  118A  	fcall	__Umul8_16
  5604  015C  0875               	movf	?__Umul8_16+1,w
  5605  015D  1283               	bcf	3,5	;RP0=0, select bank0
  5606  015E  1303               	bcf	3,6	;RP1=0, select bank0
  5607  015F  00C7               	movwf	___flmul@temp+1
  5608  0160  0874               	movf	?__Umul8_16,w
  5609  0161  00C6               	movwf	___flmul@temp
  5610  0162                     l3434:
  5611  0162  0846               	movf	___flmul@temp,w
  5612  0163  00B6               	movwf	??___flmul
  5613  0164  0847               	movf	___flmul@temp+1,w
  5614  0165  00B7               	movwf	??___flmul+1
  5615  0166  01B8               	clrf	??___flmul+2
  5616  0167  01B9               	clrf	??___flmul+3
  5617  0168  0836               	movf	??___flmul,w
  5618  0169  07BD               	addwf	___flmul@grs,f
  5619  016A  0837               	movf	??___flmul+1,w
  5620  016B  1103               	clrz
  5621  016C  1803               	skipnc
  5622  016D  3E01               	addlw	1
  5623  016E  1903               	skipnz
  5624  016F  2971               	goto	u4741
  5625  0170  07BE               	addwf	___flmul@grs+1,f
  5626  0171                     u4741:
  5627  0171  0838               	movf	??___flmul+2,w
  5628  0172  1103               	clrz
  5629  0173  1803               	skipnc
  5630  0174  3E01               	addlw	1
  5631  0175  1903               	skipnz
  5632  0176  2978               	goto	u4742
  5633  0177  07BF               	addwf	___flmul@grs+2,f
  5634  0178                     u4742:
  5635  0178  0839               	movf	??___flmul+3,w
  5636  0179  1103               	clrz
  5637  017A  1803               	skipnc
  5638  017B  3E01               	addlw	1
  5639  017C  1903               	skipnz
  5640  017D  297F               	goto	u4743
  5641  017E  07C0               	addwf	___flmul@grs+3,f
  5642  017F                     u4743:
  5643  017F                     l3436:
  5644  017F  082E               	movf	___flmul@b,w
  5645  0180  00B6               	movwf	??___flmul
  5646  0181  0836               	movf	??___flmul,w
  5647  0182  00F4               	movwf	__Umul8_16@multiplicand
  5648  0183  0833               	movf	___flmul@a+1,w
  5649  0184  160A  118A  24CC  120A  118A  	fcall	__Umul8_16
  5650  0189  0875               	movf	?__Umul8_16+1,w
  5651  018A  1283               	bcf	3,5	;RP0=0, select bank0
  5652  018B  1303               	bcf	3,6	;RP1=0, select bank0
  5653  018C  00C7               	movwf	___flmul@temp+1
  5654  018D  0874               	movf	?__Umul8_16,w
  5655  018E  00C6               	movwf	___flmul@temp
  5656  018F                     l3438:
  5657  018F  0846               	movf	___flmul@temp,w
  5658  0190  00B6               	movwf	??___flmul
  5659  0191  0847               	movf	___flmul@temp+1,w
  5660  0192  00B7               	movwf	??___flmul+1
  5661  0193  01B8               	clrf	??___flmul+2
  5662  0194  01B9               	clrf	??___flmul+3
  5663  0195  0836               	movf	??___flmul,w
  5664  0196  07BD               	addwf	___flmul@grs,f
  5665  0197  0837               	movf	??___flmul+1,w
  5666  0198  1103               	clrz
  5667  0199  1803               	skipnc
  5668  019A  3E01               	addlw	1
  5669  019B  1903               	skipnz
  5670  019C  299E               	goto	u4751
  5671  019D  07BE               	addwf	___flmul@grs+1,f
  5672  019E                     u4751:
  5673  019E  0838               	movf	??___flmul+2,w
  5674  019F  1103               	clrz
  5675  01A0  1803               	skipnc
  5676  01A1  3E01               	addlw	1
  5677  01A2  1903               	skipnz
  5678  01A3  29A5               	goto	u4752
  5679  01A4  07BF               	addwf	___flmul@grs+2,f
  5680  01A5                     u4752:
  5681  01A5  0839               	movf	??___flmul+3,w
  5682  01A6  1103               	clrz
  5683  01A7  1803               	skipnc
  5684  01A8  3E01               	addlw	1
  5685  01A9  1903               	skipnz
  5686  01AA  29AC               	goto	u4753
  5687  01AB  07C0               	addwf	___flmul@grs+3,f
  5688  01AC                     u4753:
  5689  01AC                     l3440:
  5690  01AC  3008               	movlw	8
  5691  01AD  00B6               	movwf	??___flmul
  5692  01AE                     u4765:
  5693  01AE  1003               	clrc
  5694  01AF  0DBD               	rlf	___flmul@grs,f
  5695  01B0  0DBE               	rlf	___flmul@grs+1,f
  5696  01B1  0DBF               	rlf	___flmul@grs+2,f
  5697  01B2  0DC0               	rlf	___flmul@grs+3,f
  5698  01B3  0BB6               	decfsz	??___flmul,f
  5699  01B4  29AE               	goto	u4765
  5700  01B5  082E               	movf	___flmul@b,w
  5701  01B6  00B6               	movwf	??___flmul
  5702  01B7  0836               	movf	??___flmul,w
  5703  01B8  00F4               	movwf	__Umul8_16@multiplicand
  5704  01B9  0832               	movf	___flmul@a,w
  5705  01BA  160A  118A  24CC  120A  118A  	fcall	__Umul8_16
  5706  01BF  0875               	movf	?__Umul8_16+1,w
  5707  01C0  1283               	bcf	3,5	;RP0=0, select bank0
  5708  01C1  1303               	bcf	3,6	;RP1=0, select bank0
  5709  01C2  00C7               	movwf	___flmul@temp+1
  5710  01C3  0874               	movf	?__Umul8_16,w
  5711  01C4  00C6               	movwf	___flmul@temp
  5712  01C5                     l3442:
  5713  01C5  0846               	movf	___flmul@temp,w
  5714  01C6  00B6               	movwf	??___flmul
  5715  01C7  0847               	movf	___flmul@temp+1,w
  5716  01C8  00B7               	movwf	??___flmul+1
  5717  01C9  01B8               	clrf	??___flmul+2
  5718  01CA  01B9               	clrf	??___flmul+3
  5719  01CB  0836               	movf	??___flmul,w
  5720  01CC  07BD               	addwf	___flmul@grs,f
  5721  01CD  0837               	movf	??___flmul+1,w
  5722  01CE  1103               	clrz
  5723  01CF  1803               	skipnc
  5724  01D0  3E01               	addlw	1
  5725  01D1  1903               	skipnz
  5726  01D2  29D4               	goto	u4771
  5727  01D3  07BE               	addwf	___flmul@grs+1,f
  5728  01D4                     u4771:
  5729  01D4  0838               	movf	??___flmul+2,w
  5730  01D5  1103               	clrz
  5731  01D6  1803               	skipnc
  5732  01D7  3E01               	addlw	1
  5733  01D8  1903               	skipnz
  5734  01D9  29DB               	goto	u4772
  5735  01DA  07BF               	addwf	___flmul@grs+2,f
  5736  01DB                     u4772:
  5737  01DB  0839               	movf	??___flmul+3,w
  5738  01DC  1103               	clrz
  5739  01DD  1803               	skipnc
  5740  01DE  3E01               	addlw	1
  5741  01DF  1903               	skipnz
  5742  01E0  29E2               	goto	u4773
  5743  01E1  07C0               	addwf	___flmul@grs+3,f
  5744  01E2                     u4773:
  5745  01E2                     l3444:
  5746  01E2  082F               	movf	___flmul@b+1,w
  5747  01E3  00B6               	movwf	??___flmul
  5748  01E4  0836               	movf	??___flmul,w
  5749  01E5  00F4               	movwf	__Umul8_16@multiplicand
  5750  01E6  0834               	movf	___flmul@a+2,w
  5751  01E7  160A  118A  24CC  120A  118A  	fcall	__Umul8_16
  5752  01EC  0875               	movf	?__Umul8_16+1,w
  5753  01ED  1283               	bcf	3,5	;RP0=0, select bank0
  5754  01EE  1303               	bcf	3,6	;RP1=0, select bank0
  5755  01EF  00C7               	movwf	___flmul@temp+1
  5756  01F0  0874               	movf	?__Umul8_16,w
  5757  01F1  00C6               	movwf	___flmul@temp
  5758  01F2  0846               	movf	___flmul@temp,w
  5759  01F3  00B6               	movwf	??___flmul
  5760  01F4  0847               	movf	___flmul@temp+1,w
  5761  01F5  00B7               	movwf	??___flmul+1
  5762  01F6  01B8               	clrf	??___flmul+2
  5763  01F7  01B9               	clrf	??___flmul+3
  5764  01F8  0836               	movf	??___flmul,w
  5765  01F9  07C2               	addwf	___flmul@prod,f
  5766  01FA  0837               	movf	??___flmul+1,w
  5767  01FB  1103               	clrz
  5768  01FC  1803               	skipnc
  5769  01FD  3E01               	addlw	1
  5770  01FE  1903               	skipnz
  5771  01FF  2A01               	goto	u4781
  5772  0200  07C3               	addwf	___flmul@prod+1,f
  5773  0201                     u4781:
  5774  0201  0838               	movf	??___flmul+2,w
  5775  0202  1103               	clrz
  5776  0203  1803               	skipnc
  5777  0204  3E01               	addlw	1
  5778  0205  1903               	skipnz
  5779  0206  2A08               	goto	u4782
  5780  0207  07C4               	addwf	___flmul@prod+2,f
  5781  0208                     u4782:
  5782  0208  0839               	movf	??___flmul+3,w
  5783  0209  1103               	clrz
  5784  020A  1803               	skipnc
  5785  020B  3E01               	addlw	1
  5786  020C  1903               	skipnz
  5787  020D  2A0F               	goto	u4783
  5788  020E  07C5               	addwf	___flmul@prod+3,f
  5789  020F                     u4783:
  5790  020F                     l3446:
  5791  020F  0830               	movf	___flmul@b+2,w
  5792  0210  00B6               	movwf	??___flmul
  5793  0211  0836               	movf	??___flmul,w
  5794  0212  00F4               	movwf	__Umul8_16@multiplicand
  5795  0213  0833               	movf	___flmul@a+1,w
  5796  0214  160A  118A  24CC  120A  118A  	fcall	__Umul8_16
  5797  0219  0875               	movf	?__Umul8_16+1,w
  5798  021A  1283               	bcf	3,5	;RP0=0, select bank0
  5799  021B  1303               	bcf	3,6	;RP1=0, select bank0
  5800  021C  00C7               	movwf	___flmul@temp+1
  5801  021D  0874               	movf	?__Umul8_16,w
  5802  021E  00C6               	movwf	___flmul@temp
  5803  021F                     l3448:
  5804  021F  0846               	movf	___flmul@temp,w
  5805  0220  00B6               	movwf	??___flmul
  5806  0221  0847               	movf	___flmul@temp+1,w
  5807  0222  00B7               	movwf	??___flmul+1
  5808  0223  01B8               	clrf	??___flmul+2
  5809  0224  01B9               	clrf	??___flmul+3
  5810  0225  0836               	movf	??___flmul,w
  5811  0226  07C2               	addwf	___flmul@prod,f
  5812  0227  0837               	movf	??___flmul+1,w
  5813  0228  1103               	clrz
  5814  0229  1803               	skipnc
  5815  022A  3E01               	addlw	1
  5816  022B  1903               	skipnz
  5817  022C  2A2E               	goto	u4791
  5818  022D  07C3               	addwf	___flmul@prod+1,f
  5819  022E                     u4791:
  5820  022E  0838               	movf	??___flmul+2,w
  5821  022F  1103               	clrz
  5822  0230  1803               	skipnc
  5823  0231  3E01               	addlw	1
  5824  0232  1903               	skipnz
  5825  0233  2A35               	goto	u4792
  5826  0234  07C4               	addwf	___flmul@prod+2,f
  5827  0235                     u4792:
  5828  0235  0839               	movf	??___flmul+3,w
  5829  0236  1103               	clrz
  5830  0237  1803               	skipnc
  5831  0238  3E01               	addlw	1
  5832  0239  1903               	skipnz
  5833  023A  2A3C               	goto	u4793
  5834  023B  07C5               	addwf	___flmul@prod+3,f
  5835  023C                     u4793:
  5836  023C  0830               	movf	___flmul@b+2,w
  5837  023D  00B6               	movwf	??___flmul
  5838  023E  0836               	movf	??___flmul,w
  5839  023F  00F4               	movwf	__Umul8_16@multiplicand
  5840  0240  0834               	movf	___flmul@a+2,w
  5841  0241  160A  118A  24CC  120A  118A  	fcall	__Umul8_16
  5842  0246  0875               	movf	?__Umul8_16+1,w
  5843  0247  1283               	bcf	3,5	;RP0=0, select bank0
  5844  0248  1303               	bcf	3,6	;RP1=0, select bank0
  5845  0249  00C7               	movwf	___flmul@temp+1
  5846  024A  0874               	movf	?__Umul8_16,w
  5847  024B  00C6               	movwf	___flmul@temp
  5848  024C                     l3450:
  5849  024C  0846               	movf	___flmul@temp,w
  5850  024D  00B6               	movwf	??___flmul
  5851  024E  0847               	movf	___flmul@temp+1,w
  5852  024F  00B7               	movwf	??___flmul+1
  5853  0250  01B8               	clrf	??___flmul+2
  5854  0251  01B9               	clrf	??___flmul+3
  5855  0252  3008               	movlw	8
  5856  0253                     u4805:
  5857  0253  1003               	clrc
  5858  0254  0DB6               	rlf	??___flmul,f
  5859  0255  0DB7               	rlf	??___flmul+1,f
  5860  0256  0DB8               	rlf	??___flmul+2,f
  5861  0257  0DB9               	rlf	??___flmul+3,f
  5862  0258                     u4800:
  5863  0258  3EFF               	addlw	-1
  5864  0259  1D03               	skipz
  5865  025A  2A53               	goto	u4805
  5866  025B  0836               	movf	??___flmul,w
  5867  025C  07C2               	addwf	___flmul@prod,f
  5868  025D  0837               	movf	??___flmul+1,w
  5869  025E  1103               	clrz
  5870  025F  1803               	skipnc
  5871  0260  3E01               	addlw	1
  5872  0261  1903               	skipnz
  5873  0262  2A64               	goto	u4811
  5874  0263  07C3               	addwf	___flmul@prod+1,f
  5875  0264                     u4811:
  5876  0264  0838               	movf	??___flmul+2,w
  5877  0265  1103               	clrz
  5878  0266  1803               	skipnc
  5879  0267  3E01               	addlw	1
  5880  0268  1903               	skipnz
  5881  0269  2A6B               	goto	u4812
  5882  026A  07C4               	addwf	___flmul@prod+2,f
  5883  026B                     u4812:
  5884  026B  0839               	movf	??___flmul+3,w
  5885  026C  1103               	clrz
  5886  026D  1803               	skipnc
  5887  026E  3E01               	addlw	1
  5888  026F  1903               	skipnz
  5889  0270  2A72               	goto	u4813
  5890  0271  07C5               	addwf	___flmul@prod+3,f
  5891  0272                     u4813:
  5892  0272                     l3452:
  5893  0272  083D               	movf	___flmul@grs,w
  5894  0273  00B6               	movwf	??___flmul
  5895  0274  083E               	movf	___flmul@grs+1,w
  5896  0275  00B7               	movwf	??___flmul+1
  5897  0276  083F               	movf	___flmul@grs+2,w
  5898  0277  00B8               	movwf	??___flmul+2
  5899  0278  0840               	movf	___flmul@grs+3,w
  5900  0279  00B9               	movwf	??___flmul+3
  5901  027A  3018               	movlw	24
  5902  027B                     u4825:
  5903  027B  1003               	clrc
  5904  027C  0CB9               	rrf	??___flmul+3,f
  5905  027D  0CB8               	rrf	??___flmul+2,f
  5906  027E  0CB7               	rrf	??___flmul+1,f
  5907  027F  0CB6               	rrf	??___flmul,f
  5908  0280                     u4820:
  5909  0280  3EFF               	addlw	-1
  5910  0281  1D03               	skipz
  5911  0282  2A7B               	goto	u4825
  5912  0283  0836               	movf	??___flmul,w
  5913  0284  07C2               	addwf	___flmul@prod,f
  5914  0285  0837               	movf	??___flmul+1,w
  5915  0286  1103               	clrz
  5916  0287  1803               	skipnc
  5917  0288  3E01               	addlw	1
  5918  0289  1903               	skipnz
  5919  028A  2A8C               	goto	u4831
  5920  028B  07C3               	addwf	___flmul@prod+1,f
  5921  028C                     u4831:
  5922  028C  0838               	movf	??___flmul+2,w
  5923  028D  1103               	clrz
  5924  028E  1803               	skipnc
  5925  028F  3E01               	addlw	1
  5926  0290  1903               	skipnz
  5927  0291  2A93               	goto	u4832
  5928  0292  07C4               	addwf	___flmul@prod+2,f
  5929  0293                     u4832:
  5930  0293  0839               	movf	??___flmul+3,w
  5931  0294  1103               	clrz
  5932  0295  1803               	skipnc
  5933  0296  3E01               	addlw	1
  5934  0297  1903               	skipnz
  5935  0298  2A9A               	goto	u4833
  5936  0299  07C5               	addwf	___flmul@prod+3,f
  5937  029A                     u4833:
  5938  029A                     l3454:
  5939  029A  3008               	movlw	8
  5940  029B  00B6               	movwf	??___flmul
  5941  029C                     u4845:
  5942  029C  1003               	clrc
  5943  029D  0DBD               	rlf	___flmul@grs,f
  5944  029E  0DBE               	rlf	___flmul@grs+1,f
  5945  029F  0DBF               	rlf	___flmul@grs+2,f
  5946  02A0  0DC0               	rlf	___flmul@grs+3,f
  5947  02A1  0BB6               	decfsz	??___flmul,f
  5948  02A2  2A9C               	goto	u4845
  5949  02A3                     l3456:
  5950  02A3  0841               	movf	___flmul@bexp,w
  5951  02A4  073C               	addwf	___flmul@aexp,w
  5952  02A5  00B6               	movwf	??___flmul
  5953  02A6  01B7               	clrf	??___flmul+1
  5954  02A7  0DB7               	rlf	??___flmul+1,f
  5955  02A8  0836               	movf	??___flmul,w
  5956  02A9  3E82               	addlw	130
  5957  02AA  00C6               	movwf	___flmul@temp
  5958  02AB  0837               	movf	??___flmul+1,w
  5959  02AC  1803               	skipnc
  5960  02AD  3E01               	addlw	1
  5961  02AE  3EFF               	addlw	255
  5962  02AF  00C7               	movwf	___flmul@temp+1
  5963  02B0  2ACE               	goto	l3468
  5964  02B1                     l3458:
  5965  02B1  3001               	movlw	1
  5966  02B2  00B6               	movwf	??___flmul
  5967  02B3                     u4855:
  5968  02B3  1003               	clrc
  5969  02B4  0DC2               	rlf	___flmul@prod,f
  5970  02B5  0DC3               	rlf	___flmul@prod+1,f
  5971  02B6  0DC4               	rlf	___flmul@prod+2,f
  5972  02B7  0DC5               	rlf	___flmul@prod+3,f
  5973  02B8  0BB6               	decfsz	??___flmul,f
  5974  02B9  2AB3               	goto	u4855
  5975  02BA                     l3460:
  5976  02BA  1FC0               	btfss	___flmul@grs+3,7
  5977  02BB  2ABD               	goto	u4861
  5978  02BC  2ABE               	goto	u4860
  5979  02BD                     u4861:
  5980  02BD  2ABF               	goto	l3464
  5981  02BE                     u4860:
  5982  02BE                     l3462:
  5983  02BE  1442               	bsf	___flmul@prod,0
  5984  02BF                     l3464:
  5985  02BF  3001               	movlw	1
  5986  02C0  00B6               	movwf	??___flmul
  5987  02C1                     u4875:
  5988  02C1  1003               	clrc
  5989  02C2  0DBD               	rlf	___flmul@grs,f
  5990  02C3  0DBE               	rlf	___flmul@grs+1,f
  5991  02C4  0DBF               	rlf	___flmul@grs+2,f
  5992  02C5  0DC0               	rlf	___flmul@grs+3,f
  5993  02C6  0BB6               	decfsz	??___flmul,f
  5994  02C7  2AC1               	goto	u4875
  5995  02C8                     l3466:
  5996  02C8  30FF               	movlw	255
  5997  02C9  07C6               	addwf	___flmul@temp,f
  5998  02CA  1803               	skipnc
  5999  02CB  0AC7               	incf	___flmul@temp+1,f
  6000  02CC  30FF               	movlw	255
  6001  02CD  07C7               	addwf	___flmul@temp+1,f
  6002  02CE                     l3468:
  6003  02CE  1FC4               	btfss	___flmul@prod+2,7
  6004  02CF  2AD1               	goto	u4881
  6005  02D0  2AD2               	goto	u4880
  6006  02D1                     u4881:
  6007  02D1  2AB1               	goto	l3458
  6008  02D2                     u4880:
  6009  02D2                     l3470:
  6010  02D2  01BC               	clrf	___flmul@aexp
  6011  02D3                     l3472:
  6012  02D3  1FC0               	btfss	___flmul@grs+3,7
  6013  02D4  2AD6               	goto	u4891
  6014  02D5  2AD7               	goto	u4890
  6015  02D6                     u4891:
  6016  02D6  2AF3               	goto	l3480
  6017  02D7                     u4890:
  6018  02D7                     l3474:
  6019  02D7  30FF               	movlw	255
  6020  02D8  053D               	andwf	___flmul@grs,w
  6021  02D9  00B6               	movwf	??___flmul
  6022  02DA  30FF               	movlw	255
  6023  02DB  053E               	andwf	___flmul@grs+1,w
  6024  02DC  00B7               	movwf	??___flmul+1
  6025  02DD  30FF               	movlw	255
  6026  02DE  053F               	andwf	___flmul@grs+2,w
  6027  02DF  00B8               	movwf	??___flmul+2
  6028  02E0  307F               	movlw	127
  6029  02E1  0540               	andwf	___flmul@grs+3,w
  6030  02E2  00B9               	movwf	??___flmul+3
  6031  02E3  0839               	movf	??___flmul+3,w
  6032  02E4  0438               	iorwf	??___flmul+2,w
  6033  02E5  0437               	iorwf	??___flmul+1,w
  6034  02E6  0436               	iorwf	??___flmul,w
  6035  02E7  1903               	skipnz
  6036  02E8  2AEA               	goto	u4901
  6037  02E9  2AEB               	goto	u4900
  6038  02EA                     u4901:
  6039  02EA  2AEE               	goto	l771
  6040  02EB                     u4900:
  6041  02EB                     l3476:
  6042  02EB  01BC               	clrf	___flmul@aexp
  6043  02EC  0ABC               	incf	___flmul@aexp,f
  6044  02ED  2AF3               	goto	l3480
  6045  02EE                     l771:
  6046  02EE  1C42               	btfss	___flmul@prod,0
  6047  02EF  2AF1               	goto	u4911
  6048  02F0  2AF2               	goto	u4910
  6049  02F1                     u4911:
  6050  02F1  2AF3               	goto	l3480
  6051  02F2                     u4910:
  6052  02F2  2AEB               	goto	l3476
  6053  02F3                     l3480:
  6054  02F3  083C               	movf	___flmul@aexp,w
  6055  02F4  1903               	btfsc	3,2
  6056  02F5  2AF7               	goto	u4921
  6057  02F6  2AF8               	goto	u4920
  6058  02F7                     u4921:
  6059  02F7  2B29               	goto	l3490
  6060  02F8                     u4920:
  6061  02F8                     l3482:
  6062  02F8  3001               	movlw	1
  6063  02F9  07C2               	addwf	___flmul@prod,f
  6064  02FA  3000               	movlw	0
  6065  02FB  1803               	skipnc
  6066  02FC  3001               	movlw	1
  6067  02FD  07C3               	addwf	___flmul@prod+1,f
  6068  02FE  3000               	movlw	0
  6069  02FF  1803               	skipnc
  6070  0300  3001               	movlw	1
  6071  0301  07C4               	addwf	___flmul@prod+2,f
  6072  0302  3000               	movlw	0
  6073  0303  1803               	skipnc
  6074  0304  3001               	movlw	1
  6075  0305  07C5               	addwf	___flmul@prod+3,f
  6076  0306                     l3484:
  6077  0306  1C45               	btfss	___flmul@prod+3,0
  6078  0307  2B09               	goto	u4931
  6079  0308  2B0A               	goto	u4930
  6080  0309                     u4931:
  6081  0309  2B29               	goto	l3490
  6082  030A                     u4930:
  6083  030A                     l3486:
  6084  030A  0842               	movf	___flmul@prod,w
  6085  030B  00B6               	movwf	??___flmul
  6086  030C  0843               	movf	___flmul@prod+1,w
  6087  030D  00B7               	movwf	??___flmul+1
  6088  030E  0844               	movf	___flmul@prod+2,w
  6089  030F  00B8               	movwf	??___flmul+2
  6090  0310  0845               	movf	___flmul@prod+3,w
  6091  0311  00B9               	movwf	??___flmul+3
  6092  0312  3001               	movlw	1
  6093  0313  00BA               	movwf	??___flmul+4
  6094  0314                     u4945:
  6095  0314  0D39               	rlf	??___flmul+3,w
  6096  0315  0CB9               	rrf	??___flmul+3,f
  6097  0316  0CB8               	rrf	??___flmul+2,f
  6098  0317  0CB7               	rrf	??___flmul+1,f
  6099  0318  0CB6               	rrf	??___flmul,f
  6100  0319                     u4940:
  6101  0319  0BBA               	decfsz	??___flmul+4,f
  6102  031A  2B14               	goto	u4945
  6103  031B  0839               	movf	??___flmul+3,w
  6104  031C  00C5               	movwf	___flmul@prod+3
  6105  031D  0838               	movf	??___flmul+2,w
  6106  031E  00C4               	movwf	___flmul@prod+2
  6107  031F  0837               	movf	??___flmul+1,w
  6108  0320  00C3               	movwf	___flmul@prod+1
  6109  0321  0836               	movf	??___flmul,w
  6110  0322  00C2               	movwf	___flmul@prod
  6111  0323                     l3488:
  6112  0323  3001               	movlw	1
  6113  0324  07C6               	addwf	___flmul@temp,f
  6114  0325  1803               	skipnc
  6115  0326  0AC7               	incf	___flmul@temp+1,f
  6116  0327  3000               	movlw	0
  6117  0328  07C7               	addwf	___flmul@temp+1,f
  6118  0329                     l3490:
  6119  0329  0847               	movf	___flmul@temp+1,w
  6120  032A  3A80               	xorlw	128
  6121  032B  00FF               	movwf	btemp+1
  6122  032C  3080               	movlw	128
  6123  032D  027F               	subwf	btemp+1,w
  6124  032E  1D03               	skipz
  6125  032F  2B32               	goto	u4955
  6126  0330  30FF               	movlw	255
  6127  0331  0246               	subwf	___flmul@temp,w
  6128  0332                     u4955:
  6129  0332  1C03               	skipc
  6130  0333  2B35               	goto	u4951
  6131  0334  2B36               	goto	u4950
  6132  0335                     u4951:
  6133  0335  2B41               	goto	l3494
  6134  0336                     u4950:
  6135  0336                     l3492:
  6136  0336  307F               	movlw	127
  6137  0337  1283               	bcf	3,5	;RP0=0, select bank0
  6138  0338  1303               	bcf	3,6	;RP1=0, select bank0
  6139  0339  00C5               	movwf	___flmul@prod+3
  6140  033A  3080               	movlw	128
  6141  033B  00C4               	movwf	___flmul@prod+2
  6142  033C  3000               	movlw	0
  6143  033D  00C3               	movwf	___flmul@prod+1
  6144  033E  3000               	movlw	0
  6145  033F  00C2               	movwf	___flmul@prod
  6146  0340  2B76               	goto	l777
  6147  0341                     l3494:
  6148  0341  1283               	bcf	3,5	;RP0=0, select bank0
  6149  0342  1303               	bcf	3,6	;RP1=0, select bank0
  6150  0343  0847               	movf	___flmul@temp+1,w
  6151  0344  3A80               	xorlw	128
  6152  0345  00FF               	movwf	btemp+1
  6153  0346  3080               	movlw	128
  6154  0347  027F               	subwf	btemp+1,w
  6155  0348  1D03               	skipz
  6156  0349  2B4C               	goto	u4965
  6157  034A  3001               	movlw	1
  6158  034B  0246               	subwf	___flmul@temp,w
  6159  034C                     u4965:
  6160  034C  1803               	skipnc
  6161  034D  2B4F               	goto	u4961
  6162  034E  2B50               	goto	u4960
  6163  034F                     u4961:
  6164  034F  2B5C               	goto	l3500
  6165  0350                     u4960:
  6166  0350                     l3496:
  6167  0350  3000               	movlw	0
  6168  0351  1283               	bcf	3,5	;RP0=0, select bank0
  6169  0352  1303               	bcf	3,6	;RP1=0, select bank0
  6170  0353  00C5               	movwf	___flmul@prod+3
  6171  0354  3000               	movlw	0
  6172  0355  00C4               	movwf	___flmul@prod+2
  6173  0356  3000               	movlw	0
  6174  0357  00C3               	movwf	___flmul@prod+1
  6175  0358  3000               	movlw	0
  6176  0359  00C2               	movwf	___flmul@prod
  6177  035A                     l3498:
  6178  035A  01BB               	clrf	___flmul@sign
  6179  035B  2B76               	goto	l777
  6180  035C                     l3500:
  6181  035C  1283               	bcf	3,5	;RP0=0, select bank0
  6182  035D  1303               	bcf	3,6	;RP1=0, select bank0
  6183  035E  0846               	movf	___flmul@temp,w
  6184  035F  00B6               	movwf	??___flmul
  6185  0360  0836               	movf	??___flmul,w
  6186  0361  00C1               	movwf	___flmul@bexp
  6187  0362  30FF               	movlw	255
  6188  0363  05C2               	andwf	___flmul@prod,f
  6189  0364  30FF               	movlw	255
  6190  0365  05C3               	andwf	___flmul@prod+1,f
  6191  0366  307F               	movlw	127
  6192  0367  05C4               	andwf	___flmul@prod+2,f
  6193  0368  3000               	movlw	0
  6194  0369  05C5               	andwf	___flmul@prod+3,f
  6195  036A                     l3502:
  6196  036A  1C41               	btfss	___flmul@bexp,0
  6197  036B  2B6D               	goto	u4971
  6198  036C  2B6E               	goto	u4970
  6199  036D                     u4971:
  6200  036D  2B6F               	goto	l3506
  6201  036E                     u4970:
  6202  036E                     l3504:
  6203  036E  17C4               	bsf	___flmul@prod+2,7
  6204  036F                     l3506:
  6205  036F  0841               	movf	___flmul@bexp,w
  6206  0370  00B6               	movwf	??___flmul
  6207  0371  1003               	clrc
  6208  0372  0C36               	rrf	??___flmul,w
  6209  0373  00B7               	movwf	??___flmul+1
  6210  0374  0837               	movf	??___flmul+1,w
  6211  0375  00C5               	movwf	___flmul@prod+3
  6212  0376                     l777:
  6213  0376  083B               	movf	___flmul@sign,w
  6214  0377  00B6               	movwf	??___flmul
  6215  0378  0836               	movf	??___flmul,w
  6216  0379  04C5               	iorwf	___flmul@prod+3,f
  6217  037A                     l3508:
  6218  037A  0845               	movf	___flmul@prod+3,w
  6219  037B  00B1               	movwf	?___flmul+3
  6220  037C  0844               	movf	___flmul@prod+2,w
  6221  037D  00B0               	movwf	?___flmul+2
  6222  037E  0843               	movf	___flmul@prod+1,w
  6223  037F  00AF               	movwf	?___flmul+1
  6224  0380  0842               	movf	___flmul@prod,w
  6225  0381  00AE               	movwf	?___flmul
  6226  0382                     l765:
  6227  0382  0008               	return
  6228  0383                     __end_of___flmul:
  6229                           
  6230                           	psect	text16
  6231  14CC                     __ptext16:	
  6232 ;; *************** function __Umul8_16 *****************
  6233 ;; Defined at:
  6234 ;;		line 4 in file "C:\Program Files\Microchip\xc8\v2.35\pic\sources\c90\common\Umul8_16.c"
  6235 ;; Parameters:    Size  Location     Type
  6236 ;;  multiplier      1    wreg     unsigned char 
  6237 ;;  multiplicand    1    4[COMMON] unsigned char 
  6238 ;; Auto vars:     Size  Location     Type
  6239 ;;  multiplier      1    6[BANK0 ] unsigned char 
  6240 ;;  word_mpld       2    4[BANK0 ] unsigned int 
  6241 ;;  product         2    2[BANK0 ] unsigned int 
  6242 ;; Return value:  Size  Location     Type
  6243 ;;                  2    4[COMMON] unsigned int 
  6244 ;; Registers used:
  6245 ;;		wreg, status,2, status,0
  6246 ;; Tracked objects:
  6247 ;;		On entry : 0/0
  6248 ;;		On exit  : 0/0
  6249 ;;		Unchanged: 0/0
  6250 ;; Data sizes:     COMMON   BANK0   BANK1   BANK3   BANK2
  6251 ;;      Params:         2       0       0       0       0
  6252 ;;      Locals:         0       5       0       0       0
  6253 ;;      Temps:          0       2       0       0       0
  6254 ;;      Totals:         2       7       0       0       0
  6255 ;;Total ram usage:        9 bytes
  6256 ;; Hardware stack levels used: 1
  6257 ;; Hardware stack levels required when called: 1
  6258 ;; This function calls:
  6259 ;;		Nothing
  6260 ;; This function is called by:
  6261 ;;		___flmul
  6262 ;; This function uses a non-reentrant model
  6263 ;;
  6264                           
  6265  14CC                     __Umul8_16:	
  6266                           ;psect for function __Umul8_16
  6267                           
  6268                           
  6269                           ;incstack = 0
  6270                           ; Regs used in __Umul8_16: [wreg+status,2+status,0]
  6271                           ;__Umul8_16@multiplier stored from wreg
  6272  14CC  1283               	bcf	3,5	;RP0=0, select bank0
  6273  14CD  1303               	bcf	3,6	;RP1=0, select bank0
  6274  14CE  00A6               	movwf	__Umul8_16@multiplier
  6275  14CF                     l3126:
  6276  14CF  01A2               	clrf	__Umul8_16@product
  6277  14D0  01A3               	clrf	__Umul8_16@product+1
  6278  14D1                     l3128:
  6279  14D1  0874               	movf	__Umul8_16@multiplicand,w
  6280  14D2  00A0               	movwf	??__Umul8_16
  6281  14D3  01A1               	clrf	??__Umul8_16+1
  6282  14D4  0820               	movf	??__Umul8_16,w
  6283  14D5  00A4               	movwf	__Umul8_16@word_mpld
  6284  14D6  0821               	movf	??__Umul8_16+1,w
  6285  14D7  00A5               	movwf	__Umul8_16@word_mpld+1
  6286  14D8                     l3130:
  6287  14D8  1C26               	btfss	__Umul8_16@multiplier,0
  6288  14D9  2CDB               	goto	u4021
  6289  14DA  2CDC               	goto	u4020
  6290  14DB                     u4021:
  6291  14DB  2CE2               	goto	l784
  6292  14DC                     u4020:
  6293  14DC                     l3132:
  6294  14DC  0824               	movf	__Umul8_16@word_mpld,w
  6295  14DD  07A2               	addwf	__Umul8_16@product,f
  6296  14DE  1803               	skipnc
  6297  14DF  0AA3               	incf	__Umul8_16@product+1,f
  6298  14E0  0825               	movf	__Umul8_16@word_mpld+1,w
  6299  14E1  07A3               	addwf	__Umul8_16@product+1,f
  6300  14E2                     l784:
  6301  14E2  3001               	movlw	1
  6302  14E3                     u4035:
  6303  14E3  1003               	clrc
  6304  14E4  0DA4               	rlf	__Umul8_16@word_mpld,f
  6305  14E5  0DA5               	rlf	__Umul8_16@word_mpld+1,f
  6306  14E6  3EFF               	addlw	-1
  6307  14E7  1D03               	skipz
  6308  14E8  2CE3               	goto	u4035
  6309  14E9  1003               	clrc
  6310  14EA  0CA6               	rrf	__Umul8_16@multiplier,f
  6311  14EB                     l3134:
  6312  14EB  0826               	movf	__Umul8_16@multiplier,w
  6313  14EC  1D03               	btfss	3,2
  6314  14ED  2CEF               	goto	u4041
  6315  14EE  2CF0               	goto	u4040
  6316  14EF                     u4041:
  6317  14EF  2CD8               	goto	l3130
  6318  14F0                     u4040:
  6319  14F0                     l3136:
  6320  14F0  0823               	movf	__Umul8_16@product+1,w
  6321  14F1  00F5               	movwf	?__Umul8_16+1
  6322  14F2  0822               	movf	__Umul8_16@product,w
  6323  14F3  00F4               	movwf	?__Umul8_16
  6324  14F4                     l786:
  6325  14F4  0008               	return
  6326  14F5                     __end_of__Umul8_16:
  6327                           
  6328                           	psect	text17
  6329  0B9B                     __ptext17:	
  6330 ;; *************** function ___fldiv *****************
  6331 ;; Defined at:
  6332 ;;		line 8 in file "C:\Program Files\Microchip\xc8\v2.35\pic\sources\c90\common\sprcdiv.c"
  6333 ;; Parameters:    Size  Location     Type
  6334 ;;  a               4   40[BANK0 ] unsigned int 
  6335 ;;  b               4   44[BANK0 ] unsigned int 
  6336 ;; Auto vars:     Size  Location     Type
  6337 ;;  grs             4   60[BANK0 ] unsigned long 
  6338 ;;  rem             4   53[BANK0 ] unsigned long 
  6339 ;;  new_exp         2   58[BANK0 ] int 
  6340 ;;  aexp            1   65[BANK0 ] unsigned char 
  6341 ;;  bexp            1   64[BANK0 ] unsigned char 
  6342 ;;  sign            1   57[BANK0 ] unsigned char 
  6343 ;; Return value:  Size  Location     Type
  6344 ;;                  4   40[BANK0 ] unsigned char 
  6345 ;; Registers used:
  6346 ;;		wreg, status,2, status,0, btemp+1
  6347 ;; Tracked objects:
  6348 ;;		On entry : 0/0
  6349 ;;		On exit  : 0/0
  6350 ;;		Unchanged: 0/0
  6351 ;; Data sizes:     COMMON   BANK0   BANK1   BANK3   BANK2
  6352 ;;      Params:         0       8       0       0       0
  6353 ;;      Locals:         0      13       0       0       0
  6354 ;;      Temps:          0       5       0       0       0
  6355 ;;      Totals:         0      26       0       0       0
  6356 ;;Total ram usage:       26 bytes
  6357 ;; Hardware stack levels used: 1
  6358 ;; Hardware stack levels required when called: 1
  6359 ;; This function calls:
  6360 ;;		Nothing
  6361 ;; This function is called by:
  6362 ;;		_CENTENA
  6363 ;; This function uses a non-reentrant model
  6364 ;;
  6365                           
  6366  0B9B                     ___fldiv:	
  6367                           ;psect for function ___fldiv
  6368                           
  6369  0B9B                     l2278:	
  6370                           ;incstack = 0
  6371                           ; Regs used in ___fldiv: [wreg+status,2+status,0+btemp+1]
  6372                           
  6373  0B9B  1283               	bcf	3,5	;RP0=0, select bank0
  6374  0B9C  1303               	bcf	3,6	;RP1=0, select bank0
  6375  0B9D  084F               	movf	___fldiv@b+3,w
  6376  0B9E  3980               	andlw	128
  6377  0B9F  00D0               	movwf	??___fldiv
  6378  0BA0  0850               	movf	??___fldiv,w
  6379  0BA1  00D9               	movwf	___fldiv@sign
  6380  0BA2                     l2280:
  6381  0BA2  084F               	movf	___fldiv@b+3,w
  6382  0BA3  00D0               	movwf	??___fldiv
  6383  0BA4  0750               	addwf	??___fldiv,w
  6384  0BA5  00D1               	movwf	??___fldiv+1
  6385  0BA6  0851               	movf	??___fldiv+1,w
  6386  0BA7  00E0               	movwf	___fldiv@bexp
  6387  0BA8                     l2282:
  6388  0BA8  1FCE               	btfss	___fldiv@b+2,7
  6389  0BA9  2BAB               	goto	u2671
  6390  0BAA  2BAC               	goto	u2670
  6391  0BAB                     u2671:
  6392  0BAB  2BAD               	goto	l2286
  6393  0BAC                     u2670:
  6394  0BAC                     l2284:
  6395  0BAC  1460               	bsf	___fldiv@bexp,0
  6396  0BAD                     l2286:
  6397  0BAD  0860               	movf	___fldiv@bexp,w
  6398  0BAE  1903               	btfsc	3,2
  6399  0BAF  2BB1               	goto	u2681
  6400  0BB0  2BB2               	goto	u2680
  6401  0BB1                     u2681:
  6402  0BB1  2BC2               	goto	l2296
  6403  0BB2                     u2680:
  6404  0BB2                     l2288:
  6405  0BB2  0A60               	incf	___fldiv@bexp,w
  6406  0BB3  1D03               	btfss	3,2
  6407  0BB4  2BB6               	goto	u2691
  6408  0BB5  2BB7               	goto	u2690
  6409  0BB6                     u2691:
  6410  0BB6  2BBF               	goto	l2292
  6411  0BB7                     u2690:
  6412  0BB7                     l2290:
  6413  0BB7  3000               	movlw	0
  6414  0BB8  00CF               	movwf	___fldiv@b+3
  6415  0BB9  3000               	movlw	0
  6416  0BBA  00CE               	movwf	___fldiv@b+2
  6417  0BBB  3000               	movlw	0
  6418  0BBC  00CD               	movwf	___fldiv@b+1
  6419  0BBD  3000               	movlw	0
  6420  0BBE  00CC               	movwf	___fldiv@b
  6421  0BBF                     l2292:
  6422  0BBF  17CE               	bsf	___fldiv@b+2,7
  6423  0BC0                     l2294:
  6424  0BC0  01CF               	clrf	___fldiv@b+3
  6425  0BC1  2BCA               	goto	l2298
  6426  0BC2                     l2296:
  6427  0BC2  3000               	movlw	0
  6428  0BC3  00CF               	movwf	___fldiv@b+3
  6429  0BC4  3000               	movlw	0
  6430  0BC5  00CE               	movwf	___fldiv@b+2
  6431  0BC6  3000               	movlw	0
  6432  0BC7  00CD               	movwf	___fldiv@b+1
  6433  0BC8  3000               	movlw	0
  6434  0BC9  00CC               	movwf	___fldiv@b
  6435  0BCA                     l2298:
  6436  0BCA  084B               	movf	___fldiv@a+3,w
  6437  0BCB  3980               	andlw	128
  6438  0BCC  00D0               	movwf	??___fldiv
  6439  0BCD  0850               	movf	??___fldiv,w
  6440  0BCE  06D9               	xorwf	___fldiv@sign,f
  6441  0BCF                     l2300:
  6442  0BCF  084B               	movf	___fldiv@a+3,w
  6443  0BD0  00D0               	movwf	??___fldiv
  6444  0BD1  0750               	addwf	??___fldiv,w
  6445  0BD2  00D1               	movwf	??___fldiv+1
  6446  0BD3  0851               	movf	??___fldiv+1,w
  6447  0BD4  00E1               	movwf	___fldiv@aexp
  6448  0BD5                     l2302:
  6449  0BD5  1FCA               	btfss	___fldiv@a+2,7
  6450  0BD6  2BD8               	goto	u2701
  6451  0BD7  2BD9               	goto	u2700
  6452  0BD8                     u2701:
  6453  0BD8  2BDA               	goto	l2306
  6454  0BD9                     u2700:
  6455  0BD9                     l2304:
  6456  0BD9  1461               	bsf	___fldiv@aexp,0
  6457  0BDA                     l2306:
  6458  0BDA  0861               	movf	___fldiv@aexp,w
  6459  0BDB  1903               	btfsc	3,2
  6460  0BDC  2BDE               	goto	u2711
  6461  0BDD  2BDF               	goto	u2710
  6462  0BDE                     u2711:
  6463  0BDE  2BEF               	goto	l2316
  6464  0BDF                     u2710:
  6465  0BDF                     l2308:
  6466  0BDF  0A61               	incf	___fldiv@aexp,w
  6467  0BE0  1D03               	btfss	3,2
  6468  0BE1  2BE3               	goto	u2721
  6469  0BE2  2BE4               	goto	u2720
  6470  0BE3                     u2721:
  6471  0BE3  2BEC               	goto	l2312
  6472  0BE4                     u2720:
  6473  0BE4                     l2310:
  6474  0BE4  3000               	movlw	0
  6475  0BE5  00CB               	movwf	___fldiv@a+3
  6476  0BE6  3000               	movlw	0
  6477  0BE7  00CA               	movwf	___fldiv@a+2
  6478  0BE8  3000               	movlw	0
  6479  0BE9  00C9               	movwf	___fldiv@a+1
  6480  0BEA  3000               	movlw	0
  6481  0BEB  00C8               	movwf	___fldiv@a
  6482  0BEC                     l2312:
  6483  0BEC  17CA               	bsf	___fldiv@a+2,7
  6484  0BED                     l2314:
  6485  0BED  01CB               	clrf	___fldiv@a+3
  6486  0BEE  2BF7               	goto	l725
  6487  0BEF                     l2316:
  6488  0BEF  3000               	movlw	0
  6489  0BF0  00CB               	movwf	___fldiv@a+3
  6490  0BF1  3000               	movlw	0
  6491  0BF2  00CA               	movwf	___fldiv@a+2
  6492  0BF3  3000               	movlw	0
  6493  0BF4  00C9               	movwf	___fldiv@a+1
  6494  0BF5  3000               	movlw	0
  6495  0BF6  00C8               	movwf	___fldiv@a
  6496  0BF7                     l725:
  6497  0BF7  084B               	movf	___fldiv@a+3,w
  6498  0BF8  044A               	iorwf	___fldiv@a+2,w
  6499  0BF9  0449               	iorwf	___fldiv@a+1,w
  6500  0BFA  0448               	iorwf	___fldiv@a,w
  6501  0BFB  1D03               	skipz
  6502  0BFC  2BFE               	goto	u2731
  6503  0BFD  2BFF               	goto	u2730
  6504  0BFE                     u2731:
  6505  0BFE  2C18               	goto	l2326
  6506  0BFF                     u2730:
  6507  0BFF                     l2318:
  6508  0BFF  3000               	movlw	0
  6509  0C00  00CF               	movwf	___fldiv@b+3
  6510  0C01  3000               	movlw	0
  6511  0C02  00CE               	movwf	___fldiv@b+2
  6512  0C03  3000               	movlw	0
  6513  0C04  00CD               	movwf	___fldiv@b+1
  6514  0C05  3000               	movlw	0
  6515  0C06  00CC               	movwf	___fldiv@b
  6516  0C07  3080               	movlw	128
  6517  0C08  04CE               	iorwf	___fldiv@b+2,f
  6518  0C09  307F               	movlw	127
  6519  0C0A  04CF               	iorwf	___fldiv@b+3,f
  6520  0C0B                     l2320:
  6521  0C0B  0859               	movf	___fldiv@sign,w
  6522  0C0C  00D0               	movwf	??___fldiv
  6523  0C0D  0850               	movf	??___fldiv,w
  6524  0C0E  04CF               	iorwf	___fldiv@b+3,f
  6525  0C0F                     l2322:
  6526  0C0F  084F               	movf	___fldiv@b+3,w
  6527  0C10  00CB               	movwf	?___fldiv+3
  6528  0C11  084E               	movf	___fldiv@b+2,w
  6529  0C12  00CA               	movwf	?___fldiv+2
  6530  0C13  084D               	movf	___fldiv@b+1,w
  6531  0C14  00C9               	movwf	?___fldiv+1
  6532  0C15  084C               	movf	___fldiv@b,w
  6533  0C16  00C8               	movwf	?___fldiv
  6534  0C17  2D77               	goto	l727
  6535  0C18                     l2326:
  6536  0C18  0860               	movf	___fldiv@bexp,w
  6537  0C19  1D03               	btfss	3,2
  6538  0C1A  2C1C               	goto	u2741
  6539  0C1B  2C1D               	goto	u2740
  6540  0C1C                     u2741:
  6541  0C1C  2C26               	goto	l2332
  6542  0C1D                     u2740:
  6543  0C1D                     l2328:
  6544  0C1D  3000               	movlw	0
  6545  0C1E  00CB               	movwf	?___fldiv+3
  6546  0C1F  3000               	movlw	0
  6547  0C20  00CA               	movwf	?___fldiv+2
  6548  0C21  3000               	movlw	0
  6549  0C22  00C9               	movwf	?___fldiv+1
  6550  0C23  3000               	movlw	0
  6551  0C24  00C8               	movwf	?___fldiv
  6552  0C25  2D77               	goto	l727
  6553  0C26                     l2332:
  6554  0C26  0860               	movf	___fldiv@bexp,w
  6555  0C27  00D0               	movwf	??___fldiv
  6556  0C28  01D1               	clrf	??___fldiv+1
  6557  0C29  0851               	movf	??___fldiv+1,w
  6558  0C2A  00D3               	movwf	??___fldiv+3
  6559  0C2B  0861               	movf	___fldiv@aexp,w
  6560  0C2C  0250               	subwf	??___fldiv,w
  6561  0C2D  00D2               	movwf	??___fldiv+2
  6562  0C2E  1C03               	skipc
  6563  0C2F  03D3               	decf	??___fldiv+3,f
  6564  0C30  0852               	movf	??___fldiv+2,w
  6565  0C31  3E7F               	addlw	127
  6566  0C32  00DA               	movwf	___fldiv@new_exp
  6567  0C33  0853               	movf	??___fldiv+3,w
  6568  0C34  1803               	skipnc
  6569  0C35  3E01               	addlw	1
  6570  0C36  3E00               	addlw	0
  6571  0C37  00DB               	movwf	___fldiv@new_exp+1
  6572  0C38                     l2334:
  6573  0C38  084F               	movf	___fldiv@b+3,w
  6574  0C39  00D8               	movwf	___fldiv@rem+3
  6575  0C3A  084E               	movf	___fldiv@b+2,w
  6576  0C3B  00D7               	movwf	___fldiv@rem+2
  6577  0C3C  084D               	movf	___fldiv@b+1,w
  6578  0C3D  00D6               	movwf	___fldiv@rem+1
  6579  0C3E  084C               	movf	___fldiv@b,w
  6580  0C3F  00D5               	movwf	___fldiv@rem
  6581  0C40                     l2336:
  6582  0C40  3000               	movlw	0
  6583  0C41  00CF               	movwf	___fldiv@b+3
  6584  0C42  3000               	movlw	0
  6585  0C43  00CE               	movwf	___fldiv@b+2
  6586  0C44  3000               	movlw	0
  6587  0C45  00CD               	movwf	___fldiv@b+1
  6588  0C46  3000               	movlw	0
  6589  0C47  00CC               	movwf	___fldiv@b
  6590  0C48                     l2338:
  6591  0C48  3000               	movlw	0
  6592  0C49  00DF               	movwf	___fldiv@grs+3
  6593  0C4A  3000               	movlw	0
  6594  0C4B  00DE               	movwf	___fldiv@grs+2
  6595  0C4C  3000               	movlw	0
  6596  0C4D  00DD               	movwf	___fldiv@grs+1
  6597  0C4E  3000               	movlw	0
  6598  0C4F  00DC               	movwf	___fldiv@grs
  6599  0C50                     l2340:
  6600  0C50  01E1               	clrf	___fldiv@aexp
  6601  0C51  2C9C               	goto	l2360
  6602  0C52                     l2342:
  6603  0C52  0861               	movf	___fldiv@aexp,w
  6604  0C53  1903               	btfsc	3,2
  6605  0C54  2C56               	goto	u2751
  6606  0C55  2C57               	goto	u2750
  6607  0C56                     u2751:
  6608  0C56  2C77               	goto	l2352
  6609  0C57                     u2750:
  6610  0C57                     l2344:
  6611  0C57  3001               	movlw	1
  6612  0C58  00D0               	movwf	??___fldiv
  6613  0C59                     u2765:
  6614  0C59  1003               	clrc
  6615  0C5A  0DD5               	rlf	___fldiv@rem,f
  6616  0C5B  0DD6               	rlf	___fldiv@rem+1,f
  6617  0C5C  0DD7               	rlf	___fldiv@rem+2,f
  6618  0C5D  0DD8               	rlf	___fldiv@rem+3,f
  6619  0C5E  0BD0               	decfsz	??___fldiv,f
  6620  0C5F  2C59               	goto	u2765
  6621  0C60  3001               	movlw	1
  6622  0C61  00D0               	movwf	??___fldiv
  6623  0C62                     u2775:
  6624  0C62  1003               	clrc
  6625  0C63  0DCC               	rlf	___fldiv@b,f
  6626  0C64  0DCD               	rlf	___fldiv@b+1,f
  6627  0C65  0DCE               	rlf	___fldiv@b+2,f
  6628  0C66  0DCF               	rlf	___fldiv@b+3,f
  6629  0C67  0BD0               	decfsz	??___fldiv,f
  6630  0C68  2C62               	goto	u2775
  6631  0C69                     l2346:
  6632  0C69  1FDF               	btfss	___fldiv@grs+3,7
  6633  0C6A  2C6C               	goto	u2781
  6634  0C6B  2C6D               	goto	u2780
  6635  0C6C                     u2781:
  6636  0C6C  2C6E               	goto	l2350
  6637  0C6D                     u2780:
  6638  0C6D                     l2348:
  6639  0C6D  144C               	bsf	___fldiv@b,0
  6640  0C6E                     l2350:
  6641  0C6E  3001               	movlw	1
  6642  0C6F  00D0               	movwf	??___fldiv
  6643  0C70                     u2795:
  6644  0C70  1003               	clrc
  6645  0C71  0DDC               	rlf	___fldiv@grs,f
  6646  0C72  0DDD               	rlf	___fldiv@grs+1,f
  6647  0C73  0DDE               	rlf	___fldiv@grs+2,f
  6648  0C74  0DDF               	rlf	___fldiv@grs+3,f
  6649  0C75  0BD0               	decfsz	??___fldiv,f
  6650  0C76  2C70               	goto	u2795
  6651  0C77                     l2352:
  6652  0C77  084B               	movf	___fldiv@a+3,w
  6653  0C78  0258               	subwf	___fldiv@rem+3,w
  6654  0C79  1D03               	skipz
  6655  0C7A  2C85               	goto	u2805
  6656  0C7B  084A               	movf	___fldiv@a+2,w
  6657  0C7C  0257               	subwf	___fldiv@rem+2,w
  6658  0C7D  1D03               	skipz
  6659  0C7E  2C85               	goto	u2805
  6660  0C7F  0849               	movf	___fldiv@a+1,w
  6661  0C80  0256               	subwf	___fldiv@rem+1,w
  6662  0C81  1D03               	skipz
  6663  0C82  2C85               	goto	u2805
  6664  0C83  0848               	movf	___fldiv@a,w
  6665  0C84  0255               	subwf	___fldiv@rem,w
  6666  0C85                     u2805:
  6667  0C85  1C03               	skipc
  6668  0C86  2C88               	goto	u2801
  6669  0C87  2C89               	goto	u2800
  6670  0C88                     u2801:
  6671  0C88  2C98               	goto	l2358
  6672  0C89                     u2800:
  6673  0C89                     l2354:
  6674  0C89  175F               	bsf	___fldiv@grs+3,6
  6675  0C8A                     l2356:
  6676  0C8A  0848               	movf	___fldiv@a,w
  6677  0C8B  02D5               	subwf	___fldiv@rem,f
  6678  0C8C  0849               	movf	___fldiv@a+1,w
  6679  0C8D  1C03               	skipc
  6680  0C8E  0F49               	incfsz	___fldiv@a+1,w
  6681  0C8F  02D6               	subwf	___fldiv@rem+1,f
  6682  0C90  084A               	movf	___fldiv@a+2,w
  6683  0C91  1C03               	skipc
  6684  0C92  0F4A               	incfsz	___fldiv@a+2,w
  6685  0C93  02D7               	subwf	___fldiv@rem+2,f
  6686  0C94  084B               	movf	___fldiv@a+3,w
  6687  0C95  1C03               	skipc
  6688  0C96  0F4B               	incfsz	___fldiv@a+3,w
  6689  0C97  02D8               	subwf	___fldiv@rem+3,f
  6690  0C98                     l2358:
  6691  0C98  3001               	movlw	1
  6692  0C99  00D0               	movwf	??___fldiv
  6693  0C9A  0850               	movf	??___fldiv,w
  6694  0C9B  07E1               	addwf	___fldiv@aexp,f
  6695  0C9C                     l2360:
  6696  0C9C  301A               	movlw	26
  6697  0C9D  0261               	subwf	___fldiv@aexp,w
  6698  0C9E  1C03               	skipc
  6699  0C9F  2CA1               	goto	u2811
  6700  0CA0  2CA2               	goto	u2810
  6701  0CA1                     u2811:
  6702  0CA1  2C52               	goto	l2342
  6703  0CA2                     u2810:
  6704  0CA2                     l2362:
  6705  0CA2  0858               	movf	___fldiv@rem+3,w
  6706  0CA3  0457               	iorwf	___fldiv@rem+2,w
  6707  0CA4  0456               	iorwf	___fldiv@rem+1,w
  6708  0CA5  0455               	iorwf	___fldiv@rem,w
  6709  0CA6  1903               	skipnz
  6710  0CA7  2CA9               	goto	u2821
  6711  0CA8  2CAA               	goto	u2820
  6712  0CA9                     u2821:
  6713  0CA9  2CC9               	goto	l2376
  6714  0CAA                     u2820:
  6715  0CAA                     l2364:
  6716  0CAA  145C               	bsf	___fldiv@grs,0
  6717  0CAB  2CC9               	goto	l2376
  6718  0CAC                     l2366:
  6719  0CAC  3001               	movlw	1
  6720  0CAD  00D0               	movwf	??___fldiv
  6721  0CAE                     u2835:
  6722  0CAE  1003               	clrc
  6723  0CAF  0DCC               	rlf	___fldiv@b,f
  6724  0CB0  0DCD               	rlf	___fldiv@b+1,f
  6725  0CB1  0DCE               	rlf	___fldiv@b+2,f
  6726  0CB2  0DCF               	rlf	___fldiv@b+3,f
  6727  0CB3  0BD0               	decfsz	??___fldiv,f
  6728  0CB4  2CAE               	goto	u2835
  6729  0CB5                     l2368:
  6730  0CB5  1FDF               	btfss	___fldiv@grs+3,7
  6731  0CB6  2CB8               	goto	u2841
  6732  0CB7  2CB9               	goto	u2840
  6733  0CB8                     u2841:
  6734  0CB8  2CBA               	goto	l2372
  6735  0CB9                     u2840:
  6736  0CB9                     l2370:
  6737  0CB9  144C               	bsf	___fldiv@b,0
  6738  0CBA                     l2372:
  6739  0CBA  3001               	movlw	1
  6740  0CBB  00D0               	movwf	??___fldiv
  6741  0CBC                     u2855:
  6742  0CBC  1003               	clrc
  6743  0CBD  0DDC               	rlf	___fldiv@grs,f
  6744  0CBE  0DDD               	rlf	___fldiv@grs+1,f
  6745  0CBF  0DDE               	rlf	___fldiv@grs+2,f
  6746  0CC0  0DDF               	rlf	___fldiv@grs+3,f
  6747  0CC1  0BD0               	decfsz	??___fldiv,f
  6748  0CC2  2CBC               	goto	u2855
  6749  0CC3                     l2374:
  6750  0CC3  30FF               	movlw	255
  6751  0CC4  07DA               	addwf	___fldiv@new_exp,f
  6752  0CC5  1803               	skipnc
  6753  0CC6  0ADB               	incf	___fldiv@new_exp+1,f
  6754  0CC7  30FF               	movlw	255
  6755  0CC8  07DB               	addwf	___fldiv@new_exp+1,f
  6756  0CC9                     l2376:
  6757  0CC9  1FCE               	btfss	___fldiv@b+2,7
  6758  0CCA  2CCC               	goto	u2861
  6759  0CCB  2CCD               	goto	u2860
  6760  0CCC                     u2861:
  6761  0CCC  2CAC               	goto	l2366
  6762  0CCD                     u2860:
  6763  0CCD                     l2378:
  6764  0CCD  01E1               	clrf	___fldiv@aexp
  6765  0CCE                     l2380:
  6766  0CCE  1FDF               	btfss	___fldiv@grs+3,7
  6767  0CCF  2CD1               	goto	u2871
  6768  0CD0  2CD2               	goto	u2870
  6769  0CD1                     u2871:
  6770  0CD1  2CEE               	goto	l2388
  6771  0CD2                     u2870:
  6772  0CD2                     l2382:
  6773  0CD2  30FF               	movlw	255
  6774  0CD3  055C               	andwf	___fldiv@grs,w
  6775  0CD4  00D0               	movwf	??___fldiv
  6776  0CD5  30FF               	movlw	255
  6777  0CD6  055D               	andwf	___fldiv@grs+1,w
  6778  0CD7  00D1               	movwf	??___fldiv+1
  6779  0CD8  30FF               	movlw	255
  6780  0CD9  055E               	andwf	___fldiv@grs+2,w
  6781  0CDA  00D2               	movwf	??___fldiv+2
  6782  0CDB  307F               	movlw	127
  6783  0CDC  055F               	andwf	___fldiv@grs+3,w
  6784  0CDD  00D3               	movwf	??___fldiv+3
  6785  0CDE  0853               	movf	??___fldiv+3,w
  6786  0CDF  0452               	iorwf	??___fldiv+2,w
  6787  0CE0  0451               	iorwf	??___fldiv+1,w
  6788  0CE1  0450               	iorwf	??___fldiv,w
  6789  0CE2  1903               	skipnz
  6790  0CE3  2CE5               	goto	u2881
  6791  0CE4  2CE6               	goto	u2880
  6792  0CE5                     u2881:
  6793  0CE5  2CE9               	goto	l741
  6794  0CE6                     u2880:
  6795  0CE6                     l2384:
  6796  0CE6  01E1               	clrf	___fldiv@aexp
  6797  0CE7  0AE1               	incf	___fldiv@aexp,f
  6798  0CE8  2CEE               	goto	l2388
  6799  0CE9                     l741:
  6800  0CE9  1C4C               	btfss	___fldiv@b,0
  6801  0CEA  2CEC               	goto	u2891
  6802  0CEB  2CED               	goto	u2890
  6803  0CEC                     u2891:
  6804  0CEC  2CEE               	goto	l2388
  6805  0CED                     u2890:
  6806  0CED  2CE6               	goto	l2384
  6807  0CEE                     l2388:
  6808  0CEE  0861               	movf	___fldiv@aexp,w
  6809  0CEF  1903               	btfsc	3,2
  6810  0CF0  2CF2               	goto	u2901
  6811  0CF1  2CF3               	goto	u2900
  6812  0CF2                     u2901:
  6813  0CF2  2D24               	goto	l2398
  6814  0CF3                     u2900:
  6815  0CF3                     l2390:
  6816  0CF3  3001               	movlw	1
  6817  0CF4  07CC               	addwf	___fldiv@b,f
  6818  0CF5  3000               	movlw	0
  6819  0CF6  1803               	skipnc
  6820  0CF7  3001               	movlw	1
  6821  0CF8  07CD               	addwf	___fldiv@b+1,f
  6822  0CF9  3000               	movlw	0
  6823  0CFA  1803               	skipnc
  6824  0CFB  3001               	movlw	1
  6825  0CFC  07CE               	addwf	___fldiv@b+2,f
  6826  0CFD  3000               	movlw	0
  6827  0CFE  1803               	skipnc
  6828  0CFF  3001               	movlw	1
  6829  0D00  07CF               	addwf	___fldiv@b+3,f
  6830  0D01                     l2392:
  6831  0D01  1C4F               	btfss	___fldiv@b+3,0
  6832  0D02  2D04               	goto	u2911
  6833  0D03  2D05               	goto	u2910
  6834  0D04                     u2911:
  6835  0D04  2D24               	goto	l2398
  6836  0D05                     u2910:
  6837  0D05                     l2394:
  6838  0D05  084C               	movf	___fldiv@b,w
  6839  0D06  00D0               	movwf	??___fldiv
  6840  0D07  084D               	movf	___fldiv@b+1,w
  6841  0D08  00D1               	movwf	??___fldiv+1
  6842  0D09  084E               	movf	___fldiv@b+2,w
  6843  0D0A  00D2               	movwf	??___fldiv+2
  6844  0D0B  084F               	movf	___fldiv@b+3,w
  6845  0D0C  00D3               	movwf	??___fldiv+3
  6846  0D0D  3001               	movlw	1
  6847  0D0E  00D4               	movwf	??___fldiv+4
  6848  0D0F                     u2925:
  6849  0D0F  0D53               	rlf	??___fldiv+3,w
  6850  0D10  0CD3               	rrf	??___fldiv+3,f
  6851  0D11  0CD2               	rrf	??___fldiv+2,f
  6852  0D12  0CD1               	rrf	??___fldiv+1,f
  6853  0D13  0CD0               	rrf	??___fldiv,f
  6854  0D14                     u2920:
  6855  0D14  0BD4               	decfsz	??___fldiv+4,f
  6856  0D15  2D0F               	goto	u2925
  6857  0D16  0853               	movf	??___fldiv+3,w
  6858  0D17  00CF               	movwf	___fldiv@b+3
  6859  0D18  0852               	movf	??___fldiv+2,w
  6860  0D19  00CE               	movwf	___fldiv@b+2
  6861  0D1A  0851               	movf	??___fldiv+1,w
  6862  0D1B  00CD               	movwf	___fldiv@b+1
  6863  0D1C  0850               	movf	??___fldiv,w
  6864  0D1D  00CC               	movwf	___fldiv@b
  6865  0D1E                     l2396:
  6866  0D1E  3001               	movlw	1
  6867  0D1F  07DA               	addwf	___fldiv@new_exp,f
  6868  0D20  1803               	skipnc
  6869  0D21  0ADB               	incf	___fldiv@new_exp+1,f
  6870  0D22  3000               	movlw	0
  6871  0D23  07DB               	addwf	___fldiv@new_exp+1,f
  6872  0D24                     l2398:
  6873  0D24  085B               	movf	___fldiv@new_exp+1,w
  6874  0D25  3A80               	xorlw	128
  6875  0D26  00FF               	movwf	btemp+1
  6876  0D27  3080               	movlw	128
  6877  0D28  027F               	subwf	btemp+1,w
  6878  0D29  1D03               	skipz
  6879  0D2A  2D2D               	goto	u2935
  6880  0D2B  30FF               	movlw	255
  6881  0D2C  025A               	subwf	___fldiv@new_exp,w
  6882  0D2D                     u2935:
  6883  0D2D  1C03               	skipc
  6884  0D2E  2D30               	goto	u2931
  6885  0D2F  2D31               	goto	u2930
  6886  0D30                     u2931:
  6887  0D30  2D3F               	goto	l2402
  6888  0D31                     u2930:
  6889  0D31                     l2400:
  6890  0D31  30FF               	movlw	255
  6891  0D32  1283               	bcf	3,5	;RP0=0, select bank0
  6892  0D33  1303               	bcf	3,6	;RP1=0, select bank0
  6893  0D34  00DA               	movwf	___fldiv@new_exp
  6894  0D35  3000               	movlw	0
  6895  0D36  00DB               	movwf	___fldiv@new_exp+1
  6896  0D37  3000               	movlw	0
  6897  0D38  00CF               	movwf	___fldiv@b+3
  6898  0D39  3000               	movlw	0
  6899  0D3A  00CE               	movwf	___fldiv@b+2
  6900  0D3B  3000               	movlw	0
  6901  0D3C  00CD               	movwf	___fldiv@b+1
  6902  0D3D  3000               	movlw	0
  6903  0D3E  00CC               	movwf	___fldiv@b
  6904  0D3F                     l2402:
  6905  0D3F  1283               	bcf	3,5	;RP0=0, select bank0
  6906  0D40  1303               	bcf	3,6	;RP1=0, select bank0
  6907  0D41  085B               	movf	___fldiv@new_exp+1,w
  6908  0D42  3A80               	xorlw	128
  6909  0D43  00FF               	movwf	btemp+1
  6910  0D44  3080               	movlw	128
  6911  0D45  027F               	subwf	btemp+1,w
  6912  0D46  1D03               	skipz
  6913  0D47  2D4A               	goto	u2945
  6914  0D48  3001               	movlw	1
  6915  0D49  025A               	subwf	___fldiv@new_exp,w
  6916  0D4A                     u2945:
  6917  0D4A  1803               	skipnc
  6918  0D4B  2D4D               	goto	u2941
  6919  0D4C  2D4E               	goto	u2940
  6920  0D4D                     u2941:
  6921  0D4D  2D5B               	goto	l747
  6922  0D4E                     u2940:
  6923  0D4E                     l2404:
  6924  0D4E  1283               	bcf	3,5	;RP0=0, select bank0
  6925  0D4F  1303               	bcf	3,6	;RP1=0, select bank0
  6926  0D50  01DA               	clrf	___fldiv@new_exp
  6927  0D51  01DB               	clrf	___fldiv@new_exp+1
  6928  0D52                     l2406:
  6929  0D52  3000               	movlw	0
  6930  0D53  00CF               	movwf	___fldiv@b+3
  6931  0D54  3000               	movlw	0
  6932  0D55  00CE               	movwf	___fldiv@b+2
  6933  0D56  3000               	movlw	0
  6934  0D57  00CD               	movwf	___fldiv@b+1
  6935  0D58  3000               	movlw	0
  6936  0D59  00CC               	movwf	___fldiv@b
  6937  0D5A                     l2408:
  6938  0D5A  01D9               	clrf	___fldiv@sign
  6939  0D5B                     l747:
  6940  0D5B  1283               	bcf	3,5	;RP0=0, select bank0
  6941  0D5C  1303               	bcf	3,6	;RP1=0, select bank0
  6942  0D5D  085A               	movf	___fldiv@new_exp,w
  6943  0D5E  00D0               	movwf	??___fldiv
  6944  0D5F  0850               	movf	??___fldiv,w
  6945  0D60  00E0               	movwf	___fldiv@bexp
  6946  0D61                     l2410:
  6947  0D61  1C60               	btfss	___fldiv@bexp,0
  6948  0D62  2D64               	goto	u2951
  6949  0D63  2D65               	goto	u2950
  6950  0D64                     u2951:
  6951  0D64  2D67               	goto	l2414
  6952  0D65                     u2950:
  6953  0D65                     l2412:
  6954  0D65  17CE               	bsf	___fldiv@b+2,7
  6955  0D66  2D6B               	goto	l749
  6956  0D67                     l2414:
  6957  0D67  307F               	movlw	127
  6958  0D68  00D0               	movwf	??___fldiv
  6959  0D69  0850               	movf	??___fldiv,w
  6960  0D6A  05CE               	andwf	___fldiv@b+2,f
  6961  0D6B                     l749:
  6962  0D6B  0860               	movf	___fldiv@bexp,w
  6963  0D6C  00D0               	movwf	??___fldiv
  6964  0D6D  1003               	clrc
  6965  0D6E  0C50               	rrf	??___fldiv,w
  6966  0D6F  00D1               	movwf	??___fldiv+1
  6967  0D70  0851               	movf	??___fldiv+1,w
  6968  0D71  00CF               	movwf	___fldiv@b+3
  6969  0D72  0859               	movf	___fldiv@sign,w
  6970  0D73  00D0               	movwf	??___fldiv
  6971  0D74  0850               	movf	??___fldiv,w
  6972  0D75  04CF               	iorwf	___fldiv@b+3,f
  6973  0D76  2C0F               	goto	l2322
  6974  0D77                     l727:
  6975  0D77  0008               	return
  6976  0D78                     __end_of___fldiv:
  6977                           
  6978                           	psect	text18
  6979  14F5                     __ptext18:	
  6980 ;; *************** function _RTC_WRITE *****************
  6981 ;; Defined at:
  6982 ;;		line 287 in file "MAIN_M.c"
  6983 ;; Parameters:    Size  Location     Type
  6984 ;;  I2C             2    0[BANK0 ] unsigned int 
  6985 ;;  d               2    2[BANK0 ] unsigned int 
  6986 ;;  parametro       1    4[BANK0 ] unsigned char 
  6987 ;; Auto vars:     Size  Location     Type
  6988 ;;		None
  6989 ;; Return value:  Size  Location     Type
  6990 ;;                  1    wreg      void 
  6991 ;; Registers used:
  6992 ;;		wreg, status,2, status,0, pclath, cstack
  6993 ;; Tracked objects:
  6994 ;;		On entry : 0/0
  6995 ;;		On exit  : 0/0
  6996 ;;		Unchanged: 0/0
  6997 ;; Data sizes:     COMMON   BANK0   BANK1   BANK3   BANK2
  6998 ;;      Params:         0       5       0       0       0
  6999 ;;      Locals:         0       0       0       0       0
  7000 ;;      Temps:          0       2       0       0       0
  7001 ;;      Totals:         0       7       0       0       0
  7002 ;;Total ram usage:        7 bytes
  7003 ;; Hardware stack levels used: 1
  7004 ;; Hardware stack levels required when called: 3
  7005 ;; This function calls:
  7006 ;;		_I2C_Master_Start
  7007 ;;		_I2C_Master_Stop
  7008 ;;		_I2C_Master_Write
  7009 ;; This function is called by:
  7010 ;;		_main
  7011 ;; This function uses a non-reentrant model
  7012 ;;
  7013                           
  7014  14F5                     _RTC_WRITE:	
  7015                           ;psect for function _RTC_WRITE
  7016                           
  7017  14F5                     l3870:	
  7018                           ;incstack = 0
  7019                           ; Regs used in _RTC_WRITE: [wreg+status,2+status,0+pclath+cstack]
  7020                           
  7021                           
  7022                           ;MAIN_M.c: 289:     I2C_Master_Start();
  7023  14F5  160A  118A  2379  160A  118A  	fcall	_I2C_Master_Start
  7024                           
  7025                           ;MAIN_M.c: 290:     I2C_Master_Write(I2C);
  7026  14FA  1283               	bcf	3,5	;RP0=0, select bank0
  7027  14FB  1303               	bcf	3,6	;RP1=0, select bank0
  7028  14FC  0821               	movf	RTC_WRITE@I2C+1,w
  7029  14FD  00F5               	movwf	I2C_Master_Write@d+1
  7030  14FE  0820               	movf	RTC_WRITE@I2C,w
  7031  14FF  00F4               	movwf	I2C_Master_Write@d
  7032  1500  160A  118A  238B  160A  118A  	fcall	_I2C_Master_Write
  7033                           
  7034                           ;MAIN_M.c: 291:     I2C_Master_Write(d);
  7035  1505  1283               	bcf	3,5	;RP0=0, select bank0
  7036  1506  1303               	bcf	3,6	;RP1=0, select bank0
  7037  1507  0823               	movf	RTC_WRITE@d+1,w
  7038  1508  00F5               	movwf	I2C_Master_Write@d+1
  7039  1509  0822               	movf	RTC_WRITE@d,w
  7040  150A  00F4               	movwf	I2C_Master_Write@d
  7041  150B  160A  118A  238B  160A  118A  	fcall	_I2C_Master_Write
  7042                           
  7043                           ;MAIN_M.c: 292:     I2C_Master_Write(parametro);
  7044  1510  1283               	bcf	3,5	;RP0=0, select bank0
  7045  1511  1303               	bcf	3,6	;RP1=0, select bank0
  7046  1512  0824               	movf	RTC_WRITE@parametro,w
  7047  1513  00A5               	movwf	??_RTC_WRITE
  7048  1514  01A6               	clrf	??_RTC_WRITE+1
  7049  1515  0825               	movf	??_RTC_WRITE,w
  7050  1516  00F4               	movwf	I2C_Master_Write@d
  7051  1517  0826               	movf	??_RTC_WRITE+1,w
  7052  1518  00F5               	movwf	I2C_Master_Write@d+1
  7053  1519  160A  118A  238B  160A  118A  	fcall	_I2C_Master_Write
  7054                           
  7055                           ;MAIN_M.c: 293:     I2C_Master_Stop();
  7056  151E  160A  118A  2382  160A  118A  	fcall	_I2C_Master_Stop
  7057  1523                     l3872:
  7058                           
  7059                           ;MAIN_M.c: 294:     _delay((unsigned long)((20)*(8000000/4000.0)));
  7060  1523  3034               	movlw	52
  7061  1524  1283               	bcf	3,5	;RP0=0, select bank0
  7062  1525  1303               	bcf	3,6	;RP1=0, select bank0
  7063  1526  00A6               	movwf	??_RTC_WRITE+1
  7064  1527  30F1               	movlw	241
  7065  1528  00A5               	movwf	??_RTC_WRITE
  7066  1529                     u5717:
  7067  1529  0BA5               	decfsz	??_RTC_WRITE,f
  7068  152A  2D29               	goto	u5717
  7069  152B  0BA6               	decfsz	??_RTC_WRITE+1,f
  7070  152C  2D29               	goto	u5717
  7071  152D                     l166:
  7072  152D  0008               	return
  7073  152E                     __end_of_RTC_WRITE:
  7074                           
  7075                           	psect	text19
  7076  1734                     __ptext19:	
  7077 ;; *************** function _RTC_READ *****************
  7078 ;; Defined at:
  7079 ;;		line 245 in file "MAIN_M.c"
  7080 ;; Parameters:    Size  Location     Type
  7081 ;;  I2C             2    4[BANK0 ] unsigned int 
  7082 ;;  d               2    6[BANK0 ] unsigned int 
  7083 ;; Auto vars:     Size  Location     Type
  7084 ;;  RTC             2   10[BANK0 ] unsigned short 
  7085 ;; Return value:  Size  Location     Type
  7086 ;;                  2    4[BANK0 ] unsigned short 
  7087 ;; Registers used:
  7088 ;;		wreg, status,2, status,0, pclath, cstack
  7089 ;; Tracked objects:
  7090 ;;		On entry : 0/0
  7091 ;;		On exit  : 0/0
  7092 ;;		Unchanged: 0/0
  7093 ;; Data sizes:     COMMON   BANK0   BANK1   BANK3   BANK2
  7094 ;;      Params:         0       4       0       0       0
  7095 ;;      Locals:         0       2       0       0       0
  7096 ;;      Temps:          0       2       0       0       0
  7097 ;;      Totals:         0       8       0       0       0
  7098 ;;Total ram usage:        8 bytes
  7099 ;; Hardware stack levels used: 1
  7100 ;; Hardware stack levels required when called: 3
  7101 ;; This function calls:
  7102 ;;		_I2C_Master_Read
  7103 ;;		_I2C_Master_Start
  7104 ;;		_I2C_Master_Stop
  7105 ;;		_I2C_Master_Write
  7106 ;; This function is called by:
  7107 ;;		_main
  7108 ;; This function uses a non-reentrant model
  7109 ;;
  7110                           
  7111  1734                     _RTC_READ:	
  7112                           ;psect for function _RTC_READ
  7113                           
  7114  1734                     l3874:	
  7115                           ;incstack = 0
  7116                           ; Regs used in _RTC_READ: [wreg+status,2+status,0+pclath+cstack]
  7117                           
  7118                           
  7119                           ;MAIN_M.c: 246:     unsigned short RTC;;MAIN_M.c: 248:     I2C_Master_Start();
  7120  1734  160A  118A  2379  160A  118A  	fcall	_I2C_Master_Start
  7121                           
  7122                           ;MAIN_M.c: 249:     I2C_Master_Write(I2C);
  7123  1739  1283               	bcf	3,5	;RP0=0, select bank0
  7124  173A  1303               	bcf	3,6	;RP1=0, select bank0
  7125  173B  0825               	movf	RTC_READ@I2C+1,w
  7126  173C  00F5               	movwf	I2C_Master_Write@d+1
  7127  173D  0824               	movf	RTC_READ@I2C,w
  7128  173E  00F4               	movwf	I2C_Master_Write@d
  7129  173F  160A  118A  238B  160A  118A  	fcall	_I2C_Master_Write
  7130                           
  7131                           ;MAIN_M.c: 250:     I2C_Master_Write(d);
  7132  1744  1283               	bcf	3,5	;RP0=0, select bank0
  7133  1745  1303               	bcf	3,6	;RP1=0, select bank0
  7134  1746  0827               	movf	RTC_READ@d+1,w
  7135  1747  00F5               	movwf	I2C_Master_Write@d+1
  7136  1748  0826               	movf	RTC_READ@d,w
  7137  1749  00F4               	movwf	I2C_Master_Write@d
  7138  174A  160A  118A  238B  160A  118A  	fcall	_I2C_Master_Write
  7139                           
  7140                           ;MAIN_M.c: 251:     I2C_Master_Stop();
  7141  174F  160A  118A  2382  160A  118A  	fcall	_I2C_Master_Stop
  7142  1754                     l3876:
  7143                           
  7144                           ;MAIN_M.c: 252:     _delay((unsigned long)((10)*(8000000/4000.0)));
  7145  1754  301A               	movlw	26
  7146  1755  1283               	bcf	3,5	;RP0=0, select bank0
  7147  1756  1303               	bcf	3,6	;RP1=0, select bank0
  7148  1757  00A9               	movwf	??_RTC_READ+1
  7149  1758  30F7               	movlw	247
  7150  1759  00A8               	movwf	??_RTC_READ
  7151  175A                     u5727:
  7152  175A  0BA8               	decfsz	??_RTC_READ,f
  7153  175B  2F5A               	goto	u5727
  7154  175C  0BA9               	decfsz	??_RTC_READ+1,f
  7155  175D  2F5A               	goto	u5727
  7156  175E  2F5F               	nop2
  7157  175F                     l3878:
  7158                           
  7159                           ;MAIN_M.c: 254:     I2C_Master_Start();
  7160  175F  160A  118A  2379  160A  118A  	fcall	_I2C_Master_Start
  7161  1764                     l3880:
  7162                           
  7163                           ;MAIN_M.c: 255:     I2C_Master_Write(I2C + 0x01);
  7164  1764  1283               	bcf	3,5	;RP0=0, select bank0
  7165  1765  1303               	bcf	3,6	;RP1=0, select bank0
  7166  1766  0824               	movf	RTC_READ@I2C,w
  7167  1767  3E01               	addlw	1
  7168  1768  00F4               	movwf	I2C_Master_Write@d
  7169  1769  0825               	movf	RTC_READ@I2C+1,w
  7170  176A  1803               	skipnc
  7171  176B  3E01               	addlw	1
  7172  176C  3E00               	addlw	0
  7173  176D  00F5               	movwf	I2C_Master_Write@d+1
  7174  176E  160A  118A  238B  160A  118A  	fcall	_I2C_Master_Write
  7175  1773                     l3882:
  7176                           
  7177                           ;MAIN_M.c: 256:     RTC = I2C_Master_Read(0);
  7178  1773  3000               	movlw	0
  7179  1774  00F4               	movwf	I2C_Master_Read@a
  7180  1775  00F5               	movwf	I2C_Master_Read@a+1
  7181  1776  120A  158A  2006  160A  118A  	fcall	_I2C_Master_Read
  7182  177B  0875               	movf	?_I2C_Master_Read+1,w
  7183  177C  1283               	bcf	3,5	;RP0=0, select bank0
  7184  177D  1303               	bcf	3,6	;RP1=0, select bank0
  7185  177E  00AB               	movwf	RTC_READ@RTC+1
  7186  177F  0874               	movf	?_I2C_Master_Read,w
  7187  1780  00AA               	movwf	RTC_READ@RTC
  7188  1781                     l3884:
  7189                           
  7190                           ;MAIN_M.c: 257:     I2C_Master_Stop();
  7191  1781  160A  118A  2382  160A  118A  	fcall	_I2C_Master_Stop
  7192  1786                     l3886:
  7193                           
  7194                           ;MAIN_M.c: 258:     _delay((unsigned long)((10)*(8000000/4000.0)));
  7195  1786  301A               	movlw	26
  7196  1787  1283               	bcf	3,5	;RP0=0, select bank0
  7197  1788  1303               	bcf	3,6	;RP1=0, select bank0
  7198  1789  00A9               	movwf	??_RTC_READ+1
  7199  178A  30F7               	movlw	247
  7200  178B  00A8               	movwf	??_RTC_READ
  7201  178C                     u5737:
  7202  178C  0BA8               	decfsz	??_RTC_READ,f
  7203  178D  2F8C               	goto	u5737
  7204  178E  0BA9               	decfsz	??_RTC_READ+1,f
  7205  178F  2F8C               	goto	u5737
  7206  1790  2F91               	nop2
  7207  1791                     l3888:
  7208                           
  7209                           ;MAIN_M.c: 260:     return RTC;
  7210  1791  1283               	bcf	3,5	;RP0=0, select bank0
  7211  1792  1303               	bcf	3,6	;RP1=0, select bank0
  7212  1793  082B               	movf	RTC_READ@RTC+1,w
  7213  1794  00A5               	movwf	?_RTC_READ+1
  7214  1795  082A               	movf	RTC_READ@RTC,w
  7215  1796  00A4               	movwf	?_RTC_READ
  7216  1797                     l146:
  7217  1797  0008               	return
  7218  1798                     __end_of_RTC_READ:
  7219                           
  7220                           	psect	text20
  7221  138B                     __ptext20:	
  7222 ;; *************** function _I2C_Master_Write *****************
  7223 ;; Defined at:
  7224 ;;		line 52 in file "I2CM.c"
  7225 ;; Parameters:    Size  Location     Type
  7226 ;;  d               2    4[COMMON] unsigned int 
  7227 ;; Auto vars:     Size  Location     Type
  7228 ;;		None
  7229 ;; Return value:  Size  Location     Type
  7230 ;;                  1    wreg      void 
  7231 ;; Registers used:
  7232 ;;		wreg, status,2, status,0, pclath, cstack
  7233 ;; Tracked objects:
  7234 ;;		On entry : 0/0
  7235 ;;		On exit  : 0/0
  7236 ;;		Unchanged: 0/0
  7237 ;; Data sizes:     COMMON   BANK0   BANK1   BANK3   BANK2
  7238 ;;      Params:         2       0       0       0       0
  7239 ;;      Locals:         0       0       0       0       0
  7240 ;;      Temps:          0       0       0       0       0
  7241 ;;      Totals:         2       0       0       0       0
  7242 ;;Total ram usage:        2 bytes
  7243 ;; Hardware stack levels used: 1
  7244 ;; Hardware stack levels required when called: 2
  7245 ;; This function calls:
  7246 ;;		_I2C_Master_Wait
  7247 ;; This function is called by:
  7248 ;;		_main
  7249 ;;		_RTC_READ
  7250 ;;		_RTC_WRITE
  7251 ;; This function uses a non-reentrant model
  7252 ;;
  7253                           
  7254  138B                     _I2C_Master_Write:	
  7255                           ;psect for function _I2C_Master_Write
  7256                           
  7257  138B                     l3664:	
  7258                           ;incstack = 0
  7259                           ; Regs used in _I2C_Master_Write: [wreg+status,2+status,0+pclath+cstack]
  7260                           
  7261                           
  7262                           ;I2CM.c: 52: void I2C_Master_Write(unsigned d);I2CM.c: 53: {;I2CM.c: 54:     I2C_Master_
      +                          Wait();
  7263  138B  160A  118A  23AE  160A  118A  	fcall	_I2C_Master_Wait
  7264  1390                     l3666:
  7265                           
  7266                           ;I2CM.c: 55:     SSPBUF = d;
  7267  1390  0874               	movf	I2C_Master_Write@d,w
  7268  1391  1283               	bcf	3,5	;RP0=0, select bank0
  7269  1392  1303               	bcf	3,6	;RP1=0, select bank0
  7270  1393  0093               	movwf	19	;volatile
  7271  1394                     l282:
  7272  1394  0008               	return
  7273  1395                     __end_of_I2C_Master_Write:
  7274                           
  7275                           	psect	text21
  7276  1382                     __ptext21:	
  7277 ;; *************** function _I2C_Master_Stop *****************
  7278 ;; Defined at:
  7279 ;;		line 43 in file "I2CM.c"
  7280 ;; Parameters:    Size  Location     Type
  7281 ;;		None
  7282 ;; Auto vars:     Size  Location     Type
  7283 ;;		None
  7284 ;; Return value:  Size  Location     Type
  7285 ;;                  1    wreg      void 
  7286 ;; Registers used:
  7287 ;;		wreg, status,2, status,0, pclath, cstack
  7288 ;; Tracked objects:
  7289 ;;		On entry : 0/0
  7290 ;;		On exit  : 0/0
  7291 ;;		Unchanged: 0/0
  7292 ;; Data sizes:     COMMON   BANK0   BANK1   BANK3   BANK2
  7293 ;;      Params:         0       0       0       0       0
  7294 ;;      Locals:         0       0       0       0       0
  7295 ;;      Temps:          0       0       0       0       0
  7296 ;;      Totals:         0       0       0       0       0
  7297 ;;Total ram usage:        0 bytes
  7298 ;; Hardware stack levels used: 1
  7299 ;; Hardware stack levels required when called: 2
  7300 ;; This function calls:
  7301 ;;		_I2C_Master_Wait
  7302 ;; This function is called by:
  7303 ;;		_main
  7304 ;;		_RTC_READ
  7305 ;;		_RTC_WRITE
  7306 ;; This function uses a non-reentrant model
  7307 ;;
  7308                           
  7309  1382                     _I2C_Master_Stop:	
  7310                           ;psect for function _I2C_Master_Stop
  7311                           
  7312  1382                     l3684:	
  7313                           ;incstack = 0
  7314                           ; Regs used in _I2C_Master_Stop: [wreg+status,2+status,0+pclath+cstack]
  7315                           
  7316                           
  7317                           ;I2CM.c: 45:     I2C_Master_Wait();
  7318  1382  160A  118A  23AE  160A  118A  	fcall	_I2C_Master_Wait
  7319  1387                     l3686:
  7320                           
  7321                           ;I2CM.c: 46:     SSPCON2bits.PEN = 1;
  7322  1387  1683               	bsf	3,5	;RP0=1, select bank1
  7323  1388  1303               	bcf	3,6	;RP1=0, select bank1
  7324  1389  1511               	bsf	17,2	;volatile
  7325  138A                     l279:
  7326  138A  0008               	return
  7327  138B                     __end_of_I2C_Master_Stop:
  7328                           
  7329                           	psect	text22
  7330  1379                     __ptext22:	
  7331 ;; *************** function _I2C_Master_Start *****************
  7332 ;; Defined at:
  7333 ;;		line 29 in file "I2CM.c"
  7334 ;; Parameters:    Size  Location     Type
  7335 ;;		None
  7336 ;; Auto vars:     Size  Location     Type
  7337 ;;		None
  7338 ;; Return value:  Size  Location     Type
  7339 ;;                  1    wreg      void 
  7340 ;; Registers used:
  7341 ;;		wreg, status,2, status,0, pclath, cstack
  7342 ;; Tracked objects:
  7343 ;;		On entry : 0/0
  7344 ;;		On exit  : 0/0
  7345 ;;		Unchanged: 0/0
  7346 ;; Data sizes:     COMMON   BANK0   BANK1   BANK3   BANK2
  7347 ;;      Params:         0       0       0       0       0
  7348 ;;      Locals:         0       0       0       0       0
  7349 ;;      Temps:          0       0       0       0       0
  7350 ;;      Totals:         0       0       0       0       0
  7351 ;;Total ram usage:        0 bytes
  7352 ;; Hardware stack levels used: 1
  7353 ;; Hardware stack levels required when called: 2
  7354 ;; This function calls:
  7355 ;;		_I2C_Master_Wait
  7356 ;; This function is called by:
  7357 ;;		_main
  7358 ;;		_RTC_READ
  7359 ;;		_RTC_WRITE
  7360 ;; This function uses a non-reentrant model
  7361 ;;
  7362                           
  7363  1379                     _I2C_Master_Start:	
  7364                           ;psect for function _I2C_Master_Start
  7365                           
  7366  1379                     l3660:	
  7367                           ;incstack = 0
  7368                           ; Regs used in _I2C_Master_Start: [wreg+status,2+status,0+pclath+cstack]
  7369                           
  7370                           
  7371                           ;I2CM.c: 31:     I2C_Master_Wait();
  7372  1379  160A  118A  23AE  160A  118A  	fcall	_I2C_Master_Wait
  7373  137E                     l3662:
  7374                           
  7375                           ;I2CM.c: 32:     SSPCON2bits.SEN = 1;
  7376  137E  1683               	bsf	3,5	;RP0=1, select bank1
  7377  137F  1303               	bcf	3,6	;RP1=0, select bank1
  7378  1380  1411               	bsf	17,0	;volatile
  7379  1381                     l273:
  7380  1381  0008               	return
  7381  1382                     __end_of_I2C_Master_Start:
  7382                           
  7383                           	psect	text23
  7384  0806                     __ptext23:	
  7385 ;; *************** function _I2C_Master_Read *****************
  7386 ;; Defined at:
  7387 ;;		line 60 in file "I2CM.c"
  7388 ;; Parameters:    Size  Location     Type
  7389 ;;  a               2    4[COMMON] unsigned short 
  7390 ;; Auto vars:     Size  Location     Type
  7391 ;;  temp            2    2[BANK0 ] unsigned short 
  7392 ;; Return value:  Size  Location     Type
  7393 ;;                  2    4[COMMON] unsigned short 
  7394 ;; Registers used:
  7395 ;;		wreg, status,2, status,0, pclath, cstack
  7396 ;; Tracked objects:
  7397 ;;		On entry : 0/0
  7398 ;;		On exit  : 0/0
  7399 ;;		Unchanged: 0/0
  7400 ;; Data sizes:     COMMON   BANK0   BANK1   BANK3   BANK2
  7401 ;;      Params:         2       0       0       0       0
  7402 ;;      Locals:         0       2       0       0       0
  7403 ;;      Temps:          0       2       0       0       0
  7404 ;;      Totals:         2       4       0       0       0
  7405 ;;Total ram usage:        6 bytes
  7406 ;; Hardware stack levels used: 1
  7407 ;; Hardware stack levels required when called: 2
  7408 ;; This function calls:
  7409 ;;		_I2C_Master_Wait
  7410 ;; This function is called by:
  7411 ;;		_main
  7412 ;;		_RTC_READ
  7413 ;; This function uses a non-reentrant model
  7414 ;;
  7415                           
  7416  0806                     _I2C_Master_Read:	
  7417                           ;psect for function _I2C_Master_Read
  7418                           
  7419  0806                     l3668:	
  7420                           ;incstack = 0
  7421                           ; Regs used in _I2C_Master_Read: [wreg+status,2+status,0+pclath+cstack]
  7422                           
  7423                           
  7424                           ;I2CM.c: 60: unsigned short I2C_Master_Read(unsigned short a);I2CM.c: 61: {;I2CM.c: 62: 
      +                              unsigned short temp;;I2CM.c: 63:     I2C_Master_Wait();
  7425  0806  160A  118A  23AE  120A  158A  	fcall	_I2C_Master_Wait
  7426  080B                     l3670:
  7427                           
  7428                           ;I2CM.c: 64:     SSPCON2bits.RCEN = 1;
  7429  080B  1683               	bsf	3,5	;RP0=1, select bank1
  7430  080C  1303               	bcf	3,6	;RP1=0, select bank1
  7431  080D  1591               	bsf	17,3	;volatile
  7432                           
  7433                           ;I2CM.c: 65:     I2C_Master_Wait();
  7434  080E  160A  118A  23AE  120A  158A  	fcall	_I2C_Master_Wait
  7435  0813                     l3672:
  7436                           
  7437                           ;I2CM.c: 66:     temp = SSPBUF;
  7438  0813  1283               	bcf	3,5	;RP0=0, select bank0
  7439  0814  1303               	bcf	3,6	;RP1=0, select bank0
  7440  0815  0813               	movf	19,w	;volatile
  7441  0816  00A0               	movwf	??_I2C_Master_Read
  7442  0817  01A1               	clrf	??_I2C_Master_Read+1
  7443  0818  0820               	movf	??_I2C_Master_Read,w
  7444  0819  00A2               	movwf	I2C_Master_Read@temp
  7445  081A  0821               	movf	??_I2C_Master_Read+1,w
  7446  081B  00A3               	movwf	I2C_Master_Read@temp+1
  7447  081C                     l3674:
  7448                           
  7449                           ;I2CM.c: 67:     I2C_Master_Wait();
  7450  081C  160A  118A  23AE  120A  158A  	fcall	_I2C_Master_Wait
  7451  0821                     l3676:
  7452                           
  7453                           ;I2CM.c: 68:     if(a == 1){
  7454  0821  0374               	decf	I2C_Master_Read@a,w
  7455  0822  0475               	iorwf	I2C_Master_Read@a+1,w
  7456  0823  1D03               	btfss	3,2
  7457  0824  2826               	goto	u5311
  7458  0825  2827               	goto	u5310
  7459  0826                     u5311:
  7460  0826  282B               	goto	l285
  7461  0827                     u5310:
  7462  0827                     l3678:
  7463                           
  7464                           ;I2CM.c: 69:         SSPCON2bits.ACKDT = 0;
  7465  0827  1683               	bsf	3,5	;RP0=1, select bank1
  7466  0828  1303               	bcf	3,6	;RP1=0, select bank1
  7467  0829  1291               	bcf	17,5	;volatile
  7468                           
  7469                           ;I2CM.c: 70:     }else{
  7470  082A  282E               	goto	l286
  7471  082B                     l285:
  7472                           
  7473                           ;I2CM.c: 71:         SSPCON2bits.ACKDT = 1;
  7474  082B  1683               	bsf	3,5	;RP0=1, select bank1
  7475  082C  1303               	bcf	3,6	;RP1=0, select bank1
  7476  082D  1691               	bsf	17,5	;volatile
  7477  082E                     l286:	
  7478                           ;I2CM.c: 72:     }
  7479                           
  7480                           
  7481                           ;I2CM.c: 73:     SSPCON2bits.ACKEN = 1;
  7482  082E  1611               	bsf	17,4	;volatile
  7483  082F                     l3680:
  7484                           
  7485                           ;I2CM.c: 74:     return temp;
  7486  082F  1283               	bcf	3,5	;RP0=0, select bank0
  7487  0830  1303               	bcf	3,6	;RP1=0, select bank0
  7488  0831  0823               	movf	I2C_Master_Read@temp+1,w
  7489  0832  00F5               	movwf	?_I2C_Master_Read+1
  7490  0833  0822               	movf	I2C_Master_Read@temp,w
  7491  0834  00F4               	movwf	?_I2C_Master_Read
  7492  0835                     l287:
  7493  0835  0008               	return
  7494  0836                     __end_of_I2C_Master_Read:
  7495                           
  7496                           	psect	text24
  7497  13AE                     __ptext24:	
  7498 ;; *************** function _I2C_Master_Wait *****************
  7499 ;; Defined at:
  7500 ;;		line 23 in file "I2CM.c"
  7501 ;; Parameters:    Size  Location     Type
  7502 ;;		None
  7503 ;; Auto vars:     Size  Location     Type
  7504 ;;		None
  7505 ;; Return value:  Size  Location     Type
  7506 ;;                  1    wreg      void 
  7507 ;; Registers used:
  7508 ;;		wreg, status,2
  7509 ;; Tracked objects:
  7510 ;;		On entry : 0/0
  7511 ;;		On exit  : 0/0
  7512 ;;		Unchanged: 0/0
  7513 ;; Data sizes:     COMMON   BANK0   BANK1   BANK3   BANK2
  7514 ;;      Params:         0       0       0       0       0
  7515 ;;      Locals:         0       0       0       0       0
  7516 ;;      Temps:          0       0       0       0       0
  7517 ;;      Totals:         0       0       0       0       0
  7518 ;;Total ram usage:        0 bytes
  7519 ;; Hardware stack levels used: 1
  7520 ;; Hardware stack levels required when called: 1
  7521 ;; This function calls:
  7522 ;;		Nothing
  7523 ;; This function is called by:
  7524 ;;		_I2C_Master_Start
  7525 ;;		_I2C_Master_Stop
  7526 ;;		_I2C_Master_Write
  7527 ;;		_I2C_Master_Read
  7528 ;;		_I2C_Master_RepeatedStart
  7529 ;; This function uses a non-reentrant model
  7530 ;;
  7531                           
  7532  13AE                     _I2C_Master_Wait:	
  7533                           ;psect for function _I2C_Master_Wait
  7534                           
  7535  13AE                     l3582:	
  7536                           ;incstack = 0
  7537                           ; Regs used in _I2C_Master_Wait: [wreg+status,2]
  7538                           
  7539  13AE                     l267:	
  7540                           ;I2CM.c: 25:     while ((SSPSTAT & 0x04) || (SSPCON2 & 0x1F));
  7541                           
  7542  13AE  1683               	bsf	3,5	;RP0=1, select bank1
  7543  13AF  1303               	bcf	3,6	;RP1=0, select bank1
  7544  13B0  1914               	btfsc	20,2	;volatile
  7545  13B1  2BB3               	goto	u5121
  7546  13B2  2BB4               	goto	u5120
  7547  13B3                     u5121:
  7548  13B3  2BAE               	goto	l267
  7549  13B4                     u5120:
  7550  13B4                     l3584:
  7551  13B4  0811               	movf	17,w	;volatile
  7552  13B5  391F               	andlw	31
  7553  13B6  1D03               	btfss	3,2
  7554  13B7  2BB9               	goto	u5131
  7555  13B8  2BBA               	goto	u5130
  7556  13B9                     u5131:
  7557  13B9  2BAE               	goto	l267
  7558  13BA                     u5130:
  7559  13BA                     l270:
  7560  13BA  0008               	return
  7561  13BB                     __end_of_I2C_Master_Wait:
  7562                           
  7563                           	psect	text25
  7564  147E                     __ptext25:	
  7565 ;; *************** function _RTC_PRINT *****************
  7566 ;; Defined at:
  7567 ;;		line 234 in file "MAIN_M.c"
  7568 ;; Parameters:    Size  Location     Type
  7569 ;;  Val             1    wreg     unsigned char 
  7570 ;; Auto vars:     Size  Location     Type
  7571 ;;  Val             1    6[BANK0 ] unsigned char 
  7572 ;;  s               1    5[BANK0 ] unsigned char 
  7573 ;;  s10             1    4[BANK0 ] unsigned char 
  7574 ;; Return value:  Size  Location     Type
  7575 ;;                  1    wreg      void 
  7576 ;; Registers used:
  7577 ;;		wreg, status,2, status,0, pclath, cstack
  7578 ;; Tracked objects:
  7579 ;;		On entry : 0/0
  7580 ;;		On exit  : 0/0
  7581 ;;		Unchanged: 0/0
  7582 ;; Data sizes:     COMMON   BANK0   BANK1   BANK3   BANK2
  7583 ;;      Params:         0       0       0       0       0
  7584 ;;      Locals:         0       3       0       0       0
  7585 ;;      Temps:          0       2       0       0       0
  7586 ;;      Totals:         0       5       0       0       0
  7587 ;;Total ram usage:        5 bytes
  7588 ;; Hardware stack levels used: 1
  7589 ;; Hardware stack levels required when called: 3
  7590 ;; This function calls:
  7591 ;;		_LCD_CHAR
  7592 ;; This function is called by:
  7593 ;;		_main
  7594 ;; This function uses a non-reentrant model
  7595 ;;
  7596                           
  7597  147E                     _RTC_PRINT:	
  7598                           ;psect for function _RTC_PRINT
  7599                           
  7600                           
  7601                           ;incstack = 0
  7602                           ; Regs used in _RTC_PRINT: [wreg+status,2+status,0+pclath+cstack]
  7603                           ;RTC_PRINT@Val stored from wreg
  7604  147E  1283               	bcf	3,5	;RP0=0, select bank0
  7605  147F  1303               	bcf	3,6	;RP1=0, select bank0
  7606  1480  00A6               	movwf	RTC_PRINT@Val
  7607  1481                     l3900:
  7608                           
  7609                           ;MAIN_M.c: 235:     char s10,s;;MAIN_M.c: 237:     s10 = (uint8_t)((Val >>4)) + '0';
  7610  1481  0826               	movf	RTC_PRINT@Val,w
  7611  1482  00A2               	movwf	??_RTC_PRINT
  7612  1483  3004               	movlw	4
  7613  1484                     u5525:
  7614  1484  1003               	clrc
  7615  1485  0CA2               	rrf	??_RTC_PRINT,f
  7616  1486  3EFF               	addlw	-1
  7617  1487  1D03               	skipz
  7618  1488  2C84               	goto	u5525
  7619  1489  0822               	movf	??_RTC_PRINT,w
  7620  148A  3E30               	addlw	48
  7621  148B  00A3               	movwf	??_RTC_PRINT+1
  7622  148C  0823               	movf	??_RTC_PRINT+1,w
  7623  148D  00A4               	movwf	RTC_PRINT@s10
  7624                           
  7625                           ;MAIN_M.c: 238:     s = (uint8_t)((Val & 0x0f)) + '0';
  7626  148E  0826               	movf	RTC_PRINT@Val,w
  7627  148F  390F               	andlw	15
  7628  1490  3E30               	addlw	48
  7629  1491  00A2               	movwf	??_RTC_PRINT
  7630  1492  0822               	movf	??_RTC_PRINT,w
  7631  1493  00A5               	movwf	RTC_PRINT@s
  7632  1494                     l3902:
  7633                           
  7634                           ;MAIN_M.c: 240:     LCD_CHAR(s10);
  7635  1494  0824               	movf	RTC_PRINT@s10,w
  7636  1495  160A  118A  2422  160A  118A  	fcall	_LCD_CHAR
  7637  149A                     l3904:
  7638                           
  7639                           ;MAIN_M.c: 241:     LCD_CHAR(s);
  7640  149A  1283               	bcf	3,5	;RP0=0, select bank0
  7641  149B  1303               	bcf	3,6	;RP1=0, select bank0
  7642  149C  0825               	movf	RTC_PRINT@s,w
  7643  149D  160A  118A  2422  160A  118A  	fcall	_LCD_CHAR
  7644  14A2                     l143:
  7645  14A2  0008               	return
  7646  14A3                     __end_of_RTC_PRINT:
  7647                           
  7648                           	psect	text26
  7649  13A1                     __ptext26:	
  7650 ;; *************** function _LCD_CLEAR *****************
  7651 ;; Defined at:
  7652 ;;		line 111 in file "LCD.c"
  7653 ;; Parameters:    Size  Location     Type
  7654 ;;		None
  7655 ;; Auto vars:     Size  Location     Type
  7656 ;;		None
  7657 ;; Return value:  Size  Location     Type
  7658 ;;                  1    wreg      void 
  7659 ;; Registers used:
  7660 ;;		wreg, status,2, status,0, pclath, cstack
  7661 ;; Tracked objects:
  7662 ;;		On entry : 0/0
  7663 ;;		On exit  : 0/0
  7664 ;;		Unchanged: 0/0
  7665 ;; Data sizes:     COMMON   BANK0   BANK1   BANK3   BANK2
  7666 ;;      Params:         0       0       0       0       0
  7667 ;;      Locals:         0       0       0       0       0
  7668 ;;      Temps:          0       0       0       0       0
  7669 ;;      Totals:         0       0       0       0       0
  7670 ;;Total ram usage:        0 bytes
  7671 ;; Hardware stack levels used: 1
  7672 ;; Hardware stack levels required when called: 2
  7673 ;; This function calls:
  7674 ;;		_LCD_PORT
  7675 ;; This function is called by:
  7676 ;;		_main
  7677 ;; This function uses a non-reentrant model
  7678 ;;
  7679                           
  7680  13A1                     _LCD_CLEAR:	
  7681                           ;psect for function _LCD_CLEAR
  7682                           
  7683  13A1                     l3898:	
  7684                           ;incstack = 0
  7685                           ; Regs used in _LCD_CLEAR: [wreg+status,2+status,0+pclath+cstack]
  7686                           
  7687                           
  7688                           ;LCD.c: 112:     LCD_PORT(0);
  7689  13A1  3000               	movlw	0
  7690  13A2  120A  158A  2000  160A  118A  	fcall	_LCD_PORT
  7691                           
  7692                           ;LCD.c: 113:     LCD_PORT(1);
  7693  13A7  3001               	movlw	1
  7694  13A8  120A  158A  2000  160A  118A  	fcall	_LCD_PORT
  7695  13AD                     l219:
  7696  13AD  0008               	return
  7697  13AE                     __end_of_LCD_CLEAR:
  7698                           
  7699                           	psect	text27
  7700  15A1                     __ptext27:	
  7701 ;; *************** function _DECIMAL_BCD *****************
  7702 ;; Defined at:
  7703 ;;		line 278 in file "MAIN_M.c"
  7704 ;; Parameters:    Size  Location     Type
  7705 ;;  num             1    wreg     unsigned char 
  7706 ;; Auto vars:     Size  Location     Type
  7707 ;;  num             1   31[BANK1 ] unsigned char 
  7708 ;; Return value:  Size  Location     Type
  7709 ;;                  1    wreg      unsigned char 
  7710 ;; Registers used:
  7711 ;;		wreg, status,2, status,0, pclath, cstack
  7712 ;; Tracked objects:
  7713 ;;		On entry : 0/0
  7714 ;;		On exit  : 0/0
  7715 ;;		Unchanged: 0/0
  7716 ;; Data sizes:     COMMON   BANK0   BANK1   BANK3   BANK2
  7717 ;;      Params:         0       0       0       0       0
  7718 ;;      Locals:         0       0       1       0       0
  7719 ;;      Temps:          0       0       5       0       0
  7720 ;;      Totals:         0       0       6       0       0
  7721 ;;Total ram usage:        6 bytes
  7722 ;; Hardware stack levels used: 1
  7723 ;; Hardware stack levels required when called: 2
  7724 ;; This function calls:
  7725 ;;		___awdiv
  7726 ;;		___awmod
  7727 ;; This function is called by:
  7728 ;;		_main
  7729 ;; This function uses a non-reentrant model
  7730 ;;
  7731                           
  7732  15A1                     _DECIMAL_BCD:	
  7733                           ;psect for function _DECIMAL_BCD
  7734                           
  7735                           
  7736                           ;incstack = 0
  7737                           ; Regs used in _DECIMAL_BCD: [wreg+status,2+status,0+pclath+cstack]
  7738                           ;DECIMAL_BCD@num stored from wreg
  7739  15A1  1683               	bsf	3,5	;RP0=1, select bank1
  7740  15A2  1303               	bcf	3,6	;RP1=0, select bank1
  7741  15A3  00BF               	movwf	DECIMAL_BCD@num^(0+128)
  7742  15A4                     l3860:
  7743                           
  7744                           ;MAIN_M.c: 279:     return (((num/10)<<4) + (num % 10));
  7745  15A4  300A               	movlw	10
  7746  15A5  00B1               	movwf	___awdiv@divisor^(0+128)
  7747  15A6  3000               	movlw	0
  7748  15A7  00B2               	movwf	(___awdiv@divisor^(0+128)+1)
  7749  15A8  083F               	movf	DECIMAL_BCD@num^(0+128),w
  7750  15A9  00BA               	movwf	??_DECIMAL_BCD^(0+128)
  7751  15AA  01BB               	clrf	(??_DECIMAL_BCD^(0+128)+1)
  7752  15AB  083A               	movf	??_DECIMAL_BCD^(0+128),w
  7753  15AC  00B3               	movwf	___awdiv@dividend^(0+128)
  7754  15AD  083B               	movf	(??_DECIMAL_BCD+1)^(0+128),w
  7755  15AE  00B4               	movwf	(___awdiv@dividend+1)^(0+128)
  7756  15AF  120A  158A  2036  160A  118A  	fcall	___awdiv
  7757  15B4  1683               	bsf	3,5	;RP0=1, select bank1
  7758  15B5  1303               	bcf	3,6	;RP1=0, select bank1
  7759  15B6  0831               	movf	?___awdiv^(0+128),w
  7760  15B7  00BC               	movwf	(??_DECIMAL_BCD+2)^(0+128)
  7761  15B8  3004               	movlw	4
  7762  15B9                     u5515:
  7763  15B9  1003               	clrc
  7764  15BA  0DBC               	rlf	(??_DECIMAL_BCD+2)^(0+128),f
  7765  15BB  3EFF               	addlw	-1
  7766  15BC  1D03               	skipz
  7767  15BD  2DB9               	goto	u5515
  7768  15BE  300A               	movlw	10
  7769  15BF  1283               	bcf	3,5	;RP0=0, select bank0
  7770  15C0  1303               	bcf	3,6	;RP1=0, select bank0
  7771  15C1  00A0               	movwf	___awmod@divisor
  7772  15C2  3000               	movlw	0
  7773  15C3  00A1               	movwf	___awmod@divisor+1
  7774  15C4  1683               	bsf	3,5	;RP0=1, select bank1
  7775  15C5  1303               	bcf	3,6	;RP1=0, select bank1
  7776  15C6  083F               	movf	DECIMAL_BCD@num^(0+128),w
  7777  15C7  00BD               	movwf	(??_DECIMAL_BCD+3)^(0+128)
  7778  15C8  01BE               	clrf	((??_DECIMAL_BCD+3)^(0+128)+1)
  7779  15C9  083D               	movf	(??_DECIMAL_BCD+3)^(0+128),w
  7780  15CA  1283               	bcf	3,5	;RP0=0, select bank0
  7781  15CB  1303               	bcf	3,6	;RP1=0, select bank0
  7782  15CC  00A2               	movwf	___awmod@dividend
  7783  15CD  1683               	bsf	3,5	;RP0=1, select bank1
  7784  15CE  1303               	bcf	3,6	;RP1=0, select bank1
  7785  15CF  083E               	movf	(??_DECIMAL_BCD+4)^(0+128),w
  7786  15D0  1283               	bcf	3,5	;RP0=0, select bank0
  7787  15D1  1303               	bcf	3,6	;RP1=0, select bank0
  7788  15D2  00A3               	movwf	___awmod@dividend+1
  7789  15D3  160A  118A  2677  160A  118A  	fcall	___awmod
  7790  15D8  1283               	bcf	3,5	;RP0=0, select bank0
  7791  15D9  1303               	bcf	3,6	;RP1=0, select bank0
  7792  15DA  0820               	movf	?___awmod,w
  7793  15DB  1683               	bsf	3,5	;RP0=1, select bank1
  7794  15DC  1303               	bcf	3,6	;RP1=0, select bank1
  7795  15DD  073C               	addwf	(??_DECIMAL_BCD+2)^(0+128),w
  7796  15DE                     l160:
  7797  15DE  0008               	return
  7798  15DF                     __end_of_DECIMAL_BCD:
  7799                           
  7800                           	psect	text28
  7801  1677                     __ptext28:	
  7802 ;; *************** function ___awmod *****************
  7803 ;; Defined at:
  7804 ;;		line 5 in file "C:\Program Files\Microchip\xc8\v2.35\pic\sources\c90\common\awmod.c"
  7805 ;; Parameters:    Size  Location     Type
  7806 ;;  divisor         2    0[BANK0 ] int 
  7807 ;;  dividend        2    2[BANK0 ] int 
  7808 ;; Auto vars:     Size  Location     Type
  7809 ;;  sign            1    5[BANK0 ] unsigned char 
  7810 ;;  counter         1    4[BANK0 ] unsigned char 
  7811 ;; Return value:  Size  Location     Type
  7812 ;;                  2    0[BANK0 ] int 
  7813 ;; Registers used:
  7814 ;;		wreg, status,2, status,0
  7815 ;; Tracked objects:
  7816 ;;		On entry : 0/0
  7817 ;;		On exit  : 0/0
  7818 ;;		Unchanged: 0/0
  7819 ;; Data sizes:     COMMON   BANK0   BANK1   BANK3   BANK2
  7820 ;;      Params:         0       4       0       0       0
  7821 ;;      Locals:         0       2       0       0       0
  7822 ;;      Temps:          1       0       0       0       0
  7823 ;;      Totals:         1       6       0       0       0
  7824 ;;Total ram usage:        7 bytes
  7825 ;; Hardware stack levels used: 1
  7826 ;; Hardware stack levels required when called: 1
  7827 ;; This function calls:
  7828 ;;		Nothing
  7829 ;; This function is called by:
  7830 ;;		_DECIMAL_BCD
  7831 ;; This function uses a non-reentrant model
  7832 ;;
  7833                           
  7834  1677                     ___awmod:	
  7835                           ;psect for function ___awmod
  7836                           
  7837  1677                     l3770:	
  7838                           ;incstack = 0
  7839                           ; Regs used in ___awmod: [wreg+status,2+status,0]
  7840                           
  7841  1677  1283               	bcf	3,5	;RP0=0, select bank0
  7842  1678  1303               	bcf	3,6	;RP1=0, select bank0
  7843  1679  01A5               	clrf	___awmod@sign
  7844  167A                     l3772:
  7845  167A  1FA3               	btfss	___awmod@dividend+1,7
  7846  167B  2E7D               	goto	u5411
  7847  167C  2E7E               	goto	u5410
  7848  167D                     u5411:
  7849  167D  2E85               	goto	l3778
  7850  167E                     u5410:
  7851  167E                     l3774:
  7852  167E  09A2               	comf	___awmod@dividend,f
  7853  167F  09A3               	comf	___awmod@dividend+1,f
  7854  1680  0AA2               	incf	___awmod@dividend,f
  7855  1681  1903               	skipnz
  7856  1682  0AA3               	incf	___awmod@dividend+1,f
  7857  1683                     l3776:
  7858  1683  01A5               	clrf	___awmod@sign
  7859  1684  0AA5               	incf	___awmod@sign,f
  7860  1685                     l3778:
  7861  1685  1FA1               	btfss	___awmod@divisor+1,7
  7862  1686  2E88               	goto	u5421
  7863  1687  2E89               	goto	u5420
  7864  1688                     u5421:
  7865  1688  2E8E               	goto	l3782
  7866  1689                     u5420:
  7867  1689                     l3780:
  7868  1689  09A0               	comf	___awmod@divisor,f
  7869  168A  09A1               	comf	___awmod@divisor+1,f
  7870  168B  0AA0               	incf	___awmod@divisor,f
  7871  168C  1903               	skipnz
  7872  168D  0AA1               	incf	___awmod@divisor+1,f
  7873  168E                     l3782:
  7874  168E  0820               	movf	___awmod@divisor,w
  7875  168F  0421               	iorwf	___awmod@divisor+1,w
  7876  1690  1903               	btfsc	3,2
  7877  1691  2E93               	goto	u5431
  7878  1692  2E94               	goto	u5430
  7879  1693                     u5431:
  7880  1693  2EC3               	goto	l3800
  7881  1694                     u5430:
  7882  1694                     l3784:
  7883  1694  01A4               	clrf	___awmod@counter
  7884  1695  0AA4               	incf	___awmod@counter,f
  7885  1696  2EA2               	goto	l3790
  7886  1697                     l3786:
  7887  1697  3001               	movlw	1
  7888  1698                     u5445:
  7889  1698  1003               	clrc
  7890  1699  0DA0               	rlf	___awmod@divisor,f
  7891  169A  0DA1               	rlf	___awmod@divisor+1,f
  7892  169B  3EFF               	addlw	-1
  7893  169C  1D03               	skipz
  7894  169D  2E98               	goto	u5445
  7895  169E                     l3788:
  7896  169E  3001               	movlw	1
  7897  169F  00F4               	movwf	??___awmod
  7898  16A0  0874               	movf	??___awmod,w
  7899  16A1  07A4               	addwf	___awmod@counter,f
  7900  16A2                     l3790:
  7901  16A2  1FA1               	btfss	___awmod@divisor+1,7
  7902  16A3  2EA5               	goto	u5451
  7903  16A4  2EA6               	goto	u5450
  7904  16A5                     u5451:
  7905  16A5  2E97               	goto	l3786
  7906  16A6                     u5450:
  7907  16A6                     l3792:
  7908  16A6  0821               	movf	___awmod@divisor+1,w
  7909  16A7  0223               	subwf	___awmod@dividend+1,w
  7910  16A8  1D03               	skipz
  7911  16A9  2EAC               	goto	u5465
  7912  16AA  0820               	movf	___awmod@divisor,w
  7913  16AB  0222               	subwf	___awmod@dividend,w
  7914  16AC                     u5465:
  7915  16AC  1C03               	skipc
  7916  16AD  2EAF               	goto	u5461
  7917  16AE  2EB0               	goto	u5460
  7918  16AF                     u5461:
  7919  16AF  2EB6               	goto	l3796
  7920  16B0                     u5460:
  7921  16B0                     l3794:
  7922  16B0  0820               	movf	___awmod@divisor,w
  7923  16B1  02A2               	subwf	___awmod@dividend,f
  7924  16B2  0821               	movf	___awmod@divisor+1,w
  7925  16B3  1C03               	skipc
  7926  16B4  03A3               	decf	___awmod@dividend+1,f
  7927  16B5  02A3               	subwf	___awmod@dividend+1,f
  7928  16B6                     l3796:
  7929  16B6  3001               	movlw	1
  7930  16B7                     u5475:
  7931  16B7  1003               	clrc
  7932  16B8  0CA1               	rrf	___awmod@divisor+1,f
  7933  16B9  0CA0               	rrf	___awmod@divisor,f
  7934  16BA  3EFF               	addlw	-1
  7935  16BB  1D03               	skipz
  7936  16BC  2EB7               	goto	u5475
  7937  16BD                     l3798:
  7938  16BD  3001               	movlw	1
  7939  16BE  02A4               	subwf	___awmod@counter,f
  7940  16BF  1D03               	btfss	3,2
  7941  16C0  2EC2               	goto	u5481
  7942  16C1  2EC3               	goto	u5480
  7943  16C2                     u5481:
  7944  16C2  2EA6               	goto	l3792
  7945  16C3                     u5480:
  7946  16C3                     l3800:
  7947  16C3  0825               	movf	___awmod@sign,w
  7948  16C4  1903               	btfsc	3,2
  7949  16C5  2EC7               	goto	u5491
  7950  16C6  2EC8               	goto	u5490
  7951  16C7                     u5491:
  7952  16C7  2ECD               	goto	l3804
  7953  16C8                     u5490:
  7954  16C8                     l3802:
  7955  16C8  09A2               	comf	___awmod@dividend,f
  7956  16C9  09A3               	comf	___awmod@dividend+1,f
  7957  16CA  0AA2               	incf	___awmod@dividend,f
  7958  16CB  1903               	skipnz
  7959  16CC  0AA3               	incf	___awmod@dividend+1,f
  7960  16CD                     l3804:
  7961  16CD  0823               	movf	___awmod@dividend+1,w
  7962  16CE  00A1               	movwf	?___awmod+1
  7963  16CF  0822               	movf	___awmod@dividend,w
  7964  16D0  00A0               	movwf	?___awmod
  7965  16D1                     l542:
  7966  16D1  0008               	return
  7967  16D2                     __end_of___awmod:
  7968                           
  7969                           	psect	text29
  7970  0836                     __ptext29:	
  7971 ;; *************** function ___awdiv *****************
  7972 ;; Defined at:
  7973 ;;		line 5 in file "C:\Program Files\Microchip\xc8\v2.35\pic\sources\c90\common\awdiv.c"
  7974 ;; Parameters:    Size  Location     Type
  7975 ;;  divisor         2   17[BANK1 ] int 
  7976 ;;  dividend        2   19[BANK1 ] int 
  7977 ;; Auto vars:     Size  Location     Type
  7978 ;;  quotient        2   24[BANK1 ] int 
  7979 ;;  sign            1   23[BANK1 ] unsigned char 
  7980 ;;  counter         1   22[BANK1 ] unsigned char 
  7981 ;; Return value:  Size  Location     Type
  7982 ;;                  2   17[BANK1 ] int 
  7983 ;; Registers used:
  7984 ;;		wreg, status,2, status,0
  7985 ;; Tracked objects:
  7986 ;;		On entry : 0/0
  7987 ;;		On exit  : 0/0
  7988 ;;		Unchanged: 0/0
  7989 ;; Data sizes:     COMMON   BANK0   BANK1   BANK3   BANK2
  7990 ;;      Params:         0       0       4       0       0
  7991 ;;      Locals:         0       0       4       0       0
  7992 ;;      Temps:          0       0       1       0       0
  7993 ;;      Totals:         0       0       9       0       0
  7994 ;;Total ram usage:        9 bytes
  7995 ;; Hardware stack levels used: 1
  7996 ;; Hardware stack levels required when called: 1
  7997 ;; This function calls:
  7998 ;;		Nothing
  7999 ;; This function is called by:
  8000 ;;		_DECIMAL_BCD
  8001 ;;		_DECENA
  8002 ;; This function uses a non-reentrant model
  8003 ;;
  8004                           
  8005  0836                     ___awdiv:	
  8006                           ;psect for function ___awdiv
  8007                           
  8008  0836                     l3610:	
  8009                           ;incstack = 0
  8010                           ; Regs used in ___awdiv: [wreg+status,2+status,0]
  8011                           
  8012  0836  1683               	bsf	3,5	;RP0=1, select bank1
  8013  0837  1303               	bcf	3,6	;RP1=0, select bank1
  8014  0838  01B7               	clrf	___awdiv@sign^(0+128)
  8015  0839                     l3612:
  8016  0839  1FB2               	btfss	(___awdiv@divisor+1)^(0+128),7
  8017  083A  283C               	goto	u5211
  8018  083B  283D               	goto	u5210
  8019  083C                     u5211:
  8020  083C  2844               	goto	l3618
  8021  083D                     u5210:
  8022  083D                     l3614:
  8023  083D  09B1               	comf	___awdiv@divisor^(0+128),f
  8024  083E  09B2               	comf	(___awdiv@divisor+1)^(0+128),f
  8025  083F  0AB1               	incf	___awdiv@divisor^(0+128),f
  8026  0840  1903               	skipnz
  8027  0841  0AB2               	incf	(___awdiv@divisor+1)^(0+128),f
  8028  0842                     l3616:
  8029  0842  01B7               	clrf	___awdiv@sign^(0+128)
  8030  0843  0AB7               	incf	___awdiv@sign^(0+128),f
  8031  0844                     l3618:
  8032  0844  1FB4               	btfss	(___awdiv@dividend+1)^(0+128),7
  8033  0845  2847               	goto	u5221
  8034  0846  2848               	goto	u5220
  8035  0847                     u5221:
  8036  0847  2851               	goto	l3624
  8037  0848                     u5220:
  8038  0848                     l3620:
  8039  0848  09B3               	comf	___awdiv@dividend^(0+128),f
  8040  0849  09B4               	comf	(___awdiv@dividend+1)^(0+128),f
  8041  084A  0AB3               	incf	___awdiv@dividend^(0+128),f
  8042  084B  1903               	skipnz
  8043  084C  0AB4               	incf	(___awdiv@dividend+1)^(0+128),f
  8044  084D                     l3622:
  8045  084D  3001               	movlw	1
  8046  084E  00B5               	movwf	??___awdiv^(0+128)
  8047  084F  0835               	movf	??___awdiv^(0+128),w
  8048  0850  06B7               	xorwf	___awdiv@sign^(0+128),f
  8049  0851                     l3624:
  8050  0851  01B8               	clrf	___awdiv@quotient^(0+128)
  8051  0852  01B9               	clrf	(___awdiv@quotient+1)^(0+128)
  8052  0853                     l3626:
  8053  0853  0831               	movf	___awdiv@divisor^(0+128),w
  8054  0854  0432               	iorwf	(___awdiv@divisor+1)^(0+128),w
  8055  0855  1903               	btfsc	3,2
  8056  0856  2858               	goto	u5231
  8057  0857  2859               	goto	u5230
  8058  0858                     u5231:
  8059  0858  2890               	goto	l3646
  8060  0859                     u5230:
  8061  0859                     l3628:
  8062  0859  01B6               	clrf	___awdiv@counter^(0+128)
  8063  085A  0AB6               	incf	___awdiv@counter^(0+128),f
  8064  085B  2867               	goto	l3634
  8065  085C                     l3630:
  8066  085C  3001               	movlw	1
  8067  085D                     u5245:
  8068  085D  1003               	clrc
  8069  085E  0DB1               	rlf	___awdiv@divisor^(0+128),f
  8070  085F  0DB2               	rlf	(___awdiv@divisor+1)^(0+128),f
  8071  0860  3EFF               	addlw	-1
  8072  0861  1D03               	skipz
  8073  0862  285D               	goto	u5245
  8074  0863                     l3632:
  8075  0863  3001               	movlw	1
  8076  0864  00B5               	movwf	??___awdiv^(0+128)
  8077  0865  0835               	movf	??___awdiv^(0+128),w
  8078  0866  07B6               	addwf	___awdiv@counter^(0+128),f
  8079  0867                     l3634:
  8080  0867  1FB2               	btfss	(___awdiv@divisor+1)^(0+128),7
  8081  0868  286A               	goto	u5251
  8082  0869  286B               	goto	u5250
  8083  086A                     u5251:
  8084  086A  285C               	goto	l3630
  8085  086B                     u5250:
  8086  086B                     l3636:
  8087  086B  3001               	movlw	1
  8088  086C                     u5265:
  8089  086C  1003               	clrc
  8090  086D  0DB8               	rlf	___awdiv@quotient^(0+128),f
  8091  086E  0DB9               	rlf	(___awdiv@quotient+1)^(0+128),f
  8092  086F  3EFF               	addlw	-1
  8093  0870  1D03               	skipz
  8094  0871  286C               	goto	u5265
  8095  0872  0832               	movf	(___awdiv@divisor+1)^(0+128),w
  8096  0873  0234               	subwf	(___awdiv@dividend+1)^(0+128),w
  8097  0874  1D03               	skipz
  8098  0875  2878               	goto	u5275
  8099  0876  0831               	movf	___awdiv@divisor^(0+128),w
  8100  0877  0233               	subwf	___awdiv@dividend^(0+128),w
  8101  0878                     u5275:
  8102  0878  1C03               	skipc
  8103  0879  287B               	goto	u5271
  8104  087A  287C               	goto	u5270
  8105  087B                     u5271:
  8106  087B  2883               	goto	l3642
  8107  087C                     u5270:
  8108  087C                     l3638:
  8109  087C  0831               	movf	___awdiv@divisor^(0+128),w
  8110  087D  02B3               	subwf	___awdiv@dividend^(0+128),f
  8111  087E  0832               	movf	(___awdiv@divisor+1)^(0+128),w
  8112  087F  1C03               	skipc
  8113  0880  03B4               	decf	(___awdiv@dividend+1)^(0+128),f
  8114  0881  02B4               	subwf	(___awdiv@dividend+1)^(0+128),f
  8115  0882                     l3640:
  8116  0882  1438               	bsf	___awdiv@quotient^(0+128),0
  8117  0883                     l3642:
  8118  0883  3001               	movlw	1
  8119  0884                     u5285:
  8120  0884  1003               	clrc
  8121  0885  0CB2               	rrf	(___awdiv@divisor+1)^(0+128),f
  8122  0886  0CB1               	rrf	___awdiv@divisor^(0+128),f
  8123  0887  3EFF               	addlw	-1
  8124  0888  1D03               	skipz
  8125  0889  2884               	goto	u5285
  8126  088A                     l3644:
  8127  088A  3001               	movlw	1
  8128  088B  02B6               	subwf	___awdiv@counter^(0+128),f
  8129  088C  1D03               	btfss	3,2
  8130  088D  288F               	goto	u5291
  8131  088E  2890               	goto	u5290
  8132  088F                     u5291:
  8133  088F  286B               	goto	l3636
  8134  0890                     u5290:
  8135  0890                     l3646:
  8136  0890  0837               	movf	___awdiv@sign^(0+128),w
  8137  0891  1903               	btfsc	3,2
  8138  0892  2894               	goto	u5301
  8139  0893  2895               	goto	u5300
  8140  0894                     u5301:
  8141  0894  289A               	goto	l3650
  8142  0895                     u5300:
  8143  0895                     l3648:
  8144  0895  09B8               	comf	___awdiv@quotient^(0+128),f
  8145  0896  09B9               	comf	(___awdiv@quotient+1)^(0+128),f
  8146  0897  0AB8               	incf	___awdiv@quotient^(0+128),f
  8147  0898  1903               	skipnz
  8148  0899  0AB9               	incf	(___awdiv@quotient+1)^(0+128),f
  8149  089A                     l3650:
  8150  089A  0839               	movf	(___awdiv@quotient+1)^(0+128),w
  8151  089B  00B2               	movwf	(?___awdiv+1)^(0+128)
  8152  089C  0838               	movf	___awdiv@quotient^(0+128),w
  8153  089D  00B1               	movwf	?___awdiv^(0+128)
  8154  089E                     l529:
  8155  089E  0008               	return
  8156  089F                     __end_of___awdiv:
  8157                           
  8158                           	psect	text30
  8159  13D2                     __ptext30:	
  8160 ;; *************** function _CONFIGURAR *****************
  8161 ;; Defined at:
  8162 ;;		line 263 in file "MAIN_M.c"
  8163 ;; Parameters:    Size  Location     Type
  8164 ;;  x               1    wreg     unsigned char 
  8165 ;;  y               1    5[BANK0 ] unsigned char 
  8166 ;; Auto vars:     Size  Location     Type
  8167 ;;  x               1    7[BANK0 ] unsigned char 
  8168 ;; Return value:  Size  Location     Type
  8169 ;;                  1    wreg      void 
  8170 ;; Registers used:
  8171 ;;		wreg, fsr0l, fsr0h, status,2, status,0, pclath, cstack
  8172 ;; Tracked objects:
  8173 ;;		On entry : 0/0
  8174 ;;		On exit  : 0/0
  8175 ;;		Unchanged: 0/0
  8176 ;; Data sizes:     COMMON   BANK0   BANK1   BANK3   BANK2
  8177 ;;      Params:         0       1       0       0       0
  8178 ;;      Locals:         0       1       0       0       0
  8179 ;;      Temps:          0       1       0       0       0
  8180 ;;      Totals:         0       3       0       0       0
  8181 ;;Total ram usage:        3 bytes
  8182 ;; Hardware stack levels used: 1
  8183 ;; Hardware stack levels required when called: 4
  8184 ;; This function calls:
  8185 ;;		_LCD_STRING
  8186 ;;		_LCD_XY
  8187 ;;		_Parpadeo
  8188 ;; This function is called by:
  8189 ;;		_main
  8190 ;; This function uses a non-reentrant model
  8191 ;;
  8192                           
  8193  13D2                     _CONFIGURAR:	
  8194                           ;psect for function _CONFIGURAR
  8195                           
  8196                           
  8197                           ;incstack = 0
  8198                           ; Regs used in _CONFIGURAR: [wreg-fsr0h+status,2+status,0+pclath+cstack]
  8199                           ;CONFIGURAR@x stored from wreg
  8200  13D2  1283               	bcf	3,5	;RP0=0, select bank0
  8201  13D3  1303               	bcf	3,6	;RP1=0, select bank0
  8202  13D4  00A7               	movwf	CONFIGURAR@x
  8203  13D5                     l3864:
  8204                           
  8205                           ;MAIN_M.c: 264:     LCD_XY(x,y);
  8206  13D5  0825               	movf	CONFIGURAR@y,w
  8207  13D6  00A6               	movwf	??_CONFIGURAR
  8208  13D7  0826               	movf	??_CONFIGURAR,w
  8209  13D8  00A2               	movwf	LCD_XY@y
  8210  13D9  0827               	movf	CONFIGURAR@x,w
  8211  13DA  160A  118A  243E  160A  118A  	fcall	_LCD_XY
  8212  13DF                     l3866:
  8213                           
  8214                           ;MAIN_M.c: 265:     LCD_STRING("  ");
  8215  13DF  3005               	movlw	(low ((STR_8-__stringbase)| (0+32768)))& (0+255)
  8216  13E0  160A  118A  24A3  160A  118A  	fcall	_LCD_STRING
  8217  13E5                     l3868:
  8218                           
  8219                           ;MAIN_M.c: 266:     Parpadeo();
  8220  13E5  160A  118A  245C  160A  118A  	fcall	_Parpadeo
  8221  13EA                     l149:
  8222  13EA  0008               	return
  8223  13EB                     __end_of_CONFIGURAR:
  8224                           
  8225                           	psect	text31
  8226  145C                     __ptext31:	
  8227 ;; *************** function _Parpadeo *****************
  8228 ;; Defined at:
  8229 ;;		line 269 in file "MAIN_M.c"
  8230 ;; Parameters:    Size  Location     Type
  8231 ;;		None
  8232 ;; Auto vars:     Size  Location     Type
  8233 ;;  j               1    0[BANK0 ] unsigned char 
  8234 ;; Return value:  Size  Location     Type
  8235 ;;                  1    wreg      void 
  8236 ;; Registers used:
  8237 ;;		wreg, status,2, status,0
  8238 ;; Tracked objects:
  8239 ;;		On entry : 0/0
  8240 ;;		On exit  : 0/0
  8241 ;;		Unchanged: 0/0
  8242 ;; Data sizes:     COMMON   BANK0   BANK1   BANK3   BANK2
  8243 ;;      Params:         0       0       0       0       0
  8244 ;;      Locals:         0       1       0       0       0
  8245 ;;      Temps:          2       0       0       0       0
  8246 ;;      Totals:         2       1       0       0       0
  8247 ;;Total ram usage:        3 bytes
  8248 ;; Hardware stack levels used: 1
  8249 ;; Hardware stack levels required when called: 1
  8250 ;; This function calls:
  8251 ;;		Nothing
  8252 ;; This function is called by:
  8253 ;;		_CONFIGURAR
  8254 ;; This function uses a non-reentrant model
  8255 ;;
  8256                           
  8257  145C                     _Parpadeo:	
  8258                           ;psect for function _Parpadeo
  8259                           
  8260  145C                     l3744:	
  8261                           ;incstack = 0
  8262                           ; Regs used in _Parpadeo: [wreg+status,2+status,0]
  8263                           
  8264                           
  8265                           ;MAIN_M.c: 270:     uint8_t j = 0;
  8266  145C  1283               	bcf	3,5	;RP0=0, select bank0
  8267  145D  1303               	bcf	3,6	;RP1=0, select bank0
  8268  145E  01A0               	clrf	Parpadeo@j
  8269                           
  8270                           ;MAIN_M.c: 271:     while(j>100 && RB0 && RB1){
  8271  145F  2C6D               	goto	l3750
  8272  1460                     l3746:
  8273                           
  8274                           ;MAIN_M.c: 272:         j++;
  8275  1460  3001               	movlw	1
  8276  1461  00F4               	movwf	??_Parpadeo
  8277  1462  0874               	movf	??_Parpadeo,w
  8278  1463  07A0               	addwf	Parpadeo@j,f
  8279  1464                     l3748:
  8280                           
  8281                           ;MAIN_M.c: 273:         _delay((unsigned long)((50)*(8000000/4000.0)));
  8282  1464  3082               	movlw	130
  8283  1465  00F5               	movwf	??_Parpadeo+1
  8284  1466  30DD               	movlw	221
  8285  1467  00F4               	movwf	??_Parpadeo
  8286  1468                     u5747:
  8287  1468  0BF4               	decfsz	??_Parpadeo,f
  8288  1469  2C68               	goto	u5747
  8289  146A  0BF5               	decfsz	??_Parpadeo+1,f
  8290  146B  2C68               	goto	u5747
  8291  146C  2C6D               	nop2
  8292  146D                     l3750:
  8293                           
  8294                           ;MAIN_M.c: 271:     while(j>100 && RB0 && RB1){
  8295  146D  3065               	movlw	101
  8296  146E  1283               	bcf	3,5	;RP0=0, select bank0
  8297  146F  1303               	bcf	3,6	;RP1=0, select bank0
  8298  1470  0220               	subwf	Parpadeo@j,w
  8299  1471  1C03               	skipc
  8300  1472  2C74               	goto	u5361
  8301  1473  2C75               	goto	u5360
  8302  1474                     u5361:
  8303  1474  2C7D               	goto	l157
  8304  1475                     u5360:
  8305  1475                     l3752:
  8306  1475  1C06               	btfss	6,0	;volatile
  8307  1476  2C78               	goto	u5371
  8308  1477  2C79               	goto	u5370
  8309  1478                     u5371:
  8310  1478  2C7D               	goto	l157
  8311  1479                     u5370:
  8312  1479                     l3754:
  8313  1479  1886               	btfsc	6,1	;volatile
  8314  147A  2C7C               	goto	u5381
  8315  147B  2C7D               	goto	u5380
  8316  147C                     u5381:
  8317  147C  2C60               	goto	l3746
  8318  147D                     u5380:
  8319  147D                     l157:
  8320  147D  0008               	return
  8321  147E                     __end_of_Parpadeo:
  8322                           
  8323                           	psect	text32
  8324  143E                     __ptext32:	
  8325 ;; *************** function _LCD_XY *****************
  8326 ;; Defined at:
  8327 ;;		line 115 in file "LCD.c"
  8328 ;; Parameters:    Size  Location     Type
  8329 ;;  x               1    wreg     unsigned char 
  8330 ;;  y               1    2[BANK0 ] unsigned char 
  8331 ;; Auto vars:     Size  Location     Type
  8332 ;;  x               1    3[BANK0 ] unsigned char 
  8333 ;; Return value:  Size  Location     Type
  8334 ;;                  1    wreg      void 
  8335 ;; Registers used:
  8336 ;;		wreg, status,2, status,0, pclath, cstack
  8337 ;; Tracked objects:
  8338 ;;		On entry : 0/0
  8339 ;;		On exit  : 0/0
  8340 ;;		Unchanged: 0/0
  8341 ;; Data sizes:     COMMON   BANK0   BANK1   BANK3   BANK2
  8342 ;;      Params:         0       1       0       0       0
  8343 ;;      Locals:         0       1       0       0       0
  8344 ;;      Temps:          0       0       0       0       0
  8345 ;;      Totals:         0       2       0       0       0
  8346 ;;Total ram usage:        2 bytes
  8347 ;; Hardware stack levels used: 1
  8348 ;; Hardware stack levels required when called: 3
  8349 ;; This function calls:
  8350 ;;		_LCD_COM
  8351 ;; This function is called by:
  8352 ;;		_main
  8353 ;;		_CONFIGURAR
  8354 ;; This function uses a non-reentrant model
  8355 ;;
  8356                           
  8357  143E                     _LCD_XY:	
  8358                           ;psect for function _LCD_XY
  8359                           
  8360                           
  8361                           ;incstack = 0
  8362                           ; Regs used in _LCD_XY: [wreg+status,2+status,0+pclath+cstack]
  8363                           ;LCD_XY@x stored from wreg
  8364  143E  1283               	bcf	3,5	;RP0=0, select bank0
  8365  143F  1303               	bcf	3,6	;RP1=0, select bank0
  8366  1440  00A3               	movwf	LCD_XY@x
  8367  1441                     l3694:
  8368                           
  8369                           ;LCD.c: 116:     if(x == 1)
  8370  1441  0323               	decf	LCD_XY@x,w
  8371  1442  1D03               	btfss	3,2
  8372  1443  2C45               	goto	u5321
  8373  1444  2C46               	goto	u5320
  8374  1445                     u5321:
  8375  1445  2C4E               	goto	l3698
  8376  1446                     u5320:
  8377  1446                     l3696:
  8378                           
  8379                           ;LCD.c: 117:         LCD_COM(0x80 + y);
  8380  1446  0822               	movf	LCD_XY@y,w
  8381  1447  3E80               	addlw	128
  8382  1448  160A  118A  23EB  160A  118A  	fcall	_LCD_COM
  8383  144D  2C5B               	goto	l225
  8384  144E                     l3698:
  8385  144E  3002               	movlw	2
  8386  144F  0623               	xorwf	LCD_XY@x,w
  8387  1450  1D03               	btfss	3,2
  8388  1451  2C53               	goto	u5331
  8389  1452  2C54               	goto	u5330
  8390  1453                     u5331:
  8391  1453  2C5B               	goto	l225
  8392  1454                     u5330:
  8393  1454                     l3700:
  8394                           
  8395                           ;LCD.c: 119:         LCD_COM(0xC0 + y);
  8396  1454  0822               	movf	LCD_XY@y,w
  8397  1455  3EC0               	addlw	192
  8398  1456  160A  118A  23EB  160A  118A  	fcall	_LCD_COM
  8399  145B                     l225:
  8400  145B  0008               	return
  8401  145C                     __end_of_LCD_XY:
  8402                           
  8403                           	psect	text33
  8404  13EB                     __ptext33:	
  8405 ;; *************** function _LCD_COM *****************
  8406 ;; Defined at:
  8407 ;;		line 104 in file "LCD.c"
  8408 ;; Parameters:    Size  Location     Type
  8409 ;;  a               1    wreg     unsigned char 
  8410 ;; Auto vars:     Size  Location     Type
  8411 ;;  a               1    5[COMMON] unsigned char 
  8412 ;; Return value:  Size  Location     Type
  8413 ;;                  1    wreg      void 
  8414 ;; Registers used:
  8415 ;;		wreg, status,2, status,0, pclath, cstack
  8416 ;; Tracked objects:
  8417 ;;		On entry : 0/0
  8418 ;;		On exit  : 0/0
  8419 ;;		Unchanged: 0/0
  8420 ;; Data sizes:     COMMON   BANK0   BANK1   BANK3   BANK2
  8421 ;;      Params:         0       0       0       0       0
  8422 ;;      Locals:         1       0       0       0       0
  8423 ;;      Temps:          0       2       0       0       0
  8424 ;;      Totals:         1       2       0       0       0
  8425 ;;Total ram usage:        3 bytes
  8426 ;; Hardware stack levels used: 1
  8427 ;; Hardware stack levels required when called: 2
  8428 ;; This function calls:
  8429 ;;		_LCD_PORT
  8430 ;; This function is called by:
  8431 ;;		_LCD_XY
  8432 ;;		_LCD_INIT
  8433 ;; This function uses a non-reentrant model
  8434 ;;
  8435                           
  8436  13EB                     _LCD_COM:	
  8437                           ;psect for function _LCD_COM
  8438                           
  8439                           
  8440                           ;incstack = 0
  8441                           ; Regs used in _LCD_COM: [wreg+status,2+status,0+pclath+cstack]
  8442                           ;LCD_COM@a stored from wreg
  8443  13EB  00F5               	movwf	LCD_COM@a
  8444  13EC                     l3572:
  8445                           
  8446                           ;LCD.c: 105:     RE0 = 0;
  8447  13EC  1283               	bcf	3,5	;RP0=0, select bank0
  8448  13ED  1303               	bcf	3,6	;RP1=0, select bank0
  8449  13EE  1009               	bcf	9,0	;volatile
  8450  13EF                     l3574:
  8451                           
  8452                           ;LCD.c: 106:     LCD_PORT(a);
  8453  13EF  0875               	movf	LCD_COM@a,w
  8454  13F0  120A  158A  2000  160A  118A  	fcall	_LCD_PORT
  8455  13F5                     l3576:
  8456                           
  8457                           ;LCD.c: 107:     RE1 = 1;
  8458  13F5  1283               	bcf	3,5	;RP0=0, select bank0
  8459  13F6  1303               	bcf	3,6	;RP1=0, select bank0
  8460  13F7  1489               	bsf	9,1	;volatile
  8461  13F8                     l3578:
  8462                           
  8463                           ;LCD.c: 108:     _delay((unsigned long)((5)*(8000000/4000.0)));
  8464  13F8  300D               	movlw	13
  8465  13F9  1283               	bcf	3,5	;RP0=0, select bank0
  8466  13FA  1303               	bcf	3,6	;RP1=0, select bank0
  8467  13FB  00A1               	movwf	??_LCD_COM+1
  8468  13FC  30FB               	movlw	251
  8469  13FD  00A0               	movwf	??_LCD_COM
  8470  13FE                     u5757:
  8471  13FE  0BA0               	decfsz	??_LCD_COM,f
  8472  13FF  2BFE               	goto	u5757
  8473  1400  0BA1               	decfsz	??_LCD_COM+1,f
  8474  1401  2BFE               	goto	u5757
  8475  1402                     l3580:
  8476                           
  8477                           ;LCD.c: 109:     RE1 = 0;
  8478  1402  1283               	bcf	3,5	;RP0=0, select bank0
  8479  1403  1303               	bcf	3,6	;RP1=0, select bank0
  8480  1404  1089               	bcf	9,1	;volatile
  8481  1405                     l216:
  8482  1405  0008               	return
  8483  1406                     __end_of_LCD_COM:
  8484                           
  8485                           	psect	text34
  8486  14A3                     __ptext34:	
  8487 ;; *************** function _LCD_STRING *****************
  8488 ;; Defined at:
  8489 ;;		line 144 in file "LCD.c"
  8490 ;; Parameters:    Size  Location     Type
  8491 ;;  a               1    wreg     PTR unsigned char 
  8492 ;;		 -> STR_8(3), STR_7(3), STR_6(2), STR_5(2), 
  8493 ;;		 -> STR_4(2), STR_3(2), STR_2(2), STR_1(4), 
  8494 ;; Auto vars:     Size  Location     Type
  8495 ;;  a               1    4[BANK0 ] PTR unsigned char 
  8496 ;;		 -> STR_8(3), STR_7(3), STR_6(2), STR_5(2), 
  8497 ;;		 -> STR_4(2), STR_3(2), STR_2(2), STR_1(4), 
  8498 ;;  i               2    2[BANK0 ] int 
  8499 ;; Return value:  Size  Location     Type
  8500 ;;                  1    wreg      void 
  8501 ;; Registers used:
  8502 ;;		wreg, fsr0l, fsr0h, status,2, status,0, pclath, cstack
  8503 ;; Tracked objects:
  8504 ;;		On entry : 0/0
  8505 ;;		On exit  : 0/0
  8506 ;;		Unchanged: 0/0
  8507 ;; Data sizes:     COMMON   BANK0   BANK1   BANK3   BANK2
  8508 ;;      Params:         0       0       0       0       0
  8509 ;;      Locals:         0       3       0       0       0
  8510 ;;      Temps:          0       0       0       0       0
  8511 ;;      Totals:         0       3       0       0       0
  8512 ;;Total ram usage:        3 bytes
  8513 ;; Hardware stack levels used: 1
  8514 ;; Hardware stack levels required when called: 3
  8515 ;; This function calls:
  8516 ;;		_LCD_CHAR
  8517 ;; This function is called by:
  8518 ;;		_main
  8519 ;;		_CONFIGURAR
  8520 ;; This function uses a non-reentrant model
  8521 ;;
  8522                           
  8523  14A3                     _LCD_STRING:	
  8524                           ;psect for function _LCD_STRING
  8525                           
  8526                           
  8527                           ;incstack = 0
  8528                           ; Regs used in _LCD_STRING: [wreg-fsr0h+status,2+status,0+pclath+cstack]
  8529                           ;LCD_STRING@a stored from wreg
  8530  14A3  1283               	bcf	3,5	;RP0=0, select bank0
  8531  14A4  1303               	bcf	3,6	;RP1=0, select bank0
  8532  14A5  00A4               	movwf	LCD_STRING@a
  8533  14A6                     l3702:
  8534                           
  8535                           ;LCD.c: 145:     int i;;LCD.c: 146:  for(i=0;a[i]!='\0';i++)
  8536  14A6  01A2               	clrf	LCD_STRING@i
  8537  14A7  01A3               	clrf	LCD_STRING@i+1
  8538  14A8  2CBE               	goto	l3708
  8539  14A9                     l3704:
  8540                           
  8541                           ;LCD.c: 147:   LCD_CHAR(a[i]);
  8542  14A9  0822               	movf	LCD_STRING@i,w
  8543  14AA  0724               	addwf	LCD_STRING@a,w
  8544  14AB  0084               	movwf	4
  8545  14AC  160A  118A  2000  160A  118A  	fcall	stringdir
  8546  14B1  160A  118A  2422  160A  118A  	fcall	_LCD_CHAR
  8547  14B6                     l3706:
  8548  14B6  3001               	movlw	1
  8549  14B7  1283               	bcf	3,5	;RP0=0, select bank0
  8550  14B8  1303               	bcf	3,6	;RP1=0, select bank0
  8551  14B9  07A2               	addwf	LCD_STRING@i,f
  8552  14BA  1803               	skipnc
  8553  14BB  0AA3               	incf	LCD_STRING@i+1,f
  8554  14BC  3000               	movlw	0
  8555  14BD  07A3               	addwf	LCD_STRING@i+1,f
  8556  14BE                     l3708:
  8557  14BE  0822               	movf	LCD_STRING@i,w
  8558  14BF  0724               	addwf	LCD_STRING@a,w
  8559  14C0  0084               	movwf	4
  8560  14C1  160A  118A  2000  160A  118A  	fcall	stringdir
  8561  14C6  3A00               	xorlw	0
  8562  14C7  1D03               	skipz
  8563  14C8  2CCA               	goto	u5341
  8564  14C9  2CCB               	goto	u5340
  8565  14CA                     u5341:
  8566  14CA  2CA9               	goto	l3704
  8567  14CB                     u5340:
  8568  14CB                     l237:
  8569  14CB  0008               	return
  8570  14CC                     __end_of_LCD_STRING:
  8571                           
  8572                           	psect	text35
  8573  1422                     __ptext35:	
  8574 ;; *************** function _LCD_CHAR *****************
  8575 ;; Defined at:
  8576 ;;		line 137 in file "LCD.c"
  8577 ;; Parameters:    Size  Location     Type
  8578 ;;  a               1    wreg     unsigned char 
  8579 ;; Auto vars:     Size  Location     Type
  8580 ;;  a               1    5[COMMON] unsigned char 
  8581 ;; Return value:  Size  Location     Type
  8582 ;;                  1    wreg      void 
  8583 ;; Registers used:
  8584 ;;		wreg, status,2, status,0, pclath, cstack
  8585 ;; Tracked objects:
  8586 ;;		On entry : 0/0
  8587 ;;		On exit  : 0/0
  8588 ;;		Unchanged: 0/0
  8589 ;; Data sizes:     COMMON   BANK0   BANK1   BANK3   BANK2
  8590 ;;      Params:         0       0       0       0       0
  8591 ;;      Locals:         1       0       0       0       0
  8592 ;;      Temps:          0       2       0       0       0
  8593 ;;      Totals:         1       2       0       0       0
  8594 ;;Total ram usage:        3 bytes
  8595 ;; Hardware stack levels used: 1
  8596 ;; Hardware stack levels required when called: 2
  8597 ;; This function calls:
  8598 ;;		_LCD_PORT
  8599 ;; This function is called by:
  8600 ;;		_main
  8601 ;;		_RTC_PRINT
  8602 ;;		_LCD_STRING
  8603 ;; This function uses a non-reentrant model
  8604 ;;
  8605                           
  8606  1422                     _LCD_CHAR:	
  8607                           ;psect for function _LCD_CHAR
  8608                           
  8609                           
  8610                           ;incstack = 0
  8611                           ; Regs used in _LCD_CHAR: [wreg+status,2+status,0+pclath+cstack]
  8612                           ;LCD_CHAR@a stored from wreg
  8613  1422  00F5               	movwf	LCD_CHAR@a
  8614  1423                     l3562:
  8615                           
  8616                           ;LCD.c: 138:     RE0 = 1;
  8617  1423  1283               	bcf	3,5	;RP0=0, select bank0
  8618  1424  1303               	bcf	3,6	;RP1=0, select bank0
  8619  1425  1409               	bsf	9,0	;volatile
  8620  1426                     l3564:
  8621                           
  8622                           ;LCD.c: 139:     LCD_PORT(a);
  8623  1426  0875               	movf	LCD_CHAR@a,w
  8624  1427  120A  158A  2000  160A  118A  	fcall	_LCD_PORT
  8625  142C                     l3566:
  8626                           
  8627                           ;LCD.c: 140:     RE1 = 1;
  8628  142C  1283               	bcf	3,5	;RP0=0, select bank0
  8629  142D  1303               	bcf	3,6	;RP1=0, select bank0
  8630  142E  1489               	bsf	9,1	;volatile
  8631  142F                     l3568:
  8632                           
  8633                           ;LCD.c: 141:    _delay((unsigned long)((4)*(8000000/4000.0)));
  8634  142F  300B               	movlw	11
  8635  1430  1283               	bcf	3,5	;RP0=0, select bank0
  8636  1431  1303               	bcf	3,6	;RP1=0, select bank0
  8637  1432  00A1               	movwf	??_LCD_CHAR+1
  8638  1433  3061               	movlw	97
  8639  1434  00A0               	movwf	??_LCD_CHAR
  8640  1435                     u5767:
  8641  1435  0BA0               	decfsz	??_LCD_CHAR,f
  8642  1436  2C35               	goto	u5767
  8643  1437  0BA1               	decfsz	??_LCD_CHAR+1,f
  8644  1438  2C35               	goto	u5767
  8645  1439  2C3A               	nop2
  8646  143A                     l3570:
  8647                           
  8648                           ;LCD.c: 142:     RE1 = 0;
  8649  143A  1283               	bcf	3,5	;RP0=0, select bank0
  8650  143B  1303               	bcf	3,6	;RP1=0, select bank0
  8651  143C  1089               	bcf	9,1	;volatile
  8652  143D                     l231:
  8653  143D  0008               	return
  8654  143E                     __end_of_LCD_CHAR:
  8655                           
  8656                           	psect	text36
  8657  0800                     __ptext36:	
  8658 ;; *************** function _LCD_PORT *****************
  8659 ;; Defined at:
  8660 ;;		line 101 in file "LCD.c"
  8661 ;; Parameters:    Size  Location     Type
  8662 ;;  a               1    wreg     unsigned char 
  8663 ;; Auto vars:     Size  Location     Type
  8664 ;;  a               1    4[COMMON] unsigned char 
  8665 ;; Return value:  Size  Location     Type
  8666 ;;                  1    wreg      void 
  8667 ;; Registers used:
  8668 ;;		wreg
  8669 ;; Tracked objects:
  8670 ;;		On entry : 0/0
  8671 ;;		On exit  : 0/0
  8672 ;;		Unchanged: 0/0
  8673 ;; Data sizes:     COMMON   BANK0   BANK1   BANK3   BANK2
  8674 ;;      Params:         0       0       0       0       0
  8675 ;;      Locals:         1       0       0       0       0
  8676 ;;      Temps:          0       0       0       0       0
  8677 ;;      Totals:         1       0       0       0       0
  8678 ;;Total ram usage:        1 bytes
  8679 ;; Hardware stack levels used: 1
  8680 ;; Hardware stack levels required when called: 1
  8681 ;; This function calls:
  8682 ;;		Nothing
  8683 ;; This function is called by:
  8684 ;;		_LCD_COM
  8685 ;;		_LCD_CLEAR
  8686 ;;		_LCD_INIT
  8687 ;;		_LCD_CHAR
  8688 ;; This function uses a non-reentrant model
  8689 ;;
  8690                           
  8691  0800                     _LCD_PORT:	
  8692                           ;psect for function _LCD_PORT
  8693                           
  8694                           
  8695                           ;incstack = 0
  8696                           ; Regs used in _LCD_PORT: [wreg]
  8697                           ;LCD_PORT@a stored from wreg
  8698  0800  00F4               	movwf	LCD_PORT@a
  8699  0801                     l3140:
  8700                           
  8701                           ;LCD.c: 102:     PORTD = a;
  8702  0801  0874               	movf	LCD_PORT@a,w
  8703  0802  1283               	bcf	3,5	;RP0=0, select bank0
  8704  0803  1303               	bcf	3,6	;RP1=0, select bank0
  8705  0804  0088               	movwf	8	;volatile
  8706  0805                     l213:
  8707  0805  0008               	return
  8708  0806                     __end_of_LCD_PORT:
  8709                           
  8710                           	psect	text37
  8711  1406                     __ptext37:	
  8712 ;; *************** function _BCD_DECIMAL *****************
  8713 ;; Defined at:
  8714 ;;		line 282 in file "MAIN_M.c"
  8715 ;; Parameters:    Size  Location     Type
  8716 ;;  num             1    wreg     unsigned char 
  8717 ;; Auto vars:     Size  Location     Type
  8718 ;;  num             1    5[BANK0 ] unsigned char 
  8719 ;; Return value:  Size  Location     Type
  8720 ;;                  1    wreg      unsigned char 
  8721 ;; Registers used:
  8722 ;;		wreg, status,2, status,0, pclath, cstack
  8723 ;; Tracked objects:
  8724 ;;		On entry : 0/0
  8725 ;;		On exit  : 0/0
  8726 ;;		Unchanged: 0/0
  8727 ;; Data sizes:     COMMON   BANK0   BANK1   BANK3   BANK2
  8728 ;;      Params:         0       0       0       0       0
  8729 ;;      Locals:         0       1       0       0       0
  8730 ;;      Temps:          0       3       0       0       0
  8731 ;;      Totals:         0       4       0       0       0
  8732 ;;Total ram usage:        4 bytes
  8733 ;; Hardware stack levels used: 1
  8734 ;; Hardware stack levels required when called: 2
  8735 ;; This function calls:
  8736 ;;		___bmul
  8737 ;; This function is called by:
  8738 ;;		_main
  8739 ;; This function uses a non-reentrant model
  8740 ;;
  8741                           
  8742  1406                     _BCD_DECIMAL:	
  8743                           ;psect for function _BCD_DECIMAL
  8744                           
  8745                           
  8746                           ;incstack = 0
  8747                           ; Regs used in _BCD_DECIMAL: [wreg+status,2+status,0+pclath+cstack]
  8748                           ;BCD_DECIMAL@num stored from wreg
  8749  1406  1283               	bcf	3,5	;RP0=0, select bank0
  8750  1407  1303               	bcf	3,6	;RP1=0, select bank0
  8751  1408  00A5               	movwf	BCD_DECIMAL@num
  8752  1409                     l3856:
  8753                           
  8754                           ;MAIN_M.c: 283:     return ((num >> 4)*10 + (num & 0x0f));
  8755  1409  300F               	movlw	15
  8756  140A  0525               	andwf	BCD_DECIMAL@num,w
  8757  140B  00A2               	movwf	??_BCD_DECIMAL
  8758  140C  300A               	movlw	10
  8759  140D  00A3               	movwf	??_BCD_DECIMAL+1
  8760  140E  0823               	movf	??_BCD_DECIMAL+1,w
  8761  140F  00F4               	movwf	___bmul@multiplicand
  8762  1410  0825               	movf	BCD_DECIMAL@num,w
  8763  1411  00A4               	movwf	??_BCD_DECIMAL+2
  8764  1412  3004               	movlw	4
  8765  1413                     u5505:
  8766  1413  1003               	clrc
  8767  1414  0CA4               	rrf	??_BCD_DECIMAL+2,f
  8768  1415  3EFF               	addlw	-1
  8769  1416  1D03               	skipz
  8770  1417  2C13               	goto	u5505
  8771  1418  0824               	movf	??_BCD_DECIMAL+2,w
  8772  1419  160A  118A  23BB  160A  118A  	fcall	___bmul
  8773  141E  1283               	bcf	3,5	;RP0=0, select bank0
  8774  141F  1303               	bcf	3,6	;RP1=0, select bank0
  8775  1420  0722               	addwf	??_BCD_DECIMAL,w
  8776  1421                     l163:
  8777  1421  0008               	return
  8778  1422                     __end_of_BCD_DECIMAL:
  8779                           
  8780                           	psect	text38
  8781  13BB                     __ptext38:	
  8782 ;; *************** function ___bmul *****************
  8783 ;; Defined at:
  8784 ;;		line 4 in file "C:\Program Files\Microchip\xc8\v2.35\pic\sources\c90\common\Umul8.c"
  8785 ;; Parameters:    Size  Location     Type
  8786 ;;  multiplier      1    wreg     unsigned char 
  8787 ;;  multiplicand    1    4[COMMON] unsigned char 
  8788 ;; Auto vars:     Size  Location     Type
  8789 ;;  multiplier      1    1[BANK0 ] unsigned char 
  8790 ;;  product         1    0[BANK0 ] unsigned char 
  8791 ;; Return value:  Size  Location     Type
  8792 ;;                  1    wreg      unsigned char 
  8793 ;; Registers used:
  8794 ;;		wreg, status,2, status,0
  8795 ;; Tracked objects:
  8796 ;;		On entry : 0/0
  8797 ;;		On exit  : 0/0
  8798 ;;		Unchanged: 0/0
  8799 ;; Data sizes:     COMMON   BANK0   BANK1   BANK3   BANK2
  8800 ;;      Params:         1       0       0       0       0
  8801 ;;      Locals:         0       2       0       0       0
  8802 ;;      Temps:          1       0       0       0       0
  8803 ;;      Totals:         2       2       0       0       0
  8804 ;;Total ram usage:        4 bytes
  8805 ;; Hardware stack levels used: 1
  8806 ;; Hardware stack levels required when called: 1
  8807 ;; This function calls:
  8808 ;;		Nothing
  8809 ;; This function is called by:
  8810 ;;		_BCD_DECIMAL
  8811 ;; This function uses a non-reentrant model
  8812 ;;
  8813                           
  8814  13BB                     ___bmul:	
  8815                           ;psect for function ___bmul
  8816                           
  8817                           
  8818                           ;incstack = 0
  8819                           ; Regs used in ___bmul: [wreg+status,2+status,0]
  8820                           ;___bmul@multiplier stored from wreg
  8821  13BB  1283               	bcf	3,5	;RP0=0, select bank0
  8822  13BC  1303               	bcf	3,6	;RP1=0, select bank0
  8823  13BD  00A1               	movwf	___bmul@multiplier
  8824  13BE                     l3756:
  8825  13BE  01A0               	clrf	___bmul@product
  8826  13BF                     l3758:
  8827  13BF  1C21               	btfss	___bmul@multiplier,0
  8828  13C0  2BC2               	goto	u5391
  8829  13C1  2BC3               	goto	u5390
  8830  13C2                     u5391:
  8831  13C2  2BC7               	goto	l3762
  8832  13C3                     u5390:
  8833  13C3                     l3760:
  8834  13C3  0874               	movf	___bmul@multiplicand,w
  8835  13C4  00F5               	movwf	??___bmul
  8836  13C5  0875               	movf	??___bmul,w
  8837  13C6  07A0               	addwf	___bmul@product,f
  8838  13C7                     l3762:
  8839  13C7  1003               	clrc
  8840  13C8  0DF4               	rlf	___bmul@multiplicand,f
  8841  13C9                     l3764:
  8842  13C9  1003               	clrc
  8843  13CA  0CA1               	rrf	___bmul@multiplier,f
  8844  13CB  0821               	movf	___bmul@multiplier,w
  8845  13CC  1D03               	btfss	3,2
  8846  13CD  2BCF               	goto	u5401
  8847  13CE  2BD0               	goto	u5400
  8848  13CF                     u5401:
  8849  13CF  2BBF               	goto	l3758
  8850  13D0                     u5400:
  8851  13D0                     l3766:
  8852  13D0  0820               	movf	___bmul@product,w
  8853  13D1                     l402:
  8854  13D1  0008               	return
  8855  13D2                     __end_of___bmul:
  8856                           
  8857                           	psect	text39
  8858  089F                     __ptext39:	
  8859 ;; *************** function _isr *****************
  8860 ;; Defined at:
  8861 ;;		line 58 in file "MAIN_M.c"
  8862 ;; Parameters:    Size  Location     Type
  8863 ;;		None
  8864 ;; Auto vars:     Size  Location     Type
  8865 ;;		None
  8866 ;; Return value:  Size  Location     Type
  8867 ;;                  1    wreg      void 
  8868 ;; Registers used:
  8869 ;;		wreg, status,2, status,0
  8870 ;; Tracked objects:
  8871 ;;		On entry : 0/0
  8872 ;;		On exit  : 0/0
  8873 ;;		Unchanged: 0/0
  8874 ;; Data sizes:     COMMON   BANK0   BANK1   BANK3   BANK2
  8875 ;;      Params:         0       0       0       0       0
  8876 ;;      Locals:         0       0       0       0       0
  8877 ;;      Temps:          4       0       0       0       0
  8878 ;;      Totals:         4       0       0       0       0
  8879 ;;Total ram usage:        4 bytes
  8880 ;; Hardware stack levels used: 1
  8881 ;; This function calls:
  8882 ;;		Nothing
  8883 ;; This function is called by:
  8884 ;;		Interrupt level 1
  8885 ;; This function uses a non-reentrant model
  8886 ;;
  8887                           
  8888  089F                     _isr:	
  8889                           ;psect for function _isr
  8890                           
  8891  089F                     i1l1828:
  8892                           
  8893                           ;MAIN_M.c: 59:     if (INTCONbits.RBIF==1){
  8894  089F  1C0B               	btfss	11,0	;volatile
  8895  08A0  28A2               	goto	u185_21
  8896  08A1  28A3               	goto	u185_20
  8897  08A2                     u185_21:
  8898  08A2  2906               	goto	i1l118
  8899  08A3                     u185_20:
  8900  08A3                     i1l1830:
  8901                           
  8902                           ;MAIN_M.c: 60:         if (RB0==0){
  8903  08A3  1283               	bcf	3,5	;RP0=0, select bank0
  8904  08A4  1303               	bcf	3,6	;RP1=0, select bank0
  8905  08A5  1806               	btfsc	6,0	;volatile
  8906  08A6  28A8               	goto	u186_21
  8907  08A7  28A9               	goto	u186_20
  8908  08A8                     u186_21:
  8909  08A8  28BB               	goto	i1l106
  8910  08A9                     u186_20:
  8911  08A9                     i1l1832:
  8912                           
  8913                           ;MAIN_M.c: 61:             select++;
  8914  08A9  3001               	movlw	1
  8915  08AA  00F0               	movwf	??_isr
  8916  08AB  0870               	movf	??_isr,w
  8917  08AC  07F7               	addwf	_select,f
  8918                           
  8919                           ;MAIN_M.c: 62:             PORTA++;
  8920  08AD  3001               	movlw	1
  8921  08AE  00F0               	movwf	??_isr
  8922  08AF  0870               	movf	??_isr,w
  8923  08B0  0785               	addwf	5,f	;volatile
  8924  08B1                     i1l1834:
  8925                           
  8926                           ;MAIN_M.c: 63:             _delay((unsigned long)((10)*(8000000/4000.0)));
  8927  08B1  301A               	movlw	26
  8928  08B2  00F1               	movwf	??_isr+1
  8929  08B3  30F8               	movlw	248
  8930  08B4  00F0               	movwf	??_isr
  8931  08B5                     u577_27:
  8932  08B5  0BF0               	decfsz	??_isr,f
  8933  08B6  28B5               	goto	u577_27
  8934  08B7  0BF1               	decfsz	??_isr+1,f
  8935  08B8  28B5               	goto	u577_27
  8936  08B9  0000               	nop
  8937                           
  8938                           ;MAIN_M.c: 64:         } else if (RB1==0){
  8939  08BA  28C8               	goto	i1l1840
  8940  08BB                     i1l106:
  8941  08BB  1886               	btfsc	6,1	;volatile
  8942  08BC  28BE               	goto	u187_21
  8943  08BD  28BF               	goto	u187_20
  8944  08BE                     u187_21:
  8945  08BE  28C8               	goto	i1l1840
  8946  08BF                     u187_20:
  8947  08BF                     i1l1836:
  8948                           
  8949                           ;MAIN_M.c: 65:             if(select != 0)
  8950  08BF  0877               	movf	_select,w
  8951  08C0  1903               	btfsc	3,2
  8952  08C1  28C3               	goto	u188_21
  8953  08C2  28C4               	goto	u188_20
  8954  08C3                     u188_21:
  8955  08C3  28C8               	goto	i1l1840
  8956  08C4                     u188_20:
  8957  08C4                     i1l1838:
  8958                           
  8959                           ;MAIN_M.c: 66:                 parametro++;
  8960  08C4  3001               	movlw	1
  8961  08C5  00F0               	movwf	??_isr
  8962  08C6  0870               	movf	??_isr,w
  8963  08C7  07F6               	addwf	_parametro,f
  8964  08C8                     i1l1840:
  8965                           
  8966                           ;MAIN_M.c: 68:         if(select >5)
  8967  08C8  3006               	movlw	6
  8968  08C9  0277               	subwf	_select,w
  8969  08CA  1C03               	skipc
  8970  08CB  28CD               	goto	u189_21
  8971  08CC  28CE               	goto	u189_20
  8972  08CD                     u189_21:
  8973  08CD  28CF               	goto	i1l1844
  8974  08CE                     u189_20:
  8975  08CE                     i1l1842:
  8976                           
  8977                           ;MAIN_M.c: 69:             select = 0;
  8978  08CE  01F7               	clrf	_select
  8979  08CF                     i1l1844:
  8980                           
  8981                           ;MAIN_M.c: 71:         if(select == 1 && parametro >23){
  8982  08CF  0377               	decf	_select,w
  8983  08D0  1D03               	btfss	3,2
  8984  08D1  28D3               	goto	u190_21
  8985  08D2  28D4               	goto	u190_20
  8986  08D3                     u190_21:
  8987  08D3  28DC               	goto	i1l1850
  8988  08D4                     u190_20:
  8989  08D4                     i1l1846:
  8990  08D4  3018               	movlw	24
  8991  08D5  0276               	subwf	_parametro,w
  8992  08D6  1C03               	skipc
  8993  08D7  28D9               	goto	u191_21
  8994  08D8  28DA               	goto	u191_20
  8995  08D9                     u191_21:
  8996  08D9  28DC               	goto	i1l1850
  8997  08DA                     u191_20:
  8998  08DA                     i1l1848:
  8999                           
  9000                           ;MAIN_M.c: 72:             parametro = 0;
  9001  08DA  01F6               	clrf	_parametro
  9002                           
  9003                           ;MAIN_M.c: 73:         }else if(select == 2 && parametro >59){
  9004  08DB  2905               	goto	i1l1868
  9005  08DC                     i1l1850:
  9006  08DC  3002               	movlw	2
  9007  08DD  0677               	xorwf	_select,w
  9008  08DE  1D03               	btfss	3,2
  9009  08DF  28E1               	goto	u192_21
  9010  08E0  28E2               	goto	u192_20
  9011  08E1                     u192_21:
  9012  08E1  28E9               	goto	i1l1856
  9013  08E2                     u192_20:
  9014  08E2                     i1l1852:
  9015  08E2  303C               	movlw	60
  9016  08E3  0276               	subwf	_parametro,w
  9017  08E4  1C03               	skipc
  9018  08E5  28E7               	goto	u193_21
  9019  08E6  28E8               	goto	u193_20
  9020  08E7                     u193_21:
  9021  08E7  28E9               	goto	i1l1856
  9022  08E8                     u193_20:
  9023  08E8  28DA               	goto	i1l1848
  9024  08E9                     i1l1856:
  9025  08E9  3003               	movlw	3
  9026  08EA  0677               	xorwf	_select,w
  9027  08EB  1D03               	btfss	3,2
  9028  08EC  28EE               	goto	u194_21
  9029  08ED  28EF               	goto	u194_20
  9030  08EE                     u194_21:
  9031  08EE  28F8               	goto	i1l1862
  9032  08EF                     u194_20:
  9033  08EF                     i1l1858:
  9034  08EF  300D               	movlw	13
  9035  08F0  0276               	subwf	_parametro,w
  9036  08F1  1C03               	skipc
  9037  08F2  28F4               	goto	u195_21
  9038  08F3  28F5               	goto	u195_20
  9039  08F4                     u195_21:
  9040  08F4  28F8               	goto	i1l1862
  9041  08F5                     u195_20:
  9042  08F5                     i1l1860:
  9043                           
  9044                           ;MAIN_M.c: 76:             parametro = 1;
  9045  08F5  01F6               	clrf	_parametro
  9046  08F6  0AF6               	incf	_parametro,f
  9047                           
  9048                           ;MAIN_M.c: 77:         }else if(select == 4 && parametro >99){
  9049  08F7  2905               	goto	i1l1868
  9050  08F8                     i1l1862:
  9051  08F8  3004               	movlw	4
  9052  08F9  0677               	xorwf	_select,w
  9053  08FA  1D03               	btfss	3,2
  9054  08FB  28FD               	goto	u196_21
  9055  08FC  28FE               	goto	u196_20
  9056  08FD                     u196_21:
  9057  08FD  2905               	goto	i1l114
  9058  08FE                     u196_20:
  9059  08FE                     i1l1864:
  9060  08FE  3064               	movlw	100
  9061  08FF  0276               	subwf	_parametro,w
  9062  0900  1C03               	skipc
  9063  0901  2903               	goto	u197_21
  9064  0902  2904               	goto	u197_20
  9065  0903                     u197_21:
  9066  0903  2905               	goto	i1l114
  9067  0904                     u197_20:
  9068  0904  28DA               	goto	i1l1848
  9069  0905                     i1l114:
  9070  0905                     i1l1868:
  9071                           
  9072                           ;MAIN_M.c: 80:         INTCONbits.RBIF=0;
  9073  0905  100B               	bcf	11,0	;volatile
  9074  0906                     i1l118:
  9075  0906  0873               	movf	??_isr+3,w
  9076  0907  008A               	movwf	10
  9077  0908  0E72               	swapf	??_isr+2,w
  9078  0909  0083               	movwf	3
  9079  090A  0EFE               	swapf	btemp,f
  9080  090B  0E7E               	swapf	btemp,w
  9081  090C  0009               	retfie
  9082  090D                     __end_of_isr:
  9083  007E                     btemp	set	126	;btemp
  9084  007E                     wtemp0	set	126
  9085                           
  9086                           	psect	intentry
  9087  0004                     __pintentry:	
  9088                           ;incstack = 0
  9089                           ; Regs used in _isr: [wreg+status,2+status,0]
  9090                           
  9091  0004                     interrupt_function:
  9092  007E                     saved_w	set	btemp
  9093  0004  00FE               	movwf	btemp
  9094  0005  0E03               	swapf	3,w
  9095  0006  00F2               	movwf	??_isr+2
  9096  0007  080A               	movf	10,w
  9097  0008  00F3               	movwf	??_isr+3
  9098  0009  120A  158A  289F   	ljmp	_isr
  9099                           
  9100                           	psect	idloc
  9101                           
  9102                           ;Config register IDLOC0 @ 0x2000
  9103                           ;	unspecified, using default values
  9104  2000                     	org	8192
  9105  2000  3FFF               	dw	16383
  9106                           
  9107                           ;Config register IDLOC1 @ 0x2001
  9108                           ;	unspecified, using default values
  9109  2001                     	org	8193
  9110  2001  3FFF               	dw	16383
  9111                           
  9112                           ;Config register IDLOC2 @ 0x2002
  9113                           ;	unspecified, using default values
  9114  2002                     	org	8194
  9115  2002  3FFF               	dw	16383
  9116                           
  9117                           ;Config register IDLOC3 @ 0x2003
  9118                           ;	unspecified, using default values
  9119  2003                     	org	8195
  9120  2003  3FFF               	dw	16383
  9121                           
  9122                           	psect	config
  9123                           
  9124                           ;Config register CONFIG1 @ 0x2007
  9125                           ;	Oscillator Selection bits
  9126                           ;	FOSC = INTRC_NOCLKOUT, INTOSCIO oscillator: I/O function on RA6/OSC2/CLKOUT pin, I/O f
      +                          unction on RA7/OSC1/CLKIN
  9127                           ;	Watchdog Timer Enable bit
  9128                           ;	WDTE = OFF, WDT disabled and can be enabled by SWDTEN bit of the WDTCON register
  9129                           ;	Power-up Timer Enable bit
  9130                           ;	PWRTE = OFF, PWRT disabled
  9131                           ;	RE3/MCLR pin function select bit
  9132                           ;	MCLRE = OFF, RE3/MCLR pin function is digital input, MCLR internally tied to VDD
  9133                           ;	Code Protection bit
  9134                           ;	CP = OFF, Program memory code protection is disabled
  9135                           ;	Data Code Protection bit
  9136                           ;	CPD = OFF, Data memory code protection is disabled
  9137                           ;	Brown Out Reset Selection bits
  9138                           ;	BOREN = OFF, BOR disabled
  9139                           ;	Internal External Switchover bit
  9140                           ;	IESO = OFF, Internal/External Switchover mode is disabled
  9141                           ;	Fail-Safe Clock Monitor Enabled bit
  9142                           ;	FCMEN = OFF, Fail-Safe Clock Monitor is disabled
  9143                           ;	Low Voltage Programming Enable bit
  9144                           ;	LVP = OFF, RB3 pin has digital I/O, HV on MCLR must be used for programming
  9145                           ;	In-Circuit Debugger Mode bit
  9146                           ;	DEBUG = 0x1, unprogrammed default
  9147  2007                     	org	8199
  9148  2007  20D4               	dw	8404
  9149                           
  9150                           ;Config register CONFIG2 @ 0x2008
  9151                           ;	Brown-out Reset Selection bit
  9152                           ;	BOR4V = BOR40V, Brown-out Reset set to 4.0V
  9153                           ;	Flash Program Memory Self Write Enable bits
  9154                           ;	WRT = OFF, Write protection off
  9155  2008                     	org	8200
  9156  2008  3FFF               	dw	16383

Data Sizes:
    Strings     14
    Constant    0
    Data        0
    BSS         13
    Persistent  0
    Stack       0

Auto Spaces:
    Space          Size  Autos    Used
    COMMON           14      6      10
    BANK0            80     80      80
    BANK1            80     55      64
    BANK3            96      0       0
    BANK2            96      0       0

Pointer List with Targets:

    LCD_STRING@a	PTR unsigned char  size(1) Largest target is 4
		 -> STR_8(CODE[3]), STR_7(CODE[3]), STR_6(CODE[2]), STR_5(CODE[2]), 
		 -> STR_4(CODE[2]), STR_3(CODE[2]), STR_2(CODE[2]), STR_1(CODE[4]), 


Critical Paths under _main in COMMON

    _main->_I2C_Master_Read
    _main->_I2C_Master_Write
    _main->_LCD_CHAR
    _setup->_OSCILLATOR
    _LCD_INIT->_LCD_COM
    _I2C_Master_Init->___lldiv
    ___flmul->__Umul8_16
    _RTC_WRITE->_I2C_Master_Write
    _RTC_READ->_I2C_Master_Read
    _RTC_READ->_I2C_Master_Write
    _RTC_PRINT->_LCD_CHAR
    _LCD_CLEAR->_LCD_PORT
    _CONFIGURAR->_Parpadeo
    _LCD_XY->_LCD_COM
    _LCD_COM->_LCD_PORT
    _LCD_STRING->_LCD_CHAR
    _LCD_CHAR->_LCD_PORT
    _BCD_DECIMAL->___bmul

Critical Paths under _isr in COMMON

    None.

Critical Paths under _main in BANK0

    _setup->_I2C_Master_Init
    _LCD_INIT->_LCD_COM
    _I2C_Master_Init->___lldiv
    _UNIDAD->___wmul
    _DECENA->___wmul
    ___wmul->_CENTENA
    ___flsub->___wmul
    _CENTENA->___fltol
    ___fltol->___fldiv
    ___flmul->___xxtofl
    ___fldiv->___flmul
    _RTC_READ->_I2C_Master_Read
    _RTC_PRINT->_LCD_CHAR
    ___awdiv->___wmul
    _CONFIGURAR->_LCD_STRING
    _LCD_XY->_LCD_COM
    _LCD_STRING->_LCD_CHAR
    _BCD_DECIMAL->___bmul

Critical Paths under _isr in BANK0

    None.

Critical Paths under _main in BANK1

    _main->_UNIDAD
    _UNIDAD->_DECENA
    _DECENA->___awdiv
    ___wmul->_CENTENA
    ___flsub->___wmul
    _DECIMAL_BCD->___awdiv
    ___awdiv->___flsub

Critical Paths under _isr in BANK1

    None.

Critical Paths under _main in BANK3

    None.

Critical Paths under _isr in BANK3

    None.

Critical Paths under _main in BANK2

    None.

Critical Paths under _isr in BANK2

    None.

Call Graph Tables:

 ---------------------------------------------------------------------------------
 (Depth) Function   	        Calls       Base Space   Used Autos Params    Refs
 ---------------------------------------------------------------------------------
 (0) _main                                                 2     2      0   68205
                                             53 BANK1      2     2      0
                        _BCD_DECIMAL
                            _CENTENA
                         _CONFIGURAR
                             _DECENA
                        _DECIMAL_BCD
                    _I2C_Master_Read
                   _I2C_Master_Start
                    _I2C_Master_Stop
                   _I2C_Master_Write
                           _LCD_CHAR
                          _LCD_CLEAR
                         _LCD_STRING
                             _LCD_XY
                          _RTC_PRINT
                           _RTC_READ
                          _RTC_WRITE
                             _UNIDAD
                              _setup
 ---------------------------------------------------------------------------------
 (1) _setup                                                0     0      0     710
                    _I2C_Master_Init
                            _IOC_INT
                           _LCD_INIT
                         _OSCILLATOR
 ---------------------------------------------------------------------------------
 (2) _OSCILLATOR                                           3     3      0      31
                                              4 COMMON     2     2      0
                                              0 BANK0      1     1      0
 ---------------------------------------------------------------------------------
 (2) _LCD_INIT                                             2     2      0      93
                                              2 BANK0      2     2      0
                            _LCD_COM
                           _LCD_PORT
 ---------------------------------------------------------------------------------
 (2) _IOC_INT                                              1     1      0      44
                                              4 COMMON     1     1      0
 ---------------------------------------------------------------------------------
 (2) _I2C_Master_Init                                      8     4      4     542
                                             13 BANK0      8     4      4
                            ___lldiv
 ---------------------------------------------------------------------------------
 (3) ___lldiv                                             14     6      8     421
                                              4 COMMON     1     1      0
                                              0 BANK0     13     5      8
 ---------------------------------------------------------------------------------
 (1) _UNIDAD                                              15    15      0   33734
                                             38 BANK1     15    15      0
                            _CENTENA
                             _DECENA
                            ___flmul
                            ___flsub
                            ___fltol
                             ___wmul
                           ___xxtofl
 ---------------------------------------------------------------------------------
 (2) _DECENA                                              12    12      0   17220
                                             26 BANK1     12    12      0
                            _CENTENA
                            ___awdiv
                            ___flmul
                            ___flsub
                            ___fltol
                             ___wmul
                           ___xxtofl
 ---------------------------------------------------------------------------------
 (2) ___wmul                                               6     2      4     548
                                             78 BANK0      2     2      0
                                              5 BANK1      4     0      4
                            _CENTENA (ARG)
                            ___fltol (ARG)
                           ___xxtofl (ARG)
 ---------------------------------------------------------------------------------
 (2) ___flsub                                              8     0      8    3727
                                              9 BANK1      8     0      8
                            _CENTENA (ARG)
                            ___fladd
                            ___flmul (ARG)
                            ___fltol (ARG)
                             ___wmul (ARG)
                           ___xxtofl (ARG)
 ---------------------------------------------------------------------------------
 (3) ___fladd                                             20    12      8    3122
                                              0 BANK0     20    12      8
 ---------------------------------------------------------------------------------
 (3) _CENTENA                                              6     6      0    6674
                                             77 BANK0      1     1      0
                                              0 BANK1      5     5      0
                            ___fldiv
                            ___flmul
                            ___fltol
                           ___xxtofl
 ---------------------------------------------------------------------------------
 (2) ___xxtofl                                            14    10      4    1016
                                              0 BANK0     14    10      4
 ---------------------------------------------------------------------------------
 (2) ___fltol                                             11     7      4     607
                                             66 BANK0     11     7      4
                            ___fladd (ARG)
                            ___fldiv (ARG)
                            ___flmul (ARG)
                           ___xxtofl (ARG)
 ---------------------------------------------------------------------------------
 (2) ___flmul                                             26    18      8    3713
                                             14 BANK0     26    18      8
                          __Umul8_16
                           ___xxtofl (ARG)
 ---------------------------------------------------------------------------------
 (3) __Umul8_16                                            9     7      2     980
                                              4 COMMON     2     0      2
                                              0 BANK0      7     7      0
 ---------------------------------------------------------------------------------
 (4) ___fldiv                                             26    18      8    1273
                                             40 BANK0     26    18      8
                            ___flmul (ARG)
                           ___xxtofl (ARG)
 ---------------------------------------------------------------------------------
 (1) _RTC_WRITE                                            7     2      5    2104
                                              0 BANK0      7     2      5
                   _I2C_Master_Start
                    _I2C_Master_Stop
                   _I2C_Master_Write
 ---------------------------------------------------------------------------------
 (1) _RTC_READ                                             8     4      4    2113
                                              4 BANK0      8     4      4
                    _I2C_Master_Read
                   _I2C_Master_Start
                    _I2C_Master_Stop
                   _I2C_Master_Write
 ---------------------------------------------------------------------------------
 (2) _I2C_Master_Write                                     2     0      2     661
                                              4 COMMON     2     0      2
                    _I2C_Master_Wait
 ---------------------------------------------------------------------------------
 (2) _I2C_Master_Stop                                      0     0      0       0
                    _I2C_Master_Wait
 ---------------------------------------------------------------------------------
 (2) _I2C_Master_Start                                     0     0      0       0
                    _I2C_Master_Wait
 ---------------------------------------------------------------------------------
 (2) _I2C_Master_Read                                      6     4      2     245
                                              4 COMMON     2     0      2
                                              0 BANK0      4     4      0
                    _I2C_Master_Wait
 ---------------------------------------------------------------------------------
 (3) _I2C_Master_Wait                                      0     0      0       0
 ---------------------------------------------------------------------------------
 (1) _RTC_PRINT                                            5     5      0     192
                                              2 BANK0      5     5      0
                           _LCD_CHAR
 ---------------------------------------------------------------------------------
 (1) _LCD_CLEAR                                            0     0      0      31
                           _LCD_PORT
 ---------------------------------------------------------------------------------
 (1) _DECIMAL_BCD                                          6     6      0    1480
                                             26 BANK1      6     6      0
                            ___awdiv
                            ___awmod
 ---------------------------------------------------------------------------------
 (2) ___awmod                                              7     3      4     613
                                              4 COMMON     1     1      0
                                              0 BANK0      6     2      4
 ---------------------------------------------------------------------------------
 (3) ___awdiv                                              9     5      4     805
                                             17 BANK1      9     5      4
                            _CENTENA (ARG)
                            ___flmul (ARG)
                            ___flsub (ARG)
                            ___fltol (ARG)
                             ___wmul (ARG)
                           ___xxtofl (ARG)
 ---------------------------------------------------------------------------------
 (1) _CONFIGURAR                                           3     2      1    1575
                                              5 BANK0      3     2      1
                         _LCD_STRING
                             _LCD_XY
                           _Parpadeo
 ---------------------------------------------------------------------------------
 (2) _Parpadeo                                             3     3      0      37
                                              4 COMMON     2     2      0
                                              0 BANK0      1     1      0
 ---------------------------------------------------------------------------------
 (1) _LCD_XY                                               2     1      1     636
                                              2 BANK0      2     1      1
                            _LCD_COM
 ---------------------------------------------------------------------------------
 (3) _LCD_COM                                              3     3      0      62
                                              5 COMMON     1     1      0
                                              0 BANK0      2     2      0
                           _LCD_PORT
 ---------------------------------------------------------------------------------
 (1) _LCD_STRING                                           3     3      0     480
                                              2 BANK0      3     3      0
                           _LCD_CHAR
 ---------------------------------------------------------------------------------
 (2) _LCD_CHAR                                             3     3      0      62
                                              5 COMMON     1     1      0
                                              0 BANK0      2     2      0
                           _LCD_PORT
 ---------------------------------------------------------------------------------
 (3) _LCD_PORT                                             1     1      0      31
                                              4 COMMON     1     1      0
 ---------------------------------------------------------------------------------
 (1) _BCD_DECIMAL                                          4     4      0     288
                                              2 BANK0      4     4      0
                             ___bmul
 ---------------------------------------------------------------------------------
 (2) ___bmul                                               4     3      1     226
                                              4 COMMON     2     1      1
                                              0 BANK0      2     2      0
 ---------------------------------------------------------------------------------
 Estimated maximum stack depth 4
 ---------------------------------------------------------------------------------
 (Depth) Function   	        Calls       Base Space   Used Autos Params    Refs
 ---------------------------------------------------------------------------------
 (6) _isr                                                  4     4      0       0
                                              0 COMMON     4     4      0
 ---------------------------------------------------------------------------------
 Estimated maximum stack depth 6
 ---------------------------------------------------------------------------------

 Call Graph Graphs:

 _main (ROOT)
   _BCD_DECIMAL
     ___bmul
   _CENTENA
     ___fldiv
       ___flmul (ARG)
         __Umul8_16
         ___xxtofl (ARG)
       ___xxtofl (ARG)
     ___flmul
     ___fltol
       ___fladd (ARG)
       ___fldiv (ARG)
       ___flmul (ARG)
       ___xxtofl (ARG)
     ___xxtofl
   _CONFIGURAR
     _LCD_STRING
       _LCD_CHAR
         _LCD_PORT
     _LCD_XY
       _LCD_COM
         _LCD_PORT
     _Parpadeo
   _DECENA
     _CENTENA
     ___awdiv
       _CENTENA (ARG)
       ___flmul (ARG)
       ___flsub (ARG)
         _CENTENA (ARG)
         ___fladd (ARG)
         ___flmul (ARG)
         ___fltol (ARG)
         ___wmul (ARG)
           _CENTENA (ARG)
           ___fltol (ARG)
           ___xxtofl (ARG)
         ___xxtofl (ARG)
       ___fltol (ARG)
       ___wmul (ARG)
       ___xxtofl (ARG)
     ___flmul
     ___flsub
     ___fltol
     ___wmul
     ___xxtofl
   _DECIMAL_BCD
     ___awdiv
     ___awmod
   _I2C_Master_Read
     _I2C_Master_Wait
   _I2C_Master_Start
     _I2C_Master_Wait
   _I2C_Master_Stop
     _I2C_Master_Wait
   _I2C_Master_Write
     _I2C_Master_Wait
   _LCD_CHAR
   _LCD_CLEAR
     _LCD_PORT
   _LCD_STRING
   _LCD_XY
   _RTC_PRINT
     _LCD_CHAR
   _RTC_READ
     _I2C_Master_Read
     _I2C_Master_Start
     _I2C_Master_Stop
     _I2C_Master_Write
   _RTC_WRITE
     _I2C_Master_Start
     _I2C_Master_Stop
     _I2C_Master_Write
   _UNIDAD
     _CENTENA
     _DECENA
     ___flmul
     ___flsub
     ___fltol
     ___wmul
     ___xxtofl
   _setup
     _I2C_Master_Init
       ___lldiv
     _IOC_INT
     _LCD_INIT
       _LCD_COM
       _LCD_PORT
     _OSCILLATOR

 _isr (ROOT)

 Address spaces:
Name               Size   Autos  Total    Cost      Usage
BITCOMMON            E      0       0       0        0.0%
EEDATA             100      0       0       0        0.0%
NULL                 0      0       0       0        0.0%
CODE                 0      0       0       0        0.0%
COMMON               E      6       A       1       71.4%
BITSFR0              0      0       0       1        0.0%
SFR0                 0      0       0       1        0.0%
BITSFR1              0      0       0       2        0.0%
SFR1                 0      0       0       2        0.0%
STACK                0      0       0       2        0.0%
ABS                  0      0      9A       3        0.0%
BITBANK0            50      0       0       4        0.0%
BITSFR3              0      0       0       4        0.0%
SFR3                 0      0       0       4        0.0%
BANK0               50     50      50       5      100.0%
BITSFR2              0      0       0       5        0.0%
SFR2                 0      0       0       5        0.0%
BITBANK1            50      0       0       6        0.0%
BANK1               50     37      40       7       80.0%
BITBANK3            60      0       0       8        0.0%
BANK3               60      0       0       9        0.0%
BITBANK2            60      0       0      10        0.0%
BANK2               60      0       0      11        0.0%
DATA                 0      0      9A      12        0.0%


Microchip Technology PIC Macro Assembler V2.35 build 20211206165544 
Symbol Table                                                                                   Sat Aug 05 21:07:44 2023

            ___fldiv@aexp 0061              ___fldiv@bexp 0060                         _p 00D7  
                       pc 0002              RTC_PRINT@s10 0024              RTC_PRINT@Val 0026  
            ___fldiv@sign 0059            ___bmul@product 0020              ___awdiv@sign 00B7  
                      fsr 0004       ___wmul@multiplicand 00A7       __Umul8_16@word_mpld 0024  
                     l200 16D9                       l202 16DF                       l210 1733  
                     l203 16E5                       l204 16EB                       l140 1626  
                     l213 0805                       l205 16F1                       l206 16F7  
                     l231 143D                       l143 14A2                       l207 16FD  
                     l216 1405                       l160 15DE                       l208 1703  
                     l225 145B                       l209 1709                       l402 13D1  
                     l146 1797                       l163 1421                       l219 13AD  
                     l412 17FF                       l228 07FB                       l237 14CB  
                     l157 147D                       l149 13EA                       l270 13BA  
                     l166 152D                       l190 0B9A                       l264 15A0  
                     l273 1381                       l193 07A7                       l282 1394  
                     l267 13AE                       l187 097B                       l700 0F93  
                     l196 13A0                       l285 082B                       l542 16D1  
                     l286 082E                       l287 0835                       l279 138A  
                     l711 0FF3                       l703 0FD1                       l712 0FFF  
                     l376 1544                       l529 089E                       l562 09F7  
                     l378 1566                       l811 0AB3                       l715 1676  
                     l572 09F7                       l741 0CE9                       l725 0BF7  
                     l822 0A7D                       l727 0D77                       l823 0A89  
                     l815 0A61                       l569 09E2                       l809 0A1C  
                     l673 0E82                       l690 0F4D                       l682 0FFF  
                     l747 0D5B                       l771 02EE                       l675 0E59  
                     l749 0D6B                       l765 0382                       l669 0DDB  
                     l694 0F71                       l784 14E2                       l777 0376  
                     l786 14F4                       _RB0 0030                       _RB1 0031  
                     _RE0 0048                       _RE1 0049                       _POT 0079  
                     _dia 00DA                       _mes 00D9                       _min 0078  
                     _isr 089F                       _seg 00DC                       fsr0 0004  
            ___awmod@sign 0025           __end_of_CENTENA 097C               LCD_STRING@a 0024  
             LCD_STRING@i 0022              ___flmul@aexp 003C              ___flmul@bexp 0041  
            RTC_WRITE@I2C 0020              ___flmul@sign 003B              ___flmul@temp 0046  
            ___flmul@prod 0042           __end_of_LCD_COM 1406           __end_of_IOC_INT 13A1  
            ___fltol@exp1 006C                      l2300 0BCF                      l2310 0BE4  
                    l2302 0BD5                      l2400 0D31                      l2320 0C0B  
                    l2312 0BEC                      l2304 0BD9                      l3200 0DAC  
                    l4000 05F6                      l2410 0D61                      l2402 0D3F  
                    l2322 0C0F                      l2314 0BED                      l2306 0BDA  
                    l3130 14D8                      l3210 0DBE                      l3202 0DB2  
                    l4010 0622                      l4002 05FE                      l3140 0801  
                    l2412 0D65                      l2404 0D4E                      l2340 0C50  
                    l2332 0C26                      l2308 0BDF                      l2316 0BEF  
                    l3132 14DC                      l3300 0ED1                      l3212 0DC3  
                    l3220 0DD3                      l3204 0DB3                      l4020 064C  
                    l4012 0628                      l4004 0606                      l2414 0D67  
                    l2406 0D52                      l2350 0C6E                      l2342 0C52  
                    l2334 0C38                      l2318 0BFF                      l2326 0C18  
                    l3134 14EB                      l3126 14CF                      l3150 09A7  
                    l3142 097C                      l3302 0EE7                      l3310 0F3F  
                    l3230 0DF1                      l3222 0DE1                      l3214 0DC8  
                    l3206 0DB9                      l4022 0652                      l4014 062E  
                    l4006 0614                      l2408 0D5A                      l2344 0C57  
                    l2352 0C77                      l2360 0C9C                      l2336 0C40  
                    l2328 0C1D                      l2280 0BA2                      l3136 14F0  
                    l3128 14D1                      l3400 0065                      l3152 09A8  
                    l3144 0989                      l3320 0F6C                      l3312 0F55  
                    l3304 0F25                      l3240 0E05                      l3232 0DF5  
                    l3224 0DE5                      l3216 0DD0                      l3208 0DBD  
                    l4024 065A                      l4016 0636                      l4008 061C  
                    l2370 0CB9                      l2362 0CA2                      l2354 0C89  
                    l2346 0C69                      l2338 0C48                      l2290 0BB7  
                    l2282 0BA8                      l3410 0081                      l3402 006A  
                    l3154 09B0                      l3330 0F7F                      l3322 0F70  
                    l3314 0F5A                      l3306 0F2B                      l3250 0E19  
                    l3242 0E09                      l3234 0DF9                      l3226 0DE9  
                    l3218 0DD1                      l4026 0660                      l4018 0644  
                    l2380 0CCE                      l2372 0CBA                      l2364 0CAA  
                    l2356 0C8A                      l2348 0C6D                      l2292 0BBF  
                    l2284 0BAC                      l3500 035C                      l3420 00AC  
                    l3412 0086                      l3404 0072                      l3172 09D7  
                    l3164 09BE                      l3156 09B2                      l3148 0992  
                    l3340 0F90                      l3324 0F75                      l3332 0F81  
                    l3308 0F30                      l3260 0E3D                      l3252 0E1D  
                    l3244 0E0D                      l3236 0DFD                      l3228 0DED  
                    l3180 0D7F                      l4028 0666                      l2390 0CF3  
                    l2382 0CD2                      l2374 0CC3                      l2366 0CAC  
                    l2358 0C98                      l2294 0BC0                      l2286 0BAD  
                    l2278 0B9B                      l3502 036A                      l3430 0149  
                    l3422 00C9                      l3406 0074                      l3174 09E7  
                    l3158 09B6                      l3166 09D0                      l3350 0FAF  
                    l3326 0F78                      l3318 0F63                      l3334 0F85  
                    l3270 0E6D                      l3262 0E5D                      l3254 0E21  
                    l3246 0E11                      l3238 0E01                      l3190 0D94  
                    l3182 0D85                      l4054 1719                      l2392 0D01  
                    l2384 0CE6                      l2368 0CB5                      l2376 0CC9  
                    l2288 0BB2                      l2296 0BC2                      l3504 036E  
                    l3440 01AC                      l3432 0152                      l3424 00E5  
                    l3416 008F                      l3408 007C                      l3176 09EC  
                    l3520 0A24                      l3512 09FB                      l3360 0FE8  
                    l3352 0FCD                      l3344 0F98                      l3336 0F86  
                    l3328 0F7A                      l3272 0E76                      l3264 0E66  
                    l3248 0E15                      l3256 0E25                      l3192 0D9C  
                    l3184 0D89                      l2640 154D                      l3600 17E7  
                    l3610 0836                      l2394 0D05                      l2378 0CCD  
                    l2298 0BCA                      l3506 036F                      l3450 024C  
                    l3442 01C5                      l3434 0162                      l3426 0111  
                    l3418 009F                      l3530 0A46                      l3514 0A00  
                    l3370 0FFE                      l3362 0FE9                      l3354 0FD6  
                    l3346 0F9D                      l3338 0F8A                      l3290 0EBC  
                    l3282 0E94                      l3266 0E68                      l3274 0E7A  
                    l3258 0E26                      l3194 0D9D                      l3186 0D8A  
                    l3178 0D78                      l2642 1554                      l2634 152E  
                    l3602 17E8                      l3700 1454                      l3620 0848  
                    l3612 0839                      l2396 0D1E                      l2388 0CEE  
                    l3508 037A                      l3460 02BA                      l3452 0272  
                    l3444 01E2                      l3436 017F                      l3428 012D  
                    l3380 0034                      l3372 0022                      l3540 0A77  
                    l3532 0A4A                      l3524 0A2D                      l3516 0A04  
                    l3364 0FED                      l3356 0FDB                      l3348 0FAB  
                    l3292 0EBE                      l3284 0EAB                      l3276 0E86  
                    l3268 0E6C                      l3188 0D8F                      l3196 0D9F  
                    l2644 155A                      l2636 1532                      l3604 17F1  
                    l3702 14A6                      l3630 085C                      l3622 084D  
                    l3614 083D                      l2398 0D24                      l3470 02D2  
                    l3462 02BE                      l3454 029A                      l3446 020F  
                    l3438 018F                      l3390 0050                      l3382 0039  
                    l3374 0029                      l3550 0AAA                      l3542 0A81  
                    l3534 0A58                      l3526 0A32                      l3518 0A14  
                    l3366 0FEF                      l3358 0FE3                      l3294 0EC2  
                    l3286 0EAF                      l3278 0E8B                      l3198 0DA7  
                    l2638 1538                      l3606 17F7                      l3710 16D5  
                    l3704 14A9                      l3640 0882                      l3632 0863  
                    l3624 0851                      l3616 0842                      l3800 16C3  
                    l3480 02F3                      l3472 02D3                      l3464 02BF  
                    l3456 02A3                      l3448 021F                      l3392 0055  
                    l3384 003E                      l3376 002F                      l3552 0AAB  
                    l3544 0A8B                      l3536 0A68                      l3528 0A3F  
                    l3368 0FFA                      l3296 0EC3                      l3288 0EB3  
                    l3720 07A8                      l3570 143A                      l3562 1423  
                    l3706 14B6                      l3650 089A                      l3642 0883  
                    l3634 0867                      l3626 0853                      l3618 0844  
                    l3802 16C8                      l3482 02F8                      l3490 0329  
                    l3474 02D7                      l3466 02C8                      l3458 02B1  
                    l3394 005B                      l3386 0046                      l3378 0033  
                    l3546 0AA1                      l3538 0A73                      l3298 0ECC  
                    l3730 07D2                      l3722 07AE                      l3714 170F  
                    l3810 15E5                      l3564 1426                      l3708 14BE  
                    l3580 1402                      l3572 13EC                      l3644 088A  
                    l3636 086B                      l3628 0859                      l3804 16CD  
                    l3900 1481                      l3660 1379                      l3492 0336  
                    l3484 0306                      l3476 02EB                      l3468 02CE  
                    l3396 005F                      l3388 0048                      l3548 0AA6  
                    l3556 0910                      l3740 159E                      l3732 1567  
                    l3724 07B1                      l3820 15F2                      l3812 15E8  
                    l3566 142C                      l3574 13EF                      l3750 146D  
                    l3638 087C                      l3646 0890                      l3902 1494  
                    l3582 13AE                      l3670 080B                      l3662 137E  
                    l3494 0341                      l3486 030A                      l3398 0060  
                    l3558 097A                      l3654 1627                      l3590 17AD  
                    l3742 159F                      l3734 156B                      l2790 139F  
                    l2782 1396                      l3726 07BC                      l3830 1600  
                    l3822 15F5                      l3814 15E9                      l3910 038D  
                    l3760 13C3                      l3568 142F                      l3576 13F5  
                    l3752 1475                      l3744 145C                      l3648 0895  
                    l3904 149A                      l3584 13B4                      l3680 082F  
                    l3672 0813                      l3664 138B                      l3496 0350  
                    l3488 0323                      l3656 162B                      l3592 17BA  
                    l3736 156E                      l2784 1399                      l3728 07CC  
                    l3840 160C                      l3832 1606                      l3824 15F9  
                    l3816 15EC                      l3808 15DF                      l3920 03B9  
                    l3912 0396                      l3762 13C7                      l3578 13F8  
                    l3754 1479                      l3746 1460                      l3770 1677  
                    l3674 081C                      l3666 1390                      l3498 035A  
                    l3690 0B99                      l3594 17BE                      l3586 1798  
                    l3738 159D                      l2786 139D                      l3850 1611  
                    l3842 160D                      l3834 1607                      l3826 15FC  
                    l3818 15EF                      l3930 03E7                      l3922 03BE  
                    l3914 03A4                      l3906 0383                      l3764 13C9  
                    l3756 13BE                      l3748 1464                      l3780 1689  
                    l3772 167A                      l3860 15A4                      l3676 0821  
                    l3668 0806                      l3684 1382                      l3596 17C7  
                    l3588 17AA                      l2788 139E                      l3852 1612  
                    l3844 160E                      l3836 160A                      l3828 15FD  
                    l3940 0415                      l3924 03C4                      l3932 03F3  
                    l3916 03A9                      l3908 0388                      l3766 13D0  
                    l3758 13BF                      l3694 1441                      l3790 16A2  
                    l3782 168E                      l3774 167E                      l3678 0827  
                    l3686 1387                      l3870 14F5                      l3598 17D9  
                    l3854 1617                      l3846 160F                      l3838 160B  
                    l3950 0445                      l3942 0420                      l3934 03F9  
                    l3926 03D1                      l3918 03B4                      l3856 1409  
                    l3696 1446                      l3864 13D5                      l3792 16A6  
                    l3784 1694                      l3776 1683                      l3880 1764  
                    l3872 1523                      l3688 0AB7                      l3848 1610  
                    l3960 0473                      l3952 0450                      l3936 03FF  
                    l3944 042C                      l3928 03DC                      l3698 144E  
                    l3866 13DF                      l3794 16B0                      l3786 1697  
                    l3778 1685                      l3882 1773                      l3874 1734  
                    l3970 04A8                      l3962 0480                      l3954 045B  
                    l3946 0432                      l3938 040A                      l3868 13E5  
                    l3796 16B6                      l3788 169E                      l3884 1781  
                    l3876 1754                      l3892 0675                      l3980 05B4  
                    l3972 0513                      l3964 048B                      l3948 0438  
                    l3956 0467                      l3798 16BD                      l3886 1786  
                    l3878 175F                      l3894 07A6                      l3990 05D0  
                    l3982 05BF                      l3966 0496                      l3958 046D  
                    l3974 0515                      l3888 1791                      l3992 05D9  
                    l3984 05C3                      l3976 059E                      l3968 04A2  
                    l3898 13A1                      l3994 05DF                      l3986 05C7  
                    l3978 05A9                      l3996 05E8                      l3988 05CB  
                    ?_isr 0070                      l3998 05F0                      STR_1 1006  
                    STR_2 1010                      STR_3 1008                      STR_4 1008  
                    STR_5 1012                      STR_6 1012                      STR_7 100D  
                    STR_8 100A                      u4020 14DC                      u4100 09CF  
                    u4021 14DB                      u4101 09CE                      u4110 09D6  
                    u4111 09D5                      u4040 14F0                      u5000 0A24  
                    u4200 0DC3                      u4041 14EF                      u5001 0A23  
                    u4201 0DC2                      u4130 09E7                      u4050 0989  
                    u4210 0DC8                      u4035 14E3                      u4131 09E6  
                    u4051 0988                      u4211 0DC7                      u2700 0BD9  
                    u4140 09EC                      u4060 09A0                      u5100 0AA6  
                    u5020 0A45                      u4300 0E82                      u4220 0DE1  
                    u2701 0BD8                      u4141 09EB                      u4125 09D9  
                    u5101 0AA5                      u5021 0A44                      u4301 0E81  
                    u4221 0DE0                      u2710 0BDF                      u4070 09B6  
                    u5110 0AAA                      u4310 0E86                      u4230 0DE5  
                    u4150 0D89                      u2711 0BDE                      u4071 09B5  
                    u5111 0AA9                      u5015 0A37                      u4311 0E85  
                    u4231 0DE4                      u4151 0D88                      u5120 13B4  
                    u2800 0C89                      u2720 0BE4                      u4080 09BD  
                    u5040 0A67                      u4400 0F12                      u4320 0E8B  
                    u4240 0E3D                      u4160 0D8F                      u3520 155A  
                    u5200 17F7                      u5121 13B3                      u2801 0C88  
                    u2721 0BE3                      u4081 09BC                      u4065 099B  
                    u5041 0A66                      u4401 0F13                      u4321 0E8A  
                    u4241 0E3C                      u4161 0D8E                      u3521 1559  
                    u3505 1547                      u5201 17F6                      u5210 083D  
                    u5130 13BA                      u2810 0CA2                      u2730 0BFF  
                    u4410 0F30                      u4402 0F18                      u4250 0E48  
                    u4170 0D94                      u5211 083C                      u5131 13B9  
                    u2811 0CA1                      u2731 0BFE                      u5035 0A59  
                    u4411 0F2F                      u4403 0F19                      u4331 0E9D  
                    u4251 0E46                      u4171 0D93                      u3515 154E  
                    u5300 0895                      u5220 0848                      u2900 0CF3  
                    u2820 0CAA                      u2740 0C1D                      u5060 0A77  
                    u4500 0F90                      u4420 0F55                      u4340 0EAF  
                    u4332 0EA4                      u4260 0E49                      u4180 0DB2  
                    u5140 17AA                      u5301 0894                      u5221 0847  
                    u2901 0CF2                      u2821 0CA9                      u2805 0C85  
                    u2741 0C1C                      u5061 0A76                      u4501 0F8F  
                    u4421 0F54                      u4341 0EAE                      u4333 0EAB  
                    u4245 0E39                      u4181 0DB1                      u5141 17A9  
                    u5230 0859                      u5310 0827                      u2910 0D05  
                    u2750 0C57                      u2670 0BAC                      u5070 0A7D  
                    u4510 0F97                      u4430 0F5A                      u4350 0EB3  
                    u4270 0E5D                      u4190 0DBD                      u5231 0858  
                    u5311 0826                      u2911 0D04                      u2751 0C56  
                    u2671 0BAB                      u4095 09BF                      u5071 0A7C  
                    u5055 0A6C                      u4511 0F96                      u4431 0F59  
                    u4351 0EB2                      u4271 0E5C                      u4191 0DBC  
                    u5400 13D0                      u5320 1446                      u2920 0D14  
                    u2840 0CB9                      u2680 0BB2                      u5080 0A81  
                    u4600 0FFE                      u4520 0F9D                      u4360 0EC2  
                    u4280 0E6C                      u5160 17BE                      u5401 13CF  
                    u5321 1445                      u2841 0CB8                      u2681 0BB1  
                    u5081 0A80                      u4601 0FFD                      u4521 0F9C  
                    u4361 0EC1                      u4281 0E6B                      u5161 17BD  
                    u5330 1454                      u5250 086B                      u5410 167E  
                    u2930 0D31                      u2690 0BB7                      u4610 0033  
                    u5090 0A96                      u4530 0FAF                      u4450 0F70  
                    u3490 1538                      u5331 1453                      u5251 086A  
                    u5411 167D                      u2931 0D30                      u2835 0CAE  
                    u2691 0BB6                      u4611 0032                      u4531 0FAE  
                    u4451 0F6F                      u3491 1537                      u5155 17AF  
                    u5340 14CB                      u5420 1689                      u2940 0D4E  
                    u2860 0CCD                      u2780 0C6D                      u4620 0039  
                    u4540 0FBE                      u4460 0F75                      u4380 0EE7  
                    u5180 17D9                      u5341 14CA                      u5245 085D  
                    u5421 1688                      u2941 0D4D                      u2925 0D0F  
                    u2861 0CCC                      u2781 0C6C                      u2765 0C59  
                    u4701 00F3                      u4621 0038                      u4461 0F74  
                    u4445 0F65                      u4381 0EE6                      u5181 17D8  
                    u5270 087C                      u5430 1694                      u2950 0D65  
                    u2870 0CD2                      u4702 00FA                      u4630 003E  
                    u4550 0FCD                      u4470 0F7F                      u5350 157E  
                    u5271 087B                      u5431 1693                      u2951 0D64  
                    u2935 0D2D                      u2871 0CD1                      u2855 0CBC  
                    u2775 0C62                      u4711 011F                      u4703 0101  
                    u4631 003D                      u5095 0A91                      u4551 0FCC  
                    u4471 0F7E                      u4391 0EFE                      u4383 0EE3  
                    u4375 0EC5                      u4295 0E6F                      u5175 17C0  
                    u5360 1475                      u2880 0CE6                      u4800 0258  
                    u4712 0126                      u4640 005F                      u4560 0FD6  
                    u4480 0F85                      u4392 0EFF                      u5600 046D  
                    u5505 1413                      u5361 1474                      u5265 086C  
                    u2945 0D4A                      u2881 0CE5                      u4721 013B  
                    u4713 012D                      u4641 005E                      u4561 0FD5  
                    u4545 0FB9                      u4481 0F84                      u4393 0F04  
                    u5185 17D5                      u5601 046C                      u5370 1479  
                    u5290 0890                      u5450 16A6                      u2890 0CED  
                    u4722 0142                      u4650 0065                      u4570 0FDB  
                    u4490 0F8A                      u4394 0F05                      u5610 0473  
                    u5530 03B9                      u5371 1478                      u5291 088F  
                    u5275 0878                      u5451 16A5                      u5515 15B9  
                    u2891 0CEC                      u2795 0C70                      u4811 0264  
                    u4723 0149                      u4651 0064                      u4571 0FDA  
                    u4491 0F89                      u4395 0F0A                      u5195 17E9  
                    u5355 1579                      u5611 0472                      u5531 03B8  
                    u5380 147D                      u5460 16B0                      u4900 02EB  
                    u4820 0280                      u4812 026B                      u4660 006A  
                    u4580 0FE8                      u4396 0F0B                      u5620 04A8  
                    u5540 03BE                      u5381 147C                      u5285 0884  
                    u5461 16AF                      u5445 1698                      u5525 1484  
                    u4901 02EA                      u4813 0272                      u4805 0253  
                    u4741 0171                      u4661 0069                      u4581 0FE7  
                    u5621 04A7                      u5541 03BD                      u5390 13C3  
                    u4910 02F2                      u4742 0178                      u4670 0081  
                    u4590 0FED                      u5550 03C4                      u5391 13C2  
                    u4911 02F1                      u4831 028C                      u4751 019E  
                    u4743 017F                      u4735 014B                      u4671 0080  
                    u4591 0FEC                      u5551 03C3                      u5480 16C3  
                    u4920 02F8                      u4832 0293                      u4752 01A5  
                    u4680 0086                      u5560 03F9                      u5481 16C2  
                    u5465 16AC                      u4921 02F7                      u4833 029A  
                    u4825 027B                      u4753 01AC                      u4681 0085  
                    u5561 03F8                      u5490 16C8                      u4930 030A  
                    u5570 03FF                      u5491 16C7                      u5475 16B7  
                    u4931 0309                      u4771 01D4                      u4691 00D7  
                    u5707 07D8                      u5571 03FE                      u4940 0319  
                    u4860 02BE                      u4772 01DB                      u4692 00DE  
                    u5580 0432                      u5717 1529                      u4861 02BD  
                    u4845 029C                      u4781 0201                      u4773 01E2  
                    u4765 01AE                      u4693 00E5                      u5581 0431  
                    u5637 03AF                      u4950 0336                      u4782 0208  
                    u5590 0438                      u5727 175A                      u4951 0335  
                    u4855 02B3                      u4791 022E                      u4783 020F  
                    u5591 0437                      u5647 03D7                      u4960 0350  
                    u4880 02D2                      u4792 0235                      u5737 178C  
                    u4961 034F                      u4945 0314                      u4881 02D1  
                    u4793 023C                      u5657 0410                      u4970 036E  
                    u4890 02D7                      u5747 1468                      u4971 036D  
                    u4955 0332                      u4891 02D6                      u4875 02C1  
                    u5667 044B                      u4980 0A00                      u5757 13FE  
                    u4965 034C                      u4981 09FF                      u5677 0486  
                    u4990 0A04                      u5767 1435                      u4991 0A03  
                    u5687 07B7                      u5697 07C8                      _main 0383  
                    _hora 00DB                      _year 00D8                      btemp 007E  
                    start 000C               ?_OSCILLATOR 0070           ___fldiv@new_exp 005A  
       ___bmul@multiplier 0021          __end_of_LCD_CHAR 143E          __end_of_LCD_INIT 07FC  
        __end_of_LCD_PORT 0806                     ??_isr 0070          ?_I2C_Master_Init 002D  
        ?_I2C_Master_Read 0074          ?_I2C_Master_Wait 0070          ?_I2C_Master_Stop 0070  
           ___fltol@sign1 006B           __end_of___fladd 1000                     ?_main 0070  
         __end_of___fldiv 0D78           __end_of___awdiv 089F           __end_of___awmod 16D2  
         __end_of___flmul 0383           __end_of___flsub 1677           __end_of___fltol 09F8  
                   _ANSEL 0188           __end_of___lldiv 1800           ___awdiv@divisor 00B1  
                   i1l114 0905                     i1l106 08BB                     i1l118 0906  
         ___awdiv@counter 00B6                     _PORTA 0005                     _PORTB 0006  
                   _PORTD 0008                     _PORTE 0009                     _TRISA 0085  
                   _TRISB 0086                     _TRISD 0088                     _TRISE 0089  
          BCD_DECIMAL@num 0025          __end_of_RTC_READ 1798                     _setup 15DF  
                   pclath 000A                     status 0003                     wtemp0 007E  
         __initialization 000F              __end_of_main 0672         __end_of_LCD_CLEAR 13AE  
               ??_CENTENA 00A0          __end_of_Parpadeo 147E                    ??_main 00D5  
               ??_LCD_COM 0020                 ??_IOC_INT 0074         ?_I2C_Master_Start 0070  
       ?_I2C_Master_Write 0074        ??_I2C_Master_Start 0074        ??_I2C_Master_Write 0076  
                  _DECENA 0AB4          ___awdiv@dividend 00B3                    ?_setup 0070  
                  _ANSELH 0189                    _LCD_XY 143E                    i1l1830 08A3  
                  i1l1840 08C8                    i1l1832 08A9                    i1l1850 08DC  
                  i1l1842 08CE                    i1l1834 08B1                    i1l1860 08F5  
                  i1l1852 08E2                    i1l1844 08CF                    i1l1836 08BF  
                  i1l1828 089F                    i1l1862 08F8                    i1l1846 08D4  
                  i1l1838 08C4                    i1l1864 08FE                    i1l1856 08E9  
                  i1l1848 08DA                    i1l1858 08EF                    i1l1868 0905  
                  u190_20 08D4                    u190_21 08D3                    u191_20 08DA  
                  u191_21 08D9                    u192_20 08E2                    u192_21 08E1  
                  u193_20 08E8                    u185_20 08A3                    u193_21 08E7  
                  u185_21 08A2                    u194_20 08EF                    u186_20 08A9  
                  u194_21 08EE                    u186_21 08A8                    u195_20 08F5  
                  u187_20 08BF                    u195_21 08F4                    u187_21 08BE  
                  u196_20 08FE                    u188_20 08C4                    u196_21 08FD  
                  u188_21 08C3                    u197_20 0904                    u189_20 08CE  
                  u197_21 0903                    u189_21 08CD                    u577_27 08B5  
                  _UNIDAD 0672                    _SSPADD 0093                    _TRISC3 043B  
                  _TRISC4 043C                    _SSPCON 0014                    _SSPBUF 0013  
        __end_of___xxtofl 0AB4                    ___bmul 13BB                 ??___fladd 0028  
                  ___wmul 152E                 ??___fldiv 0050                 ??___awdiv 00B5  
                  _decena 00DE                 ??___awmod 0074                 ??___flmul 0036  
               ??___flsub 0076                 ??___fltol 0066                 ??___lldiv 0074  
       __end_of_RTC_PRINT 14A3         __end_of_RTC_WRITE 152E          ___awdiv@quotient 00B8  
         ___awmod@divisor 0020                    _select 0077           ___awmod@counter 0024  
                  _unidad 00DF              ??_CONFIGURAR 0026                    saved_w 007E  
               LCD_CHAR@a 0075                 ?_LCD_CHAR 0070              ___xxtofl@arg 002A  
               ?_LCD_INIT 0070              ___xxtofl@exp 0029              ___xxtofl@val 0020  
               ?_LCD_PORT 0070   __end_of__initialization 001E                 LCD_PORT@a 0074  
              ___fltol@f1 0062       ___bmul@multiplicand 0074              ??_LCD_STRING 0076  
          __pcstackCOMMON 0070        __end_of_CONFIGURAR 13EB               OSCILLATOR@f 0020  
               ?_RTC_READ 0024             __end_of_setup 1627                   DECENA@c 00C5  
          DECIMAL_BCD@num 00BF            _OPTION_REGbits 0081                   ?_DECENA 0070  
      __end_of_LCD_STRING 14CC                   ??_setup 0076                __pbssBANK1 00D7  
                 ?_LCD_XY 0022                ??_LCD_CHAR 0020                ??_LCD_INIT 0022  
              ??_LCD_PORT 0074                   LCD_XY@x 0023                   LCD_XY@y 0022  
                 ?_UNIDAD 0070                 ?_Parpadeo 0070              ??_OSCILLATOR 0074  
       __end_of__Umul8_16 14F5             ??_BCD_DECIMAL 0022                __pmaintext 0383  
                 ?___bmul 0074                   UNIDAD@c 00D4                   ?___wmul 00A5  
              __pintentry 0004             ??_DECIMAL_BCD 00BA                ??_RTC_READ 0028  
                 _CENTENA 090D                   _LCD_COM 13EB                   _IOC_INT 1395  
               ?___xxtofl 0020        __end_of_OSCILLATOR 1734                 RTC_READ@d 0026  
                 _SSPCON2 0091                   _SSPSTAT 0094                __stringtab 1000  
              ??_Parpadeo 0074                   ___fladd 0D78                   ___fldiv 0B9B  
                 ___awdiv 0836                   ___awmod 1677                   ___flmul 0022  
                 ___flsub 1627                   ___fltol 097C                   ___lldiv 1798  
                 _centena 00DD       __end_of_BCD_DECIMAL 1422                   __ptext1 15DF  
                 __ptext2 16D2                   __ptext3 07A8                   __ptext4 1395  
                 __ptext5 1567                   __ptext6 1798                   __ptext7 0672  
                 __ptext8 0AB4                   __ptext9 152E                 _LCD_CLEAR 13A1  
              ??___xxtofl 0024          ___awmod@dividend 0022       __end_of_DECIMAL_BCD 15DF  
    end_of_initialization 001E           ___lldiv@divisor 0020           ___lldiv@counter 002C  
      RTC_WRITE@parametro 0024          I2C_Master_Init@c 002D          I2C_Master_Read@a 0074  
             RTC_READ@I2C 0024               RTC_READ@RTC 002A                 _RTC_PRINT 147E  
             ___fladd@grs 0033                ?_LCD_CLEAR 0070                 _RTC_WRITE 14F5  
           ___xxtofl@sign 0028                 _TRISCbits 0087               ___fldiv@grs 005C  
             ___fldiv@rem 0055            __end_of_DECENA 0B9B               ___flmul@grs 003D  
          __end_of_LCD_XY 145C               _DECENA$1159 00C1            __end_of_UNIDAD 07A8  
             _BCD_DECIMAL 1406            __end_of___bmul 13D2            __end_of___wmul 1567  
             _DECIMAL_BCD 15A1                 Parpadeo@j 0020                ?_RTC_PRINT 0070  
              ?_RTC_WRITE 0020       start_initialization 000F               __end_of_isr 090D  
                ??_DECENA 00BA                  ??_LCD_XY 0076         ??_I2C_Master_Init 0031  
       ??_I2C_Master_Read 0020         ??_I2C_Master_Wait 0074                  ??_UNIDAD 00C6  
       ??_I2C_Master_Stop 0074                  CENTENA@c 006D                  ??___bmul 0075  
                ??___wmul 0076                 __Umul8_16 14CC                  ?_CENTENA 0070  
               ___fladd@a 0024                 ___fladd@b 0020                  ?_LCD_COM 0070  
                LCD_COM@a 0075                 ___fldiv@a 0048                 ___fldiv@b 004C  
             ??_LCD_CLEAR 0075                  ?_IOC_INT 0070                 ___flmul@a 0032  
               ___flmul@b 002E               __pbssCOMMON 0076                 ___flsub@a 00A9  
               ___flsub@b 00AD                 ___latbits 0002             __pcstackBANK0 0020  
           __pcstackBANK1 00A0                  IOC_INT@a 0074          _I2C_Master_Start 1379  
        _I2C_Master_Write 138B                  ?___fladd 0020                  ?___fldiv 0048  
                ?___awdiv 00B1                  ?___awmod 0020                  ?___flmul 002E  
                ?___flsub 00A9                  ?___fltol 0062                  ?___lldiv 0020  
              ?__Umul8_16 0074                 __pstrings 1000               ??_RTC_PRINT 0022  
             ??_RTC_WRITE 0025                 _parametro 0076                  _LCD_CHAR 1422  
                _LCD_INIT 07A8                  _LCD_PORT 0800         interrupt_function 0004  
          ___wmul@product 006E                  _IOCBbits 0096                  _PIE1bits 008C  
                _PIR1bits 000C                  _RTC_READ 1734                RTC_PRINT@s 0025  
             __stringbase 1005         ___wmul@multiplier 00A5                RTC_WRITE@d 0022  
                _WPUBbits 0095       I2C_Master_Read@temp 0022                  _Parpadeo 145C  
            ?_BCD_DECIMAL 0070               ??__Umul8_16 0020              ?_DECIMAL_BCD 0070  
      __end_of__stringtab 1006                _CONFIGURAR 13D2           _I2C_Master_Init 1567  
         _I2C_Master_Read 0806                  ___xxtofl 09F8           _I2C_Master_Wait 13AE  
         _I2C_Master_Stop 1382                  __ptext10 1627                  __ptext11 0D78  
                __ptext20 138B                  __ptext12 090D                  __ptext21 1382  
                __ptext13 09F8                  __ptext30 13D2                  __ptext22 1379  
                __ptext14 097C                  __ptext31 145C                  __ptext23 0806  
                __ptext15 0022                  __ptext32 143E                  __ptext24 13AE  
                __ptext16 14CC                  __ptext33 13EB                  __ptext25 147E  
                __ptext17 0B9B                  __ptext34 14A3                  __ptext26 13A1  
                __ptext18 14F5                  __ptext35 1422                  __ptext27 15A1  
                __ptext19 1734                  __ptext36 0800                  __ptext28 1677  
                __ptext37 1406                  __ptext29 0836                  __ptext38 13BB  
                __ptext39 089F                _LCD_STRING 14A3               CONFIGURAR@x 0027  
             CONFIGURAR@y 0025  __end_of_I2C_Master_Start 1382  __end_of_I2C_Master_Write 1395  
              _INTCONbits 000B               _UNIDAD$1160 00CA               _UNIDAD$1161 00D2  
             _UNIDAD$1162 00CE                  intlevel1 0000          ___lldiv@dividend 0024  
              _OSCILLATOR 16D2                 stringcode 1000                _OSCCONbits 008F  
 __end_of_I2C_Master_Init 15A1   __end_of_I2C_Master_Read 0836   __end_of_I2C_Master_Wait 13BB  
 __end_of_I2C_Master_Stop 138B    __Umul8_16@multiplicand 0074          ___lldiv@quotient 0028  
       I2C_Master_Write@d 0074               ?_CONFIGURAR 0025                  stringdir 1000  
                stringtab 1000               _SSPCON2bits 0091             ___fladd@signs 0030  
            ___fladd@aexp 0031              ___fladd@bexp 0032      __Umul8_16@multiplier 0026  
       __Umul8_16@product 0022               ?_LCD_STRING 0070  
