

Microchip MPLAB XC8 Assembler V2.35 build 20211206165544 
                                                                                               Sun Jul 30 20:12:52 2023

Microchip MPLAB XC8 C Compiler v2.35 (Free license) build 20211206165544 Og1 
     1                           	processor	16F887
     2                           	pagewidth 120
     3                           	opt	flic
     4                           	psect	strings,global,class=STRING,delta=2,noexec
     5                           	psect	cinit,global,class=CODE,merge=1,delta=2
     6                           	psect	bssBANK1,global,class=BANK1,space=1,delta=1,noexec
     7                           	psect	cstackBANK1,global,class=BANK1,space=1,delta=1,noexec
     8                           	psect	cstackCOMMON,global,class=COMMON,space=1,delta=1,noexec
     9                           	psect	cstackBANK0,global,class=BANK0,space=1,delta=1,noexec
    10                           	psect	maintext,global,class=CODE,split=1,delta=2
    11                           	psect	text1,local,class=CODE,merge=1,delta=2
    12                           	psect	text2,local,class=CODE,merge=1,delta=2
    13                           	psect	text3,local,class=CODE,merge=1,delta=2
    14                           	psect	text4,local,class=CODE,merge=1,delta=2
    15                           	psect	text5,local,class=CODE,merge=1,delta=2
    16                           	psect	text6,local,class=CODE,merge=1,delta=2
    17                           	psect	text7,local,class=CODE,merge=1,delta=2
    18                           	psect	text8,local,class=CODE,merge=1,delta=2
    19                           	psect	text9,local,class=CODE,merge=1,delta=2,group=1
    20                           	psect	text10,local,class=CODE,merge=1,delta=2,group=1
    21                           	psect	text11,local,class=CODE,merge=1,delta=2,group=1
    22                           	psect	text12,local,class=CODE,merge=1,delta=2,group=1
    23                           	psect	text13,local,class=CODE,merge=1,delta=2
    24                           	psect	text14,local,class=CODE,merge=1,delta=2,group=1
    25                           	psect	text15,local,class=CODE,merge=1,delta=2,group=1
    26                           	psect	text16,local,class=CODE,merge=1,delta=2,group=1
    27                           	psect	text17,local,class=CODE,merge=1,delta=2,group=1
    28                           	psect	text18,local,class=CODE,merge=1,delta=2,group=1
    29                           	psect	text19,local,class=CODE,merge=1,delta=2
    30                           	psect	text20,local,class=CODE,merge=1,delta=2
    31                           	psect	text21,local,class=CODE,merge=1,delta=2
    32                           	psect	text22,local,class=CODE,merge=1,delta=2
    33                           	psect	text23,local,class=CODE,merge=1,delta=2
    34                           	psect	text24,local,class=CODE,merge=1,delta=2
    35                           	psect	idloc,global,abs,ovrld,class=IDLOC,space=5,delta=2,noexec
    36                           	psect	config,global,abs,ovrld,class=CONFIG,space=4,delta=2,noexec
    37                           	dabs	1,0x7E,2
    38  0000                     
    39                           ; Version 2.40
    40                           ; Generated 17/11/2021 GMT
    41                           ; 
    42                           ; Copyright © 2021, Microchip Technology Inc. and its subsidiaries ("Microchip")
    43                           ; All rights reserved.
    44                           ; 
    45                           ; This software is developed by Microchip Technology Inc. and its subsidiaries ("Microch
      +                          ip").
    46                           ; 
    47                           ; Redistribution and use in source and binary forms, with or without modification, are
    48                           ; permitted provided that the following conditions are met:
    49                           ; 
    50                           ;     1. Redistributions of source code must retain the above copyright notice, this lis
      +                          t of
    51                           ;        conditions and the following disclaimer.
    52                           ; 
    53                           ;     2. Redistributions in binary form must reproduce the above copyright notice, this 
      +                          list
    54                           ;        of conditions and the following disclaimer in the documentation and/or other
    55                           ;        materials provided with the distribution. Publication is not required when
    56                           ;        this file is used in an embedded application.
    57                           ; 
    58                           ;     3. Microchip's name may not be used to endorse or promote products derived from th
      +                          is
    59                           ;        software without specific prior written permission.
    60                           ; 
    61                           ; THIS SOFTWARE IS PROVIDED BY MICROCHIP "AS IS" AND ANY EXPRESS OR IMPLIED WARRANTIES,
    62                           ; INCLUDING, BUT NOT LIMITED TO, THE IMPLIED WARRANTIES OF MERCHANTABILITY AND FITNESS F
      +                          OR
    63                           ; PURPOSE ARE DISCLAIMED.  IN NO EVENT SHALL MICROCHIP BE LIABLE FOR ANY DIRECT, INDIREC
      +                          T,
    64                           ; INCIDENTAL, SPECIAL, EXEMPLARY, OR CONSEQUENTIAL DAMAGES (INCLUDING BUT NOT LIMITED TO
    65                           ; PROCUREMENT OF SUBSTITUTE GOODS OR SERVICES; LOSS OF USE, DATA OR PROFITS; OR BUSINESS
    66                           ; INTERRUPTION) HOWSOEVER CAUSED AND ON ANY THEORY OF LIABILITY, WHETHER IN CONTRACT, ST
      +                          RICT
    67                           ; LIABILITY, OR TORT (INCLUDING NEGLIGENCE OR OTHERWISE) ARISING IN ANY WAY OUT OF THE U
      +                          SE OF
    68                           ; THIS SOFTWARE, EVEN IF ADVISED OF THE POSSIBILITY OF SUCH DAMAGE.
    69                           ; 
    70                           ; 
    71                           ; Code-generator required, PIC16F887 Definitions
    72                           ; 
    73                           ; SFR Addresses
    74  0000                     	;# 
    75  0001                     	;# 
    76  0002                     	;# 
    77  0003                     	;# 
    78  0004                     	;# 
    79  0005                     	;# 
    80  0006                     	;# 
    81  0007                     	;# 
    82  0008                     	;# 
    83  0009                     	;# 
    84  000A                     	;# 
    85  000B                     	;# 
    86  000C                     	;# 
    87  000D                     	;# 
    88  000E                     	;# 
    89  000E                     	;# 
    90  000F                     	;# 
    91  0010                     	;# 
    92  0011                     	;# 
    93  0012                     	;# 
    94  0013                     	;# 
    95  0014                     	;# 
    96  0015                     	;# 
    97  0015                     	;# 
    98  0016                     	;# 
    99  0017                     	;# 
   100  0018                     	;# 
   101  0019                     	;# 
   102  001A                     	;# 
   103  001B                     	;# 
   104  001B                     	;# 
   105  001C                     	;# 
   106  001D                     	;# 
   107  001E                     	;# 
   108  001F                     	;# 
   109  0081                     	;# 
   110  0085                     	;# 
   111  0086                     	;# 
   112  0087                     	;# 
   113  0088                     	;# 
   114  0089                     	;# 
   115  008C                     	;# 
   116  008D                     	;# 
   117  008E                     	;# 
   118  008F                     	;# 
   119  0090                     	;# 
   120  0091                     	;# 
   121  0092                     	;# 
   122  0093                     	;# 
   123  0093                     	;# 
   124  0093                     	;# 
   125  0094                     	;# 
   126  0095                     	;# 
   127  0096                     	;# 
   128  0097                     	;# 
   129  0098                     	;# 
   130  0099                     	;# 
   131  009A                     	;# 
   132  009B                     	;# 
   133  009C                     	;# 
   134  009D                     	;# 
   135  009E                     	;# 
   136  009F                     	;# 
   137  0105                     	;# 
   138  0107                     	;# 
   139  0108                     	;# 
   140  0109                     	;# 
   141  010C                     	;# 
   142  010C                     	;# 
   143  010D                     	;# 
   144  010E                     	;# 
   145  010F                     	;# 
   146  0185                     	;# 
   147  0187                     	;# 
   148  0188                     	;# 
   149  0189                     	;# 
   150  018C                     	;# 
   151  018D                     	;# 
   152  0000                     	;# 
   153  0001                     	;# 
   154  0002                     	;# 
   155  0003                     	;# 
   156  0004                     	;# 
   157  0005                     	;# 
   158  0006                     	;# 
   159  0007                     	;# 
   160  0008                     	;# 
   161  0009                     	;# 
   162  000A                     	;# 
   163  000B                     	;# 
   164  000C                     	;# 
   165  000D                     	;# 
   166  000E                     	;# 
   167  000E                     	;# 
   168  000F                     	;# 
   169  0010                     	;# 
   170  0011                     	;# 
   171  0012                     	;# 
   172  0013                     	;# 
   173  0014                     	;# 
   174  0015                     	;# 
   175  0015                     	;# 
   176  0016                     	;# 
   177  0017                     	;# 
   178  0018                     	;# 
   179  0019                     	;# 
   180  001A                     	;# 
   181  001B                     	;# 
   182  001B                     	;# 
   183  001C                     	;# 
   184  001D                     	;# 
   185  001E                     	;# 
   186  001F                     	;# 
   187  0081                     	;# 
   188  0085                     	;# 
   189  0086                     	;# 
   190  0087                     	;# 
   191  0088                     	;# 
   192  0089                     	;# 
   193  008C                     	;# 
   194  008D                     	;# 
   195  008E                     	;# 
   196  008F                     	;# 
   197  0090                     	;# 
   198  0091                     	;# 
   199  0092                     	;# 
   200  0093                     	;# 
   201  0093                     	;# 
   202  0093                     	;# 
   203  0094                     	;# 
   204  0095                     	;# 
   205  0096                     	;# 
   206  0097                     	;# 
   207  0098                     	;# 
   208  0099                     	;# 
   209  009A                     	;# 
   210  009B                     	;# 
   211  009C                     	;# 
   212  009D                     	;# 
   213  009E                     	;# 
   214  009F                     	;# 
   215  0105                     	;# 
   216  0107                     	;# 
   217  0108                     	;# 
   218  0109                     	;# 
   219  010C                     	;# 
   220  010C                     	;# 
   221  010D                     	;# 
   222  010E                     	;# 
   223  010F                     	;# 
   224  0185                     	;# 
   225  0187                     	;# 
   226  0188                     	;# 
   227  0189                     	;# 
   228  018C                     	;# 
   229  018D                     	;# 
   230  0000                     	;# 
   231  0001                     	;# 
   232  0002                     	;# 
   233  0003                     	;# 
   234  0004                     	;# 
   235  0005                     	;# 
   236  0006                     	;# 
   237  0007                     	;# 
   238  0008                     	;# 
   239  0009                     	;# 
   240  000A                     	;# 
   241  000B                     	;# 
   242  000C                     	;# 
   243  000D                     	;# 
   244  000E                     	;# 
   245  000E                     	;# 
   246  000F                     	;# 
   247  0010                     	;# 
   248  0011                     	;# 
   249  0012                     	;# 
   250  0013                     	;# 
   251  0014                     	;# 
   252  0015                     	;# 
   253  0015                     	;# 
   254  0016                     	;# 
   255  0017                     	;# 
   256  0018                     	;# 
   257  0019                     	;# 
   258  001A                     	;# 
   259  001B                     	;# 
   260  001B                     	;# 
   261  001C                     	;# 
   262  001D                     	;# 
   263  001E                     	;# 
   264  001F                     	;# 
   265  0081                     	;# 
   266  0085                     	;# 
   267  0086                     	;# 
   268  0087                     	;# 
   269  0088                     	;# 
   270  0089                     	;# 
   271  008C                     	;# 
   272  008D                     	;# 
   273  008E                     	;# 
   274  008F                     	;# 
   275  0090                     	;# 
   276  0091                     	;# 
   277  0092                     	;# 
   278  0093                     	;# 
   279  0093                     	;# 
   280  0093                     	;# 
   281  0094                     	;# 
   282  0095                     	;# 
   283  0096                     	;# 
   284  0097                     	;# 
   285  0098                     	;# 
   286  0099                     	;# 
   287  009A                     	;# 
   288  009B                     	;# 
   289  009C                     	;# 
   290  009D                     	;# 
   291  009E                     	;# 
   292  009F                     	;# 
   293  0105                     	;# 
   294  0107                     	;# 
   295  0108                     	;# 
   296  0109                     	;# 
   297  010C                     	;# 
   298  010C                     	;# 
   299  010D                     	;# 
   300  010E                     	;# 
   301  010F                     	;# 
   302  0185                     	;# 
   303  0187                     	;# 
   304  0188                     	;# 
   305  0189                     	;# 
   306  018C                     	;# 
   307  018D                     	;# 
   308  0000                     	;# 
   309  0001                     	;# 
   310  0002                     	;# 
   311  0003                     	;# 
   312  0004                     	;# 
   313  0005                     	;# 
   314  0006                     	;# 
   315  0007                     	;# 
   316  0008                     	;# 
   317  0009                     	;# 
   318  000A                     	;# 
   319  000B                     	;# 
   320  000C                     	;# 
   321  000D                     	;# 
   322  000E                     	;# 
   323  000E                     	;# 
   324  000F                     	;# 
   325  0010                     	;# 
   326  0011                     	;# 
   327  0012                     	;# 
   328  0013                     	;# 
   329  0014                     	;# 
   330  0015                     	;# 
   331  0015                     	;# 
   332  0016                     	;# 
   333  0017                     	;# 
   334  0018                     	;# 
   335  0019                     	;# 
   336  001A                     	;# 
   337  001B                     	;# 
   338  001B                     	;# 
   339  001C                     	;# 
   340  001D                     	;# 
   341  001E                     	;# 
   342  001F                     	;# 
   343  0081                     	;# 
   344  0085                     	;# 
   345  0086                     	;# 
   346  0087                     	;# 
   347  0088                     	;# 
   348  0089                     	;# 
   349  008C                     	;# 
   350  008D                     	;# 
   351  008E                     	;# 
   352  008F                     	;# 
   353  0090                     	;# 
   354  0091                     	;# 
   355  0092                     	;# 
   356  0093                     	;# 
   357  0093                     	;# 
   358  0093                     	;# 
   359  0094                     	;# 
   360  0095                     	;# 
   361  0096                     	;# 
   362  0097                     	;# 
   363  0098                     	;# 
   364  0099                     	;# 
   365  009A                     	;# 
   366  009B                     	;# 
   367  009C                     	;# 
   368  009D                     	;# 
   369  009E                     	;# 
   370  009F                     	;# 
   371  0105                     	;# 
   372  0107                     	;# 
   373  0108                     	;# 
   374  0109                     	;# 
   375  010C                     	;# 
   376  010C                     	;# 
   377  010D                     	;# 
   378  010E                     	;# 
   379  010F                     	;# 
   380  0185                     	;# 
   381  0187                     	;# 
   382  0188                     	;# 
   383  0189                     	;# 
   384  018C                     	;# 
   385  018D                     	;# 
   386  0013                     _SSPBUF	set	19
   387  0014                     _SSPCON	set	20
   388  0006                     _PORTB	set	6
   389  0008                     _PORTD	set	8
   390  0007                     _PORTCbits	set	7
   391  0047                     _RD7	set	71
   392  0046                     _RD6	set	70
   393  0094                     _SSPSTATbits	set	148
   394  0094                     _SSPSTAT	set	148
   395  0088                     _TRISD	set	136
   396  0086                     _TRISB	set	134
   397  0087                     _TRISCbits	set	135
   398  043B                     _TRISC3	set	1083
   399  043D                     _TRISC5	set	1085
   400  0189                     _ANSELH	set	393
   401  0188                     _ANSEL	set	392
   402                           
   403                           	psect	strings
   404  0800                     __pstrings:
   405  0800                     stringtab:
   406  0800                     __stringtab:
   407  0800                     stringcode:	
   408                           ;	String table - string pointers are 1 byte each
   409                           
   410  0800                     stringdir:
   411  0800  3008               	movlw	high stringdir
   412  0801  008A               	movwf	10
   413  0802  0804               	movf	4,w
   414  0803  0A84               	incf	4,f
   415  0804  0782               	addwf	2,f
   416  0805                     __stringbase:
   417  0805  3400               	retlw	0
   418  0806                     __end_of__stringtab:
   419  0806                     STR_1:
   420  0806  3453               	retlw	83	;'S'
   421  0807  3431               	retlw	49	;'1'
   422  0808  343A               	retlw	58	;':'
   423  0809  3420               	retlw	32	;' '
   424  080A  3420               	retlw	32	;' '
   425  080B  3420               	retlw	32	;' '
   426  080C  3453               	retlw	83	;'S'
   427  080D  3432               	retlw	50	;'2'
   428  080E  343A               	retlw	58	;':'
   429  080F  3420               	retlw	32	;' '
   430  0810  3420               	retlw	32	;' '
   431  0811  3420               	retlw	32	;' '
   432  0812  3453               	retlw	83	;'S'
   433  0813  3433               	retlw	51	;'3'
   434  0814  343A               	retlw	58	;':'
   435  0815  3400               	retlw	0
   436  0816                     STR_2:
   437  0816  342E               	retlw	46	;'.'
   438  0817  3400               	retlw	0
   439  0816                     
   440                           	psect	cinit
   441  07F4                     start_initialization:	
   442                           ; #config settings
   443                           
   444  07F4                     __initialization:
   445                           
   446                           ; Clear objects allocated to BANK1
   447  07F4  1683               	bsf	3,5	;RP0=1, select bank1
   448  07F5  1303               	bcf	3,6	;RP1=0, select bank1
   449  07F6  01C9               	clrf	__pbssBANK1& (0+127)
   450  07F7  01CA               	clrf	(__pbssBANK1+1)& (0+127)
   451  07F8  01CB               	clrf	(__pbssBANK1+2)& (0+127)
   452  07F9  01CC               	clrf	(__pbssBANK1+3)& (0+127)
   453  07FA  01CD               	clrf	(__pbssBANK1+4)& (0+127)
   454  07FB  01CE               	clrf	(__pbssBANK1+5)& (0+127)
   455  07FC                     end_of_initialization:	
   456                           ;End of C runtime variable initialization code
   457                           
   458  07FC                     __end_of__initialization:
   459  07FC  0183               	clrf	3
   460  07FD  120A  158A  2E6D   	ljmp	_main	;jump to C main() function
   461                           
   462                           	psect	bssBANK1
   463  00C9                     __pbssBANK1:
   464  00C9                     _cont:
   465  00C9                     	ds	1
   466  00CA                     _POT2:
   467  00CA                     	ds	1
   468  00CB                     _POT1:
   469  00CB                     	ds	1
   470  00CC                     _centena:
   471  00CC                     	ds	1
   472  00CD                     _decena:
   473  00CD                     	ds	1
   474  00CE                     _unidad:
   475  00CE                     	ds	1
   476                           
   477                           	psect	cstackBANK1
   478  00A0                     __pcstackBANK1:
   479  00A0                     ?___flsub:
   480  00A0                     ___flsub@a:	
   481                           ; 4 bytes @ 0x0
   482                           
   483                           
   484                           ; 4 bytes @ 0x0
   485  00A0                     	ds	4
   486  00A4                     ___flsub@b:
   487                           
   488                           ; 4 bytes @ 0x4
   489  00A4                     	ds	4
   490  00A8                     ___awdiv@counter:
   491                           
   492                           ; 1 bytes @ 0x8
   493  00A8                     	ds	1
   494  00A9                     ___awdiv@sign:
   495                           
   496                           ; 1 bytes @ 0x9
   497  00A9                     	ds	1
   498  00AA                     ___awdiv@quotient:
   499                           
   500                           ; 2 bytes @ 0xA
   501  00AA                     	ds	2
   502  00AC                     ??_DECENA:
   503                           
   504                           ; 1 bytes @ 0xC
   505  00AC                     	ds	7
   506  00B3                     _DECENA$944:
   507                           
   508                           ; 4 bytes @ 0x13
   509  00B3                     	ds	4
   510  00B7                     DECENA@c:
   511                           
   512                           ; 1 bytes @ 0x17
   513  00B7                     	ds	1
   514  00B8                     ??_UNIDAD:
   515                           
   516                           ; 1 bytes @ 0x18
   517  00B8                     	ds	4
   518  00BC                     _UNIDAD$945:
   519                           
   520                           ; 4 bytes @ 0x1C
   521  00BC                     	ds	4
   522  00C0                     _UNIDAD$947:
   523                           
   524                           ; 4 bytes @ 0x20
   525  00C0                     	ds	4
   526  00C4                     _UNIDAD$946:
   527                           
   528                           ; 2 bytes @ 0x24
   529  00C4                     	ds	2
   530  00C6                     UNIDAD@c:
   531                           
   532                           ; 1 bytes @ 0x26
   533  00C6                     	ds	1
   534  00C7                     ??_main:
   535                           
   536                           ; 1 bytes @ 0x27
   537  00C7                     	ds	2
   538                           
   539                           	psect	cstackCOMMON
   540  0070                     __pcstackCOMMON:
   541  0070                     ?_setup:
   542  0070                     ?_spiWrite:	
   543                           ; 1 bytes @ 0x0
   544                           
   545  0070                     ??_spiWrite:	
   546                           ; 1 bytes @ 0x0
   547                           
   548  0070                     ?_spiRead:	
   549                           ; 1 bytes @ 0x0
   550                           
   551  0070                     ??_spiRead:	
   552                           ; 1 bytes @ 0x0
   553                           
   554  0070                     ?_CENTENA:	
   555                           ; 1 bytes @ 0x0
   556                           
   557  0070                     ?_DECENA:	
   558                           ; 1 bytes @ 0x0
   559                           
   560  0070                     ?_UNIDAD:	
   561                           ; 1 bytes @ 0x0
   562                           
   563  0070                     ?_LCD_CLEAR:	
   564                           ; 1 bytes @ 0x0
   565                           
   566  0070                     ?_LCD_STRING:	
   567                           ; 1 bytes @ 0x0
   568                           
   569  0070                     ?_LCD_CHAR:	
   570                           ; 1 bytes @ 0x0
   571                           
   572  0070                     ?_LCD_INIT:	
   573                           ; 1 bytes @ 0x0
   574                           
   575  0070                     ?_spiInit:	
   576                           ; 1 bytes @ 0x0
   577                           
   578  0070                     ?_main:	
   579                           ; 1 bytes @ 0x0
   580                           
   581  0070                     ?_LCD_PORT:	
   582                           ; 1 bytes @ 0x0
   583                           
   584  0070                     ??_LCD_PORT:	
   585                           ; 1 bytes @ 0x0
   586                           
   587  0070                     ?_LCD_COM:	
   588                           ; 1 bytes @ 0x0
   589                           
   590  0070                     ?_spiReceiveWait:	
   591                           ; 1 bytes @ 0x0
   592                           
   593  0070                     ??_spiReceiveWait:	
   594                           ; 1 bytes @ 0x0
   595                           
   596  0070                     ?__Umul8_16:	
   597                           ; 1 bytes @ 0x0
   598                           
   599  0070                     ?___fladd:	
   600                           ; 2 bytes @ 0x0
   601                           
   602  0070                     ?___xxtofl:	
   603                           ; 4 bytes @ 0x0
   604                           
   605  0070                     LCD_PORT@a:	
   606                           ; 4 bytes @ 0x0
   607                           
   608  0070                     spiInit@sDataSample:	
   609                           ; 1 bytes @ 0x0
   610                           
   611  0070                     spiWrite@dat:	
   612                           ; 1 bytes @ 0x0
   613                           
   614  0070                     __Umul8_16@multiplicand:	
   615                           ; 1 bytes @ 0x0
   616                           
   617  0070                     ___fladd@b:	
   618                           ; 1 bytes @ 0x0
   619                           
   620  0070                     ___xxtofl@val:	
   621                           ; 4 bytes @ 0x0
   622                           
   623                           
   624                           ; 4 bytes @ 0x0
   625  0070                     	ds	1
   626  0071                     ??_LCD_CLEAR:
   627  0071                     ??_LCD_CHAR:	
   628                           ; 1 bytes @ 0x1
   629                           
   630  0071                     ??_LCD_COM:	
   631                           ; 1 bytes @ 0x1
   632                           
   633  0071                     spiInit@sClockIdle:	
   634                           ; 1 bytes @ 0x1
   635                           
   636                           
   637                           ; 1 bytes @ 0x1
   638  0071                     	ds	1
   639  0072                     ??__Umul8_16:
   640  0072                     spiInit@sTransmitEdge:	
   641                           ; 1 bytes @ 0x2
   642                           
   643                           
   644                           ; 1 bytes @ 0x2
   645  0072                     	ds	1
   646  0073                     ??_spiInit:
   647  0073                     LCD_COM@a:	
   648                           ; 1 bytes @ 0x3
   649                           
   650  0073                     LCD_CHAR@a:	
   651                           ; 1 bytes @ 0x3
   652                           
   653  0073                     spiInit@sType:	
   654                           ; 1 bytes @ 0x3
   655                           
   656                           
   657                           ; 1 bytes @ 0x3
   658  0073                     	ds	1
   659  0074                     ?_LCD_XY:
   660  0074                     ??_LCD_STRING:	
   661                           ; 1 bytes @ 0x4
   662                           
   663  0074                     ??_LCD_INIT:	
   664                           ; 1 bytes @ 0x4
   665                           
   666  0074                     ??___xxtofl:	
   667                           ; 1 bytes @ 0x4
   668                           
   669  0074                     LCD_XY@y:	
   670                           ; 1 bytes @ 0x4
   671                           
   672  0074                     LCD_STRING@i:	
   673                           ; 1 bytes @ 0x4
   674                           
   675  0074                     __Umul8_16@product:	
   676                           ; 2 bytes @ 0x4
   677                           
   678  0074                     ___fladd@a:	
   679                           ; 2 bytes @ 0x4
   680                           
   681                           
   682                           ; 4 bytes @ 0x4
   683  0074                     	ds	1
   684  0075                     ??_LCD_XY:
   685  0075                     LCD_XY@x:	
   686                           ; 1 bytes @ 0x5
   687                           
   688                           
   689                           ; 1 bytes @ 0x5
   690  0075                     	ds	1
   691  0076                     ??_setup:
   692  0076                     LCD_STRING@a:	
   693                           ; 1 bytes @ 0x6
   694                           
   695  0076                     __Umul8_16@word_mpld:	
   696                           ; 1 bytes @ 0x6
   697                           
   698                           
   699                           ; 2 bytes @ 0x6
   700  0076                     	ds	2
   701  0078                     ___fladd@signs:
   702  0078                     __Umul8_16@multiplier:	
   703                           ; 1 bytes @ 0x8
   704                           
   705  0078                     ___xxtofl@sign:	
   706                           ; 1 bytes @ 0x8
   707                           
   708                           
   709                           ; 1 bytes @ 0x8
   710  0078                     	ds	1
   711  0079                     ___fladd@aexp:
   712  0079                     ___xxtofl@exp:	
   713                           ; 1 bytes @ 0x9
   714                           
   715                           
   716                           ; 1 bytes @ 0x9
   717  0079                     	ds	1
   718  007A                     ___fladd@bexp:
   719  007A                     ___xxtofl@arg:	
   720                           ; 1 bytes @ 0xA
   721                           
   722                           
   723                           ; 4 bytes @ 0xA
   724  007A                     	ds	1
   725  007B                     ___fladd@grs:
   726                           
   727                           ; 1 bytes @ 0xB
   728  007B                     	ds	3
   729  007E                     ??___wmul:
   730  007E                     ??___flsub:	
   731                           ; 1 bytes @ 0xE
   732                           
   733                           
   734                           	psect	cstackBANK0
   735  0020                     __pcstackBANK0:	
   736                           ; 1 bytes @ 0xE
   737                           
   738  0020                     ??___fladd:
   739  0020                     ?___flmul:	
   740                           ; 1 bytes @ 0x0
   741                           
   742  0020                     ___flmul@b:	
   743                           ; 4 bytes @ 0x0
   744                           
   745                           
   746                           ; 4 bytes @ 0x0
   747  0020                     	ds	4
   748  0024                     ___flmul@a:
   749                           
   750                           ; 4 bytes @ 0x4
   751  0024                     	ds	4
   752  0028                     ??___flmul:
   753                           
   754                           ; 1 bytes @ 0x8
   755  0028                     	ds	5
   756  002D                     ___flmul@sign:
   757                           
   758                           ; 1 bytes @ 0xD
   759  002D                     	ds	1
   760  002E                     ___flmul@grs:
   761                           
   762                           ; 4 bytes @ 0xE
   763  002E                     	ds	4
   764  0032                     ___flmul@aexp:
   765                           
   766                           ; 1 bytes @ 0x12
   767  0032                     	ds	1
   768  0033                     ___flmul@bexp:
   769                           
   770                           ; 1 bytes @ 0x13
   771  0033                     	ds	1
   772  0034                     ___flmul@prod:
   773                           
   774                           ; 4 bytes @ 0x14
   775  0034                     	ds	4
   776  0038                     ___flmul@temp:
   777                           
   778                           ; 2 bytes @ 0x18
   779  0038                     	ds	2
   780  003A                     ?___fldiv:
   781  003A                     ___fldiv@a:	
   782                           ; 4 bytes @ 0x1A
   783                           
   784                           
   785                           ; 4 bytes @ 0x1A
   786  003A                     	ds	4
   787  003E                     ___fldiv@b:
   788                           
   789                           ; 4 bytes @ 0x1E
   790  003E                     	ds	4
   791  0042                     ??___fldiv:
   792                           
   793                           ; 1 bytes @ 0x22
   794  0042                     	ds	5
   795  0047                     ___fldiv@rem:
   796                           
   797                           ; 4 bytes @ 0x27
   798  0047                     	ds	4
   799  004B                     ___fldiv@sign:
   800                           
   801                           ; 1 bytes @ 0x2B
   802  004B                     	ds	1
   803  004C                     ___fldiv@new_exp:
   804                           
   805                           ; 2 bytes @ 0x2C
   806  004C                     	ds	2
   807  004E                     ___fldiv@grs:
   808                           
   809                           ; 4 bytes @ 0x2E
   810  004E                     	ds	4
   811  0052                     ___fldiv@bexp:
   812                           
   813                           ; 1 bytes @ 0x32
   814  0052                     	ds	1
   815  0053                     ___fldiv@aexp:
   816                           
   817                           ; 1 bytes @ 0x33
   818  0053                     	ds	1
   819  0054                     ?___fltol:
   820  0054                     ___fltol@f1:	
   821                           ; 4 bytes @ 0x34
   822                           
   823                           
   824                           ; 4 bytes @ 0x34
   825  0054                     	ds	4
   826  0058                     ??___fltol:
   827                           
   828                           ; 1 bytes @ 0x38
   829  0058                     	ds	5
   830  005D                     ___fltol@sign1:
   831                           
   832                           ; 1 bytes @ 0x3D
   833  005D                     	ds	1
   834  005E                     ___fltol@exp1:
   835                           
   836                           ; 1 bytes @ 0x3E
   837  005E                     	ds	1
   838  005F                     ??_CENTENA:
   839                           
   840                           ; 1 bytes @ 0x3F
   841  005F                     	ds	5
   842  0064                     CENTENA@c:
   843                           
   844                           ; 1 bytes @ 0x44
   845  0064                     	ds	1
   846  0065                     ?___wmul:
   847  0065                     ___wmul@multiplier:	
   848                           ; 2 bytes @ 0x45
   849                           
   850                           
   851                           ; 2 bytes @ 0x45
   852  0065                     	ds	2
   853  0067                     ___wmul@multiplicand:
   854                           
   855                           ; 2 bytes @ 0x47
   856  0067                     	ds	2
   857  0069                     ___wmul@product:
   858                           
   859                           ; 2 bytes @ 0x49
   860  0069                     	ds	2
   861  006B                     ?___awdiv:
   862  006B                     ___awdiv@divisor:	
   863                           ; 2 bytes @ 0x4B
   864                           
   865                           
   866                           ; 2 bytes @ 0x4B
   867  006B                     	ds	2
   868  006D                     ___awdiv@dividend:
   869                           
   870                           ; 2 bytes @ 0x4D
   871  006D                     	ds	2
   872  006F                     ??___awdiv:
   873                           
   874                           ; 1 bytes @ 0x4F
   875  006F                     	ds	1
   876                           
   877                           	psect	maintext
   878  0E6D                     __pmaintext:	
   879 ;;
   880 ;;Main: autosize = 0, tempsize = 2, incstack = 0, save=0
   881 ;;
   882 ;; *************** function _main *****************
   883 ;; Defined at:
   884 ;;		line 46 in file "MAIN_M.c"
   885 ;; Parameters:    Size  Location     Type
   886 ;;		None
   887 ;; Auto vars:     Size  Location     Type
   888 ;;		None
   889 ;; Return value:  Size  Location     Type
   890 ;;                  1    wreg      void 
   891 ;; Registers used:
   892 ;;		wreg, fsr0l, fsr0h, status,2, status,0, btemp+1, pclath, cstack
   893 ;; Tracked objects:
   894 ;;		On entry : B00/0
   895 ;;		On exit  : 0/0
   896 ;;		Unchanged: 0/0
   897 ;; Data sizes:     COMMON   BANK0   BANK1   BANK3   BANK2
   898 ;;      Params:         0       0       0       0       0
   899 ;;      Locals:         0       0       0       0       0
   900 ;;      Temps:          0       0       2       0       0
   901 ;;      Totals:         0       0       2       0       0
   902 ;;Total ram usage:        2 bytes
   903 ;; Hardware stack levels required when called: 5
   904 ;; This function calls:
   905 ;;		_CENTENA
   906 ;;		_DECENA
   907 ;;		_LCD_CHAR
   908 ;;		_LCD_CLEAR
   909 ;;		_LCD_STRING
   910 ;;		_LCD_XY
   911 ;;		_UNIDAD
   912 ;;		_setup
   913 ;;		_spiRead
   914 ;;		_spiWrite
   915 ;; This function is called by:
   916 ;;		Startup code after reset
   917 ;; This function uses a non-reentrant model
   918 ;;
   919                           
   920  0E6D                     _main:	
   921                           ;psect for function _main
   922                           
   923  0E6D                     l2310:	
   924                           ;incstack = 0
   925                           ; Regs used in _main: [wreg-fsr0h+status,2+status,0+btemp+1+pclath+cstack]
   926                           
   927                           
   928                           ;MAIN_M.c: 47:     setup();
   929  0E6D  120A  158A  2162  120A  158A  	fcall	_setup
   930  0E72                     l2312:
   931                           
   932                           ;MAIN_M.c: 49:         PORTCbits.RC2 = 0;
   933  0E72  1283               	bcf	3,5	;RP0=0, select bank0
   934  0E73  1303               	bcf	3,6	;RP1=0, select bank0
   935  0E74  1107               	bcf	7,2	;volatile
   936  0E75                     l2314:
   937                           
   938                           ;MAIN_M.c: 50:         PORTCbits.RC1 = 1;
   939  0E75  1487               	bsf	7,1	;volatile
   940  0E76                     l2316:
   941                           
   942                           ;MAIN_M.c: 51:        _delay((unsigned long)((1)*(8000000/4000.0)));
   943  0E76  3003               	movlw	3
   944  0E77  1683               	bsf	3,5	;RP0=1, select bank1
   945  0E78  1303               	bcf	3,6	;RP1=0, select bank1
   946  0E79  00C8               	movwf	(??_main^(0+128)+1)
   947  0E7A  3097               	movlw	151
   948  0E7B  00C7               	movwf	??_main^(0+128)
   949  0E7C                     u3177:
   950  0E7C  0BC7               	decfsz	??_main^(0+128),f
   951  0E7D  2E7C               	goto	u3177
   952  0E7E  0BC8               	decfsz	(??_main^(0+128)+1),f
   953  0E7F  2E7C               	goto	u3177
   954  0E80                     l2318:
   955                           
   956                           ;MAIN_M.c: 53:        spiWrite(0xAA);
   957  0E80  30AA               	movlw	170
   958  0E81  120A  158A  20F3  120A  158A  	fcall	_spiWrite
   959  0E86                     l2320:
   960                           
   961                           ;MAIN_M.c: 54:        cont = spiRead();
   962  0E86  120A  158A  2100  120A  158A  	fcall	_spiRead
   963  0E8B  1683               	bsf	3,5	;RP0=1, select bank1
   964  0E8C  1303               	bcf	3,6	;RP1=0, select bank1
   965  0E8D  00C7               	movwf	??_main^(0+128)
   966  0E8E  0847               	movf	??_main^(0+128),w
   967  0E8F  00C9               	movwf	_cont^(0+128)
   968  0E90                     l2322:
   969                           
   970                           ;MAIN_M.c: 56:        _delay((unsigned long)((1)*(8000000/4000.0)));
   971  0E90  3003               	movlw	3
   972  0E91  1683               	bsf	3,5	;RP0=1, select bank1
   973  0E92  1303               	bcf	3,6	;RP1=0, select bank1
   974  0E93  00C8               	movwf	(??_main^(0+128)+1)
   975  0E94  3097               	movlw	151
   976  0E95  00C7               	movwf	??_main^(0+128)
   977  0E96                     u3187:
   978  0E96  0BC7               	decfsz	??_main^(0+128),f
   979  0E97  2E96               	goto	u3187
   980  0E98  0BC8               	decfsz	(??_main^(0+128)+1),f
   981  0E99  2E96               	goto	u3187
   982  0E9A                     l2324:
   983                           
   984                           ;MAIN_M.c: 58:        PORTCbits.RC2 = 1;
   985  0E9A  1283               	bcf	3,5	;RP0=0, select bank0
   986  0E9B  1303               	bcf	3,6	;RP1=0, select bank0
   987  0E9C  1507               	bsf	7,2	;volatile
   988  0E9D                     l2326:
   989                           
   990                           ;MAIN_M.c: 59:        PORTCbits.RC1 = 0;
   991  0E9D  1087               	bcf	7,1	;volatile
   992  0E9E                     l2328:
   993                           
   994                           ;MAIN_M.c: 60:        _delay((unsigned long)((1)*(8000000/4000.0)));
   995  0E9E  3003               	movlw	3
   996  0E9F  1683               	bsf	3,5	;RP0=1, select bank1
   997  0EA0  1303               	bcf	3,6	;RP1=0, select bank1
   998  0EA1  00C8               	movwf	(??_main^(0+128)+1)
   999  0EA2  3097               	movlw	151
  1000  0EA3  00C7               	movwf	??_main^(0+128)
  1001  0EA4                     u3197:
  1002  0EA4  0BC7               	decfsz	??_main^(0+128),f
  1003  0EA5  2EA4               	goto	u3197
  1004  0EA6  0BC8               	decfsz	(??_main^(0+128)+1),f
  1005  0EA7  2EA4               	goto	u3197
  1006  0EA8                     l2330:
  1007                           
  1008                           ;MAIN_M.c: 62:        spiWrite(0xFF);
  1009  0EA8  30FF               	movlw	255
  1010  0EA9  120A  158A  20F3  120A  158A  	fcall	_spiWrite
  1011  0EAE                     l2332:
  1012                           
  1013                           ;MAIN_M.c: 63:        POT2 = spiRead();
  1014  0EAE  120A  158A  2100  120A  158A  	fcall	_spiRead
  1015  0EB3  1683               	bsf	3,5	;RP0=1, select bank1
  1016  0EB4  1303               	bcf	3,6	;RP1=0, select bank1
  1017  0EB5  00C7               	movwf	??_main^(0+128)
  1018  0EB6  0847               	movf	??_main^(0+128),w
  1019  0EB7  00CA               	movwf	_POT2^(0+128)
  1020  0EB8                     l2334:
  1021                           
  1022                           ;MAIN_M.c: 65:        _delay((unsigned long)((1)*(8000000/4000.0)));
  1023  0EB8  3003               	movlw	3
  1024  0EB9  1683               	bsf	3,5	;RP0=1, select bank1
  1025  0EBA  1303               	bcf	3,6	;RP1=0, select bank1
  1026  0EBB  00C8               	movwf	(??_main^(0+128)+1)
  1027  0EBC  3097               	movlw	151
  1028  0EBD  00C7               	movwf	??_main^(0+128)
  1029  0EBE                     u3207:
  1030  0EBE  0BC7               	decfsz	??_main^(0+128),f
  1031  0EBF  2EBE               	goto	u3207
  1032  0EC0  0BC8               	decfsz	(??_main^(0+128)+1),f
  1033  0EC1  2EBE               	goto	u3207
  1034  0EC2                     l2336:
  1035                           
  1036                           ;MAIN_M.c: 67:        PORTCbits.RC2 = 0;
  1037  0EC2  1283               	bcf	3,5	;RP0=0, select bank0
  1038  0EC3  1303               	bcf	3,6	;RP1=0, select bank0
  1039  0EC4  1107               	bcf	7,2	;volatile
  1040  0EC5                     l2338:
  1041                           
  1042                           ;MAIN_M.c: 68:        PORTCbits.RC1 = 1;
  1043  0EC5  1487               	bsf	7,1	;volatile
  1044  0EC6                     l2340:
  1045                           
  1046                           ;MAIN_M.c: 69:        _delay((unsigned long)((1)*(8000000/4000.0)));
  1047  0EC6  3003               	movlw	3
  1048  0EC7  1683               	bsf	3,5	;RP0=1, select bank1
  1049  0EC8  1303               	bcf	3,6	;RP1=0, select bank1
  1050  0EC9  00C8               	movwf	(??_main^(0+128)+1)
  1051  0ECA  3097               	movlw	151
  1052  0ECB  00C7               	movwf	??_main^(0+128)
  1053  0ECC                     u3217:
  1054  0ECC  0BC7               	decfsz	??_main^(0+128),f
  1055  0ECD  2ECC               	goto	u3217
  1056  0ECE  0BC8               	decfsz	(??_main^(0+128)+1),f
  1057  0ECF  2ECC               	goto	u3217
  1058  0ED0                     l2342:
  1059                           
  1060                           ;MAIN_M.c: 71:        spiWrite(0xFF);
  1061  0ED0  30FF               	movlw	255
  1062  0ED1  120A  158A  20F3  120A  158A  	fcall	_spiWrite
  1063  0ED6                     l2344:
  1064                           
  1065                           ;MAIN_M.c: 72:        POT1 = spiRead();
  1066  0ED6  120A  158A  2100  120A  158A  	fcall	_spiRead
  1067  0EDB  1683               	bsf	3,5	;RP0=1, select bank1
  1068  0EDC  1303               	bcf	3,6	;RP1=0, select bank1
  1069  0EDD  00C7               	movwf	??_main^(0+128)
  1070  0EDE  0847               	movf	??_main^(0+128),w
  1071  0EDF  00CB               	movwf	_POT1^(0+128)
  1072  0EE0                     l2346:
  1073                           
  1074                           ;MAIN_M.c: 74:        _delay((unsigned long)((1)*(8000000/4000.0)));
  1075  0EE0  3003               	movlw	3
  1076  0EE1  1683               	bsf	3,5	;RP0=1, select bank1
  1077  0EE2  1303               	bcf	3,6	;RP1=0, select bank1
  1078  0EE3  00C8               	movwf	(??_main^(0+128)+1)
  1079  0EE4  3097               	movlw	151
  1080  0EE5  00C7               	movwf	??_main^(0+128)
  1081  0EE6                     u3227:
  1082  0EE6  0BC7               	decfsz	??_main^(0+128),f
  1083  0EE7  2EE6               	goto	u3227
  1084  0EE8  0BC8               	decfsz	(??_main^(0+128)+1),f
  1085  0EE9  2EE6               	goto	u3227
  1086  0EEA                     l2348:
  1087                           
  1088                           ;MAIN_M.c: 76:        PORTCbits.RC2 = 1;
  1089  0EEA  1283               	bcf	3,5	;RP0=0, select bank0
  1090  0EEB  1303               	bcf	3,6	;RP1=0, select bank0
  1091  0EEC  1507               	bsf	7,2	;volatile
  1092  0EED                     l2350:
  1093                           
  1094                           ;MAIN_M.c: 77:        PORTCbits.RC1 = 1;
  1095  0EED  1487               	bsf	7,1	;volatile
  1096  0EEE                     l2352:
  1097                           
  1098                           ;MAIN_M.c: 79:        centena = CENTENA(POT1);
  1099  0EEE  1683               	bsf	3,5	;RP0=1, select bank1
  1100  0EEF  1303               	bcf	3,6	;RP1=0, select bank1
  1101  0EF0  084B               	movf	_POT1^(0+128),w
  1102  0EF1  120A  158A  2266  120A  158A  	fcall	_CENTENA
  1103  0EF6  1683               	bsf	3,5	;RP0=1, select bank1
  1104  0EF7  1303               	bcf	3,6	;RP1=0, select bank1
  1105  0EF8  00C7               	movwf	??_main^(0+128)
  1106  0EF9  0847               	movf	??_main^(0+128),w
  1107  0EFA  00CC               	movwf	_centena^(0+128)
  1108  0EFB                     l2354:
  1109                           
  1110                           ;MAIN_M.c: 80:        decena = DECENA(POT1);
  1111  0EFB  084B               	movf	_POT1^(0+128),w
  1112  0EFC  120A  158A  2482  120A  158A  	fcall	_DECENA
  1113  0F01  1683               	bsf	3,5	;RP0=1, select bank1
  1114  0F02  1303               	bcf	3,6	;RP1=0, select bank1
  1115  0F03  00C7               	movwf	??_main^(0+128)
  1116  0F04  0847               	movf	??_main^(0+128),w
  1117  0F05  00CD               	movwf	_decena^(0+128)
  1118  0F06                     l2356:
  1119                           
  1120                           ;MAIN_M.c: 81:        unidad = UNIDAD(POT1);
  1121  0F06  084B               	movf	_POT1^(0+128),w
  1122  0F07  120A  158A  255B  120A  158A  	fcall	_UNIDAD
  1123  0F0C  1683               	bsf	3,5	;RP0=1, select bank1
  1124  0F0D  1303               	bcf	3,6	;RP1=0, select bank1
  1125  0F0E  00C7               	movwf	??_main^(0+128)
  1126  0F0F  0847               	movf	??_main^(0+128),w
  1127  0F10  00CE               	movwf	_unidad^(0+128)
  1128  0F11                     l2358:
  1129                           
  1130                           ;MAIN_M.c: 83:        centena += 48;
  1131  0F11  3030               	movlw	48
  1132  0F12  00C7               	movwf	??_main^(0+128)
  1133  0F13  0847               	movf	??_main^(0+128),w
  1134  0F14  07CC               	addwf	_centena^(0+128),f
  1135  0F15                     l2360:
  1136                           
  1137                           ;MAIN_M.c: 84:        decena += 48;
  1138  0F15  3030               	movlw	48
  1139  0F16  00C7               	movwf	??_main^(0+128)
  1140  0F17  0847               	movf	??_main^(0+128),w
  1141  0F18  07CD               	addwf	_decena^(0+128),f
  1142  0F19                     l2362:
  1143                           
  1144                           ;MAIN_M.c: 85:        unidad += 48;
  1145  0F19  3030               	movlw	48
  1146  0F1A  00C7               	movwf	??_main^(0+128)
  1147  0F1B  0847               	movf	??_main^(0+128),w
  1148  0F1C  07CE               	addwf	_unidad^(0+128),f
  1149  0F1D                     l2364:
  1150                           
  1151                           ;MAIN_M.c: 87:        LCD_CLEAR();
  1152  0F1D  120A  158A  2109  120A  158A  	fcall	_LCD_CLEAR
  1153  0F22                     l2366:
  1154                           
  1155                           ;MAIN_M.c: 88:        LCD_XY(1,0);
  1156  0F22  01F4               	clrf	LCD_XY@y
  1157  0F23  3001               	movlw	1
  1158  0F24  120A  158A  2146  120A  158A  	fcall	_LCD_XY
  1159  0F29                     l2368:
  1160                           
  1161                           ;MAIN_M.c: 89:        LCD_STRING("S1:   S2:   S3:");
  1162  0F29  3001               	movlw	(low ((STR_1-__stringbase)| (0+32768)))& (0+255)
  1163  0F2A  120A  158A  21A5  120A  158A  	fcall	_LCD_STRING
  1164  0F2F                     l2370:
  1165                           
  1166                           ;MAIN_M.c: 90:        LCD_XY(2,0);
  1167  0F2F  01F4               	clrf	LCD_XY@y
  1168  0F30  3002               	movlw	2
  1169  0F31  120A  158A  2146  120A  158A  	fcall	_LCD_XY
  1170  0F36                     l2372:
  1171                           
  1172                           ;MAIN_M.c: 91:        LCD_CHAR(centena);
  1173  0F36  1683               	bsf	3,5	;RP0=1, select bank1
  1174  0F37  1303               	bcf	3,6	;RP1=0, select bank1
  1175  0F38  084C               	movf	_centena^(0+128),w
  1176  0F39  120A  158A  212C  120A  158A  	fcall	_LCD_CHAR
  1177  0F3E                     l2374:
  1178                           
  1179                           ;MAIN_M.c: 92:        LCD_STRING(".");
  1180  0F3E  3011               	movlw	(low ((STR_2-__stringbase)| (0+32768)))& (0+255)
  1181  0F3F  120A  158A  21A5  120A  158A  	fcall	_LCD_STRING
  1182  0F44                     l2376:
  1183                           
  1184                           ;MAIN_M.c: 93:        LCD_CHAR(decena);
  1185  0F44  1683               	bsf	3,5	;RP0=1, select bank1
  1186  0F45  1303               	bcf	3,6	;RP1=0, select bank1
  1187  0F46  084D               	movf	_decena^(0+128),w
  1188  0F47  120A  158A  212C  120A  158A  	fcall	_LCD_CHAR
  1189  0F4C                     l2378:
  1190                           
  1191                           ;MAIN_M.c: 94:        LCD_CHAR(unidad);
  1192  0F4C  1683               	bsf	3,5	;RP0=1, select bank1
  1193  0F4D  1303               	bcf	3,6	;RP1=0, select bank1
  1194  0F4E  084E               	movf	_unidad^(0+128),w
  1195  0F4F  120A  158A  212C  120A  158A  	fcall	_LCD_CHAR
  1196  0F54                     l2380:
  1197                           
  1198                           ;MAIN_M.c: 96:        centena = CENTENA(cont);
  1199  0F54  1683               	bsf	3,5	;RP0=1, select bank1
  1200  0F55  1303               	bcf	3,6	;RP1=0, select bank1
  1201  0F56  0849               	movf	_cont^(0+128),w
  1202  0F57  120A  158A  2266  120A  158A  	fcall	_CENTENA
  1203  0F5C  1683               	bsf	3,5	;RP0=1, select bank1
  1204  0F5D  1303               	bcf	3,6	;RP1=0, select bank1
  1205  0F5E  00C7               	movwf	??_main^(0+128)
  1206  0F5F  0847               	movf	??_main^(0+128),w
  1207  0F60  00CC               	movwf	_centena^(0+128)
  1208  0F61                     l2382:
  1209                           
  1210                           ;MAIN_M.c: 97:        decena = DECENA(cont);
  1211  0F61  0849               	movf	_cont^(0+128),w
  1212  0F62  120A  158A  2482  120A  158A  	fcall	_DECENA
  1213  0F67  1683               	bsf	3,5	;RP0=1, select bank1
  1214  0F68  1303               	bcf	3,6	;RP1=0, select bank1
  1215  0F69  00C7               	movwf	??_main^(0+128)
  1216  0F6A  0847               	movf	??_main^(0+128),w
  1217  0F6B  00CD               	movwf	_decena^(0+128)
  1218  0F6C                     l2384:
  1219                           
  1220                           ;MAIN_M.c: 98:        unidad = UNIDAD(cont);
  1221  0F6C  0849               	movf	_cont^(0+128),w
  1222  0F6D  120A  158A  255B  120A  158A  	fcall	_UNIDAD
  1223  0F72  1683               	bsf	3,5	;RP0=1, select bank1
  1224  0F73  1303               	bcf	3,6	;RP1=0, select bank1
  1225  0F74  00C7               	movwf	??_main^(0+128)
  1226  0F75  0847               	movf	??_main^(0+128),w
  1227  0F76  00CE               	movwf	_unidad^(0+128)
  1228  0F77                     l2386:
  1229                           
  1230                           ;MAIN_M.c: 100:        centena += 48;
  1231  0F77  3030               	movlw	48
  1232  0F78  00C7               	movwf	??_main^(0+128)
  1233  0F79  0847               	movf	??_main^(0+128),w
  1234  0F7A  07CC               	addwf	_centena^(0+128),f
  1235  0F7B                     l2388:
  1236                           
  1237                           ;MAIN_M.c: 101:        decena += 48;
  1238  0F7B  3030               	movlw	48
  1239  0F7C  00C7               	movwf	??_main^(0+128)
  1240  0F7D  0847               	movf	??_main^(0+128),w
  1241  0F7E  07CD               	addwf	_decena^(0+128),f
  1242  0F7F                     l2390:
  1243                           
  1244                           ;MAIN_M.c: 102:        unidad += 48;
  1245  0F7F  3030               	movlw	48
  1246  0F80  00C7               	movwf	??_main^(0+128)
  1247  0F81  0847               	movf	??_main^(0+128),w
  1248  0F82  07CE               	addwf	_unidad^(0+128),f
  1249                           
  1250                           ;MAIN_M.c: 104:        LCD_XY(2,6);
  1251  0F83  3006               	movlw	6
  1252  0F84  00C7               	movwf	??_main^(0+128)
  1253  0F85  0847               	movf	??_main^(0+128),w
  1254  0F86  00F4               	movwf	LCD_XY@y
  1255  0F87  3002               	movlw	2
  1256  0F88  120A  158A  2146  120A  158A  	fcall	_LCD_XY
  1257                           
  1258                           ;MAIN_M.c: 105:        LCD_CHAR(centena);
  1259  0F8D  1683               	bsf	3,5	;RP0=1, select bank1
  1260  0F8E  1303               	bcf	3,6	;RP1=0, select bank1
  1261  0F8F  084C               	movf	_centena^(0+128),w
  1262  0F90  120A  158A  212C  120A  158A  	fcall	_LCD_CHAR
  1263                           
  1264                           ;MAIN_M.c: 106:        LCD_CHAR(decena);
  1265  0F95  1683               	bsf	3,5	;RP0=1, select bank1
  1266  0F96  1303               	bcf	3,6	;RP1=0, select bank1
  1267  0F97  084D               	movf	_decena^(0+128),w
  1268  0F98  120A  158A  212C  120A  158A  	fcall	_LCD_CHAR
  1269                           
  1270                           ;MAIN_M.c: 107:        LCD_CHAR(unidad);
  1271  0F9D  1683               	bsf	3,5	;RP0=1, select bank1
  1272  0F9E  1303               	bcf	3,6	;RP1=0, select bank1
  1273  0F9F  084E               	movf	_unidad^(0+128),w
  1274  0FA0  120A  158A  212C  120A  158A  	fcall	_LCD_CHAR
  1275  0FA5                     l2392:
  1276                           
  1277                           ;MAIN_M.c: 110:        centena = CENTENA(POT2);
  1278  0FA5  1683               	bsf	3,5	;RP0=1, select bank1
  1279  0FA6  1303               	bcf	3,6	;RP1=0, select bank1
  1280  0FA7  084A               	movf	_POT2^(0+128),w
  1281  0FA8  120A  158A  2266  120A  158A  	fcall	_CENTENA
  1282  0FAD  1683               	bsf	3,5	;RP0=1, select bank1
  1283  0FAE  1303               	bcf	3,6	;RP1=0, select bank1
  1284  0FAF  00C7               	movwf	??_main^(0+128)
  1285  0FB0  0847               	movf	??_main^(0+128),w
  1286  0FB1  00CC               	movwf	_centena^(0+128)
  1287  0FB2                     l2394:
  1288                           
  1289                           ;MAIN_M.c: 111:        decena = DECENA(POT2);
  1290  0FB2  084A               	movf	_POT2^(0+128),w
  1291  0FB3  120A  158A  2482  120A  158A  	fcall	_DECENA
  1292  0FB8  1683               	bsf	3,5	;RP0=1, select bank1
  1293  0FB9  1303               	bcf	3,6	;RP1=0, select bank1
  1294  0FBA  00C7               	movwf	??_main^(0+128)
  1295  0FBB  0847               	movf	??_main^(0+128),w
  1296  0FBC  00CD               	movwf	_decena^(0+128)
  1297  0FBD                     l2396:
  1298                           
  1299                           ;MAIN_M.c: 112:        unidad = UNIDAD(POT2);
  1300  0FBD  084A               	movf	_POT2^(0+128),w
  1301  0FBE  120A  158A  255B  120A  158A  	fcall	_UNIDAD
  1302  0FC3  1683               	bsf	3,5	;RP0=1, select bank1
  1303  0FC4  1303               	bcf	3,6	;RP1=0, select bank1
  1304  0FC5  00C7               	movwf	??_main^(0+128)
  1305  0FC6  0847               	movf	??_main^(0+128),w
  1306  0FC7  00CE               	movwf	_unidad^(0+128)
  1307  0FC8                     l2398:
  1308                           
  1309                           ;MAIN_M.c: 114:        centena += 48;
  1310  0FC8  3030               	movlw	48
  1311  0FC9  00C7               	movwf	??_main^(0+128)
  1312  0FCA  0847               	movf	??_main^(0+128),w
  1313  0FCB  07CC               	addwf	_centena^(0+128),f
  1314  0FCC                     l2400:
  1315                           
  1316                           ;MAIN_M.c: 115:        decena += 48;
  1317  0FCC  3030               	movlw	48
  1318  0FCD  00C7               	movwf	??_main^(0+128)
  1319  0FCE  0847               	movf	??_main^(0+128),w
  1320  0FCF  07CD               	addwf	_decena^(0+128),f
  1321  0FD0                     l2402:
  1322                           
  1323                           ;MAIN_M.c: 116:        unidad += 48;
  1324  0FD0  3030               	movlw	48
  1325  0FD1  00C7               	movwf	??_main^(0+128)
  1326  0FD2  0847               	movf	??_main^(0+128),w
  1327  0FD3  07CE               	addwf	_unidad^(0+128),f
  1328  0FD4                     l2404:
  1329                           
  1330                           ;MAIN_M.c: 118:        LCD_XY(2,11);
  1331  0FD4  300B               	movlw	11
  1332  0FD5  00C7               	movwf	??_main^(0+128)
  1333  0FD6  0847               	movf	??_main^(0+128),w
  1334  0FD7  00F4               	movwf	LCD_XY@y
  1335  0FD8  3002               	movlw	2
  1336  0FD9  120A  158A  2146  120A  158A  	fcall	_LCD_XY
  1337  0FDE                     l2406:
  1338                           
  1339                           ;MAIN_M.c: 119:        LCD_CHAR(centena);
  1340  0FDE  1683               	bsf	3,5	;RP0=1, select bank1
  1341  0FDF  1303               	bcf	3,6	;RP1=0, select bank1
  1342  0FE0  084C               	movf	_centena^(0+128),w
  1343  0FE1  120A  158A  212C  120A  158A  	fcall	_LCD_CHAR
  1344  0FE6                     l2408:
  1345                           
  1346                           ;MAIN_M.c: 120:        LCD_STRING(".");
  1347  0FE6  3011               	movlw	(low ((STR_2-__stringbase)| (0+32768)))& (0+255)
  1348  0FE7  120A  158A  21A5  120A  158A  	fcall	_LCD_STRING
  1349  0FEC                     l2410:
  1350                           
  1351                           ;MAIN_M.c: 121:        LCD_CHAR(decena);
  1352  0FEC  1683               	bsf	3,5	;RP0=1, select bank1
  1353  0FED  1303               	bcf	3,6	;RP1=0, select bank1
  1354  0FEE  084D               	movf	_decena^(0+128),w
  1355  0FEF  120A  158A  212C  120A  158A  	fcall	_LCD_CHAR
  1356  0FF4                     l2412:
  1357                           
  1358                           ;MAIN_M.c: 122:        LCD_CHAR(unidad);
  1359  0FF4  1683               	bsf	3,5	;RP0=1, select bank1
  1360  0FF5  1303               	bcf	3,6	;RP1=0, select bank1
  1361  0FF6  084E               	movf	_unidad^(0+128),w
  1362  0FF7  120A  158A  212C  120A  158A  	fcall	_LCD_CHAR
  1363  0FFC  2E72               	goto	l2312
  1364  0FFD  120A  118A  2800   	ljmp	start
  1365  1000                     __end_of_main:
  1366                           
  1367                           	psect	text1
  1368  08F3                     __ptext1:	
  1369 ;; *************** function _spiWrite *****************
  1370 ;; Defined at:
  1371 ;;		line 33 in file "SPIM.c"
  1372 ;; Parameters:    Size  Location     Type
  1373 ;;  dat             1    wreg     unsigned char 
  1374 ;; Auto vars:     Size  Location     Type
  1375 ;;  dat             1    0[COMMON] unsigned char 
  1376 ;; Return value:  Size  Location     Type
  1377 ;;                  1    wreg      void 
  1378 ;; Registers used:
  1379 ;;		wreg
  1380 ;; Tracked objects:
  1381 ;;		On entry : 0/0
  1382 ;;		On exit  : 0/0
  1383 ;;		Unchanged: 0/0
  1384 ;; Data sizes:     COMMON   BANK0   BANK1   BANK3   BANK2
  1385 ;;      Params:         0       0       0       0       0
  1386 ;;      Locals:         1       0       0       0       0
  1387 ;;      Temps:          0       0       0       0       0
  1388 ;;      Totals:         1       0       0       0       0
  1389 ;;Total ram usage:        1 bytes
  1390 ;; Hardware stack levels used: 1
  1391 ;; This function calls:
  1392 ;;		Nothing
  1393 ;; This function is called by:
  1394 ;;		_main
  1395 ;; This function uses a non-reentrant model
  1396 ;;
  1397                           
  1398  08F3                     _spiWrite:	
  1399                           ;psect for function _spiWrite
  1400                           
  1401                           
  1402                           ;incstack = 0
  1403                           ; Regs used in _spiWrite: [wreg]
  1404                           ;spiWrite@dat stored from wreg
  1405  08F3  00F0               	movwf	spiWrite@dat
  1406  08F4                     l2278:
  1407                           
  1408                           ;SPIM.c: 33: void spiWrite(char dat);SPIM.c: 34: {;SPIM.c: 35:     SSPBUF = dat;
  1409  08F4  0870               	movf	spiWrite@dat,w
  1410  08F5  1283               	bcf	3,5	;RP0=0, select bank0
  1411  08F6  1303               	bcf	3,6	;RP1=0, select bank0
  1412  08F7  0093               	movwf	19	;volatile
  1413  08F8                     l135:
  1414  08F8  0008               	return
  1415  08F9                     __end_of_spiWrite:
  1416                           
  1417                           	psect	text2
  1418  0900                     __ptext2:	
  1419 ;; *************** function _spiRead *****************
  1420 ;; Defined at:
  1421 ;;		line 46 in file "SPIM.c"
  1422 ;; Parameters:    Size  Location     Type
  1423 ;;		None
  1424 ;; Auto vars:     Size  Location     Type
  1425 ;;		None
  1426 ;; Return value:  Size  Location     Type
  1427 ;;                  1    wreg      unsigned char 
  1428 ;; Registers used:
  1429 ;;		wreg, status,2, status,0, pclath, cstack
  1430 ;; Tracked objects:
  1431 ;;		On entry : 0/0
  1432 ;;		On exit  : 0/0
  1433 ;;		Unchanged: 0/0
  1434 ;; Data sizes:     COMMON   BANK0   BANK1   BANK3   BANK2
  1435 ;;      Params:         0       0       0       0       0
  1436 ;;      Locals:         0       0       0       0       0
  1437 ;;      Temps:          0       0       0       0       0
  1438 ;;      Totals:         0       0       0       0       0
  1439 ;;Total ram usage:        0 bytes
  1440 ;; Hardware stack levels used: 1
  1441 ;; Hardware stack levels required when called: 1
  1442 ;; This function calls:
  1443 ;;		_spiReceiveWait
  1444 ;; This function is called by:
  1445 ;;		_main
  1446 ;; This function uses a non-reentrant model
  1447 ;;
  1448                           
  1449  0900                     _spiRead:	
  1450                           ;psect for function _spiRead
  1451                           
  1452  0900                     l2280:	
  1453                           ;incstack = 0
  1454                           ; Regs used in _spiRead: [wreg+status,2+status,0+pclath+cstack]
  1455                           
  1456                           
  1457                           ;SPIM.c: 48:     spiReceiveWait();
  1458  0900  120A  158A  20F9  120A  158A  	fcall	_spiReceiveWait
  1459  0905                     l2282:
  1460                           
  1461                           ;SPIM.c: 49:     return(SSPBUF);
  1462  0905  1283               	bcf	3,5	;RP0=0, select bank0
  1463  0906  1303               	bcf	3,6	;RP1=0, select bank0
  1464  0907  0813               	movf	19,w	;volatile
  1465  0908                     l138:
  1466  0908  0008               	return
  1467  0909                     __end_of_spiRead:
  1468                           
  1469                           	psect	text3
  1470  08F9                     __ptext3:	
  1471 ;; *************** function _spiReceiveWait *****************
  1472 ;; Defined at:
  1473 ;;		line 28 in file "SPIM.c"
  1474 ;; Parameters:    Size  Location     Type
  1475 ;;		None
  1476 ;; Auto vars:     Size  Location     Type
  1477 ;;		None
  1478 ;; Return value:  Size  Location     Type
  1479 ;;                  1    wreg      void 
  1480 ;; Registers used:
  1481 ;;		None
  1482 ;; Tracked objects:
  1483 ;;		On entry : 0/0
  1484 ;;		On exit  : 0/0
  1485 ;;		Unchanged: 0/0
  1486 ;; Data sizes:     COMMON   BANK0   BANK1   BANK3   BANK2
  1487 ;;      Params:         0       0       0       0       0
  1488 ;;      Locals:         0       0       0       0       0
  1489 ;;      Temps:          0       0       0       0       0
  1490 ;;      Totals:         0       0       0       0       0
  1491 ;;Total ram usage:        0 bytes
  1492 ;; Hardware stack levels used: 1
  1493 ;; This function calls:
  1494 ;;		Nothing
  1495 ;; This function is called by:
  1496 ;;		_spiRead
  1497 ;; This function uses a non-reentrant model
  1498 ;;
  1499                           
  1500  08F9                     _spiReceiveWait:	
  1501                           ;psect for function _spiReceiveWait
  1502                           
  1503  08F9                     l2262:	
  1504                           ;incstack = 0
  1505                           ; Regs used in _spiReceiveWait: []
  1506                           
  1507  08F9                     l129:	
  1508                           ;SPIM.c: 30:     while ( !SSPSTATbits.BF );
  1509                           
  1510  08F9  1683               	bsf	3,5	;RP0=1, select bank1
  1511  08FA  1303               	bcf	3,6	;RP1=0, select bank1
  1512  08FB  1C14               	btfss	20,0	;volatile
  1513  08FC  28FE               	goto	u3131
  1514  08FD  28FF               	goto	u3130
  1515  08FE                     u3131:
  1516  08FE  28F9               	goto	l129
  1517  08FF                     u3130:
  1518  08FF                     l132:
  1519  08FF  0008               	return
  1520  0900                     __end_of_spiReceiveWait:
  1521                           
  1522                           	psect	text4
  1523  0962                     __ptext4:	
  1524 ;; *************** function _setup *****************
  1525 ;; Defined at:
  1526 ;;		line 128 in file "MAIN_M.c"
  1527 ;; Parameters:    Size  Location     Type
  1528 ;;		None
  1529 ;; Auto vars:     Size  Location     Type
  1530 ;;		None
  1531 ;; Return value:  Size  Location     Type
  1532 ;;                  1    wreg      void 
  1533 ;; Registers used:
  1534 ;;		wreg, status,2, status,0, pclath, cstack
  1535 ;; Tracked objects:
  1536 ;;		On entry : 0/0
  1537 ;;		On exit  : 0/0
  1538 ;;		Unchanged: 0/0
  1539 ;; Data sizes:     COMMON   BANK0   BANK1   BANK3   BANK2
  1540 ;;      Params:         0       0       0       0       0
  1541 ;;      Locals:         0       0       0       0       0
  1542 ;;      Temps:          0       0       0       0       0
  1543 ;;      Totals:         0       0       0       0       0
  1544 ;;Total ram usage:        0 bytes
  1545 ;; Hardware stack levels used: 1
  1546 ;; Hardware stack levels required when called: 3
  1547 ;; This function calls:
  1548 ;;		_LCD_INIT
  1549 ;;		_spiInit
  1550 ;; This function is called by:
  1551 ;;		_main
  1552 ;; This function uses a non-reentrant model
  1553 ;;
  1554                           
  1555  0962                     _setup:	
  1556                           ;psect for function _setup
  1557                           
  1558  0962                     l2264:	
  1559                           ;incstack = 0
  1560                           ; Regs used in _setup: [wreg+status,2+status,0+pclath+cstack]
  1561                           
  1562                           
  1563                           ;MAIN_M.c: 130:     ANSEL = 0x00;
  1564  0962  1683               	bsf	3,5	;RP0=1, select bank3
  1565  0963  1703               	bsf	3,6	;RP1=1, select bank3
  1566  0964  0188               	clrf	8	;volatile
  1567                           
  1568                           ;MAIN_M.c: 131:     ANSELH = 0x00;
  1569  0965  0189               	clrf	9	;volatile
  1570  0966                     l2266:
  1571                           
  1572                           ;MAIN_M.c: 133:     TRISCbits.TRISC2 = 0;
  1573  0966  1683               	bsf	3,5	;RP0=1, select bank1
  1574  0967  1303               	bcf	3,6	;RP1=0, select bank1
  1575  0968  1107               	bcf	7,2	;volatile
  1576  0969                     l2268:
  1577                           
  1578                           ;MAIN_M.c: 134:     TRISCbits.TRISC1 = 0;
  1579  0969  1087               	bcf	7,1	;volatile
  1580                           
  1581                           ;MAIN_M.c: 135:     TRISB = 0x00;
  1582  096A  0186               	clrf	6	;volatile
  1583                           
  1584                           ;MAIN_M.c: 136:     TRISD = 0x00;
  1585  096B  0188               	clrf	8	;volatile
  1586                           
  1587                           ;MAIN_M.c: 138:     PORTD = 0x00;
  1588  096C  1283               	bcf	3,5	;RP0=0, select bank0
  1589  096D  1303               	bcf	3,6	;RP1=0, select bank0
  1590  096E  0188               	clrf	8	;volatile
  1591                           
  1592                           ;MAIN_M.c: 139:     PORTB = 0x00;
  1593  096F  0186               	clrf	6	;volatile
  1594  0970                     l2270:
  1595                           
  1596                           ;MAIN_M.c: 140:     PORTCbits.RC2 = 1;
  1597  0970  1507               	bsf	7,2	;volatile
  1598  0971                     l2272:
  1599                           
  1600                           ;MAIN_M.c: 141:     PORTCbits.RC1 = 1;
  1601  0971  1487               	bsf	7,1	;volatile
  1602  0972                     l2274:
  1603                           
  1604                           ;MAIN_M.c: 143:     LCD_INIT();
  1605  0972  120A  158A  2218  120A  158A  	fcall	_LCD_INIT
  1606  0977                     l2276:
  1607                           
  1608                           ;MAIN_M.c: 144:     spiInit(SPI_MASTER_OSC_DIV4, SPI_DATA_SAMPLE_MIDDLE, SPI_CLOCK_IDLE_
      +                          LOW, SPI_IDLE_2_ACTIVE);
  1609  0977  01F0               	clrf	spiInit@sDataSample
  1610  0978  01F1               	clrf	spiInit@sClockIdle
  1611  0979  01F2               	clrf	spiInit@sTransmitEdge
  1612  097A  3020               	movlw	32
  1613  097B  120A  158A  2116  120A  158A  	fcall	_spiInit
  1614  0980                     l65:
  1615  0980  0008               	return
  1616  0981                     __end_of_setup:
  1617                           
  1618                           	psect	text5
  1619  0916                     __ptext5:	
  1620 ;; *************** function _spiInit *****************
  1621 ;; Defined at:
  1622 ;;		line 11 in file "SPIM.c"
  1623 ;; Parameters:    Size  Location     Type
  1624 ;;  sType           1    wreg     enum E1292
  1625 ;;  sDataSample     1    0[COMMON] enum E1300
  1626 ;;  sClockIdle      1    1[COMMON] enum E1304
  1627 ;;  sTransmitEdg    1    2[COMMON] enum E1308
  1628 ;; Auto vars:     Size  Location     Type
  1629 ;;  sType           1    3[COMMON] enum E1292
  1630 ;; Return value:  Size  Location     Type
  1631 ;;                  1    wreg      void 
  1632 ;; Registers used:
  1633 ;;		wreg, status,2, status,0
  1634 ;; Tracked objects:
  1635 ;;		On entry : 0/0
  1636 ;;		On exit  : 0/0
  1637 ;;		Unchanged: 0/0
  1638 ;; Data sizes:     COMMON   BANK0   BANK1   BANK3   BANK2
  1639 ;;      Params:         3       0       0       0       0
  1640 ;;      Locals:         1       0       0       0       0
  1641 ;;      Temps:          0       0       0       0       0
  1642 ;;      Totals:         4       0       0       0       0
  1643 ;;Total ram usage:        4 bytes
  1644 ;; Hardware stack levels used: 1
  1645 ;; This function calls:
  1646 ;;		Nothing
  1647 ;; This function is called by:
  1648 ;;		_setup
  1649 ;; This function uses a non-reentrant model
  1650 ;;
  1651                           
  1652  0916                     _spiInit:	
  1653                           ;psect for function _spiInit
  1654                           
  1655                           
  1656                           ;incstack = 0
  1657                           ; Regs used in _spiInit: [wreg+status,2+status,0]
  1658                           ;spiInit@sType stored from wreg
  1659  0916  00F3               	movwf	spiInit@sType
  1660  0917                     l2252:
  1661                           
  1662                           ;SPIM.c: 11: void spiInit(Spi_Type sType, Spi_Data_Sample sDataSample, Spi_Clock_Idle sC
      +                          lockIdle, Spi_Transmit_Edge sTransmitEdge);SPIM.c: 12: {;SPIM.c: 13:     TRISC5 = 0;
  1663  0917  1683               	bsf	3,5	;RP0=1, select bank1
  1664  0918  1303               	bcf	3,6	;RP1=0, select bank1
  1665  0919  1287               	bcf	7,5	;volatile
  1666                           
  1667                           ;SPIM.c: 14:     if(sType & 0b00000100)
  1668  091A  1D73               	btfss	spiInit@sType,2
  1669  091B  291D               	goto	u3121
  1670  091C  291E               	goto	u3120
  1671  091D                     u3121:
  1672  091D  2922               	goto	l2258
  1673  091E                     u3120:
  1674  091E                     l2254:
  1675                           
  1676                           ;SPIM.c: 15:     {;SPIM.c: 16:         SSPSTAT = sTransmitEdge;
  1677  091E  0872               	movf	spiInit@sTransmitEdge,w
  1678  091F  0094               	movwf	20	;volatile
  1679  0920                     l2256:
  1680                           
  1681                           ;SPIM.c: 17:         TRISC3 = 1;
  1682  0920  1587               	bsf	7,3	;volatile
  1683                           
  1684                           ;SPIM.c: 18:     }
  1685  0921  2926               	goto	l125
  1686  0922                     l2258:
  1687                           
  1688                           ;SPIM.c: 20:     {;SPIM.c: 21:         SSPSTAT = sDataSample | sTransmitEdge;
  1689  0922  0870               	movf	spiInit@sDataSample,w
  1690  0923  0472               	iorwf	spiInit@sTransmitEdge,w
  1691  0924  0094               	movwf	20	;volatile
  1692  0925                     l2260:
  1693                           
  1694                           ;SPIM.c: 22:         TRISC3 = 0;
  1695  0925  1187               	bcf	7,3	;volatile
  1696  0926                     l125:	
  1697                           ;SPIM.c: 23:     }
  1698                           
  1699                           
  1700                           ;SPIM.c: 25:     SSPCON = sType | sClockIdle;
  1701  0926  0873               	movf	spiInit@sType,w
  1702  0927  0471               	iorwf	spiInit@sClockIdle,w
  1703  0928  1283               	bcf	3,5	;RP0=0, select bank0
  1704  0929  1303               	bcf	3,6	;RP1=0, select bank0
  1705  092A  0094               	movwf	20	;volatile
  1706  092B                     l126:
  1707  092B  0008               	return
  1708  092C                     __end_of_spiInit:
  1709                           
  1710                           	psect	text6
  1711  0A18                     __ptext6:	
  1712 ;; *************** function _LCD_INIT *****************
  1713 ;; Defined at:
  1714 ;;		line 47 in file "LCD.c"
  1715 ;; Parameters:    Size  Location     Type
  1716 ;;		None
  1717 ;; Auto vars:     Size  Location     Type
  1718 ;;		None
  1719 ;; Return value:  Size  Location     Type
  1720 ;;                  1    wreg      void 
  1721 ;; Registers used:
  1722 ;;		wreg, status,2, status,0, pclath, cstack
  1723 ;; Tracked objects:
  1724 ;;		On entry : 0/0
  1725 ;;		On exit  : 0/0
  1726 ;;		Unchanged: 0/0
  1727 ;; Data sizes:     COMMON   BANK0   BANK1   BANK3   BANK2
  1728 ;;      Params:         0       0       0       0       0
  1729 ;;      Locals:         0       0       0       0       0
  1730 ;;      Temps:          2       0       0       0       0
  1731 ;;      Totals:         2       0       0       0       0
  1732 ;;Total ram usage:        2 bytes
  1733 ;; Hardware stack levels used: 1
  1734 ;; Hardware stack levels required when called: 2
  1735 ;; This function calls:
  1736 ;;		_LCD_COM
  1737 ;;		_LCD_PORT
  1738 ;; This function is called by:
  1739 ;;		_setup
  1740 ;; This function uses a non-reentrant model
  1741 ;;
  1742                           
  1743  0A18                     _LCD_INIT:	
  1744                           ;psect for function _LCD_INIT
  1745                           
  1746  0A18                     l2240:	
  1747                           ;incstack = 0
  1748                           ; Regs used in _LCD_INIT: [wreg+status,2+status,0+pclath+cstack]
  1749                           
  1750                           
  1751                           ;LCD.c: 48:     LCD_PORT(0x00);
  1752  0A18  3000               	movlw	0
  1753  0A19  120A  158A  20ED  120A  158A  	fcall	_LCD_PORT
  1754  0A1E                     l2242:
  1755                           
  1756                           ;LCD.c: 49:  RD6 = 0;
  1757  0A1E  1283               	bcf	3,5	;RP0=0, select bank0
  1758  0A1F  1303               	bcf	3,6	;RP1=0, select bank0
  1759  0A20  1308               	bcf	8,6	;volatile
  1760  0A21                     l2244:
  1761                           
  1762                           ;LCD.c: 50:  _delay((unsigned long)((25)*(8000000/4000.0)));
  1763  0A21  3041               	movlw	65
  1764  0A22  00F5               	movwf	??_LCD_INIT+1
  1765  0A23  30EE               	movlw	238
  1766  0A24  00F4               	movwf	??_LCD_INIT
  1767  0A25                     u3237:
  1768  0A25  0BF4               	decfsz	??_LCD_INIT,f
  1769  0A26  2A25               	goto	u3237
  1770  0A27  0BF5               	decfsz	??_LCD_INIT+1,f
  1771  0A28  2A25               	goto	u3237
  1772  0A29  0000               	nop
  1773  0A2A                     l2246:
  1774                           
  1775                           ;LCD.c: 52:     LCD_COM(0x30);
  1776  0A2A  3030               	movlw	48
  1777  0A2B  120A  118A  2004  120A  158A  	fcall	_LCD_COM
  1778                           
  1779                           ;LCD.c: 53:   _delay((unsigned long)((5)*(8000000/4000.0)));
  1780  0A30  300D               	movlw	13
  1781  0A31  00F5               	movwf	??_LCD_INIT+1
  1782  0A32  30FB               	movlw	251
  1783  0A33  00F4               	movwf	??_LCD_INIT
  1784  0A34                     u3247:
  1785  0A34  0BF4               	decfsz	??_LCD_INIT,f
  1786  0A35  2A34               	goto	u3247
  1787  0A36  0BF5               	decfsz	??_LCD_INIT+1,f
  1788  0A37  2A34               	goto	u3247
  1789  0A38  2A39               	nop2
  1790  0A39                     l2248:
  1791                           
  1792                           ;LCD.c: 54:     LCD_COM(0x30);
  1793  0A39  3030               	movlw	48
  1794  0A3A  120A  118A  2004  120A  158A  	fcall	_LCD_COM
  1795  0A3F                     l2250:
  1796                           
  1797                           ;LCD.c: 55:       _delay((unsigned long)((15)*(8000000/4000.0)));
  1798  0A3F  3027               	movlw	39
  1799  0A40  00F5               	movwf	??_LCD_INIT+1
  1800  0A41  30F5               	movlw	245
  1801  0A42  00F4               	movwf	??_LCD_INIT
  1802  0A43                     u3257:
  1803  0A43  0BF4               	decfsz	??_LCD_INIT,f
  1804  0A44  2A43               	goto	u3257
  1805  0A45  0BF5               	decfsz	??_LCD_INIT+1,f
  1806  0A46  2A43               	goto	u3257
  1807                           
  1808                           ;LCD.c: 56:     LCD_COM(0x30);
  1809  0A47  3030               	movlw	48
  1810  0A48  120A  118A  2004  120A  158A  	fcall	_LCD_COM
  1811                           
  1812                           ;LCD.c: 58:     LCD_COM(0x38);
  1813  0A4D  3038               	movlw	56
  1814  0A4E  120A  118A  2004  120A  158A  	fcall	_LCD_COM
  1815                           
  1816                           ;LCD.c: 59:     LCD_COM(0x0C);
  1817  0A53  300C               	movlw	12
  1818  0A54  120A  118A  2004  120A  158A  	fcall	_LCD_COM
  1819                           
  1820                           ;LCD.c: 60:     LCD_COM(0x01);
  1821  0A59  3001               	movlw	1
  1822  0A5A  120A  118A  2004  120A  158A  	fcall	_LCD_COM
  1823                           
  1824                           ;LCD.c: 61:     LCD_COM(0x06);
  1825  0A5F  3006               	movlw	6
  1826  0A60  120A  118A  2004  120A  158A  	fcall	_LCD_COM
  1827  0A65                     l100:
  1828  0A65  0008               	return
  1829  0A66                     __end_of_LCD_INIT:
  1830                           
  1831                           	psect	text7
  1832  0D5B                     __ptext7:	
  1833 ;; *************** function _UNIDAD *****************
  1834 ;; Defined at:
  1835 ;;		line 22 in file "LCD.c"
  1836 ;; Parameters:    Size  Location     Type
  1837 ;;  c               1    wreg     unsigned char 
  1838 ;; Auto vars:     Size  Location     Type
  1839 ;;  c               1   38[BANK1 ] unsigned char 
  1840 ;; Return value:  Size  Location     Type
  1841 ;;                  1    wreg      unsigned char 
  1842 ;; Registers used:
  1843 ;;		wreg, status,2, status,0, btemp+1, pclath, cstack
  1844 ;; Tracked objects:
  1845 ;;		On entry : 0/0
  1846 ;;		On exit  : 0/0
  1847 ;;		Unchanged: 0/0
  1848 ;; Data sizes:     COMMON   BANK0   BANK1   BANK3   BANK2
  1849 ;;      Params:         0       0       0       0       0
  1850 ;;      Locals:         0       0      11       0       0
  1851 ;;      Temps:          0       0       4       0       0
  1852 ;;      Totals:         0       0      15       0       0
  1853 ;;Total ram usage:       15 bytes
  1854 ;; Hardware stack levels used: 1
  1855 ;; Hardware stack levels required when called: 4
  1856 ;; This function calls:
  1857 ;;		_CENTENA
  1858 ;;		_DECENA
  1859 ;;		___flmul
  1860 ;;		___flsub
  1861 ;;		___fltol
  1862 ;;		___wmul
  1863 ;;		___xxtofl
  1864 ;; This function is called by:
  1865 ;;		_main
  1866 ;; This function uses a non-reentrant model
  1867 ;;
  1868                           
  1869  0D5B                     _UNIDAD:	
  1870                           ;psect for function _UNIDAD
  1871                           
  1872                           
  1873                           ;incstack = 0
  1874                           ; Regs used in _UNIDAD: [wreg+status,2+status,0+btemp+1+pclath+cstack]
  1875                           ;UNIDAD@c stored from wreg
  1876  0D5B  1683               	bsf	3,5	;RP0=1, select bank1
  1877  0D5C  1303               	bcf	3,6	;RP1=0, select bank1
  1878  0D5D  00C6               	movwf	UNIDAD@c^(0+128)
  1879  0D5E                     l2286:
  1880                           
  1881                           ;LCD.c: 23:     c = (uint8_t)((c*1.9607) - CENTENA(c)*100 - DECENA(c)*10);
  1882  0D5E  3064               	movlw	100
  1883  0D5F  1283               	bcf	3,5	;RP0=0, select bank0
  1884  0D60  1303               	bcf	3,6	;RP1=0, select bank0
  1885  0D61  00E7               	movwf	___wmul@multiplicand
  1886  0D62  3000               	movlw	0
  1887  0D63  00E8               	movwf	___wmul@multiplicand+1
  1888  0D64  1683               	bsf	3,5	;RP0=1, select bank1
  1889  0D65  1303               	bcf	3,6	;RP1=0, select bank1
  1890  0D66  0846               	movf	UNIDAD@c^(0+128),w
  1891  0D67  120A  158A  2266  120A  158A  	fcall	_CENTENA
  1892  0D6C  1683               	bsf	3,5	;RP0=1, select bank1
  1893  0D6D  1303               	bcf	3,6	;RP1=0, select bank1
  1894  0D6E  00B8               	movwf	??_UNIDAD^(0+128)
  1895  0D6F  01B9               	clrf	(??_UNIDAD^(0+128)+1)
  1896  0D70  0838               	movf	??_UNIDAD^(0+128),w
  1897  0D71  1283               	bcf	3,5	;RP0=0, select bank0
  1898  0D72  1303               	bcf	3,6	;RP1=0, select bank0
  1899  0D73  00E5               	movwf	___wmul@multiplier
  1900  0D74  1683               	bsf	3,5	;RP0=1, select bank1
  1901  0D75  1303               	bcf	3,6	;RP1=0, select bank1
  1902  0D76  0839               	movf	(??_UNIDAD+1)^(0+128),w
  1903  0D77  1283               	bcf	3,5	;RP0=0, select bank0
  1904  0D78  1303               	bcf	3,6	;RP1=0, select bank0
  1905  0D79  00E6               	movwf	___wmul@multiplier+1
  1906  0D7A  120A  158A  21F1  120A  158A  	fcall	___wmul
  1907  0D7F  1283               	bcf	3,5	;RP0=0, select bank0
  1908  0D80  1303               	bcf	3,6	;RP1=0, select bank0
  1909  0D81  0865               	movf	?___wmul,w
  1910  0D82  1683               	bsf	3,5	;RP0=1, select bank1
  1911  0D83  1303               	bcf	3,6	;RP1=0, select bank1
  1912  0D84  00BC               	movwf	_UNIDAD$945^(0+128)
  1913  0D85  1283               	bcf	3,5	;RP0=0, select bank0
  1914  0D86  1303               	bcf	3,6	;RP1=0, select bank0
  1915  0D87  0866               	movf	?___wmul+1,w
  1916  0D88  1683               	bsf	3,5	;RP0=1, select bank1
  1917  0D89  1303               	bcf	3,6	;RP1=0, select bank1
  1918  0D8A  00BD               	movwf	(_UNIDAD$945+1)^(0+128)
  1919  0D8B  3000               	movlw	0
  1920  0D8C  1BBD               	btfsc	(_UNIDAD$945+1)^(0+128),7
  1921  0D8D  30FF               	movlw	255
  1922  0D8E  00BE               	movwf	(_UNIDAD$945+2)^(0+128)
  1923  0D8F  00BF               	movwf	(_UNIDAD$945+3)^(0+128)
  1924                           
  1925                           ;LCD.c: 23:     c = (uint8_t)((c*1.9607) - CENTENA(c)*100 - DECENA(c)*10);
  1926  0D90  0846               	movf	UNIDAD@c^(0+128),w
  1927  0D91  120A  158A  2482  120A  158A  	fcall	_DECENA
  1928  0D96  1683               	bsf	3,5	;RP0=1, select bank1
  1929  0D97  1303               	bcf	3,6	;RP1=0, select bank1
  1930  0D98  00B8               	movwf	??_UNIDAD^(0+128)
  1931  0D99  01B9               	clrf	(??_UNIDAD^(0+128)+1)
  1932  0D9A  0838               	movf	??_UNIDAD^(0+128),w
  1933  0D9B  00C4               	movwf	_UNIDAD$946^(0+128)
  1934  0D9C  0839               	movf	(??_UNIDAD+1)^(0+128),w
  1935  0D9D  00C5               	movwf	(_UNIDAD$946+1)^(0+128)
  1936                           
  1937                           ;LCD.c: 23:     c = (uint8_t)((c*1.9607) - CENTENA(c)*100 - DECENA(c)*10);
  1938  0D9E  0846               	movf	UNIDAD@c^(0+128),w
  1939  0D9F  00B8               	movwf	??_UNIDAD^(0+128)
  1940  0DA0  01B9               	clrf	(??_UNIDAD^(0+128)+1)
  1941  0DA1  01BA               	clrf	(??_UNIDAD^(0+128)+2)
  1942  0DA2  01BB               	clrf	(??_UNIDAD^(0+128)+3)
  1943  0DA3  083B               	movf	(??_UNIDAD+3)^(0+128),w
  1944  0DA4  00F3               	movwf	___xxtofl@val+3
  1945  0DA5  083A               	movf	(??_UNIDAD+2)^(0+128),w
  1946  0DA6  00F2               	movwf	___xxtofl@val+2
  1947  0DA7  0839               	movf	(??_UNIDAD+1)^(0+128),w
  1948  0DA8  00F1               	movwf	___xxtofl@val+1
  1949  0DA9  0838               	movf	??_UNIDAD^(0+128),w
  1950  0DAA  00F0               	movwf	___xxtofl@val
  1951  0DAB  3001               	movlw	1
  1952  0DAC  120A  158A  23C8  120A  158A  	fcall	___xxtofl
  1953  0DB1  0873               	movf	?___xxtofl+3,w
  1954  0DB2  1283               	bcf	3,5	;RP0=0, select bank0
  1955  0DB3  1303               	bcf	3,6	;RP1=0, select bank0
  1956  0DB4  00A7               	movwf	___flmul@a+3
  1957  0DB5  0872               	movf	?___xxtofl+2,w
  1958  0DB6  00A6               	movwf	___flmul@a+2
  1959  0DB7  0871               	movf	?___xxtofl+1,w
  1960  0DB8  00A5               	movwf	___flmul@a+1
  1961  0DB9  0870               	movf	?___xxtofl,w
  1962  0DBA  00A4               	movwf	___flmul@a
  1963  0DBB  303F               	movlw	63
  1964  0DBC  00A3               	movwf	___flmul@b+3
  1965  0DBD  30FA               	movlw	250
  1966  0DBE  00A2               	movwf	___flmul@b+2
  1967  0DBF  30F8               	movlw	248
  1968  0DC0  00A1               	movwf	___flmul@b+1
  1969  0DC1  3038               	movlw	56
  1970  0DC2  00A0               	movwf	___flmul@b
  1971  0DC3  120A  118A  2493  120A  158A  	fcall	___flmul
  1972  0DC8  1283               	bcf	3,5	;RP0=0, select bank0
  1973  0DC9  1303               	bcf	3,6	;RP1=0, select bank0
  1974  0DCA  0823               	movf	?___flmul+3,w
  1975  0DCB  1683               	bsf	3,5	;RP0=1, select bank1
  1976  0DCC  1303               	bcf	3,6	;RP1=0, select bank1
  1977  0DCD  00A7               	movwf	(___flsub@b+3)^(0+128)
  1978  0DCE  1283               	bcf	3,5	;RP0=0, select bank0
  1979  0DCF  1303               	bcf	3,6	;RP1=0, select bank0
  1980  0DD0  0822               	movf	?___flmul+2,w
  1981  0DD1  1683               	bsf	3,5	;RP0=1, select bank1
  1982  0DD2  1303               	bcf	3,6	;RP1=0, select bank1
  1983  0DD3  00A6               	movwf	(___flsub@b+2)^(0+128)
  1984  0DD4  1283               	bcf	3,5	;RP0=0, select bank0
  1985  0DD5  1303               	bcf	3,6	;RP1=0, select bank0
  1986  0DD6  0821               	movf	?___flmul+1,w
  1987  0DD7  1683               	bsf	3,5	;RP0=1, select bank1
  1988  0DD8  1303               	bcf	3,6	;RP1=0, select bank1
  1989  0DD9  00A5               	movwf	(___flsub@b+1)^(0+128)
  1990  0DDA  1283               	bcf	3,5	;RP0=0, select bank0
  1991  0DDB  1303               	bcf	3,6	;RP1=0, select bank0
  1992  0DDC  0820               	movf	?___flmul,w
  1993  0DDD  1683               	bsf	3,5	;RP0=1, select bank1
  1994  0DDE  1303               	bcf	3,6	;RP1=0, select bank1
  1995  0DDF  00A4               	movwf	___flsub@b^(0+128)
  1996  0DE0  083F               	movf	(_UNIDAD$945+3)^(0+128),w
  1997  0DE1  00F3               	movwf	___xxtofl@val+3
  1998  0DE2  083E               	movf	(_UNIDAD$945+2)^(0+128),w
  1999  0DE3  00F2               	movwf	___xxtofl@val+2
  2000  0DE4  083D               	movf	(_UNIDAD$945+1)^(0+128),w
  2001  0DE5  00F1               	movwf	___xxtofl@val+1
  2002  0DE6  083C               	movf	_UNIDAD$945^(0+128),w
  2003  0DE7  00F0               	movwf	___xxtofl@val
  2004  0DE8  3001               	movlw	1
  2005  0DE9  120A  158A  23C8  120A  158A  	fcall	___xxtofl
  2006  0DEE  0873               	movf	?___xxtofl+3,w
  2007  0DEF  1683               	bsf	3,5	;RP0=1, select bank1
  2008  0DF0  1303               	bcf	3,6	;RP1=0, select bank1
  2009  0DF1  00A3               	movwf	(___flsub@a+3)^(0+128)
  2010  0DF2  0872               	movf	?___xxtofl+2,w
  2011  0DF3  00A2               	movwf	(___flsub@a+2)^(0+128)
  2012  0DF4  0871               	movf	?___xxtofl+1,w
  2013  0DF5  00A1               	movwf	(___flsub@a+1)^(0+128)
  2014  0DF6  0870               	movf	?___xxtofl,w
  2015  0DF7  00A0               	movwf	___flsub@a^(0+128)
  2016  0DF8  120A  158A  2181  120A  158A  	fcall	___flsub
  2017  0DFD  1683               	bsf	3,5	;RP0=1, select bank1
  2018  0DFE  1303               	bcf	3,6	;RP1=0, select bank1
  2019  0DFF  0823               	movf	(?___flsub+3)^(0+128),w
  2020  0E00  00C3               	movwf	(_UNIDAD$947+3)^(0+128)
  2021  0E01  0822               	movf	(?___flsub+2)^(0+128),w
  2022  0E02  00C2               	movwf	(_UNIDAD$947+2)^(0+128)
  2023  0E03  0821               	movf	(?___flsub+1)^(0+128),w
  2024  0E04  00C1               	movwf	(_UNIDAD$947+1)^(0+128)
  2025  0E05  0820               	movf	?___flsub^(0+128),w
  2026  0E06  00C0               	movwf	_UNIDAD$947^(0+128)
  2027                           
  2028                           ;LCD.c: 23:     c = (uint8_t)((c*1.9607) - CENTENA(c)*100 - DECENA(c)*10);
  2029  0E07  0843               	movf	(_UNIDAD$947+3)^(0+128),w
  2030  0E08  00A7               	movwf	(___flsub@b+3)^(0+128)
  2031  0E09  0842               	movf	(_UNIDAD$947+2)^(0+128),w
  2032  0E0A  00A6               	movwf	(___flsub@b+2)^(0+128)
  2033  0E0B  0841               	movf	(_UNIDAD$947+1)^(0+128),w
  2034  0E0C  00A5               	movwf	(___flsub@b+1)^(0+128)
  2035  0E0D  0840               	movf	_UNIDAD$947^(0+128),w
  2036  0E0E  00A4               	movwf	___flsub@b^(0+128)
  2037  0E0F  300A               	movlw	10
  2038  0E10  1283               	bcf	3,5	;RP0=0, select bank0
  2039  0E11  1303               	bcf	3,6	;RP1=0, select bank0
  2040  0E12  00E7               	movwf	___wmul@multiplicand
  2041  0E13  3000               	movlw	0
  2042  0E14  00E8               	movwf	___wmul@multiplicand+1
  2043  0E15  1683               	bsf	3,5	;RP0=1, select bank1
  2044  0E16  1303               	bcf	3,6	;RP1=0, select bank1
  2045  0E17  0845               	movf	(_UNIDAD$946+1)^(0+128),w
  2046  0E18  1283               	bcf	3,5	;RP0=0, select bank0
  2047  0E19  1303               	bcf	3,6	;RP1=0, select bank0
  2048  0E1A  00E6               	movwf	___wmul@multiplier+1
  2049  0E1B  1683               	bsf	3,5	;RP0=1, select bank1
  2050  0E1C  1303               	bcf	3,6	;RP1=0, select bank1
  2051  0E1D  0844               	movf	_UNIDAD$946^(0+128),w
  2052  0E1E  1283               	bcf	3,5	;RP0=0, select bank0
  2053  0E1F  1303               	bcf	3,6	;RP1=0, select bank0
  2054  0E20  00E5               	movwf	___wmul@multiplier
  2055  0E21  120A  158A  21F1  120A  158A  	fcall	___wmul
  2056  0E26  1283               	bcf	3,5	;RP0=0, select bank0
  2057  0E27  1303               	bcf	3,6	;RP1=0, select bank0
  2058  0E28  0865               	movf	?___wmul,w
  2059  0E29  00F0               	movwf	___xxtofl@val
  2060  0E2A  0866               	movf	?___wmul+1,w
  2061  0E2B  00F1               	movwf	___xxtofl@val+1
  2062  0E2C  3000               	movlw	0
  2063  0E2D  1BF1               	btfsc	___xxtofl@val+1,7
  2064  0E2E  30FF               	movlw	255
  2065  0E2F  00F2               	movwf	___xxtofl@val+2
  2066  0E30  00F3               	movwf	___xxtofl@val+3
  2067  0E31  3001               	movlw	1
  2068  0E32  120A  158A  23C8  120A  158A  	fcall	___xxtofl
  2069  0E37  0873               	movf	?___xxtofl+3,w
  2070  0E38  1683               	bsf	3,5	;RP0=1, select bank1
  2071  0E39  1303               	bcf	3,6	;RP1=0, select bank1
  2072  0E3A  00A3               	movwf	(___flsub@a+3)^(0+128)
  2073  0E3B  0872               	movf	?___xxtofl+2,w
  2074  0E3C  00A2               	movwf	(___flsub@a+2)^(0+128)
  2075  0E3D  0871               	movf	?___xxtofl+1,w
  2076  0E3E  00A1               	movwf	(___flsub@a+1)^(0+128)
  2077  0E3F  0870               	movf	?___xxtofl,w
  2078  0E40  00A0               	movwf	___flsub@a^(0+128)
  2079  0E41  120A  158A  2181  120A  158A  	fcall	___flsub
  2080  0E46  1683               	bsf	3,5	;RP0=1, select bank1
  2081  0E47  1303               	bcf	3,6	;RP1=0, select bank1
  2082  0E48  0823               	movf	(?___flsub+3)^(0+128),w
  2083  0E49  1283               	bcf	3,5	;RP0=0, select bank0
  2084  0E4A  1303               	bcf	3,6	;RP1=0, select bank0
  2085  0E4B  00D7               	movwf	___fltol@f1+3
  2086  0E4C  1683               	bsf	3,5	;RP0=1, select bank1
  2087  0E4D  1303               	bcf	3,6	;RP1=0, select bank1
  2088  0E4E  0822               	movf	(?___flsub+2)^(0+128),w
  2089  0E4F  1283               	bcf	3,5	;RP0=0, select bank0
  2090  0E50  1303               	bcf	3,6	;RP1=0, select bank0
  2091  0E51  00D6               	movwf	___fltol@f1+2
  2092  0E52  1683               	bsf	3,5	;RP0=1, select bank1
  2093  0E53  1303               	bcf	3,6	;RP1=0, select bank1
  2094  0E54  0821               	movf	(?___flsub+1)^(0+128),w
  2095  0E55  1283               	bcf	3,5	;RP0=0, select bank0
  2096  0E56  1303               	bcf	3,6	;RP1=0, select bank0
  2097  0E57  00D5               	movwf	___fltol@f1+1
  2098  0E58  1683               	bsf	3,5	;RP0=1, select bank1
  2099  0E59  1303               	bcf	3,6	;RP1=0, select bank1
  2100  0E5A  0820               	movf	?___flsub^(0+128),w
  2101  0E5B  1283               	bcf	3,5	;RP0=0, select bank0
  2102  0E5C  1303               	bcf	3,6	;RP1=0, select bank0
  2103  0E5D  00D4               	movwf	___fltol@f1
  2104  0E5E  120A  158A  22C1  120A  158A  	fcall	___fltol
  2105  0E63  1283               	bcf	3,5	;RP0=0, select bank0
  2106  0E64  1303               	bcf	3,6	;RP1=0, select bank0
  2107  0E65  0854               	movf	?___fltol,w
  2108  0E66  1683               	bsf	3,5	;RP0=1, select bank1
  2109  0E67  1303               	bcf	3,6	;RP1=0, select bank1
  2110  0E68  00B8               	movwf	??_UNIDAD^(0+128)
  2111  0E69  0838               	movf	??_UNIDAD^(0+128),w
  2112  0E6A  00C6               	movwf	UNIDAD@c^(0+128)
  2113  0E6B                     l2288:
  2114                           
  2115                           ;LCD.c: 24:     return c;
  2116  0E6B  0846               	movf	UNIDAD@c^(0+128),w
  2117  0E6C                     l82:
  2118  0E6C  0008               	return
  2119  0E6D                     __end_of_UNIDAD:
  2120                           
  2121                           	psect	text8
  2122  0C82                     __ptext8:	
  2123 ;; *************** function _DECENA *****************
  2124 ;; Defined at:
  2125 ;;		line 17 in file "LCD.c"
  2126 ;; Parameters:    Size  Location     Type
  2127 ;;  c               1    wreg     unsigned char 
  2128 ;; Auto vars:     Size  Location     Type
  2129 ;;  c               1   23[BANK1 ] unsigned char 
  2130 ;; Return value:  Size  Location     Type
  2131 ;;                  1    wreg      unsigned char 
  2132 ;; Registers used:
  2133 ;;		wreg, status,2, status,0, btemp+1, pclath, cstack
  2134 ;; Tracked objects:
  2135 ;;		On entry : 0/0
  2136 ;;		On exit  : 0/0
  2137 ;;		Unchanged: 0/0
  2138 ;; Data sizes:     COMMON   BANK0   BANK1   BANK3   BANK2
  2139 ;;      Params:         0       0       0       0       0
  2140 ;;      Locals:         0       0       5       0       0
  2141 ;;      Temps:          0       0       7       0       0
  2142 ;;      Totals:         0       0      12       0       0
  2143 ;;Total ram usage:       12 bytes
  2144 ;; Hardware stack levels used: 1
  2145 ;; Hardware stack levels required when called: 3
  2146 ;; This function calls:
  2147 ;;		_CENTENA
  2148 ;;		___awdiv
  2149 ;;		___flmul
  2150 ;;		___flsub
  2151 ;;		___fltol
  2152 ;;		___wmul
  2153 ;;		___xxtofl
  2154 ;; This function is called by:
  2155 ;;		_main
  2156 ;;		_UNIDAD
  2157 ;; This function uses a non-reentrant model
  2158 ;;
  2159                           
  2160  0C82                     _DECENA:	
  2161                           ;psect for function _DECENA
  2162                           
  2163                           
  2164                           ;incstack = 0
  2165                           ; Regs used in _DECENA: [wreg+status,2+status,0+btemp+1+pclath+cstack]
  2166                           ;DECENA@c stored from wreg
  2167  0C82  1683               	bsf	3,5	;RP0=1, select bank1
  2168  0C83  1303               	bcf	3,6	;RP1=0, select bank1
  2169  0C84  00B7               	movwf	DECENA@c^(0+128)
  2170  0C85                     l2224:
  2171                           
  2172                           ;LCD.c: 18:     c = (uint8_t)((c*1.9607) - CENTENA(c)*100)/10;
  2173  0C85  3064               	movlw	100
  2174  0C86  1283               	bcf	3,5	;RP0=0, select bank0
  2175  0C87  1303               	bcf	3,6	;RP1=0, select bank0
  2176  0C88  00E7               	movwf	___wmul@multiplicand
  2177  0C89  3000               	movlw	0
  2178  0C8A  00E8               	movwf	___wmul@multiplicand+1
  2179  0C8B  1683               	bsf	3,5	;RP0=1, select bank1
  2180  0C8C  1303               	bcf	3,6	;RP1=0, select bank1
  2181  0C8D  0837               	movf	DECENA@c^(0+128),w
  2182  0C8E  120A  158A  2266  120A  158A  	fcall	_CENTENA
  2183  0C93  1683               	bsf	3,5	;RP0=1, select bank1
  2184  0C94  1303               	bcf	3,6	;RP1=0, select bank1
  2185  0C95  00AC               	movwf	??_DECENA^(0+128)
  2186  0C96  01AD               	clrf	(??_DECENA^(0+128)+1)
  2187  0C97  082C               	movf	??_DECENA^(0+128),w
  2188  0C98  1283               	bcf	3,5	;RP0=0, select bank0
  2189  0C99  1303               	bcf	3,6	;RP1=0, select bank0
  2190  0C9A  00E5               	movwf	___wmul@multiplier
  2191  0C9B  1683               	bsf	3,5	;RP0=1, select bank1
  2192  0C9C  1303               	bcf	3,6	;RP1=0, select bank1
  2193  0C9D  082D               	movf	(??_DECENA+1)^(0+128),w
  2194  0C9E  1283               	bcf	3,5	;RP0=0, select bank0
  2195  0C9F  1303               	bcf	3,6	;RP1=0, select bank0
  2196  0CA0  00E6               	movwf	___wmul@multiplier+1
  2197  0CA1  120A  158A  21F1  120A  158A  	fcall	___wmul
  2198  0CA6  1283               	bcf	3,5	;RP0=0, select bank0
  2199  0CA7  1303               	bcf	3,6	;RP1=0, select bank0
  2200  0CA8  0865               	movf	?___wmul,w
  2201  0CA9  1683               	bsf	3,5	;RP0=1, select bank1
  2202  0CAA  1303               	bcf	3,6	;RP1=0, select bank1
  2203  0CAB  00B3               	movwf	_DECENA$944^(0+128)
  2204  0CAC  1283               	bcf	3,5	;RP0=0, select bank0
  2205  0CAD  1303               	bcf	3,6	;RP1=0, select bank0
  2206  0CAE  0866               	movf	?___wmul+1,w
  2207  0CAF  1683               	bsf	3,5	;RP0=1, select bank1
  2208  0CB0  1303               	bcf	3,6	;RP1=0, select bank1
  2209  0CB1  00B4               	movwf	(_DECENA$944+1)^(0+128)
  2210  0CB2  3000               	movlw	0
  2211  0CB3  1BB4               	btfsc	(_DECENA$944+1)^(0+128),7
  2212  0CB4  30FF               	movlw	255
  2213  0CB5  00B5               	movwf	(_DECENA$944+2)^(0+128)
  2214  0CB6  00B6               	movwf	(_DECENA$944+3)^(0+128)
  2215                           
  2216                           ;LCD.c: 18:     c = (uint8_t)((c*1.9607) - CENTENA(c)*100)/10;
  2217  0CB7  300A               	movlw	10
  2218  0CB8  1283               	bcf	3,5	;RP0=0, select bank0
  2219  0CB9  1303               	bcf	3,6	;RP1=0, select bank0
  2220  0CBA  00EB               	movwf	___awdiv@divisor
  2221  0CBB  3000               	movlw	0
  2222  0CBC  00EC               	movwf	___awdiv@divisor+1
  2223  0CBD  1683               	bsf	3,5	;RP0=1, select bank1
  2224  0CBE  1303               	bcf	3,6	;RP1=0, select bank1
  2225  0CBF  0837               	movf	DECENA@c^(0+128),w
  2226  0CC0  00AC               	movwf	??_DECENA^(0+128)
  2227  0CC1  01AD               	clrf	(??_DECENA^(0+128)+1)
  2228  0CC2  01AE               	clrf	(??_DECENA^(0+128)+2)
  2229  0CC3  01AF               	clrf	(??_DECENA^(0+128)+3)
  2230  0CC4  082F               	movf	(??_DECENA+3)^(0+128),w
  2231  0CC5  00F3               	movwf	___xxtofl@val+3
  2232  0CC6  082E               	movf	(??_DECENA+2)^(0+128),w
  2233  0CC7  00F2               	movwf	___xxtofl@val+2
  2234  0CC8  082D               	movf	(??_DECENA+1)^(0+128),w
  2235  0CC9  00F1               	movwf	___xxtofl@val+1
  2236  0CCA  082C               	movf	??_DECENA^(0+128),w
  2237  0CCB  00F0               	movwf	___xxtofl@val
  2238  0CCC  3001               	movlw	1
  2239  0CCD  120A  158A  23C8  120A  158A  	fcall	___xxtofl
  2240  0CD2  0873               	movf	?___xxtofl+3,w
  2241  0CD3  1283               	bcf	3,5	;RP0=0, select bank0
  2242  0CD4  1303               	bcf	3,6	;RP1=0, select bank0
  2243  0CD5  00A7               	movwf	___flmul@a+3
  2244  0CD6  0872               	movf	?___xxtofl+2,w
  2245  0CD7  00A6               	movwf	___flmul@a+2
  2246  0CD8  0871               	movf	?___xxtofl+1,w
  2247  0CD9  00A5               	movwf	___flmul@a+1
  2248  0CDA  0870               	movf	?___xxtofl,w
  2249  0CDB  00A4               	movwf	___flmul@a
  2250  0CDC  303F               	movlw	63
  2251  0CDD  00A3               	movwf	___flmul@b+3
  2252  0CDE  30FA               	movlw	250
  2253  0CDF  00A2               	movwf	___flmul@b+2
  2254  0CE0  30F8               	movlw	248
  2255  0CE1  00A1               	movwf	___flmul@b+1
  2256  0CE2  3038               	movlw	56
  2257  0CE3  00A0               	movwf	___flmul@b
  2258  0CE4  120A  118A  2493  120A  158A  	fcall	___flmul
  2259  0CE9  1283               	bcf	3,5	;RP0=0, select bank0
  2260  0CEA  1303               	bcf	3,6	;RP1=0, select bank0
  2261  0CEB  0823               	movf	?___flmul+3,w
  2262  0CEC  1683               	bsf	3,5	;RP0=1, select bank1
  2263  0CED  1303               	bcf	3,6	;RP1=0, select bank1
  2264  0CEE  00A7               	movwf	(___flsub@b+3)^(0+128)
  2265  0CEF  1283               	bcf	3,5	;RP0=0, select bank0
  2266  0CF0  1303               	bcf	3,6	;RP1=0, select bank0
  2267  0CF1  0822               	movf	?___flmul+2,w
  2268  0CF2  1683               	bsf	3,5	;RP0=1, select bank1
  2269  0CF3  1303               	bcf	3,6	;RP1=0, select bank1
  2270  0CF4  00A6               	movwf	(___flsub@b+2)^(0+128)
  2271  0CF5  1283               	bcf	3,5	;RP0=0, select bank0
  2272  0CF6  1303               	bcf	3,6	;RP1=0, select bank0
  2273  0CF7  0821               	movf	?___flmul+1,w
  2274  0CF8  1683               	bsf	3,5	;RP0=1, select bank1
  2275  0CF9  1303               	bcf	3,6	;RP1=0, select bank1
  2276  0CFA  00A5               	movwf	(___flsub@b+1)^(0+128)
  2277  0CFB  1283               	bcf	3,5	;RP0=0, select bank0
  2278  0CFC  1303               	bcf	3,6	;RP1=0, select bank0
  2279  0CFD  0820               	movf	?___flmul,w
  2280  0CFE  1683               	bsf	3,5	;RP0=1, select bank1
  2281  0CFF  1303               	bcf	3,6	;RP1=0, select bank1
  2282  0D00  00A4               	movwf	___flsub@b^(0+128)
  2283  0D01  0836               	movf	(_DECENA$944+3)^(0+128),w
  2284  0D02  00F3               	movwf	___xxtofl@val+3
  2285  0D03  0835               	movf	(_DECENA$944+2)^(0+128),w
  2286  0D04  00F2               	movwf	___xxtofl@val+2
  2287  0D05  0834               	movf	(_DECENA$944+1)^(0+128),w
  2288  0D06  00F1               	movwf	___xxtofl@val+1
  2289  0D07  0833               	movf	_DECENA$944^(0+128),w
  2290  0D08  00F0               	movwf	___xxtofl@val
  2291  0D09  3001               	movlw	1
  2292  0D0A  120A  158A  23C8  120A  158A  	fcall	___xxtofl
  2293  0D0F  0873               	movf	?___xxtofl+3,w
  2294  0D10  1683               	bsf	3,5	;RP0=1, select bank1
  2295  0D11  1303               	bcf	3,6	;RP1=0, select bank1
  2296  0D12  00A3               	movwf	(___flsub@a+3)^(0+128)
  2297  0D13  0872               	movf	?___xxtofl+2,w
  2298  0D14  00A2               	movwf	(___flsub@a+2)^(0+128)
  2299  0D15  0871               	movf	?___xxtofl+1,w
  2300  0D16  00A1               	movwf	(___flsub@a+1)^(0+128)
  2301  0D17  0870               	movf	?___xxtofl,w
  2302  0D18  00A0               	movwf	___flsub@a^(0+128)
  2303  0D19  120A  158A  2181  120A  158A  	fcall	___flsub
  2304  0D1E  1683               	bsf	3,5	;RP0=1, select bank1
  2305  0D1F  1303               	bcf	3,6	;RP1=0, select bank1
  2306  0D20  0823               	movf	(?___flsub+3)^(0+128),w
  2307  0D21  1283               	bcf	3,5	;RP0=0, select bank0
  2308  0D22  1303               	bcf	3,6	;RP1=0, select bank0
  2309  0D23  00D7               	movwf	___fltol@f1+3
  2310  0D24  1683               	bsf	3,5	;RP0=1, select bank1
  2311  0D25  1303               	bcf	3,6	;RP1=0, select bank1
  2312  0D26  0822               	movf	(?___flsub+2)^(0+128),w
  2313  0D27  1283               	bcf	3,5	;RP0=0, select bank0
  2314  0D28  1303               	bcf	3,6	;RP1=0, select bank0
  2315  0D29  00D6               	movwf	___fltol@f1+2
  2316  0D2A  1683               	bsf	3,5	;RP0=1, select bank1
  2317  0D2B  1303               	bcf	3,6	;RP1=0, select bank1
  2318  0D2C  0821               	movf	(?___flsub+1)^(0+128),w
  2319  0D2D  1283               	bcf	3,5	;RP0=0, select bank0
  2320  0D2E  1303               	bcf	3,6	;RP1=0, select bank0
  2321  0D2F  00D5               	movwf	___fltol@f1+1
  2322  0D30  1683               	bsf	3,5	;RP0=1, select bank1
  2323  0D31  1303               	bcf	3,6	;RP1=0, select bank1
  2324  0D32  0820               	movf	?___flsub^(0+128),w
  2325  0D33  1283               	bcf	3,5	;RP0=0, select bank0
  2326  0D34  1303               	bcf	3,6	;RP1=0, select bank0
  2327  0D35  00D4               	movwf	___fltol@f1
  2328  0D36  120A  158A  22C1  120A  158A  	fcall	___fltol
  2329  0D3B  1283               	bcf	3,5	;RP0=0, select bank0
  2330  0D3C  1303               	bcf	3,6	;RP1=0, select bank0
  2331  0D3D  0854               	movf	?___fltol,w
  2332  0D3E  1683               	bsf	3,5	;RP0=1, select bank1
  2333  0D3F  1303               	bcf	3,6	;RP1=0, select bank1
  2334  0D40  00B0               	movwf	(??_DECENA+4)^(0+128)
  2335  0D41  01B1               	clrf	((??_DECENA+4)^(0+128)+1)
  2336  0D42  0830               	movf	(??_DECENA+4)^(0+128),w
  2337  0D43  1283               	bcf	3,5	;RP0=0, select bank0
  2338  0D44  1303               	bcf	3,6	;RP1=0, select bank0
  2339  0D45  00ED               	movwf	___awdiv@dividend
  2340  0D46  1683               	bsf	3,5	;RP0=1, select bank1
  2341  0D47  1303               	bcf	3,6	;RP1=0, select bank1
  2342  0D48  0831               	movf	(??_DECENA+5)^(0+128),w
  2343  0D49  1283               	bcf	3,5	;RP0=0, select bank0
  2344  0D4A  1303               	bcf	3,6	;RP1=0, select bank0
  2345  0D4B  00EE               	movwf	___awdiv@dividend+1
  2346  0D4C  120A  158A  233D  120A  158A  	fcall	___awdiv
  2347  0D51  1283               	bcf	3,5	;RP0=0, select bank0
  2348  0D52  1303               	bcf	3,6	;RP1=0, select bank0
  2349  0D53  086B               	movf	?___awdiv,w
  2350  0D54  1683               	bsf	3,5	;RP0=1, select bank1
  2351  0D55  1303               	bcf	3,6	;RP1=0, select bank1
  2352  0D56  00B2               	movwf	(??_DECENA+6)^(0+128)
  2353  0D57  0832               	movf	(??_DECENA+6)^(0+128),w
  2354  0D58  00B7               	movwf	DECENA@c^(0+128)
  2355  0D59                     l2226:
  2356                           
  2357                           ;LCD.c: 19:     return c;
  2358  0D59  0837               	movf	DECENA@c^(0+128),w
  2359  0D5A                     l79:
  2360  0D5A  0008               	return
  2361  0D5B                     __end_of_DECENA:
  2362                           
  2363                           	psect	text9
  2364  09F1                     __ptext9:	
  2365 ;; *************** function ___wmul *****************
  2366 ;; Defined at:
  2367 ;;		line 15 in file "C:\Program Files\Microchip\xc8\v2.35\pic\sources\c90\common\Umul16.c"
  2368 ;; Parameters:    Size  Location     Type
  2369 ;;  multiplier      2   69[BANK0 ] unsigned int 
  2370 ;;  multiplicand    2   71[BANK0 ] unsigned int 
  2371 ;; Auto vars:     Size  Location     Type
  2372 ;;  product         2   73[BANK0 ] unsigned int 
  2373 ;; Return value:  Size  Location     Type
  2374 ;;                  2   69[BANK0 ] unsigned int 
  2375 ;; Registers used:
  2376 ;;		wreg, status,2, status,0
  2377 ;; Tracked objects:
  2378 ;;		On entry : 0/0
  2379 ;;		On exit  : 0/0
  2380 ;;		Unchanged: 0/0
  2381 ;; Data sizes:     COMMON   BANK0   BANK1   BANK3   BANK2
  2382 ;;      Params:         0       4       0       0       0
  2383 ;;      Locals:         0       2       0       0       0
  2384 ;;      Temps:          0       0       0       0       0
  2385 ;;      Totals:         0       6       0       0       0
  2386 ;;Total ram usage:        6 bytes
  2387 ;; Hardware stack levels used: 1
  2388 ;; This function calls:
  2389 ;;		Nothing
  2390 ;; This function is called by:
  2391 ;;		_DECENA
  2392 ;;		_UNIDAD
  2393 ;; This function uses a non-reentrant model
  2394 ;;
  2395                           
  2396  09F1                     ___wmul:	
  2397                           ;psect for function ___wmul
  2398                           
  2399  09F1                     l2160:	
  2400                           ;incstack = 0
  2401                           ; Regs used in ___wmul: [wreg+status,2+status,0]
  2402                           
  2403  09F1  1283               	bcf	3,5	;RP0=0, select bank0
  2404  09F2  1303               	bcf	3,6	;RP1=0, select bank0
  2405  09F3  01E9               	clrf	___wmul@product
  2406  09F4  01EA               	clrf	___wmul@product+1
  2407  09F5                     l2162:
  2408  09F5  1C65               	btfss	___wmul@multiplier,0
  2409  09F6  29F8               	goto	u2981
  2410  09F7  29F9               	goto	u2980
  2411  09F8                     u2981:
  2412  09F8  29FF               	goto	l224
  2413  09F9                     u2980:
  2414  09F9                     l2164:
  2415  09F9  0867               	movf	___wmul@multiplicand,w
  2416  09FA  07E9               	addwf	___wmul@product,f
  2417  09FB  1803               	skipnc
  2418  09FC  0AEA               	incf	___wmul@product+1,f
  2419  09FD  0868               	movf	___wmul@multiplicand+1,w
  2420  09FE  07EA               	addwf	___wmul@product+1,f
  2421  09FF                     l224:
  2422  09FF  3001               	movlw	1
  2423  0A00                     u2995:
  2424  0A00  1003               	clrc
  2425  0A01  0DE7               	rlf	___wmul@multiplicand,f
  2426  0A02  0DE8               	rlf	___wmul@multiplicand+1,f
  2427  0A03  3EFF               	addlw	-1
  2428  0A04  1D03               	skipz
  2429  0A05  2A00               	goto	u2995
  2430  0A06                     l2166:
  2431  0A06  3001               	movlw	1
  2432  0A07                     u3005:
  2433  0A07  1003               	clrc
  2434  0A08  0CE6               	rrf	___wmul@multiplier+1,f
  2435  0A09  0CE5               	rrf	___wmul@multiplier,f
  2436  0A0A  3EFF               	addlw	-1
  2437  0A0B  1D03               	skipz
  2438  0A0C  2A07               	goto	u3005
  2439  0A0D                     l2168:
  2440  0A0D  0865               	movf	___wmul@multiplier,w
  2441  0A0E  0466               	iorwf	___wmul@multiplier+1,w
  2442  0A0F  1D03               	btfss	3,2
  2443  0A10  2A12               	goto	u3011
  2444  0A11  2A13               	goto	u3010
  2445  0A12                     u3011:
  2446  0A12  29F5               	goto	l2162
  2447  0A13                     u3010:
  2448  0A13                     l2170:
  2449  0A13  086A               	movf	___wmul@product+1,w
  2450  0A14  00E6               	movwf	?___wmul+1
  2451  0A15  0869               	movf	___wmul@product,w
  2452  0A16  00E5               	movwf	?___wmul
  2453  0A17                     l226:
  2454  0A17  0008               	return
  2455  0A18                     __end_of___wmul:
  2456                           
  2457                           	psect	text10
  2458  0981                     __ptext10:	
  2459 ;; *************** function ___flsub *****************
  2460 ;; Defined at:
  2461 ;;		line 242 in file "C:\Program Files\Microchip\xc8\v2.35\pic\sources\c90\common\sprcadd.c"
  2462 ;; Parameters:    Size  Location     Type
  2463 ;;  a               4    0[BANK1 ] unsigned int 
  2464 ;;  b               4    4[BANK1 ] unsigned int 
  2465 ;; Auto vars:     Size  Location     Type
  2466 ;;		None
  2467 ;; Return value:  Size  Location     Type
  2468 ;;                  4    0[BANK1 ] unsigned int 
  2469 ;; Registers used:
  2470 ;;		wreg, status,2, status,0, btemp+1, pclath, cstack
  2471 ;; Tracked objects:
  2472 ;;		On entry : 0/0
  2473 ;;		On exit  : 0/0
  2474 ;;		Unchanged: 0/0
  2475 ;; Data sizes:     COMMON   BANK0   BANK1   BANK3   BANK2
  2476 ;;      Params:         0       0       8       0       0
  2477 ;;      Locals:         0       0       0       0       0
  2478 ;;      Temps:          0       0       0       0       0
  2479 ;;      Totals:         0       0       8       0       0
  2480 ;;Total ram usage:        8 bytes
  2481 ;; Hardware stack levels used: 1
  2482 ;; Hardware stack levels required when called: 1
  2483 ;; This function calls:
  2484 ;;		___fladd
  2485 ;; This function is called by:
  2486 ;;		_DECENA
  2487 ;;		_UNIDAD
  2488 ;; This function uses a non-reentrant model
  2489 ;;
  2490                           
  2491  0981                     ___flsub:	
  2492                           ;psect for function ___flsub
  2493                           
  2494  0981                     l2218:	
  2495                           ;incstack = 0
  2496                           ; Regs used in ___flsub: [wreg+status,2+status,0+btemp+1+pclath+cstack]
  2497                           
  2498  0981  3080               	movlw	128
  2499  0982  1683               	bsf	3,5	;RP0=1, select bank1
  2500  0983  1303               	bcf	3,6	;RP1=0, select bank1
  2501  0984  06A3               	xorwf	(___flsub@a+3)^(0+128),f
  2502  0985                     l2220:
  2503  0985  0827               	movf	(___flsub@b+3)^(0+128),w
  2504  0986  00F3               	movwf	___fladd@b+3
  2505  0987  0826               	movf	(___flsub@b+2)^(0+128),w
  2506  0988  00F2               	movwf	___fladd@b+2
  2507  0989  0825               	movf	(___flsub@b+1)^(0+128),w
  2508  098A  00F1               	movwf	___fladd@b+1
  2509  098B  0824               	movf	___flsub@b^(0+128),w
  2510  098C  00F0               	movwf	___fladd@b
  2511  098D  0823               	movf	(___flsub@a+3)^(0+128),w
  2512  098E  00F7               	movwf	___fladd@a+3
  2513  098F  0822               	movf	(___flsub@a+2)^(0+128),w
  2514  0990  00F6               	movwf	___fladd@a+2
  2515  0991  0821               	movf	(___flsub@a+1)^(0+128),w
  2516  0992  00F5               	movwf	___fladd@a+1
  2517  0993  0820               	movf	___flsub@a^(0+128),w
  2518  0994  00F4               	movwf	___fladd@a
  2519  0995  120A  118A  21FB  120A  158A  	fcall	___fladd
  2520  099A  0873               	movf	?___fladd+3,w
  2521  099B  1683               	bsf	3,5	;RP0=1, select bank1
  2522  099C  1303               	bcf	3,6	;RP1=0, select bank1
  2523  099D  00A3               	movwf	(?___flsub+3)^(0+128)
  2524  099E  0872               	movf	?___fladd+2,w
  2525  099F  00A2               	movwf	(?___flsub+2)^(0+128)
  2526  09A0  0871               	movf	?___fladd+1,w
  2527  09A1  00A1               	movwf	(?___flsub+1)^(0+128)
  2528  09A2  0870               	movf	?___fladd,w
  2529  09A3  00A0               	movwf	?___flsub^(0+128)
  2530  09A4                     l563:
  2531  09A4  0008               	return
  2532  09A5                     __end_of___flsub:
  2533                           
  2534                           	psect	text11
  2535  01FB                     __ptext11:	
  2536 ;; *************** function ___fladd *****************
  2537 ;; Defined at:
  2538 ;;		line 10 in file "C:\Program Files\Microchip\xc8\v2.35\pic\sources\c90\common\sprcadd.c"
  2539 ;; Parameters:    Size  Location     Type
  2540 ;;  b               4    0[COMMON] unsigned int 
  2541 ;;  a               4    4[COMMON] unsigned int 
  2542 ;; Auto vars:     Size  Location     Type
  2543 ;;  grs             1   11[COMMON] unsigned char 
  2544 ;;  bexp            1   10[COMMON] unsigned char 
  2545 ;;  aexp            1    9[COMMON] unsigned char 
  2546 ;;  signs           1    8[COMMON] unsigned char 
  2547 ;; Return value:  Size  Location     Type
  2548 ;;                  4    0[COMMON] unsigned char 
  2549 ;; Registers used:
  2550 ;;		wreg, status,2, status,0, btemp+1
  2551 ;; Tracked objects:
  2552 ;;		On entry : 0/0
  2553 ;;		On exit  : 0/0
  2554 ;;		Unchanged: 0/0
  2555 ;; Data sizes:     COMMON   BANK0   BANK1   BANK3   BANK2
  2556 ;;      Params:         8       0       0       0       0
  2557 ;;      Locals:         4       0       0       0       0
  2558 ;;      Temps:          0       8       0       0       0
  2559 ;;      Totals:        12       8       0       0       0
  2560 ;;Total ram usage:       20 bytes
  2561 ;; Hardware stack levels used: 1
  2562 ;; This function calls:
  2563 ;;		Nothing
  2564 ;; This function is called by:
  2565 ;;		___flsub
  2566 ;; This function uses a non-reentrant model
  2567 ;;
  2568                           
  2569  01FB                     ___fladd:	
  2570                           ;psect for function ___fladd
  2571                           
  2572  01FB                     l1624:	
  2573                           ;incstack = 0
  2574                           ; Regs used in ___fladd: [wreg+status,2+status,0+btemp+1]
  2575                           
  2576  01FB  0873               	movf	___fladd@b+3,w
  2577  01FC  3980               	andlw	128
  2578  01FD  1283               	bcf	3,5	;RP0=0, select bank0
  2579  01FE  1303               	bcf	3,6	;RP1=0, select bank0
  2580  01FF  00A0               	movwf	??___fladd
  2581  0200  0820               	movf	??___fladd,w
  2582  0201  00F8               	movwf	___fladd@signs
  2583  0202                     l1626:
  2584  0202  0873               	movf	___fladd@b+3,w
  2585  0203  00A0               	movwf	??___fladd
  2586  0204  0720               	addwf	??___fladd,w
  2587  0205  00A1               	movwf	??___fladd+1
  2588  0206  0821               	movf	??___fladd+1,w
  2589  0207  00FA               	movwf	___fladd@bexp
  2590  0208                     l1628:
  2591  0208  1FF2               	btfss	___fladd@b+2,7
  2592  0209  2A0B               	goto	u1721
  2593  020A  2A0C               	goto	u1720
  2594  020B                     u1721:
  2595  020B  2A0D               	goto	l1632
  2596  020C                     u1720:
  2597  020C                     l1630:
  2598  020C  147A               	bsf	___fladd@bexp,0
  2599  020D                     l1632:
  2600  020D  087A               	movf	___fladd@bexp,w
  2601  020E  1903               	btfsc	3,2
  2602  020F  2A11               	goto	u1731
  2603  0210  2A12               	goto	u1730
  2604  0211                     u1731:
  2605  0211  2A22               	goto	l1642
  2606  0212                     u1730:
  2607  0212                     l1634:
  2608  0212  0A7A               	incf	___fladd@bexp,w
  2609  0213  1D03               	btfss	3,2
  2610  0214  2A16               	goto	u1741
  2611  0215  2A17               	goto	u1740
  2612  0216                     u1741:
  2613  0216  2A1F               	goto	l1638
  2614  0217                     u1740:
  2615  0217                     l1636:
  2616  0217  3000               	movlw	0
  2617  0218  00F3               	movwf	___fladd@b+3
  2618  0219  3000               	movlw	0
  2619  021A  00F2               	movwf	___fladd@b+2
  2620  021B  3000               	movlw	0
  2621  021C  00F1               	movwf	___fladd@b+1
  2622  021D  3000               	movlw	0
  2623  021E  00F0               	movwf	___fladd@b
  2624  021F                     l1638:
  2625  021F  17F2               	bsf	___fladd@b+2,7
  2626  0220                     l1640:
  2627  0220  01F3               	clrf	___fladd@b+3
  2628  0221  2A2A               	goto	l1644
  2629  0222                     l1642:
  2630  0222  3000               	movlw	0
  2631  0223  00F3               	movwf	___fladd@b+3
  2632  0224  3000               	movlw	0
  2633  0225  00F2               	movwf	___fladd@b+2
  2634  0226  3000               	movlw	0
  2635  0227  00F1               	movwf	___fladd@b+1
  2636  0228  3000               	movlw	0
  2637  0229  00F0               	movwf	___fladd@b
  2638  022A                     l1644:
  2639  022A  0877               	movf	___fladd@a+3,w
  2640  022B  3980               	andlw	128
  2641  022C  00A0               	movwf	??___fladd
  2642  022D  0820               	movf	??___fladd,w
  2643  022E  00F9               	movwf	___fladd@aexp
  2644  022F                     l1646:
  2645  022F  0879               	movf	___fladd@aexp,w
  2646  0230  0678               	xorwf	___fladd@signs,w
  2647  0231  1903               	skipnz
  2648  0232  2A34               	goto	u1751
  2649  0233  2A35               	goto	u1750
  2650  0234                     u1751:
  2651  0234  2A36               	goto	l1650
  2652  0235                     u1750:
  2653  0235                     l1648:
  2654  0235  1778               	bsf	___fladd@signs,6
  2655  0236                     l1650:
  2656  0236  0877               	movf	___fladd@a+3,w
  2657  0237  00A0               	movwf	??___fladd
  2658  0238  0720               	addwf	??___fladd,w
  2659  0239  00A1               	movwf	??___fladd+1
  2660  023A  0821               	movf	??___fladd+1,w
  2661  023B  00F9               	movwf	___fladd@aexp
  2662  023C                     l1652:
  2663  023C  1FF6               	btfss	___fladd@a+2,7
  2664  023D  2A3F               	goto	u1761
  2665  023E  2A40               	goto	u1760
  2666  023F                     u1761:
  2667  023F  2A41               	goto	l1656
  2668  0240                     u1760:
  2669  0240                     l1654:
  2670  0240  1479               	bsf	___fladd@aexp,0
  2671  0241                     l1656:
  2672  0241  0879               	movf	___fladd@aexp,w
  2673  0242  1903               	btfsc	3,2
  2674  0243  2A45               	goto	u1771
  2675  0244  2A46               	goto	u1770
  2676  0245                     u1771:
  2677  0245  2A56               	goto	l1666
  2678  0246                     u1770:
  2679  0246                     l1658:
  2680  0246  0A79               	incf	___fladd@aexp,w
  2681  0247  1D03               	btfss	3,2
  2682  0248  2A4A               	goto	u1781
  2683  0249  2A4B               	goto	u1780
  2684  024A                     u1781:
  2685  024A  2A53               	goto	l1662
  2686  024B                     u1780:
  2687  024B                     l1660:
  2688  024B  3000               	movlw	0
  2689  024C  00F7               	movwf	___fladd@a+3
  2690  024D  3000               	movlw	0
  2691  024E  00F6               	movwf	___fladd@a+2
  2692  024F  3000               	movlw	0
  2693  0250  00F5               	movwf	___fladd@a+1
  2694  0251  3000               	movlw	0
  2695  0252  00F4               	movwf	___fladd@a
  2696  0253                     l1662:
  2697  0253  17F6               	bsf	___fladd@a+2,7
  2698  0254                     l1664:
  2699  0254  01F7               	clrf	___fladd@a+3
  2700  0255  2A5E               	goto	l517
  2701  0256                     l1666:
  2702  0256  3000               	movlw	0
  2703  0257  00F7               	movwf	___fladd@a+3
  2704  0258  3000               	movlw	0
  2705  0259  00F6               	movwf	___fladd@a+2
  2706  025A  3000               	movlw	0
  2707  025B  00F5               	movwf	___fladd@a+1
  2708  025C  3000               	movlw	0
  2709  025D  00F4               	movwf	___fladd@a
  2710  025E                     l517:
  2711  025E  087A               	movf	___fladd@bexp,w
  2712  025F  0279               	subwf	___fladd@aexp,w
  2713  0260  1803               	skipnc
  2714  0261  2A63               	goto	u1791
  2715  0262  2A64               	goto	u1790
  2716  0263                     u1791:
  2717  0263  2AA8               	goto	l1702
  2718  0264                     u1790:
  2719  0264                     l1668:
  2720  0264  1F78               	btfss	___fladd@signs,6
  2721  0265  2A67               	goto	u1801
  2722  0266  2A68               	goto	u1800
  2723  0267                     u1801:
  2724  0267  2A6C               	goto	l1672
  2725  0268                     u1800:
  2726  0268                     l1670:
  2727  0268  3080               	movlw	128
  2728  0269  00A0               	movwf	??___fladd
  2729  026A  0820               	movf	??___fladd,w
  2730  026B  06F8               	xorwf	___fladd@signs,f
  2731  026C                     l1672:
  2732  026C  087A               	movf	___fladd@bexp,w
  2733  026D  00A0               	movwf	??___fladd
  2734  026E  0820               	movf	??___fladd,w
  2735  026F  00FB               	movwf	___fladd@grs
  2736  0270                     l1674:
  2737  0270  0879               	movf	___fladd@aexp,w
  2738  0271  00A0               	movwf	??___fladd
  2739  0272  0820               	movf	??___fladd,w
  2740  0273  00FA               	movwf	___fladd@bexp
  2741  0274                     l1676:
  2742  0274  087B               	movf	___fladd@grs,w
  2743  0275  00A0               	movwf	??___fladd
  2744  0276  0820               	movf	??___fladd,w
  2745  0277  00F9               	movwf	___fladd@aexp
  2746  0278                     l1678:
  2747  0278  0870               	movf	___fladd@b,w
  2748  0279  00A0               	movwf	??___fladd
  2749  027A  0820               	movf	??___fladd,w
  2750  027B  00FB               	movwf	___fladd@grs
  2751  027C                     l1680:
  2752  027C  0874               	movf	___fladd@a,w
  2753  027D  00A0               	movwf	??___fladd
  2754  027E  0820               	movf	??___fladd,w
  2755  027F  00F0               	movwf	___fladd@b
  2756  0280                     l1682:
  2757  0280  087B               	movf	___fladd@grs,w
  2758  0281  00A0               	movwf	??___fladd
  2759  0282  0820               	movf	??___fladd,w
  2760  0283  00F4               	movwf	___fladd@a
  2761  0284                     l1684:
  2762  0284  0871               	movf	___fladd@b+1,w
  2763  0285  00A0               	movwf	??___fladd
  2764  0286  0820               	movf	??___fladd,w
  2765  0287  00FB               	movwf	___fladd@grs
  2766  0288                     l1686:
  2767  0288  0875               	movf	___fladd@a+1,w
  2768  0289  00A0               	movwf	??___fladd
  2769  028A  0820               	movf	??___fladd,w
  2770  028B  00F1               	movwf	___fladd@b+1
  2771  028C                     l1688:
  2772  028C  087B               	movf	___fladd@grs,w
  2773  028D  00A0               	movwf	??___fladd
  2774  028E  0820               	movf	??___fladd,w
  2775  028F  00F5               	movwf	___fladd@a+1
  2776  0290                     l1690:
  2777  0290  0872               	movf	___fladd@b+2,w
  2778  0291  00A0               	movwf	??___fladd
  2779  0292  0820               	movf	??___fladd,w
  2780  0293  00FB               	movwf	___fladd@grs
  2781  0294                     l1692:
  2782  0294  0876               	movf	___fladd@a+2,w
  2783  0295  00A0               	movwf	??___fladd
  2784  0296  0820               	movf	??___fladd,w
  2785  0297  00F2               	movwf	___fladd@b+2
  2786  0298                     l1694:
  2787  0298  087B               	movf	___fladd@grs,w
  2788  0299  00A0               	movwf	??___fladd
  2789  029A  0820               	movf	??___fladd,w
  2790  029B  00F6               	movwf	___fladd@a+2
  2791  029C                     l1696:
  2792  029C  0873               	movf	___fladd@b+3,w
  2793  029D  00A0               	movwf	??___fladd
  2794  029E  0820               	movf	??___fladd,w
  2795  029F  00FB               	movwf	___fladd@grs
  2796  02A0                     l1698:
  2797  02A0  0877               	movf	___fladd@a+3,w
  2798  02A1  00A0               	movwf	??___fladd
  2799  02A2  0820               	movf	??___fladd,w
  2800  02A3  00F3               	movwf	___fladd@b+3
  2801  02A4                     l1700:
  2802  02A4  087B               	movf	___fladd@grs,w
  2803  02A5  00A0               	movwf	??___fladd
  2804  02A6  0820               	movf	??___fladd,w
  2805  02A7  00F7               	movwf	___fladd@a+3
  2806  02A8                     l1702:
  2807  02A8  01FB               	clrf	___fladd@grs
  2808  02A9                     l1704:
  2809  02A9  0879               	movf	___fladd@aexp,w
  2810  02AA  00A0               	movwf	??___fladd
  2811  02AB  01A1               	clrf	??___fladd+1
  2812  02AC  0821               	movf	??___fladd+1,w
  2813  02AD  00A3               	movwf	??___fladd+3
  2814  02AE  087A               	movf	___fladd@bexp,w
  2815  02AF  0220               	subwf	??___fladd,w
  2816  02B0  00A2               	movwf	??___fladd+2
  2817  02B1  1C03               	skipc
  2818  02B2  03A3               	decf	??___fladd+3,f
  2819  02B3  0823               	movf	??___fladd+3,w
  2820  02B4  3A80               	xorlw	128
  2821  02B5  00FF               	movwf	btemp+1
  2822  02B6  3080               	movlw	128
  2823  02B7  027F               	subwf	btemp+1,w
  2824  02B8  1D03               	skipz
  2825  02B9  2ABC               	goto	u1815
  2826  02BA  301A               	movlw	26
  2827  02BB  0222               	subwf	??___fladd+2,w
  2828  02BC                     u1815:
  2829  02BC  1C03               	skipc
  2830  02BD  2ABF               	goto	u1811
  2831  02BE  2AC0               	goto	u1810
  2832  02BF                     u1811:
  2833  02BF  2B01               	goto	l1720
  2834  02C0                     u1810:
  2835  02C0                     l1706:
  2836  02C0  0873               	movf	___fladd@b+3,w
  2837  02C1  0472               	iorwf	___fladd@b+2,w
  2838  02C2  0471               	iorwf	___fladd@b+1,w
  2839  02C3  0470               	iorwf	___fladd@b,w
  2840  02C4  1D03               	skipz
  2841  02C5  2AC7               	goto	u1821
  2842  02C6  2AC9               	goto	u1820
  2843  02C7                     u1821:
  2844  02C7  3001               	movlw	1
  2845  02C8  2ACA               	goto	u1830
  2846  02C9                     u1820:
  2847  02C9  3000               	movlw	0
  2848  02CA                     u1830:
  2849  02CA  1283               	bcf	3,5	;RP0=0, select bank0
  2850  02CB  1303               	bcf	3,6	;RP1=0, select bank0
  2851  02CC  00A0               	movwf	??___fladd
  2852  02CD  0820               	movf	??___fladd,w
  2853  02CE  00FB               	movwf	___fladd@grs
  2854  02CF  3000               	movlw	0
  2855  02D0  00F3               	movwf	___fladd@b+3
  2856  02D1  3000               	movlw	0
  2857  02D2  00F2               	movwf	___fladd@b+2
  2858  02D3  3000               	movlw	0
  2859  02D4  00F1               	movwf	___fladd@b+1
  2860  02D5  3000               	movlw	0
  2861  02D6  00F0               	movwf	___fladd@b
  2862  02D7  0879               	movf	___fladd@aexp,w
  2863  02D8  00A0               	movwf	??___fladd
  2864  02D9  0820               	movf	??___fladd,w
  2865  02DA  00FA               	movwf	___fladd@bexp
  2866  02DB  2B07               	goto	l521
  2867  02DC                     l523:
  2868  02DC  1C7B               	btfss	___fladd@grs,0
  2869  02DD  2ADF               	goto	u1841
  2870  02DE  2AE0               	goto	u1840
  2871  02DF                     u1841:
  2872  02DF  2AEB               	goto	l1710
  2873  02E0                     u1840:
  2874  02E0                     l1708:
  2875  02E0  087B               	movf	___fladd@grs,w
  2876  02E1  1283               	bcf	3,5	;RP0=0, select bank0
  2877  02E2  1303               	bcf	3,6	;RP1=0, select bank0
  2878  02E3  00A0               	movwf	??___fladd
  2879  02E4  1003               	clrc
  2880  02E5  0C20               	rrf	??___fladd,w
  2881  02E6  3801               	iorlw	1
  2882  02E7  00A1               	movwf	??___fladd+1
  2883  02E8  0821               	movf	??___fladd+1,w
  2884  02E9  00FB               	movwf	___fladd@grs
  2885  02EA  2AED               	goto	l1712
  2886  02EB                     l1710:
  2887  02EB  1003               	clrc
  2888  02EC  0CFB               	rrf	___fladd@grs,f
  2889  02ED                     l1712:
  2890  02ED  1C70               	btfss	___fladd@b,0
  2891  02EE  2AF0               	goto	u1851
  2892  02EF  2AF1               	goto	u1850
  2893  02F0                     u1851:
  2894  02F0  2AF2               	goto	l1716
  2895  02F1                     u1850:
  2896  02F1                     l1714:
  2897  02F1  17FB               	bsf	___fladd@grs,7
  2898  02F2                     l1716:
  2899  02F2  3001               	movlw	1
  2900  02F3  1283               	bcf	3,5	;RP0=0, select bank0
  2901  02F4  1303               	bcf	3,6	;RP1=0, select bank0
  2902  02F5  00A0               	movwf	??___fladd
  2903  02F6                     u1865:
  2904  02F6  0D73               	rlf	___fladd@b+3,w
  2905  02F7  0CF3               	rrf	___fladd@b+3,f
  2906  02F8  0CF2               	rrf	___fladd@b+2,f
  2907  02F9  0CF1               	rrf	___fladd@b+1,f
  2908  02FA  0CF0               	rrf	___fladd@b,f
  2909  02FB  0BA0               	decfsz	??___fladd& (0+127),f
  2910  02FC  2AF6               	goto	u1865
  2911  02FD                     l1718:
  2912  02FD  3001               	movlw	1
  2913  02FE  00A0               	movwf	??___fladd
  2914  02FF  0820               	movf	??___fladd,w
  2915  0300  07FA               	addwf	___fladd@bexp,f
  2916  0301                     l1720:
  2917  0301  0879               	movf	___fladd@aexp,w
  2918  0302  027A               	subwf	___fladd@bexp,w
  2919  0303  1C03               	skipc
  2920  0304  2B06               	goto	u1871
  2921  0305  2B07               	goto	u1870
  2922  0306                     u1871:
  2923  0306  2ADC               	goto	l523
  2924  0307                     u1870:
  2925  0307                     l521:
  2926  0307  1B78               	btfsc	___fladd@signs,6
  2927  0308  2B0A               	goto	u1881
  2928  0309  2B0B               	goto	u1880
  2929  030A                     u1881:
  2930  030A  2B5A               	goto	l1746
  2931  030B                     u1880:
  2932  030B                     l1722:
  2933  030B  087A               	movf	___fladd@bexp,w
  2934  030C  1D03               	btfss	3,2
  2935  030D  2B0F               	goto	u1891
  2936  030E  2B10               	goto	u1890
  2937  030F                     u1891:
  2938  030F  2B19               	goto	l1728
  2939  0310                     u1890:
  2940  0310                     l1724:
  2941  0310  3000               	movlw	0
  2942  0311  00F3               	movwf	?___fladd+3
  2943  0312  3000               	movlw	0
  2944  0313  00F2               	movwf	?___fladd+2
  2945  0314  3000               	movlw	0
  2946  0315  00F1               	movwf	?___fladd+1
  2947  0316  3000               	movlw	0
  2948  0317  00F0               	movwf	?___fladd
  2949  0318  2C92               	goto	l530
  2950  0319                     l1728:
  2951  0319  0874               	movf	___fladd@a,w
  2952  031A  07F0               	addwf	___fladd@b,f
  2953  031B  0875               	movf	___fladd@a+1,w
  2954  031C  1103               	clrz
  2955  031D  1803               	skipnc
  2956  031E  3E01               	addlw	1
  2957  031F  1903               	skipnz
  2958  0320  2B22               	goto	u1901
  2959  0321  07F1               	addwf	___fladd@b+1,f
  2960  0322                     u1901:
  2961  0322  0876               	movf	___fladd@a+2,w
  2962  0323  1103               	clrz
  2963  0324  1803               	skipnc
  2964  0325  3E01               	addlw	1
  2965  0326  1903               	skipnz
  2966  0327  2B29               	goto	u1902
  2967  0328  07F2               	addwf	___fladd@b+2,f
  2968  0329                     u1902:
  2969  0329  0877               	movf	___fladd@a+3,w
  2970  032A  1103               	clrz
  2971  032B  1803               	skipnc
  2972  032C  3E01               	addlw	1
  2973  032D  1903               	skipnz
  2974  032E  2B30               	goto	u1903
  2975  032F  07F3               	addwf	___fladd@b+3,f
  2976  0330                     u1903:
  2977  0330                     l1730:
  2978  0330  1C73               	btfss	___fladd@b+3,0
  2979  0331  2B33               	goto	u1911
  2980  0332  2B34               	goto	u1910
  2981  0333                     u1911:
  2982  0333  2C12               	goto	l1780
  2983  0334                     u1910:
  2984  0334                     l1732:
  2985  0334  1C7B               	btfss	___fladd@grs,0
  2986  0335  2B37               	goto	u1921
  2987  0336  2B38               	goto	u1920
  2988  0337                     u1921:
  2989  0337  2B43               	goto	l1736
  2990  0338                     u1920:
  2991  0338                     l1734:
  2992  0338  087B               	movf	___fladd@grs,w
  2993  0339  1283               	bcf	3,5	;RP0=0, select bank0
  2994  033A  1303               	bcf	3,6	;RP1=0, select bank0
  2995  033B  00A0               	movwf	??___fladd
  2996  033C  1003               	clrc
  2997  033D  0C20               	rrf	??___fladd,w
  2998  033E  3801               	iorlw	1
  2999  033F  00A1               	movwf	??___fladd+1
  3000  0340  0821               	movf	??___fladd+1,w
  3001  0341  00FB               	movwf	___fladd@grs
  3002  0342  2B45               	goto	l1738
  3003  0343                     l1736:
  3004  0343  1003               	clrc
  3005  0344  0CFB               	rrf	___fladd@grs,f
  3006  0345                     l1738:
  3007  0345  1C70               	btfss	___fladd@b,0
  3008  0346  2B48               	goto	u1931
  3009  0347  2B49               	goto	u1930
  3010  0348                     u1931:
  3011  0348  2B4A               	goto	l1742
  3012  0349                     u1930:
  3013  0349                     l1740:
  3014  0349  17FB               	bsf	___fladd@grs,7
  3015  034A                     l1742:
  3016  034A  3001               	movlw	1
  3017  034B  1283               	bcf	3,5	;RP0=0, select bank0
  3018  034C  1303               	bcf	3,6	;RP1=0, select bank0
  3019  034D  00A0               	movwf	??___fladd
  3020  034E                     u1945:
  3021  034E  0D73               	rlf	___fladd@b+3,w
  3022  034F  0CF3               	rrf	___fladd@b+3,f
  3023  0350  0CF2               	rrf	___fladd@b+2,f
  3024  0351  0CF1               	rrf	___fladd@b+1,f
  3025  0352  0CF0               	rrf	___fladd@b,f
  3026  0353  0BA0               	decfsz	??___fladd& (0+127),f
  3027  0354  2B4E               	goto	u1945
  3028  0355                     l1744:
  3029  0355  3001               	movlw	1
  3030  0356  00A0               	movwf	??___fladd
  3031  0357  0820               	movf	??___fladd,w
  3032  0358  07FA               	addwf	___fladd@bexp,f
  3033  0359  2C12               	goto	l1780
  3034  035A                     l1746:
  3035  035A  0873               	movf	___fladd@b+3,w
  3036  035B  3A80               	xorlw	128
  3037  035C  00FF               	movwf	btemp+1
  3038  035D  0877               	movf	___fladd@a+3,w
  3039  035E  3A80               	xorlw	128
  3040  035F  027F               	subwf	btemp+1,w
  3041  0360  1D03               	skipz
  3042  0361  2B6C               	goto	u1953
  3043  0362  0876               	movf	___fladd@a+2,w
  3044  0363  0272               	subwf	___fladd@b+2,w
  3045  0364  1D03               	skipz
  3046  0365  2B6C               	goto	u1953
  3047  0366  0875               	movf	___fladd@a+1,w
  3048  0367  0271               	subwf	___fladd@b+1,w
  3049  0368  1D03               	skipz
  3050  0369  2B6C               	goto	u1953
  3051  036A  0874               	movf	___fladd@a,w
  3052  036B  0270               	subwf	___fladd@b,w
  3053  036C                     u1953:
  3054  036C  1803               	skipnc
  3055  036D  2B6F               	goto	u1951
  3056  036E  2B70               	goto	u1950
  3057  036F                     u1951:
  3058  036F  2BCA               	goto	l1756
  3059  0370                     u1950:
  3060  0370                     l1748:
  3061  0370  30FF               	movlw	255
  3062  0371  1283               	bcf	3,5	;RP0=0, select bank0
  3063  0372  1303               	bcf	3,6	;RP1=0, select bank0
  3064  0373  00A0               	movwf	??___fladd
  3065  0374  30FF               	movlw	255
  3066  0375  00A1               	movwf	??___fladd+1
  3067  0376  30FF               	movlw	255
  3068  0377  00A2               	movwf	??___fladd+2
  3069  0378  30FF               	movlw	255
  3070  0379  00A3               	movwf	??___fladd+3
  3071  037A  0874               	movf	___fladd@a,w
  3072  037B  00A4               	movwf	??___fladd+4
  3073  037C  0875               	movf	___fladd@a+1,w
  3074  037D  00A5               	movwf	??___fladd+5
  3075  037E  0876               	movf	___fladd@a+2,w
  3076  037F  00A6               	movwf	??___fladd+6
  3077  0380  0877               	movf	___fladd@a+3,w
  3078  0381  00A7               	movwf	??___fladd+7
  3079  0382  0870               	movf	___fladd@b,w
  3080  0383  02A4               	subwf	??___fladd+4,f
  3081  0384  0871               	movf	___fladd@b+1,w
  3082  0385  1C03               	skipc
  3083  0386  0F71               	incfsz	___fladd@b+1,w
  3084  0387  2B89               	goto	u1961
  3085  0388  2B8A               	goto	u1962
  3086  0389                     u1961:
  3087  0389  02A5               	subwf	??___fladd+5,f
  3088  038A                     u1962:
  3089  038A  0872               	movf	___fladd@b+2,w
  3090  038B  1C03               	skipc
  3091  038C  0F72               	incfsz	___fladd@b+2,w
  3092  038D  2B8F               	goto	u1963
  3093  038E  2B90               	goto	u1964
  3094  038F                     u1963:
  3095  038F  02A6               	subwf	??___fladd+6,f
  3096  0390                     u1964:
  3097  0390  0873               	movf	___fladd@b+3,w
  3098  0391  1C03               	skipc
  3099  0392  0F73               	incfsz	___fladd@b+3,w
  3100  0393  2B95               	goto	u1965
  3101  0394  2B96               	goto	u1966
  3102  0395                     u1965:
  3103  0395  02A7               	subwf	??___fladd+7,f
  3104  0396                     u1966:
  3105  0396  0824               	movf	??___fladd+4,w
  3106  0397  07A0               	addwf	??___fladd,f
  3107  0398  0825               	movf	??___fladd+5,w
  3108  0399  1803               	skipnc
  3109  039A  0F25               	incfsz	??___fladd+5,w
  3110  039B  2B9D               	goto	u1970
  3111  039C  2B9E               	goto	u1971
  3112  039D                     u1970:
  3113  039D  07A1               	addwf	??___fladd+1,f
  3114  039E                     u1971:
  3115  039E  0826               	movf	??___fladd+6,w
  3116  039F  1803               	skipnc
  3117  03A0  0F26               	incfsz	??___fladd+6,w
  3118  03A1  2BA3               	goto	u1972
  3119  03A2  2BA4               	goto	u1973
  3120  03A3                     u1972:
  3121  03A3  07A2               	addwf	??___fladd+2,f
  3122  03A4                     u1973:
  3123  03A4  0827               	movf	??___fladd+7,w
  3124  03A5  1803               	skipnc
  3125  03A6  0A27               	incf	??___fladd+7,w
  3126  03A7  07A3               	addwf	??___fladd+3,f
  3127  03A8  0823               	movf	??___fladd+3,w
  3128  03A9  00F3               	movwf	___fladd@b+3
  3129  03AA  0822               	movf	??___fladd+2,w
  3130  03AB  00F2               	movwf	___fladd@b+2
  3131  03AC  0821               	movf	??___fladd+1,w
  3132  03AD  00F1               	movwf	___fladd@b+1
  3133  03AE  0820               	movf	??___fladd,w
  3134  03AF  00F0               	movwf	___fladd@b
  3135  03B0                     l1750:
  3136  03B0  3080               	movlw	128
  3137  03B1  00A0               	movwf	??___fladd
  3138  03B2  0820               	movf	??___fladd,w
  3139  03B3  06F8               	xorwf	___fladd@signs,f
  3140  03B4  09FB               	comf	___fladd@grs,f
  3141  03B5  0AFB               	incf	___fladd@grs,f
  3142  03B6                     l1752:
  3143  03B6  087B               	movf	___fladd@grs,w
  3144  03B7  1D03               	btfss	3,2
  3145  03B8  2BBA               	goto	u1981
  3146  03B9  2BBB               	goto	u1980
  3147  03BA                     u1981:
  3148  03BA  2BD8               	goto	l538
  3149  03BB                     u1980:
  3150  03BB                     l1754:
  3151  03BB  3001               	movlw	1
  3152  03BC  07F0               	addwf	___fladd@b,f
  3153  03BD  3000               	movlw	0
  3154  03BE  1803               	skipnc
  3155  03BF  3001               	movlw	1
  3156  03C0  07F1               	addwf	___fladd@b+1,f
  3157  03C1  3000               	movlw	0
  3158  03C2  1803               	skipnc
  3159  03C3  3001               	movlw	1
  3160  03C4  07F2               	addwf	___fladd@b+2,f
  3161  03C5  3000               	movlw	0
  3162  03C6  1803               	skipnc
  3163  03C7  3001               	movlw	1
  3164  03C8  07F3               	addwf	___fladd@b+3,f
  3165  03C9  2BD8               	goto	l538
  3166  03CA                     l1756:
  3167  03CA  0874               	movf	___fladd@a,w
  3168  03CB  02F0               	subwf	___fladd@b,f
  3169  03CC  0875               	movf	___fladd@a+1,w
  3170  03CD  1C03               	skipc
  3171  03CE  0F75               	incfsz	___fladd@a+1,w
  3172  03CF  02F1               	subwf	___fladd@b+1,f
  3173  03D0  0876               	movf	___fladd@a+2,w
  3174  03D1  1C03               	skipc
  3175  03D2  0F76               	incfsz	___fladd@a+2,w
  3176  03D3  02F2               	subwf	___fladd@b+2,f
  3177  03D4  0877               	movf	___fladd@a+3,w
  3178  03D5  1C03               	skipc
  3179  03D6  0F77               	incfsz	___fladd@a+3,w
  3180  03D7  02F3               	subwf	___fladd@b+3,f
  3181  03D8                     l538:
  3182  03D8  0873               	movf	___fladd@b+3,w
  3183  03D9  0472               	iorwf	___fladd@b+2,w
  3184  03DA  0471               	iorwf	___fladd@b+1,w
  3185  03DB  0470               	iorwf	___fladd@b,w
  3186  03DC  1D03               	skipz
  3187  03DD  2BDF               	goto	u1991
  3188  03DE  2BE0               	goto	u1990
  3189  03DF                     u1991:
  3190  03DF  2C0E               	goto	l1778
  3191  03E0                     u1990:
  3192  03E0                     l1758:
  3193  03E0  087B               	movf	___fladd@grs,w
  3194  03E1  1D03               	btfss	3,2
  3195  03E2  2BE4               	goto	u2001
  3196  03E3  2BE5               	goto	u2000
  3197  03E4                     u2001:
  3198  03E4  2C0E               	goto	l1778
  3199  03E5                     u2000:
  3200  03E5                     l1760:
  3201  03E5  3000               	movlw	0
  3202  03E6  00F3               	movwf	?___fladd+3
  3203  03E7  3000               	movlw	0
  3204  03E8  00F2               	movwf	?___fladd+2
  3205  03E9  3000               	movlw	0
  3206  03EA  00F1               	movwf	?___fladd+1
  3207  03EB  3000               	movlw	0
  3208  03EC  00F0               	movwf	?___fladd
  3209  03ED  2C92               	goto	l530
  3210  03EE                     l1764:
  3211  03EE  3001               	movlw	1
  3212  03EF  1283               	bcf	3,5	;RP0=0, select bank0
  3213  03F0  1303               	bcf	3,6	;RP1=0, select bank0
  3214  03F1  00A0               	movwf	??___fladd
  3215  03F2                     u2015:
  3216  03F2  1003               	clrc
  3217  03F3  0DF0               	rlf	___fladd@b,f
  3218  03F4  0DF1               	rlf	___fladd@b+1,f
  3219  03F5  0DF2               	rlf	___fladd@b+2,f
  3220  03F6  0DF3               	rlf	___fladd@b+3,f
  3221  03F7  0BA0               	decfsz	??___fladd,f
  3222  03F8  2BF2               	goto	u2015
  3223  03F9                     l1766:
  3224  03F9  1FFB               	btfss	___fladd@grs,7
  3225  03FA  2BFC               	goto	u2021
  3226  03FB  2BFD               	goto	u2020
  3227  03FC                     u2021:
  3228  03FC  2BFE               	goto	l542
  3229  03FD                     u2020:
  3230  03FD                     l1768:
  3231  03FD  1470               	bsf	___fladd@b,0
  3232  03FE                     l542:
  3233  03FE  1C7B               	btfss	___fladd@grs,0
  3234  03FF  2C01               	goto	u2031
  3235  0400  2C02               	goto	u2030
  3236  0401                     u2031:
  3237  0401  2C05               	goto	l1772
  3238  0402                     u2030:
  3239  0402                     l1770:
  3240  0402  1403               	setc
  3241  0403  0DFB               	rlf	___fladd@grs,f
  3242  0404  2C07               	goto	l1774
  3243  0405                     l1772:
  3244  0405  1003               	clrc
  3245  0406  0DFB               	rlf	___fladd@grs,f
  3246  0407                     l1774:
  3247  0407  087A               	movf	___fladd@bexp,w
  3248  0408  1903               	btfsc	3,2
  3249  0409  2C0B               	goto	u2041
  3250  040A  2C0C               	goto	u2040
  3251  040B                     u2041:
  3252  040B  2C0E               	goto	l1778
  3253  040C                     u2040:
  3254  040C                     l1776:
  3255  040C  3001               	movlw	1
  3256  040D  02FA               	subwf	___fladd@bexp,f
  3257  040E                     l1778:
  3258  040E  1FF2               	btfss	___fladd@b+2,7
  3259  040F  2C11               	goto	u2051
  3260  0410  2C12               	goto	u2050
  3261  0411                     u2051:
  3262  0411  2BEE               	goto	l1764
  3263  0412                     u2050:
  3264  0412                     l1780:
  3265  0412  01F9               	clrf	___fladd@aexp
  3266  0413                     l1782:
  3267  0413  1FFB               	btfss	___fladd@grs,7
  3268  0414  2C16               	goto	u2061
  3269  0415  2C17               	goto	u2060
  3270  0416                     u2061:
  3271  0416  2C25               	goto	l1790
  3272  0417                     u2060:
  3273  0417                     l1784:
  3274  0417  087B               	movf	___fladd@grs,w
  3275  0418  397F               	andlw	127
  3276  0419  1903               	btfsc	3,2
  3277  041A  2C1C               	goto	u2071
  3278  041B  2C1D               	goto	u2070
  3279  041C                     u2071:
  3280  041C  2C20               	goto	l548
  3281  041D                     u2070:
  3282  041D                     l1786:
  3283  041D  01F9               	clrf	___fladd@aexp
  3284  041E  0AF9               	incf	___fladd@aexp,f
  3285  041F  2C25               	goto	l1790
  3286  0420                     l548:
  3287  0420  1C70               	btfss	___fladd@b,0
  3288  0421  2C23               	goto	u2081
  3289  0422  2C24               	goto	u2080
  3290  0423                     u2081:
  3291  0423  2C25               	goto	l1790
  3292  0424                     u2080:
  3293  0424  2C1D               	goto	l1786
  3294  0425                     l1790:
  3295  0425  0879               	movf	___fladd@aexp,w
  3296  0426  1903               	btfsc	3,2
  3297  0427  2C29               	goto	u2091
  3298  0428  2C2A               	goto	u2090
  3299  0429                     u2091:
  3300  0429  2C60               	goto	l551
  3301  042A                     u2090:
  3302  042A                     l1792:
  3303  042A  3001               	movlw	1
  3304  042B  07F0               	addwf	___fladd@b,f
  3305  042C  3000               	movlw	0
  3306  042D  1803               	skipnc
  3307  042E  3001               	movlw	1
  3308  042F  07F1               	addwf	___fladd@b+1,f
  3309  0430  3000               	movlw	0
  3310  0431  1803               	skipnc
  3311  0432  3001               	movlw	1
  3312  0433  07F2               	addwf	___fladd@b+2,f
  3313  0434  3000               	movlw	0
  3314  0435  1803               	skipnc
  3315  0436  3001               	movlw	1
  3316  0437  07F3               	addwf	___fladd@b+3,f
  3317  0438                     l1794:
  3318  0438  1C73               	btfss	___fladd@b+3,0
  3319  0439  2C3B               	goto	u2101
  3320  043A  2C3C               	goto	u2100
  3321  043B                     u2101:
  3322  043B  2C60               	goto	l551
  3323  043C                     u2100:
  3324  043C                     l1796:
  3325  043C  0870               	movf	___fladd@b,w
  3326  043D  1283               	bcf	3,5	;RP0=0, select bank0
  3327  043E  1303               	bcf	3,6	;RP1=0, select bank0
  3328  043F  00A0               	movwf	??___fladd
  3329  0440  0871               	movf	___fladd@b+1,w
  3330  0441  00A1               	movwf	??___fladd+1
  3331  0442  0872               	movf	___fladd@b+2,w
  3332  0443  00A2               	movwf	??___fladd+2
  3333  0444  0873               	movf	___fladd@b+3,w
  3334  0445  00A3               	movwf	??___fladd+3
  3335  0446  3001               	movlw	1
  3336  0447  00A4               	movwf	??___fladd+4
  3337  0448                     u2115:
  3338  0448  0D23               	rlf	??___fladd+3,w
  3339  0449  0CA3               	rrf	??___fladd+3,f
  3340  044A  0CA2               	rrf	??___fladd+2,f
  3341  044B  0CA1               	rrf	??___fladd+1,f
  3342  044C  0CA0               	rrf	??___fladd,f
  3343  044D                     u2110:
  3344  044D  0BA4               	decfsz	??___fladd+4,f
  3345  044E  2C48               	goto	u2115
  3346  044F  0823               	movf	??___fladd+3,w
  3347  0450  00F3               	movwf	___fladd@b+3
  3348  0451  0822               	movf	??___fladd+2,w
  3349  0452  00F2               	movwf	___fladd@b+2
  3350  0453  0821               	movf	??___fladd+1,w
  3351  0454  00F1               	movwf	___fladd@b+1
  3352  0455  0820               	movf	??___fladd,w
  3353  0456  00F0               	movwf	___fladd@b
  3354  0457  0A7A               	incf	___fladd@bexp,w
  3355  0458  1903               	btfsc	3,2
  3356  0459  2C5B               	goto	u2121
  3357  045A  2C5C               	goto	u2120
  3358  045B                     u2121:
  3359  045B  2C60               	goto	l551
  3360  045C                     u2120:
  3361  045C                     l1798:
  3362  045C  3001               	movlw	1
  3363  045D  00A0               	movwf	??___fladd
  3364  045E  0820               	movf	??___fladd,w
  3365  045F  07FA               	addwf	___fladd@bexp,f
  3366  0460                     l551:
  3367  0460  0A7A               	incf	___fladd@bexp,w
  3368  0461  1903               	btfsc	3,2
  3369  0462  2C64               	goto	u2131
  3370  0463  2C65               	goto	u2130
  3371  0464                     u2131:
  3372  0464  2C6A               	goto	l1802
  3373  0465                     u2130:
  3374  0465                     l1800:
  3375  0465  087A               	movf	___fladd@bexp,w
  3376  0466  1D03               	btfss	3,2
  3377  0467  2C69               	goto	u2141
  3378  0468  2C6A               	goto	u2140
  3379  0469                     u2141:
  3380  0469  2C78               	goto	l1808
  3381  046A                     u2140:
  3382  046A                     l1802:
  3383  046A  3000               	movlw	0
  3384  046B  00F3               	movwf	___fladd@b+3
  3385  046C  3000               	movlw	0
  3386  046D  00F2               	movwf	___fladd@b+2
  3387  046E  3000               	movlw	0
  3388  046F  00F1               	movwf	___fladd@b+1
  3389  0470  3000               	movlw	0
  3390  0471  00F0               	movwf	___fladd@b
  3391  0472                     l1804:
  3392  0472  087A               	movf	___fladd@bexp,w
  3393  0473  1D03               	btfss	3,2
  3394  0474  2C76               	goto	u2151
  3395  0475  2C77               	goto	u2150
  3396  0476                     u2151:
  3397  0476  2C78               	goto	l1808
  3398  0477                     u2150:
  3399  0477                     l1806:
  3400  0477  01F8               	clrf	___fladd@signs
  3401  0478                     l1808:
  3402  0478  1C7A               	btfss	___fladd@bexp,0
  3403  0479  2C7B               	goto	u2161
  3404  047A  2C7C               	goto	u2160
  3405  047B                     u2161:
  3406  047B  2C7E               	goto	l1812
  3407  047C                     u2160:
  3408  047C                     l1810:
  3409  047C  17F2               	bsf	___fladd@b+2,7
  3410  047D  2C84               	goto	l559
  3411  047E                     l1812:
  3412  047E  307F               	movlw	127
  3413  047F  1283               	bcf	3,5	;RP0=0, select bank0
  3414  0480  1303               	bcf	3,6	;RP1=0, select bank0
  3415  0481  00A0               	movwf	??___fladd
  3416  0482  0820               	movf	??___fladd,w
  3417  0483  05F2               	andwf	___fladd@b+2,f
  3418  0484                     l559:
  3419  0484  087A               	movf	___fladd@bexp,w
  3420  0485  1283               	bcf	3,5	;RP0=0, select bank0
  3421  0486  1303               	bcf	3,6	;RP1=0, select bank0
  3422  0487  00A0               	movwf	??___fladd
  3423  0488  1003               	clrc
  3424  0489  0C20               	rrf	??___fladd,w
  3425  048A  00A1               	movwf	??___fladd+1
  3426  048B  0821               	movf	??___fladd+1,w
  3427  048C  00F3               	movwf	___fladd@b+3
  3428  048D                     l1814:
  3429  048D  1FF8               	btfss	___fladd@signs,7
  3430  048E  2C90               	goto	u2171
  3431  048F  2C91               	goto	u2170
  3432  0490                     u2171:
  3433  0490  2C92               	goto	l560
  3434  0491                     u2170:
  3435  0491                     l1816:
  3436  0491  17F3               	bsf	___fladd@b+3,7
  3437  0492                     l560:
  3438  0492                     l530:
  3439  0492  0008               	return
  3440  0493                     __end_of___fladd:
  3441                           
  3442                           	psect	text12
  3443  0B3D                     __ptext12:	
  3444 ;; *************** function ___awdiv *****************
  3445 ;; Defined at:
  3446 ;;		line 5 in file "C:\Program Files\Microchip\xc8\v2.35\pic\sources\c90\common\awdiv.c"
  3447 ;; Parameters:    Size  Location     Type
  3448 ;;  divisor         2   75[BANK0 ] int 
  3449 ;;  dividend        2   77[BANK0 ] int 
  3450 ;; Auto vars:     Size  Location     Type
  3451 ;;  quotient        2   10[BANK1 ] int 
  3452 ;;  sign            1    9[BANK1 ] unsigned char 
  3453 ;;  counter         1    8[BANK1 ] unsigned char 
  3454 ;; Return value:  Size  Location     Type
  3455 ;;                  2   75[BANK0 ] int 
  3456 ;; Registers used:
  3457 ;;		wreg, status,2, status,0
  3458 ;; Tracked objects:
  3459 ;;		On entry : 0/0
  3460 ;;		On exit  : 0/0
  3461 ;;		Unchanged: 0/0
  3462 ;; Data sizes:     COMMON   BANK0   BANK1   BANK3   BANK2
  3463 ;;      Params:         0       4       0       0       0
  3464 ;;      Locals:         0       0       4       0       0
  3465 ;;      Temps:          0       1       0       0       0
  3466 ;;      Totals:         0       5       4       0       0
  3467 ;;Total ram usage:        9 bytes
  3468 ;; Hardware stack levels used: 1
  3469 ;; This function calls:
  3470 ;;		Nothing
  3471 ;; This function is called by:
  3472 ;;		_DECENA
  3473 ;; This function uses a non-reentrant model
  3474 ;;
  3475                           
  3476  0B3D                     ___awdiv:	
  3477                           ;psect for function ___awdiv
  3478                           
  3479  0B3D                     l2174:	
  3480                           ;incstack = 0
  3481                           ; Regs used in ___awdiv: [wreg+status,2+status,0]
  3482                           
  3483  0B3D  1683               	bsf	3,5	;RP0=1, select bank1
  3484  0B3E  1303               	bcf	3,6	;RP1=0, select bank1
  3485  0B3F  01A9               	clrf	___awdiv@sign^(0+128)
  3486  0B40                     l2176:
  3487  0B40  1283               	bcf	3,5	;RP0=0, select bank0
  3488  0B41  1303               	bcf	3,6	;RP1=0, select bank0
  3489  0B42  1FEC               	btfss	___awdiv@divisor+1,7
  3490  0B43  2B45               	goto	u3021
  3491  0B44  2B46               	goto	u3020
  3492  0B45                     u3021:
  3493  0B45  2B4F               	goto	l2182
  3494  0B46                     u3020:
  3495  0B46                     l2178:
  3496  0B46  09EB               	comf	___awdiv@divisor,f
  3497  0B47  09EC               	comf	___awdiv@divisor+1,f
  3498  0B48  0AEB               	incf	___awdiv@divisor,f
  3499  0B49  1903               	skipnz
  3500  0B4A  0AEC               	incf	___awdiv@divisor+1,f
  3501  0B4B                     l2180:
  3502  0B4B  1683               	bsf	3,5	;RP0=1, select bank1
  3503  0B4C  1303               	bcf	3,6	;RP1=0, select bank1
  3504  0B4D  01A9               	clrf	___awdiv@sign^(0+128)
  3505  0B4E  0AA9               	incf	___awdiv@sign^(0+128),f
  3506  0B4F                     l2182:
  3507  0B4F  1283               	bcf	3,5	;RP0=0, select bank0
  3508  0B50  1FEE               	btfss	___awdiv@dividend+1,7
  3509  0B51  2B53               	goto	u3031
  3510  0B52  2B54               	goto	u3030
  3511  0B53                     u3031:
  3512  0B53  2B5F               	goto	l2188
  3513  0B54                     u3030:
  3514  0B54                     l2184:
  3515  0B54  09ED               	comf	___awdiv@dividend,f
  3516  0B55  09EE               	comf	___awdiv@dividend+1,f
  3517  0B56  0AED               	incf	___awdiv@dividend,f
  3518  0B57  1903               	skipnz
  3519  0B58  0AEE               	incf	___awdiv@dividend+1,f
  3520  0B59                     l2186:
  3521  0B59  3001               	movlw	1
  3522  0B5A  00EF               	movwf	??___awdiv
  3523  0B5B  086F               	movf	??___awdiv,w
  3524  0B5C  1683               	bsf	3,5	;RP0=1, select bank1
  3525  0B5D  1303               	bcf	3,6	;RP1=0, select bank1
  3526  0B5E  06A9               	xorwf	___awdiv@sign^(0+128),f
  3527  0B5F                     l2188:
  3528  0B5F  1683               	bsf	3,5	;RP0=1, select bank1
  3529  0B60  1303               	bcf	3,6	;RP1=0, select bank1
  3530  0B61  01AA               	clrf	___awdiv@quotient^(0+128)
  3531  0B62  01AB               	clrf	(___awdiv@quotient+1)^(0+128)
  3532  0B63                     l2190:
  3533  0B63  1283               	bcf	3,5	;RP0=0, select bank0
  3534  0B64  1303               	bcf	3,6	;RP1=0, select bank0
  3535  0B65  086B               	movf	___awdiv@divisor,w
  3536  0B66  046C               	iorwf	___awdiv@divisor+1,w
  3537  0B67  1903               	btfsc	3,2
  3538  0B68  2B6A               	goto	u3041
  3539  0B69  2B6B               	goto	u3040
  3540  0B6A                     u3041:
  3541  0B6A  2BB1               	goto	l2210
  3542  0B6B                     u3040:
  3543  0B6B                     l2192:
  3544  0B6B  1683               	bsf	3,5	;RP0=1, select bank1
  3545  0B6C  1303               	bcf	3,6	;RP1=0, select bank1
  3546  0B6D  01A8               	clrf	___awdiv@counter^(0+128)
  3547  0B6E  0AA8               	incf	___awdiv@counter^(0+128),f
  3548  0B6F  2B7D               	goto	l2198
  3549  0B70                     l2194:
  3550  0B70  3001               	movlw	1
  3551  0B71                     u3055:
  3552  0B71  1003               	clrc
  3553  0B72  0DEB               	rlf	___awdiv@divisor,f
  3554  0B73  0DEC               	rlf	___awdiv@divisor+1,f
  3555  0B74  3EFF               	addlw	-1
  3556  0B75  1D03               	skipz
  3557  0B76  2B71               	goto	u3055
  3558  0B77                     l2196:
  3559  0B77  3001               	movlw	1
  3560  0B78  00EF               	movwf	??___awdiv
  3561  0B79  086F               	movf	??___awdiv,w
  3562  0B7A  1683               	bsf	3,5	;RP0=1, select bank1
  3563  0B7B  1303               	bcf	3,6	;RP1=0, select bank1
  3564  0B7C  07A8               	addwf	___awdiv@counter^(0+128),f
  3565  0B7D                     l2198:
  3566  0B7D  1283               	bcf	3,5	;RP0=0, select bank0
  3567  0B7E  1303               	bcf	3,6	;RP1=0, select bank0
  3568  0B7F  1FEC               	btfss	___awdiv@divisor+1,7
  3569  0B80  2B82               	goto	u3061
  3570  0B81  2B83               	goto	u3060
  3571  0B82                     u3061:
  3572  0B82  2B70               	goto	l2194
  3573  0B83                     u3060:
  3574  0B83                     l2200:
  3575  0B83  3001               	movlw	1
  3576  0B84  1683               	bsf	3,5	;RP0=1, select bank1
  3577  0B85  1303               	bcf	3,6	;RP1=0, select bank1
  3578  0B86                     u3075:
  3579  0B86  1003               	clrc
  3580  0B87  0DAA               	rlf	___awdiv@quotient^(0+128),f
  3581  0B88  0DAB               	rlf	(___awdiv@quotient+1)^(0+128),f
  3582  0B89  3EFF               	addlw	-1
  3583  0B8A  1D03               	skipz
  3584  0B8B  2B86               	goto	u3075
  3585  0B8C  1283               	bcf	3,5	;RP0=0, select bank0
  3586  0B8D  1303               	bcf	3,6	;RP1=0, select bank0
  3587  0B8E  086C               	movf	___awdiv@divisor+1,w
  3588  0B8F  026E               	subwf	___awdiv@dividend+1,w
  3589  0B90  1D03               	skipz
  3590  0B91  2B94               	goto	u3085
  3591  0B92  086B               	movf	___awdiv@divisor,w
  3592  0B93  026D               	subwf	___awdiv@dividend,w
  3593  0B94                     u3085:
  3594  0B94  1C03               	skipc
  3595  0B95  2B97               	goto	u3081
  3596  0B96  2B98               	goto	u3080
  3597  0B97                     u3081:
  3598  0B97  2BA1               	goto	l2206
  3599  0B98                     u3080:
  3600  0B98                     l2202:
  3601  0B98  086B               	movf	___awdiv@divisor,w
  3602  0B99  02ED               	subwf	___awdiv@dividend,f
  3603  0B9A  086C               	movf	___awdiv@divisor+1,w
  3604  0B9B  1C03               	skipc
  3605  0B9C  03EE               	decf	___awdiv@dividend+1,f
  3606  0B9D  02EE               	subwf	___awdiv@dividend+1,f
  3607  0B9E                     l2204:
  3608  0B9E  1683               	bsf	3,5	;RP0=1, select bank1
  3609  0B9F  1303               	bcf	3,6	;RP1=0, select bank1
  3610  0BA0  142A               	bsf	___awdiv@quotient^(0+128),0
  3611  0BA1                     l2206:
  3612  0BA1  3001               	movlw	1
  3613  0BA2  1283               	bcf	3,5	;RP0=0, select bank0
  3614  0BA3                     u3095:
  3615  0BA3  1003               	clrc
  3616  0BA4  0CEC               	rrf	___awdiv@divisor+1,f
  3617  0BA5  0CEB               	rrf	___awdiv@divisor,f
  3618  0BA6  3EFF               	addlw	-1
  3619  0BA7  1D03               	skipz
  3620  0BA8  2BA3               	goto	u3095
  3621  0BA9                     l2208:
  3622  0BA9  3001               	movlw	1
  3623  0BAA  1683               	bsf	3,5	;RP0=1, select bank1
  3624  0BAB  1303               	bcf	3,6	;RP1=0, select bank1
  3625  0BAC  02A8               	subwf	___awdiv@counter^(0+128),f
  3626  0BAD  1D03               	btfss	3,2
  3627  0BAE  2BB0               	goto	u3101
  3628  0BAF  2BB1               	goto	u3100
  3629  0BB0                     u3101:
  3630  0BB0  2B83               	goto	l2200
  3631  0BB1                     u3100:
  3632  0BB1                     l2210:
  3633  0BB1  1683               	bsf	3,5	;RP0=1, select bank1
  3634  0BB2  1303               	bcf	3,6	;RP1=0, select bank1
  3635  0BB3  0829               	movf	___awdiv@sign^(0+128),w
  3636  0BB4  1903               	btfsc	3,2
  3637  0BB5  2BB7               	goto	u3111
  3638  0BB6  2BB8               	goto	u3110
  3639  0BB7                     u3111:
  3640  0BB7  2BBD               	goto	l2214
  3641  0BB8                     u3110:
  3642  0BB8                     l2212:
  3643  0BB8  09AA               	comf	___awdiv@quotient^(0+128),f
  3644  0BB9  09AB               	comf	(___awdiv@quotient+1)^(0+128),f
  3645  0BBA  0AAA               	incf	___awdiv@quotient^(0+128),f
  3646  0BBB  1903               	skipnz
  3647  0BBC  0AAB               	incf	(___awdiv@quotient+1)^(0+128),f
  3648  0BBD                     l2214:
  3649  0BBD  082B               	movf	(___awdiv@quotient+1)^(0+128),w
  3650  0BBE  1283               	bcf	3,5	;RP0=0, select bank0
  3651  0BBF  1303               	bcf	3,6	;RP1=0, select bank0
  3652  0BC0  00EC               	movwf	?___awdiv+1
  3653  0BC1  1683               	bsf	3,5	;RP0=1, select bank1
  3654  0BC2  1303               	bcf	3,6	;RP1=0, select bank1
  3655  0BC3  082A               	movf	___awdiv@quotient^(0+128),w
  3656  0BC4  1283               	bcf	3,5	;RP0=0, select bank0
  3657  0BC5  1303               	bcf	3,6	;RP1=0, select bank0
  3658  0BC6  00EB               	movwf	?___awdiv
  3659  0BC7                     l377:
  3660  0BC7  0008               	return
  3661  0BC8                     __end_of___awdiv:
  3662                           
  3663                           	psect	text13
  3664  0A66                     __ptext13:	
  3665 ;; *************** function _CENTENA *****************
  3666 ;; Defined at:
  3667 ;;		line 13 in file "LCD.c"
  3668 ;; Parameters:    Size  Location     Type
  3669 ;;  c               1    wreg     unsigned char 
  3670 ;; Auto vars:     Size  Location     Type
  3671 ;;  c               1   68[BANK0 ] unsigned char 
  3672 ;; Return value:  Size  Location     Type
  3673 ;;                  1    wreg      unsigned char 
  3674 ;; Registers used:
  3675 ;;		wreg, status,2, status,0, btemp+1, pclath, cstack
  3676 ;; Tracked objects:
  3677 ;;		On entry : 0/0
  3678 ;;		On exit  : 0/0
  3679 ;;		Unchanged: 0/0
  3680 ;; Data sizes:     COMMON   BANK0   BANK1   BANK3   BANK2
  3681 ;;      Params:         0       0       0       0       0
  3682 ;;      Locals:         0       1       0       0       0
  3683 ;;      Temps:          0       5       0       0       0
  3684 ;;      Totals:         0       6       0       0       0
  3685 ;;Total ram usage:        6 bytes
  3686 ;; Hardware stack levels used: 1
  3687 ;; Hardware stack levels required when called: 2
  3688 ;; This function calls:
  3689 ;;		___fldiv
  3690 ;;		___flmul
  3691 ;;		___fltol
  3692 ;;		___xxtofl
  3693 ;; This function is called by:
  3694 ;;		_main
  3695 ;;		_DECENA
  3696 ;;		_UNIDAD
  3697 ;; This function uses a non-reentrant model
  3698 ;;
  3699                           
  3700  0A66                     _CENTENA:	
  3701                           ;psect for function _CENTENA
  3702                           
  3703                           
  3704                           ;incstack = 0
  3705                           ; Regs used in _CENTENA: [wreg+status,2+status,0+btemp+1+pclath+cstack]
  3706                           ;CENTENA@c stored from wreg
  3707  0A66  1283               	bcf	3,5	;RP0=0, select bank0
  3708  0A67  1303               	bcf	3,6	;RP1=0, select bank0
  3709  0A68  00E4               	movwf	CENTENA@c
  3710  0A69                     l2144:
  3711                           
  3712                           ;LCD.c: 14:     c = (uint8_t)((c*1.9607)/100);
  3713  0A69  0864               	movf	CENTENA@c,w
  3714  0A6A  00DF               	movwf	??_CENTENA
  3715  0A6B  01E0               	clrf	??_CENTENA+1
  3716  0A6C  01E1               	clrf	??_CENTENA+2
  3717  0A6D  01E2               	clrf	??_CENTENA+3
  3718  0A6E  0862               	movf	??_CENTENA+3,w
  3719  0A6F  00F3               	movwf	___xxtofl@val+3
  3720  0A70  0861               	movf	??_CENTENA+2,w
  3721  0A71  00F2               	movwf	___xxtofl@val+2
  3722  0A72  0860               	movf	??_CENTENA+1,w
  3723  0A73  00F1               	movwf	___xxtofl@val+1
  3724  0A74  085F               	movf	??_CENTENA,w
  3725  0A75  00F0               	movwf	___xxtofl@val
  3726  0A76  3001               	movlw	1
  3727  0A77  120A  158A  23C8  120A  158A  	fcall	___xxtofl
  3728  0A7C  0873               	movf	?___xxtofl+3,w
  3729  0A7D  1283               	bcf	3,5	;RP0=0, select bank0
  3730  0A7E  1303               	bcf	3,6	;RP1=0, select bank0
  3731  0A7F  00A7               	movwf	___flmul@a+3
  3732  0A80  0872               	movf	?___xxtofl+2,w
  3733  0A81  00A6               	movwf	___flmul@a+2
  3734  0A82  0871               	movf	?___xxtofl+1,w
  3735  0A83  00A5               	movwf	___flmul@a+1
  3736  0A84  0870               	movf	?___xxtofl,w
  3737  0A85  00A4               	movwf	___flmul@a
  3738  0A86  303F               	movlw	63
  3739  0A87  00A3               	movwf	___flmul@b+3
  3740  0A88  30FA               	movlw	250
  3741  0A89  00A2               	movwf	___flmul@b+2
  3742  0A8A  30F8               	movlw	248
  3743  0A8B  00A1               	movwf	___flmul@b+1
  3744  0A8C  3038               	movlw	56
  3745  0A8D  00A0               	movwf	___flmul@b
  3746  0A8E  120A  118A  2493  120A  158A  	fcall	___flmul
  3747  0A93  1283               	bcf	3,5	;RP0=0, select bank0
  3748  0A94  1303               	bcf	3,6	;RP1=0, select bank0
  3749  0A95  0823               	movf	?___flmul+3,w
  3750  0A96  00C1               	movwf	___fldiv@b+3
  3751  0A97  0822               	movf	?___flmul+2,w
  3752  0A98  00C0               	movwf	___fldiv@b+2
  3753  0A99  0821               	movf	?___flmul+1,w
  3754  0A9A  00BF               	movwf	___fldiv@b+1
  3755  0A9B  0820               	movf	?___flmul,w
  3756  0A9C  00BE               	movwf	___fldiv@b
  3757  0A9D  3042               	movlw	66
  3758  0A9E  00BD               	movwf	___fldiv@a+3
  3759  0A9F  30C8               	movlw	200
  3760  0AA0  00BC               	movwf	___fldiv@a+2
  3761  0AA1  3000               	movlw	0
  3762  0AA2  00BB               	movwf	___fldiv@a+1
  3763  0AA3  3000               	movlw	0
  3764  0AA4  00BA               	movwf	___fldiv@a
  3765  0AA5  120A  118A  201E  120A  158A  	fcall	___fldiv
  3766  0AAA  1283               	bcf	3,5	;RP0=0, select bank0
  3767  0AAB  1303               	bcf	3,6	;RP1=0, select bank0
  3768  0AAC  083D               	movf	?___fldiv+3,w
  3769  0AAD  00D7               	movwf	___fltol@f1+3
  3770  0AAE  083C               	movf	?___fldiv+2,w
  3771  0AAF  00D6               	movwf	___fltol@f1+2
  3772  0AB0  083B               	movf	?___fldiv+1,w
  3773  0AB1  00D5               	movwf	___fltol@f1+1
  3774  0AB2  083A               	movf	?___fldiv,w
  3775  0AB3  00D4               	movwf	___fltol@f1
  3776  0AB4  120A  158A  22C1  120A  158A  	fcall	___fltol
  3777  0AB9  1283               	bcf	3,5	;RP0=0, select bank0
  3778  0ABA  1303               	bcf	3,6	;RP1=0, select bank0
  3779  0ABB  0854               	movf	?___fltol,w
  3780  0ABC  00E3               	movwf	??_CENTENA+4
  3781  0ABD  0863               	movf	??_CENTENA+4,w
  3782  0ABE  00E4               	movwf	CENTENA@c
  3783  0ABF                     l2146:
  3784                           
  3785                           ;LCD.c: 15:     return c;
  3786  0ABF  0864               	movf	CENTENA@c,w
  3787  0AC0                     l76:
  3788  0AC0  0008               	return
  3789  0AC1                     __end_of_CENTENA:
  3790                           
  3791                           	psect	text14
  3792  0BC8                     __ptext14:	
  3793 ;; *************** function ___xxtofl *****************
  3794 ;; Defined at:
  3795 ;;		line 10 in file "C:\Program Files\Microchip\xc8\v2.35\pic\sources\c90\common\xxtofl.c"
  3796 ;; Parameters:    Size  Location     Type
  3797 ;;  sign            1    wreg     unsigned char 
  3798 ;;  val             4    0[COMMON] long 
  3799 ;; Auto vars:     Size  Location     Type
  3800 ;;  sign            1    8[COMMON] unsigned char 
  3801 ;;  arg             4   10[COMMON] unsigned long 
  3802 ;;  exp             1    9[COMMON] unsigned char 
  3803 ;; Return value:  Size  Location     Type
  3804 ;;                  4    0[COMMON] unsigned char 
  3805 ;; Registers used:
  3806 ;;		wreg, status,2, status,0
  3807 ;; Tracked objects:
  3808 ;;		On entry : 0/0
  3809 ;;		On exit  : 0/0
  3810 ;;		Unchanged: 0/0
  3811 ;; Data sizes:     COMMON   BANK0   BANK1   BANK3   BANK2
  3812 ;;      Params:         4       0       0       0       0
  3813 ;;      Locals:         6       0       0       0       0
  3814 ;;      Temps:          4       0       0       0       0
  3815 ;;      Totals:        14       0       0       0       0
  3816 ;;Total ram usage:       14 bytes
  3817 ;; Hardware stack levels used: 1
  3818 ;; This function calls:
  3819 ;;		Nothing
  3820 ;; This function is called by:
  3821 ;;		_CENTENA
  3822 ;;		_DECENA
  3823 ;;		_UNIDAD
  3824 ;; This function uses a non-reentrant model
  3825 ;;
  3826                           
  3827  0BC8                     ___xxtofl:	
  3828                           ;psect for function ___xxtofl
  3829                           
  3830                           
  3831                           ;incstack = 0
  3832                           ; Regs used in ___xxtofl: [wreg+status,2+status,0]
  3833                           ;___xxtofl@sign stored from wreg
  3834  0BC8  00F8               	movwf	___xxtofl@sign
  3835  0BC9                     l2100:
  3836  0BC9  0878               	movf	___xxtofl@sign,w
  3837  0BCA  1903               	btfsc	3,2
  3838  0BCB  2BCD               	goto	u2841
  3839  0BCC  2BCE               	goto	u2840
  3840  0BCD                     u2841:
  3841  0BCD  2BE2               	goto	l2106
  3842  0BCE                     u2840:
  3843  0BCE                     l2102:
  3844  0BCE  1FF3               	btfss	___xxtofl@val+3,7
  3845  0BCF  2BD1               	goto	u2851
  3846  0BD0  2BD2               	goto	u2850
  3847  0BD1                     u2851:
  3848  0BD1  2BE2               	goto	l2106
  3849  0BD2                     u2850:
  3850  0BD2                     l2104:
  3851  0BD2  0970               	comf	___xxtofl@val,w
  3852  0BD3  00FA               	movwf	___xxtofl@arg
  3853  0BD4  0971               	comf	___xxtofl@val+1,w
  3854  0BD5  00FB               	movwf	___xxtofl@arg+1
  3855  0BD6  0972               	comf	___xxtofl@val+2,w
  3856  0BD7  00FC               	movwf	___xxtofl@arg+2
  3857  0BD8  0973               	comf	___xxtofl@val+3,w
  3858  0BD9  00FD               	movwf	___xxtofl@arg+3
  3859  0BDA  0AFA               	incf	___xxtofl@arg,f
  3860  0BDB  1903               	skipnz
  3861  0BDC  0AFB               	incf	___xxtofl@arg+1,f
  3862  0BDD  1903               	skipnz
  3863  0BDE  0AFC               	incf	___xxtofl@arg+2,f
  3864  0BDF  1903               	skipnz
  3865  0BE0  0AFD               	incf	___xxtofl@arg+3,f
  3866  0BE1  2BEA               	goto	l657
  3867  0BE2                     l2106:
  3868  0BE2  0873               	movf	___xxtofl@val+3,w
  3869  0BE3  00FD               	movwf	___xxtofl@arg+3
  3870  0BE4  0872               	movf	___xxtofl@val+2,w
  3871  0BE5  00FC               	movwf	___xxtofl@arg+2
  3872  0BE6  0871               	movf	___xxtofl@val+1,w
  3873  0BE7  00FB               	movwf	___xxtofl@arg+1
  3874  0BE8  0870               	movf	___xxtofl@val,w
  3875  0BE9  00FA               	movwf	___xxtofl@arg
  3876  0BEA                     l657:
  3877  0BEA  0873               	movf	___xxtofl@val+3,w
  3878  0BEB  0472               	iorwf	___xxtofl@val+2,w
  3879  0BEC  0471               	iorwf	___xxtofl@val+1,w
  3880  0BED  0470               	iorwf	___xxtofl@val,w
  3881  0BEE  1D03               	skipz
  3882  0BEF  2BF1               	goto	u2861
  3883  0BF0  2BF2               	goto	u2860
  3884  0BF1                     u2861:
  3885  0BF1  2BFB               	goto	l2112
  3886  0BF2                     u2860:
  3887  0BF2                     l2108:
  3888  0BF2  3000               	movlw	0
  3889  0BF3  00F3               	movwf	?___xxtofl+3
  3890  0BF4  3000               	movlw	0
  3891  0BF5  00F2               	movwf	?___xxtofl+2
  3892  0BF6  3000               	movlw	0
  3893  0BF7  00F1               	movwf	?___xxtofl+1
  3894  0BF8  3000               	movlw	0
  3895  0BF9  00F0               	movwf	?___xxtofl
  3896  0BFA  2C81               	goto	l659
  3897  0BFB                     l2112:
  3898  0BFB  3096               	movlw	150
  3899  0BFC  00F4               	movwf	??___xxtofl
  3900  0BFD  0874               	movf	??___xxtofl,w
  3901  0BFE  00F9               	movwf	___xxtofl@exp
  3902  0BFF  2C0D               	goto	l2116
  3903  0C00                     l2114:
  3904  0C00  3001               	movlw	1
  3905  0C01  00F4               	movwf	??___xxtofl
  3906  0C02  0874               	movf	??___xxtofl,w
  3907  0C03  07F9               	addwf	___xxtofl@exp,f
  3908  0C04  3001               	movlw	1
  3909  0C05                     u2875:
  3910  0C05  1003               	clrc
  3911  0C06  0CFD               	rrf	___xxtofl@arg+3,f
  3912  0C07  0CFC               	rrf	___xxtofl@arg+2,f
  3913  0C08  0CFB               	rrf	___xxtofl@arg+1,f
  3914  0C09  0CFA               	rrf	___xxtofl@arg,f
  3915  0C0A  3EFF               	addlw	-1
  3916  0C0B  1D03               	skipz
  3917  0C0C  2C05               	goto	u2875
  3918  0C0D                     l2116:
  3919  0C0D  30FE               	movlw	254
  3920  0C0E  057D               	andwf	___xxtofl@arg+3,w
  3921  0C0F  1D03               	btfss	3,2
  3922  0C10  2C12               	goto	u2881
  3923  0C11  2C13               	goto	u2880
  3924  0C12                     u2881:
  3925  0C12  2C00               	goto	l2114
  3926  0C13                     u2880:
  3927  0C13  2C2F               	goto	l663
  3928  0C14                     l2118:
  3929  0C14  3001               	movlw	1
  3930  0C15  00F4               	movwf	??___xxtofl
  3931  0C16  0874               	movf	??___xxtofl,w
  3932  0C17  07F9               	addwf	___xxtofl@exp,f
  3933  0C18                     l2120:
  3934  0C18  3001               	movlw	1
  3935  0C19  07FA               	addwf	___xxtofl@arg,f
  3936  0C1A  3000               	movlw	0
  3937  0C1B  1803               	skipnc
  3938  0C1C  3001               	movlw	1
  3939  0C1D  07FB               	addwf	___xxtofl@arg+1,f
  3940  0C1E  3000               	movlw	0
  3941  0C1F  1803               	skipnc
  3942  0C20  3001               	movlw	1
  3943  0C21  07FC               	addwf	___xxtofl@arg+2,f
  3944  0C22  3000               	movlw	0
  3945  0C23  1803               	skipnc
  3946  0C24  3001               	movlw	1
  3947  0C25  07FD               	addwf	___xxtofl@arg+3,f
  3948  0C26                     l2122:
  3949  0C26  3001               	movlw	1
  3950  0C27                     u2895:
  3951  0C27  1003               	clrc
  3952  0C28  0CFD               	rrf	___xxtofl@arg+3,f
  3953  0C29  0CFC               	rrf	___xxtofl@arg+2,f
  3954  0C2A  0CFB               	rrf	___xxtofl@arg+1,f
  3955  0C2B  0CFA               	rrf	___xxtofl@arg,f
  3956  0C2C  3EFF               	addlw	-1
  3957  0C2D  1D03               	skipz
  3958  0C2E  2C27               	goto	u2895
  3959  0C2F                     l663:
  3960  0C2F  30FF               	movlw	255
  3961  0C30  057D               	andwf	___xxtofl@arg+3,w
  3962  0C31  1D03               	btfss	3,2
  3963  0C32  2C34               	goto	u2901
  3964  0C33  2C35               	goto	u2900
  3965  0C34                     u2901:
  3966  0C34  2C14               	goto	l2118
  3967  0C35                     u2900:
  3968  0C35  2C41               	goto	l2126
  3969  0C36                     l2124:
  3970  0C36  3001               	movlw	1
  3971  0C37  02F9               	subwf	___xxtofl@exp,f
  3972  0C38  3001               	movlw	1
  3973  0C39  00F4               	movwf	??___xxtofl
  3974  0C3A                     u2915:
  3975  0C3A  1003               	clrc
  3976  0C3B  0DFA               	rlf	___xxtofl@arg,f
  3977  0C3C  0DFB               	rlf	___xxtofl@arg+1,f
  3978  0C3D  0DFC               	rlf	___xxtofl@arg+2,f
  3979  0C3E  0DFD               	rlf	___xxtofl@arg+3,f
  3980  0C3F  0BF4               	decfsz	??___xxtofl,f
  3981  0C40  2C3A               	goto	u2915
  3982  0C41                     l2126:
  3983  0C41  1BFC               	btfsc	___xxtofl@arg+2,7
  3984  0C42  2C44               	goto	u2921
  3985  0C43  2C45               	goto	u2920
  3986  0C44                     u2921:
  3987  0C44  2C4B               	goto	l670
  3988  0C45                     u2920:
  3989  0C45                     l2128:
  3990  0C45  3002               	movlw	2
  3991  0C46  0279               	subwf	___xxtofl@exp,w
  3992  0C47  1803               	skipnc
  3993  0C48  2C4A               	goto	u2931
  3994  0C49  2C4B               	goto	u2930
  3995  0C4A                     u2931:
  3996  0C4A  2C36               	goto	l2124
  3997  0C4B                     u2930:
  3998  0C4B                     l670:
  3999  0C4B  1879               	btfsc	___xxtofl@exp,0
  4000  0C4C  2C4E               	goto	u2941
  4001  0C4D  2C4F               	goto	u2940
  4002  0C4E                     u2941:
  4003  0C4E  2C57               	goto	l671
  4004  0C4F                     u2940:
  4005  0C4F                     l2130:
  4006  0C4F  30FF               	movlw	255
  4007  0C50  05FA               	andwf	___xxtofl@arg,f
  4008  0C51  30FF               	movlw	255
  4009  0C52  05FB               	andwf	___xxtofl@arg+1,f
  4010  0C53  307F               	movlw	127
  4011  0C54  05FC               	andwf	___xxtofl@arg+2,f
  4012  0C55  30FF               	movlw	255
  4013  0C56  05FD               	andwf	___xxtofl@arg+3,f
  4014  0C57                     l671:
  4015  0C57  1003               	clrc
  4016  0C58  0CF9               	rrf	___xxtofl@exp,f
  4017  0C59                     l2132:
  4018  0C59  0879               	movf	___xxtofl@exp,w
  4019  0C5A  00F4               	movwf	??___xxtofl
  4020  0C5B  01F5               	clrf	??___xxtofl+1
  4021  0C5C  01F6               	clrf	??___xxtofl+2
  4022  0C5D  01F7               	clrf	??___xxtofl+3
  4023  0C5E  3018               	movlw	24
  4024  0C5F                     u2955:
  4025  0C5F  1003               	clrc
  4026  0C60  0DF4               	rlf	??___xxtofl,f
  4027  0C61  0DF5               	rlf	??___xxtofl+1,f
  4028  0C62  0DF6               	rlf	??___xxtofl+2,f
  4029  0C63  0DF7               	rlf	??___xxtofl+3,f
  4030  0C64                     u2950:
  4031  0C64  3EFF               	addlw	-1
  4032  0C65  1D03               	skipz
  4033  0C66  2C5F               	goto	u2955
  4034  0C67  0874               	movf	??___xxtofl,w
  4035  0C68  04FA               	iorwf	___xxtofl@arg,f
  4036  0C69  0875               	movf	??___xxtofl+1,w
  4037  0C6A  04FB               	iorwf	___xxtofl@arg+1,f
  4038  0C6B  0876               	movf	??___xxtofl+2,w
  4039  0C6C  04FC               	iorwf	___xxtofl@arg+2,f
  4040  0C6D  0877               	movf	??___xxtofl+3,w
  4041  0C6E  04FD               	iorwf	___xxtofl@arg+3,f
  4042  0C6F                     l2134:
  4043  0C6F  0878               	movf	___xxtofl@sign,w
  4044  0C70  1903               	btfsc	3,2
  4045  0C71  2C73               	goto	u2961
  4046  0C72  2C74               	goto	u2960
  4047  0C73                     u2961:
  4048  0C73  2C79               	goto	l2140
  4049  0C74                     u2960:
  4050  0C74                     l2136:
  4051  0C74  1FF3               	btfss	___xxtofl@val+3,7
  4052  0C75  2C77               	goto	u2971
  4053  0C76  2C78               	goto	u2970
  4054  0C77                     u2971:
  4055  0C77  2C79               	goto	l2140
  4056  0C78                     u2970:
  4057  0C78                     l2138:
  4058  0C78  17FD               	bsf	___xxtofl@arg+3,7
  4059  0C79                     l2140:
  4060  0C79  087D               	movf	___xxtofl@arg+3,w
  4061  0C7A  00F3               	movwf	?___xxtofl+3
  4062  0C7B  087C               	movf	___xxtofl@arg+2,w
  4063  0C7C  00F2               	movwf	?___xxtofl+2
  4064  0C7D  087B               	movf	___xxtofl@arg+1,w
  4065  0C7E  00F1               	movwf	?___xxtofl+1
  4066  0C7F  087A               	movf	___xxtofl@arg,w
  4067  0C80  00F0               	movwf	?___xxtofl
  4068  0C81                     l659:
  4069  0C81  0008               	return
  4070  0C82                     __end_of___xxtofl:
  4071                           
  4072                           	psect	text15
  4073  0AC1                     __ptext15:	
  4074 ;; *************** function ___fltol *****************
  4075 ;; Defined at:
  4076 ;;		line 43 in file "C:\Program Files\Microchip\xc8\v2.35\pic\sources\c90\common\fltol.c"
  4077 ;; Parameters:    Size  Location     Type
  4078 ;;  f1              4   52[BANK0 ] unsigned char 
  4079 ;; Auto vars:     Size  Location     Type
  4080 ;;  exp1            1   62[BANK0 ] unsigned char 
  4081 ;;  sign1           1   61[BANK0 ] unsigned char 
  4082 ;; Return value:  Size  Location     Type
  4083 ;;                  4   52[BANK0 ] long 
  4084 ;; Registers used:
  4085 ;;		wreg, status,2, status,0
  4086 ;; Tracked objects:
  4087 ;;		On entry : 0/0
  4088 ;;		On exit  : 0/0
  4089 ;;		Unchanged: 0/0
  4090 ;; Data sizes:     COMMON   BANK0   BANK1   BANK3   BANK2
  4091 ;;      Params:         0       4       0       0       0
  4092 ;;      Locals:         0       2       0       0       0
  4093 ;;      Temps:          0       5       0       0       0
  4094 ;;      Totals:         0      11       0       0       0
  4095 ;;Total ram usage:       11 bytes
  4096 ;; Hardware stack levels used: 1
  4097 ;; This function calls:
  4098 ;;		Nothing
  4099 ;; This function is called by:
  4100 ;;		_CENTENA
  4101 ;;		_DECENA
  4102 ;;		_UNIDAD
  4103 ;; This function uses a non-reentrant model
  4104 ;;
  4105                           
  4106  0AC1                     ___fltol:	
  4107                           ;psect for function ___fltol
  4108                           
  4109  0AC1                     l1588:	
  4110                           ;incstack = 0
  4111                           ; Regs used in ___fltol: [wreg+status,2+status,0]
  4112                           
  4113  0AC1  1003               	clrc
  4114  0AC2  1283               	bcf	3,5	;RP0=0, select bank0
  4115  0AC3  1303               	bcf	3,6	;RP1=0, select bank0
  4116  0AC4  0D56               	rlf	___fltol@f1+2,w
  4117  0AC5  0D57               	rlf	___fltol@f1+3,w
  4118  0AC6  00D8               	movwf	??___fltol
  4119  0AC7  0858               	movf	??___fltol,w
  4120  0AC8  00DE               	movwf	___fltol@exp1
  4121  0AC9  085E               	movf	___fltol@exp1,w
  4122  0ACA  1D03               	btfss	3,2
  4123  0ACB  2ACD               	goto	u1621
  4124  0ACC  2ACE               	goto	u1620
  4125  0ACD                     u1621:
  4126  0ACD  2AD7               	goto	l1594
  4127  0ACE                     u1620:
  4128  0ACE                     l1590:
  4129  0ACE  3000               	movlw	0
  4130  0ACF  00D7               	movwf	?___fltol+3
  4131  0AD0  3000               	movlw	0
  4132  0AD1  00D6               	movwf	?___fltol+2
  4133  0AD2  3000               	movlw	0
  4134  0AD3  00D5               	movwf	?___fltol+1
  4135  0AD4  3000               	movlw	0
  4136  0AD5  00D4               	movwf	?___fltol
  4137  0AD6  2B3C               	goto	l410
  4138  0AD7                     l1594:
  4139  0AD7  0854               	movf	___fltol@f1,w
  4140  0AD8  00D8               	movwf	??___fltol
  4141  0AD9  0855               	movf	___fltol@f1+1,w
  4142  0ADA  00D9               	movwf	??___fltol+1
  4143  0ADB  0856               	movf	___fltol@f1+2,w
  4144  0ADC  00DA               	movwf	??___fltol+2
  4145  0ADD  0857               	movf	___fltol@f1+3,w
  4146  0ADE  00DB               	movwf	??___fltol+3
  4147  0ADF  301F               	movlw	31
  4148  0AE0                     u1635:
  4149  0AE0  1003               	clrc
  4150  0AE1  0CDB               	rrf	??___fltol+3,f
  4151  0AE2  0CDA               	rrf	??___fltol+2,f
  4152  0AE3  0CD9               	rrf	??___fltol+1,f
  4153  0AE4  0CD8               	rrf	??___fltol,f
  4154  0AE5                     u1630:
  4155  0AE5  3EFF               	addlw	-1
  4156  0AE6  1D03               	skipz
  4157  0AE7  2AE0               	goto	u1635
  4158  0AE8  0858               	movf	??___fltol,w
  4159  0AE9  00DC               	movwf	??___fltol+4
  4160  0AEA  085C               	movf	??___fltol+4,w
  4161  0AEB  00DD               	movwf	___fltol@sign1
  4162  0AEC                     l1596:
  4163  0AEC  17D6               	bsf	___fltol@f1+2,7
  4164  0AED                     l1598:
  4165  0AED  30FF               	movlw	255
  4166  0AEE  05D4               	andwf	___fltol@f1,f
  4167  0AEF  30FF               	movlw	255
  4168  0AF0  05D5               	andwf	___fltol@f1+1,f
  4169  0AF1  30FF               	movlw	255
  4170  0AF2  05D6               	andwf	___fltol@f1+2,f
  4171  0AF3  3000               	movlw	0
  4172  0AF4  05D7               	andwf	___fltol@f1+3,f
  4173  0AF5                     l1600:
  4174  0AF5  3096               	movlw	150
  4175  0AF6  02DE               	subwf	___fltol@exp1,f
  4176  0AF7                     l1602:
  4177  0AF7  1FDE               	btfss	___fltol@exp1,7
  4178  0AF8  2AFA               	goto	u1641
  4179  0AF9  2AFB               	goto	u1640
  4180  0AFA                     u1641:
  4181  0AFA  2B15               	goto	l1612
  4182  0AFB                     u1640:
  4183  0AFB                     l1604:
  4184  0AFB  085E               	movf	___fltol@exp1,w
  4185  0AFC  3A80               	xorlw	128
  4186  0AFD  3E97               	addlw	151
  4187  0AFE  1803               	skipnc
  4188  0AFF  2B01               	goto	u1651
  4189  0B00  2B02               	goto	u1650
  4190  0B01                     u1651:
  4191  0B01  2B03               	goto	l1610
  4192  0B02                     u1650:
  4193  0B02  2ACE               	goto	l1590
  4194  0B03                     l1610:
  4195  0B03  3001               	movlw	1
  4196  0B04                     u1665:
  4197  0B04  1003               	clrc
  4198  0B05  0CD7               	rrf	___fltol@f1+3,f
  4199  0B06  0CD6               	rrf	___fltol@f1+2,f
  4200  0B07  0CD5               	rrf	___fltol@f1+1,f
  4201  0B08  0CD4               	rrf	___fltol@f1,f
  4202  0B09  3EFF               	addlw	-1
  4203  0B0A  1D03               	skipz
  4204  0B0B  2B04               	goto	u1665
  4205  0B0C  3001               	movlw	1
  4206  0B0D  00D8               	movwf	??___fltol
  4207  0B0E  0858               	movf	??___fltol,w
  4208  0B0F  07DE               	addwf	___fltol@exp1,f
  4209  0B10  1D03               	btfss	3,2
  4210  0B11  2B13               	goto	u1671
  4211  0B12  2B14               	goto	u1670
  4212  0B13                     u1671:
  4213  0B13  2B03               	goto	l1610
  4214  0B14                     u1670:
  4215  0B14  2B2C               	goto	l1620
  4216  0B15                     l1612:
  4217  0B15  3020               	movlw	32
  4218  0B16  025E               	subwf	___fltol@exp1,w
  4219  0B17  1C03               	skipc
  4220  0B18  2B1A               	goto	u1681
  4221  0B19  2B1B               	goto	u1680
  4222  0B1A                     u1681:
  4223  0B1A  2B27               	goto	l417
  4224  0B1B                     u1680:
  4225  0B1B  2ACE               	goto	l1590
  4226  0B1C                     l1618:
  4227  0B1C  3001               	movlw	1
  4228  0B1D  00D8               	movwf	??___fltol
  4229  0B1E                     u1695:
  4230  0B1E  1003               	clrc
  4231  0B1F  0DD4               	rlf	___fltol@f1,f
  4232  0B20  0DD5               	rlf	___fltol@f1+1,f
  4233  0B21  0DD6               	rlf	___fltol@f1+2,f
  4234  0B22  0DD7               	rlf	___fltol@f1+3,f
  4235  0B23  0BD8               	decfsz	??___fltol,f
  4236  0B24  2B1E               	goto	u1695
  4237  0B25  3001               	movlw	1
  4238  0B26  02DE               	subwf	___fltol@exp1,f
  4239  0B27                     l417:
  4240  0B27  085E               	movf	___fltol@exp1,w
  4241  0B28  1D03               	btfss	3,2
  4242  0B29  2B2B               	goto	u1701
  4243  0B2A  2B2C               	goto	u1700
  4244  0B2B                     u1701:
  4245  0B2B  2B1C               	goto	l1618
  4246  0B2C                     u1700:
  4247  0B2C                     l1620:
  4248  0B2C  085D               	movf	___fltol@sign1,w
  4249  0B2D  1903               	btfsc	3,2
  4250  0B2E  2B30               	goto	u1711
  4251  0B2F  2B31               	goto	u1710
  4252  0B30                     u1711:
  4253  0B30  2B3C               	goto	l420
  4254  0B31                     u1710:
  4255  0B31                     l1622:
  4256  0B31  09D4               	comf	___fltol@f1,f
  4257  0B32  09D5               	comf	___fltol@f1+1,f
  4258  0B33  09D6               	comf	___fltol@f1+2,f
  4259  0B34  09D7               	comf	___fltol@f1+3,f
  4260  0B35  0AD4               	incf	___fltol@f1,f
  4261  0B36  1903               	skipnz
  4262  0B37  0AD5               	incf	___fltol@f1+1,f
  4263  0B38  1903               	skipnz
  4264  0B39  0AD6               	incf	___fltol@f1+2,f
  4265  0B3A  1903               	skipnz
  4266  0B3B  0AD7               	incf	___fltol@f1+3,f
  4267  0B3C                     l420:
  4268  0B3C                     l410:
  4269  0B3C  0008               	return
  4270  0B3D                     __end_of___fltol:
  4271                           
  4272                           	psect	text16
  4273  0493                     __ptext16:	
  4274 ;; *************** function ___flmul *****************
  4275 ;; Defined at:
  4276 ;;		line 8 in file "C:\Program Files\Microchip\xc8\v2.35\pic\sources\c90\common\sprcmul.c"
  4277 ;; Parameters:    Size  Location     Type
  4278 ;;  b               4    0[BANK0 ] long 
  4279 ;;  a               4    4[BANK0 ] long 
  4280 ;; Auto vars:     Size  Location     Type
  4281 ;;  prod            4   20[BANK0 ] struct .
  4282 ;;  grs             4   14[BANK0 ] unsigned long 
  4283 ;;  temp            2   24[BANK0 ] struct .
  4284 ;;  bexp            1   19[BANK0 ] unsigned char 
  4285 ;;  aexp            1   18[BANK0 ] unsigned char 
  4286 ;;  sign            1   13[BANK0 ] unsigned char 
  4287 ;; Return value:  Size  Location     Type
  4288 ;;                  4    0[BANK0 ] unsigned char 
  4289 ;; Registers used:
  4290 ;;		wreg, status,2, status,0, btemp+1, pclath, cstack
  4291 ;; Tracked objects:
  4292 ;;		On entry : 0/0
  4293 ;;		On exit  : 0/0
  4294 ;;		Unchanged: 0/0
  4295 ;; Data sizes:     COMMON   BANK0   BANK1   BANK3   BANK2
  4296 ;;      Params:         0       8       0       0       0
  4297 ;;      Locals:         0      13       0       0       0
  4298 ;;      Temps:          0       5       0       0       0
  4299 ;;      Totals:         0      26       0       0       0
  4300 ;;Total ram usage:       26 bytes
  4301 ;; Hardware stack levels used: 1
  4302 ;; Hardware stack levels required when called: 1
  4303 ;; This function calls:
  4304 ;;		__Umul8_16
  4305 ;; This function is called by:
  4306 ;;		_CENTENA
  4307 ;;		_DECENA
  4308 ;;		_UNIDAD
  4309 ;; This function uses a non-reentrant model
  4310 ;;
  4311                           
  4312  0493                     ___flmul:	
  4313                           ;psect for function ___flmul
  4314                           
  4315  0493                     l1960:	
  4316                           ;incstack = 0
  4317                           ; Regs used in ___flmul: [wreg+status,2+status,0+btemp+1+pclath+cstack]
  4318                           
  4319  0493  1283               	bcf	3,5	;RP0=0, select bank0
  4320  0494  1303               	bcf	3,6	;RP1=0, select bank0
  4321  0495  0823               	movf	___flmul@b+3,w
  4322  0496  3980               	andlw	128
  4323  0497  00A8               	movwf	??___flmul
  4324  0498  0828               	movf	??___flmul,w
  4325  0499  00AD               	movwf	___flmul@sign
  4326  049A                     l1962:
  4327  049A  0823               	movf	___flmul@b+3,w
  4328  049B  00A8               	movwf	??___flmul
  4329  049C  0728               	addwf	??___flmul,w
  4330  049D  00A9               	movwf	??___flmul+1
  4331  049E  0829               	movf	??___flmul+1,w
  4332  049F  00B3               	movwf	___flmul@bexp
  4333  04A0                     l1964:
  4334  04A0  1FA2               	btfss	___flmul@b+2,7
  4335  04A1  2CA3               	goto	u2471
  4336  04A2  2CA4               	goto	u2470
  4337  04A3                     u2471:
  4338  04A3  2CA5               	goto	l1968
  4339  04A4                     u2470:
  4340  04A4                     l1966:
  4341  04A4  1433               	bsf	___flmul@bexp,0
  4342  04A5                     l1968:
  4343  04A5  0833               	movf	___flmul@bexp,w
  4344  04A6  1903               	btfsc	3,2
  4345  04A7  2CA9               	goto	u2481
  4346  04A8  2CAA               	goto	u2480
  4347  04A9                     u2481:
  4348  04A9  2CB9               	goto	l1976
  4349  04AA                     u2480:
  4350  04AA                     l1970:
  4351  04AA  0A33               	incf	___flmul@bexp,w
  4352  04AB  1D03               	btfss	3,2
  4353  04AC  2CAE               	goto	u2491
  4354  04AD  2CAF               	goto	u2490
  4355  04AE                     u2491:
  4356  04AE  2CB7               	goto	l1974
  4357  04AF                     u2490:
  4358  04AF                     l1972:
  4359  04AF  3000               	movlw	0
  4360  04B0  00A3               	movwf	___flmul@b+3
  4361  04B1  3000               	movlw	0
  4362  04B2  00A2               	movwf	___flmul@b+2
  4363  04B3  3000               	movlw	0
  4364  04B4  00A1               	movwf	___flmul@b+1
  4365  04B5  3000               	movlw	0
  4366  04B6  00A0               	movwf	___flmul@b
  4367  04B7                     l1974:
  4368  04B7  17A2               	bsf	___flmul@b+2,7
  4369  04B8  2CC1               	goto	l1978
  4370  04B9                     l1976:
  4371  04B9  3000               	movlw	0
  4372  04BA  00A3               	movwf	___flmul@b+3
  4373  04BB  3000               	movlw	0
  4374  04BC  00A2               	movwf	___flmul@b+2
  4375  04BD  3000               	movlw	0
  4376  04BE  00A1               	movwf	___flmul@b+1
  4377  04BF  3000               	movlw	0
  4378  04C0  00A0               	movwf	___flmul@b
  4379  04C1                     l1978:
  4380  04C1  0827               	movf	___flmul@a+3,w
  4381  04C2  3980               	andlw	128
  4382  04C3  00A8               	movwf	??___flmul
  4383  04C4  0828               	movf	??___flmul,w
  4384  04C5  06AD               	xorwf	___flmul@sign,f
  4385  04C6                     l1980:
  4386  04C6  0827               	movf	___flmul@a+3,w
  4387  04C7  00A8               	movwf	??___flmul
  4388  04C8  0728               	addwf	??___flmul,w
  4389  04C9  00A9               	movwf	??___flmul+1
  4390  04CA  0829               	movf	??___flmul+1,w
  4391  04CB  00B2               	movwf	___flmul@aexp
  4392  04CC                     l1982:
  4393  04CC  1FA6               	btfss	___flmul@a+2,7
  4394  04CD  2CCF               	goto	u2501
  4395  04CE  2CD0               	goto	u2500
  4396  04CF                     u2501:
  4397  04CF  2CD1               	goto	l1986
  4398  04D0                     u2500:
  4399  04D0                     l1984:
  4400  04D0  1432               	bsf	___flmul@aexp,0
  4401  04D1                     l1986:
  4402  04D1  0832               	movf	___flmul@aexp,w
  4403  04D2  1903               	btfsc	3,2
  4404  04D3  2CD5               	goto	u2511
  4405  04D4  2CD6               	goto	u2510
  4406  04D5                     u2511:
  4407  04D5  2CE5               	goto	l1994
  4408  04D6                     u2510:
  4409  04D6                     l1988:
  4410  04D6  0A32               	incf	___flmul@aexp,w
  4411  04D7  1D03               	btfss	3,2
  4412  04D8  2CDA               	goto	u2521
  4413  04D9  2CDB               	goto	u2520
  4414  04DA                     u2521:
  4415  04DA  2CE3               	goto	l1992
  4416  04DB                     u2520:
  4417  04DB                     l1990:
  4418  04DB  3000               	movlw	0
  4419  04DC  00A7               	movwf	___flmul@a+3
  4420  04DD  3000               	movlw	0
  4421  04DE  00A6               	movwf	___flmul@a+2
  4422  04DF  3000               	movlw	0
  4423  04E0  00A5               	movwf	___flmul@a+1
  4424  04E1  3000               	movlw	0
  4425  04E2  00A4               	movwf	___flmul@a
  4426  04E3                     l1992:
  4427  04E3  17A6               	bsf	___flmul@a+2,7
  4428  04E4  2CED               	goto	l1996
  4429  04E5                     l1994:
  4430  04E5  3000               	movlw	0
  4431  04E6  00A7               	movwf	___flmul@a+3
  4432  04E7  3000               	movlw	0
  4433  04E8  00A6               	movwf	___flmul@a+2
  4434  04E9  3000               	movlw	0
  4435  04EA  00A5               	movwf	___flmul@a+1
  4436  04EB  3000               	movlw	0
  4437  04EC  00A4               	movwf	___flmul@a
  4438  04ED                     l1996:
  4439  04ED  0832               	movf	___flmul@aexp,w
  4440  04EE  1903               	btfsc	3,2
  4441  04EF  2CF1               	goto	u2531
  4442  04F0  2CF2               	goto	u2530
  4443  04F1                     u2531:
  4444  04F1  2CF7               	goto	l2000
  4445  04F2                     u2530:
  4446  04F2                     l1998:
  4447  04F2  0833               	movf	___flmul@bexp,w
  4448  04F3  1D03               	btfss	3,2
  4449  04F4  2CF6               	goto	u2541
  4450  04F5  2CF7               	goto	u2540
  4451  04F6                     u2541:
  4452  04F6  2D00               	goto	l2004
  4453  04F7                     u2540:
  4454  04F7                     l2000:
  4455  04F7  3000               	movlw	0
  4456  04F8  00A3               	movwf	?___flmul+3
  4457  04F9  3000               	movlw	0
  4458  04FA  00A2               	movwf	?___flmul+2
  4459  04FB  3000               	movlw	0
  4460  04FC  00A1               	movwf	?___flmul+1
  4461  04FD  3000               	movlw	0
  4462  04FE  00A0               	movwf	?___flmul
  4463  04FF  2FF3               	goto	l613
  4464  0500                     l2004:
  4465  0500  0820               	movf	___flmul@b,w
  4466  0501  00A8               	movwf	??___flmul
  4467  0502  0828               	movf	??___flmul,w
  4468  0503  00F0               	movwf	__Umul8_16@multiplicand
  4469  0504  0826               	movf	___flmul@a+2,w
  4470  0505  120A  158A  21CA  120A  118A  	fcall	__Umul8_16
  4471  050A  0871               	movf	?__Umul8_16+1,w
  4472  050B  1283               	bcf	3,5	;RP0=0, select bank0
  4473  050C  1303               	bcf	3,6	;RP1=0, select bank0
  4474  050D  00B9               	movwf	___flmul@temp+1
  4475  050E  0870               	movf	?__Umul8_16,w
  4476  050F  00B8               	movwf	___flmul@temp
  4477  0510                     l2006:
  4478  0510  0838               	movf	___flmul@temp,w
  4479  0511  00A8               	movwf	??___flmul
  4480  0512  01A9               	clrf	??___flmul+1
  4481  0513  01AA               	clrf	??___flmul+2
  4482  0514  01AB               	clrf	??___flmul+3
  4483  0515  082B               	movf	??___flmul+3,w
  4484  0516  00B1               	movwf	___flmul@grs+3
  4485  0517  082A               	movf	??___flmul+2,w
  4486  0518  00B0               	movwf	___flmul@grs+2
  4487  0519  0829               	movf	??___flmul+1,w
  4488  051A  00AF               	movwf	___flmul@grs+1
  4489  051B  0828               	movf	??___flmul,w
  4490  051C  00AE               	movwf	___flmul@grs
  4491  051D                     l2008:
  4492  051D  0839               	movf	___flmul@temp+1,w
  4493  051E  00A8               	movwf	??___flmul
  4494  051F  01A9               	clrf	??___flmul+1
  4495  0520  01AA               	clrf	??___flmul+2
  4496  0521  01AB               	clrf	??___flmul+3
  4497  0522  082B               	movf	??___flmul+3,w
  4498  0523  00B7               	movwf	___flmul@prod+3
  4499  0524  082A               	movf	??___flmul+2,w
  4500  0525  00B6               	movwf	___flmul@prod+2
  4501  0526  0829               	movf	??___flmul+1,w
  4502  0527  00B5               	movwf	___flmul@prod+1
  4503  0528  0828               	movf	??___flmul,w
  4504  0529  00B4               	movwf	___flmul@prod
  4505  052A  0821               	movf	___flmul@b+1,w
  4506  052B  00A8               	movwf	??___flmul
  4507  052C  0828               	movf	??___flmul,w
  4508  052D  00F0               	movwf	__Umul8_16@multiplicand
  4509  052E  0825               	movf	___flmul@a+1,w
  4510  052F  120A  158A  21CA  120A  118A  	fcall	__Umul8_16
  4511  0534  0871               	movf	?__Umul8_16+1,w
  4512  0535  1283               	bcf	3,5	;RP0=0, select bank0
  4513  0536  1303               	bcf	3,6	;RP1=0, select bank0
  4514  0537  00B9               	movwf	___flmul@temp+1
  4515  0538  0870               	movf	?__Umul8_16,w
  4516  0539  00B8               	movwf	___flmul@temp
  4517  053A                     l2010:
  4518  053A  0838               	movf	___flmul@temp,w
  4519  053B  00A8               	movwf	??___flmul
  4520  053C  01A9               	clrf	??___flmul+1
  4521  053D  01AA               	clrf	??___flmul+2
  4522  053E  01AB               	clrf	??___flmul+3
  4523  053F  0828               	movf	??___flmul,w
  4524  0540  07AE               	addwf	___flmul@grs,f
  4525  0541  0829               	movf	??___flmul+1,w
  4526  0542  1103               	clrz
  4527  0543  1803               	skipnc
  4528  0544  3E01               	addlw	1
  4529  0545  1903               	skipnz
  4530  0546  2D48               	goto	u2551
  4531  0547  07AF               	addwf	___flmul@grs+1,f
  4532  0548                     u2551:
  4533  0548  082A               	movf	??___flmul+2,w
  4534  0549  1103               	clrz
  4535  054A  1803               	skipnc
  4536  054B  3E01               	addlw	1
  4537  054C  1903               	skipnz
  4538  054D  2D4F               	goto	u2552
  4539  054E  07B0               	addwf	___flmul@grs+2,f
  4540  054F                     u2552:
  4541  054F  082B               	movf	??___flmul+3,w
  4542  0550  1103               	clrz
  4543  0551  1803               	skipnc
  4544  0552  3E01               	addlw	1
  4545  0553  1903               	skipnz
  4546  0554  2D56               	goto	u2553
  4547  0555  07B1               	addwf	___flmul@grs+3,f
  4548  0556                     u2553:
  4549  0556                     l2012:
  4550  0556  0839               	movf	___flmul@temp+1,w
  4551  0557  00A8               	movwf	??___flmul
  4552  0558  01A9               	clrf	??___flmul+1
  4553  0559  01AA               	clrf	??___flmul+2
  4554  055A  01AB               	clrf	??___flmul+3
  4555  055B  0828               	movf	??___flmul,w
  4556  055C  07B4               	addwf	___flmul@prod,f
  4557  055D  0829               	movf	??___flmul+1,w
  4558  055E  1103               	clrz
  4559  055F  1803               	skipnc
  4560  0560  3E01               	addlw	1
  4561  0561  1903               	skipnz
  4562  0562  2D64               	goto	u2561
  4563  0563  07B5               	addwf	___flmul@prod+1,f
  4564  0564                     u2561:
  4565  0564  082A               	movf	??___flmul+2,w
  4566  0565  1103               	clrz
  4567  0566  1803               	skipnc
  4568  0567  3E01               	addlw	1
  4569  0568  1903               	skipnz
  4570  0569  2D6B               	goto	u2562
  4571  056A  07B6               	addwf	___flmul@prod+2,f
  4572  056B                     u2562:
  4573  056B  082B               	movf	??___flmul+3,w
  4574  056C  1103               	clrz
  4575  056D  1803               	skipnc
  4576  056E  3E01               	addlw	1
  4577  056F  1903               	skipnz
  4578  0570  2D72               	goto	u2563
  4579  0571  07B7               	addwf	___flmul@prod+3,f
  4580  0572                     u2563:
  4581  0572  0822               	movf	___flmul@b+2,w
  4582  0573  00A8               	movwf	??___flmul
  4583  0574  0828               	movf	??___flmul,w
  4584  0575  00F0               	movwf	__Umul8_16@multiplicand
  4585  0576  0824               	movf	___flmul@a,w
  4586  0577  120A  158A  21CA  120A  118A  	fcall	__Umul8_16
  4587  057C  0871               	movf	?__Umul8_16+1,w
  4588  057D  1283               	bcf	3,5	;RP0=0, select bank0
  4589  057E  1303               	bcf	3,6	;RP1=0, select bank0
  4590  057F  00B9               	movwf	___flmul@temp+1
  4591  0580  0870               	movf	?__Umul8_16,w
  4592  0581  00B8               	movwf	___flmul@temp
  4593  0582                     l2014:
  4594  0582  0838               	movf	___flmul@temp,w
  4595  0583  00A8               	movwf	??___flmul
  4596  0584  01A9               	clrf	??___flmul+1
  4597  0585  01AA               	clrf	??___flmul+2
  4598  0586  01AB               	clrf	??___flmul+3
  4599  0587  0828               	movf	??___flmul,w
  4600  0588  07AE               	addwf	___flmul@grs,f
  4601  0589  0829               	movf	??___flmul+1,w
  4602  058A  1103               	clrz
  4603  058B  1803               	skipnc
  4604  058C  3E01               	addlw	1
  4605  058D  1903               	skipnz
  4606  058E  2D90               	goto	u2571
  4607  058F  07AF               	addwf	___flmul@grs+1,f
  4608  0590                     u2571:
  4609  0590  082A               	movf	??___flmul+2,w
  4610  0591  1103               	clrz
  4611  0592  1803               	skipnc
  4612  0593  3E01               	addlw	1
  4613  0594  1903               	skipnz
  4614  0595  2D97               	goto	u2572
  4615  0596  07B0               	addwf	___flmul@grs+2,f
  4616  0597                     u2572:
  4617  0597  082B               	movf	??___flmul+3,w
  4618  0598  1103               	clrz
  4619  0599  1803               	skipnc
  4620  059A  3E01               	addlw	1
  4621  059B  1903               	skipnz
  4622  059C  2D9E               	goto	u2573
  4623  059D  07B1               	addwf	___flmul@grs+3,f
  4624  059E                     u2573:
  4625  059E                     l2016:
  4626  059E  0839               	movf	___flmul@temp+1,w
  4627  059F  00A8               	movwf	??___flmul
  4628  05A0  01A9               	clrf	??___flmul+1
  4629  05A1  01AA               	clrf	??___flmul+2
  4630  05A2  01AB               	clrf	??___flmul+3
  4631  05A3  0828               	movf	??___flmul,w
  4632  05A4  07B4               	addwf	___flmul@prod,f
  4633  05A5  0829               	movf	??___flmul+1,w
  4634  05A6  1103               	clrz
  4635  05A7  1803               	skipnc
  4636  05A8  3E01               	addlw	1
  4637  05A9  1903               	skipnz
  4638  05AA  2DAC               	goto	u2581
  4639  05AB  07B5               	addwf	___flmul@prod+1,f
  4640  05AC                     u2581:
  4641  05AC  082A               	movf	??___flmul+2,w
  4642  05AD  1103               	clrz
  4643  05AE  1803               	skipnc
  4644  05AF  3E01               	addlw	1
  4645  05B0  1903               	skipnz
  4646  05B1  2DB3               	goto	u2582
  4647  05B2  07B6               	addwf	___flmul@prod+2,f
  4648  05B3                     u2582:
  4649  05B3  082B               	movf	??___flmul+3,w
  4650  05B4  1103               	clrz
  4651  05B5  1803               	skipnc
  4652  05B6  3E01               	addlw	1
  4653  05B7  1903               	skipnz
  4654  05B8  2DBA               	goto	u2583
  4655  05B9  07B7               	addwf	___flmul@prod+3,f
  4656  05BA                     u2583:
  4657  05BA                     l2018:
  4658  05BA  3008               	movlw	8
  4659  05BB  00A8               	movwf	??___flmul
  4660  05BC                     u2595:
  4661  05BC  1003               	clrc
  4662  05BD  0DAE               	rlf	___flmul@grs,f
  4663  05BE  0DAF               	rlf	___flmul@grs+1,f
  4664  05BF  0DB0               	rlf	___flmul@grs+2,f
  4665  05C0  0DB1               	rlf	___flmul@grs+3,f
  4666  05C1  0BA8               	decfsz	??___flmul,f
  4667  05C2  2DBC               	goto	u2595
  4668  05C3                     l2020:
  4669  05C3  0821               	movf	___flmul@b+1,w
  4670  05C4  00A8               	movwf	??___flmul
  4671  05C5  0828               	movf	??___flmul,w
  4672  05C6  00F0               	movwf	__Umul8_16@multiplicand
  4673  05C7  0824               	movf	___flmul@a,w
  4674  05C8  120A  158A  21CA  120A  118A  	fcall	__Umul8_16
  4675  05CD  0871               	movf	?__Umul8_16+1,w
  4676  05CE  1283               	bcf	3,5	;RP0=0, select bank0
  4677  05CF  1303               	bcf	3,6	;RP1=0, select bank0
  4678  05D0  00B9               	movwf	___flmul@temp+1
  4679  05D1  0870               	movf	?__Umul8_16,w
  4680  05D2  00B8               	movwf	___flmul@temp
  4681  05D3                     l2022:
  4682  05D3  0838               	movf	___flmul@temp,w
  4683  05D4  00A8               	movwf	??___flmul
  4684  05D5  0839               	movf	___flmul@temp+1,w
  4685  05D6  00A9               	movwf	??___flmul+1
  4686  05D7  01AA               	clrf	??___flmul+2
  4687  05D8  01AB               	clrf	??___flmul+3
  4688  05D9  0828               	movf	??___flmul,w
  4689  05DA  07AE               	addwf	___flmul@grs,f
  4690  05DB  0829               	movf	??___flmul+1,w
  4691  05DC  1103               	clrz
  4692  05DD  1803               	skipnc
  4693  05DE  3E01               	addlw	1
  4694  05DF  1903               	skipnz
  4695  05E0  2DE2               	goto	u2601
  4696  05E1  07AF               	addwf	___flmul@grs+1,f
  4697  05E2                     u2601:
  4698  05E2  082A               	movf	??___flmul+2,w
  4699  05E3  1103               	clrz
  4700  05E4  1803               	skipnc
  4701  05E5  3E01               	addlw	1
  4702  05E6  1903               	skipnz
  4703  05E7  2DE9               	goto	u2602
  4704  05E8  07B0               	addwf	___flmul@grs+2,f
  4705  05E9                     u2602:
  4706  05E9  082B               	movf	??___flmul+3,w
  4707  05EA  1103               	clrz
  4708  05EB  1803               	skipnc
  4709  05EC  3E01               	addlw	1
  4710  05ED  1903               	skipnz
  4711  05EE  2DF0               	goto	u2603
  4712  05EF  07B1               	addwf	___flmul@grs+3,f
  4713  05F0                     u2603:
  4714  05F0                     l2024:
  4715  05F0  0820               	movf	___flmul@b,w
  4716  05F1  00A8               	movwf	??___flmul
  4717  05F2  0828               	movf	??___flmul,w
  4718  05F3  00F0               	movwf	__Umul8_16@multiplicand
  4719  05F4  0825               	movf	___flmul@a+1,w
  4720  05F5  120A  158A  21CA  120A  118A  	fcall	__Umul8_16
  4721  05FA  0871               	movf	?__Umul8_16+1,w
  4722  05FB  1283               	bcf	3,5	;RP0=0, select bank0
  4723  05FC  1303               	bcf	3,6	;RP1=0, select bank0
  4724  05FD  00B9               	movwf	___flmul@temp+1
  4725  05FE  0870               	movf	?__Umul8_16,w
  4726  05FF  00B8               	movwf	___flmul@temp
  4727  0600                     l2026:
  4728  0600  0838               	movf	___flmul@temp,w
  4729  0601  00A8               	movwf	??___flmul
  4730  0602  0839               	movf	___flmul@temp+1,w
  4731  0603  00A9               	movwf	??___flmul+1
  4732  0604  01AA               	clrf	??___flmul+2
  4733  0605  01AB               	clrf	??___flmul+3
  4734  0606  0828               	movf	??___flmul,w
  4735  0607  07AE               	addwf	___flmul@grs,f
  4736  0608  0829               	movf	??___flmul+1,w
  4737  0609  1103               	clrz
  4738  060A  1803               	skipnc
  4739  060B  3E01               	addlw	1
  4740  060C  1903               	skipnz
  4741  060D  2E0F               	goto	u2611
  4742  060E  07AF               	addwf	___flmul@grs+1,f
  4743  060F                     u2611:
  4744  060F  082A               	movf	??___flmul+2,w
  4745  0610  1103               	clrz
  4746  0611  1803               	skipnc
  4747  0612  3E01               	addlw	1
  4748  0613  1903               	skipnz
  4749  0614  2E16               	goto	u2612
  4750  0615  07B0               	addwf	___flmul@grs+2,f
  4751  0616                     u2612:
  4752  0616  082B               	movf	??___flmul+3,w
  4753  0617  1103               	clrz
  4754  0618  1803               	skipnc
  4755  0619  3E01               	addlw	1
  4756  061A  1903               	skipnz
  4757  061B  2E1D               	goto	u2613
  4758  061C  07B1               	addwf	___flmul@grs+3,f
  4759  061D                     u2613:
  4760  061D                     l2028:
  4761  061D  3008               	movlw	8
  4762  061E  00A8               	movwf	??___flmul
  4763  061F                     u2625:
  4764  061F  1003               	clrc
  4765  0620  0DAE               	rlf	___flmul@grs,f
  4766  0621  0DAF               	rlf	___flmul@grs+1,f
  4767  0622  0DB0               	rlf	___flmul@grs+2,f
  4768  0623  0DB1               	rlf	___flmul@grs+3,f
  4769  0624  0BA8               	decfsz	??___flmul,f
  4770  0625  2E1F               	goto	u2625
  4771  0626  0820               	movf	___flmul@b,w
  4772  0627  00A8               	movwf	??___flmul
  4773  0628  0828               	movf	??___flmul,w
  4774  0629  00F0               	movwf	__Umul8_16@multiplicand
  4775  062A  0824               	movf	___flmul@a,w
  4776  062B  120A  158A  21CA  120A  118A  	fcall	__Umul8_16
  4777  0630  0871               	movf	?__Umul8_16+1,w
  4778  0631  1283               	bcf	3,5	;RP0=0, select bank0
  4779  0632  1303               	bcf	3,6	;RP1=0, select bank0
  4780  0633  00B9               	movwf	___flmul@temp+1
  4781  0634  0870               	movf	?__Umul8_16,w
  4782  0635  00B8               	movwf	___flmul@temp
  4783  0636                     l2030:
  4784  0636  0838               	movf	___flmul@temp,w
  4785  0637  00A8               	movwf	??___flmul
  4786  0638  0839               	movf	___flmul@temp+1,w
  4787  0639  00A9               	movwf	??___flmul+1
  4788  063A  01AA               	clrf	??___flmul+2
  4789  063B  01AB               	clrf	??___flmul+3
  4790  063C  0828               	movf	??___flmul,w
  4791  063D  07AE               	addwf	___flmul@grs,f
  4792  063E  0829               	movf	??___flmul+1,w
  4793  063F  1103               	clrz
  4794  0640  1803               	skipnc
  4795  0641  3E01               	addlw	1
  4796  0642  1903               	skipnz
  4797  0643  2E45               	goto	u2631
  4798  0644  07AF               	addwf	___flmul@grs+1,f
  4799  0645                     u2631:
  4800  0645  082A               	movf	??___flmul+2,w
  4801  0646  1103               	clrz
  4802  0647  1803               	skipnc
  4803  0648  3E01               	addlw	1
  4804  0649  1903               	skipnz
  4805  064A  2E4C               	goto	u2632
  4806  064B  07B0               	addwf	___flmul@grs+2,f
  4807  064C                     u2632:
  4808  064C  082B               	movf	??___flmul+3,w
  4809  064D  1103               	clrz
  4810  064E  1803               	skipnc
  4811  064F  3E01               	addlw	1
  4812  0650  1903               	skipnz
  4813  0651  2E53               	goto	u2633
  4814  0652  07B1               	addwf	___flmul@grs+3,f
  4815  0653                     u2633:
  4816  0653                     l2032:
  4817  0653  0821               	movf	___flmul@b+1,w
  4818  0654  00A8               	movwf	??___flmul
  4819  0655  0828               	movf	??___flmul,w
  4820  0656  00F0               	movwf	__Umul8_16@multiplicand
  4821  0657  0826               	movf	___flmul@a+2,w
  4822  0658  120A  158A  21CA  120A  118A  	fcall	__Umul8_16
  4823  065D  0871               	movf	?__Umul8_16+1,w
  4824  065E  1283               	bcf	3,5	;RP0=0, select bank0
  4825  065F  1303               	bcf	3,6	;RP1=0, select bank0
  4826  0660  00B9               	movwf	___flmul@temp+1
  4827  0661  0870               	movf	?__Umul8_16,w
  4828  0662  00B8               	movwf	___flmul@temp
  4829  0663  0838               	movf	___flmul@temp,w
  4830  0664  00A8               	movwf	??___flmul
  4831  0665  0839               	movf	___flmul@temp+1,w
  4832  0666  00A9               	movwf	??___flmul+1
  4833  0667  01AA               	clrf	??___flmul+2
  4834  0668  01AB               	clrf	??___flmul+3
  4835  0669  0828               	movf	??___flmul,w
  4836  066A  07B4               	addwf	___flmul@prod,f
  4837  066B  0829               	movf	??___flmul+1,w
  4838  066C  1103               	clrz
  4839  066D  1803               	skipnc
  4840  066E  3E01               	addlw	1
  4841  066F  1903               	skipnz
  4842  0670  2E72               	goto	u2641
  4843  0671  07B5               	addwf	___flmul@prod+1,f
  4844  0672                     u2641:
  4845  0672  082A               	movf	??___flmul+2,w
  4846  0673  1103               	clrz
  4847  0674  1803               	skipnc
  4848  0675  3E01               	addlw	1
  4849  0676  1903               	skipnz
  4850  0677  2E79               	goto	u2642
  4851  0678  07B6               	addwf	___flmul@prod+2,f
  4852  0679                     u2642:
  4853  0679  082B               	movf	??___flmul+3,w
  4854  067A  1103               	clrz
  4855  067B  1803               	skipnc
  4856  067C  3E01               	addlw	1
  4857  067D  1903               	skipnz
  4858  067E  2E80               	goto	u2643
  4859  067F  07B7               	addwf	___flmul@prod+3,f
  4860  0680                     u2643:
  4861  0680                     l2034:
  4862  0680  0822               	movf	___flmul@b+2,w
  4863  0681  00A8               	movwf	??___flmul
  4864  0682  0828               	movf	??___flmul,w
  4865  0683  00F0               	movwf	__Umul8_16@multiplicand
  4866  0684  0825               	movf	___flmul@a+1,w
  4867  0685  120A  158A  21CA  120A  118A  	fcall	__Umul8_16
  4868  068A  0871               	movf	?__Umul8_16+1,w
  4869  068B  1283               	bcf	3,5	;RP0=0, select bank0
  4870  068C  1303               	bcf	3,6	;RP1=0, select bank0
  4871  068D  00B9               	movwf	___flmul@temp+1
  4872  068E  0870               	movf	?__Umul8_16,w
  4873  068F  00B8               	movwf	___flmul@temp
  4874  0690                     l2036:
  4875  0690  0838               	movf	___flmul@temp,w
  4876  0691  00A8               	movwf	??___flmul
  4877  0692  0839               	movf	___flmul@temp+1,w
  4878  0693  00A9               	movwf	??___flmul+1
  4879  0694  01AA               	clrf	??___flmul+2
  4880  0695  01AB               	clrf	??___flmul+3
  4881  0696  0828               	movf	??___flmul,w
  4882  0697  07B4               	addwf	___flmul@prod,f
  4883  0698  0829               	movf	??___flmul+1,w
  4884  0699  1103               	clrz
  4885  069A  1803               	skipnc
  4886  069B  3E01               	addlw	1
  4887  069C  1903               	skipnz
  4888  069D  2E9F               	goto	u2651
  4889  069E  07B5               	addwf	___flmul@prod+1,f
  4890  069F                     u2651:
  4891  069F  082A               	movf	??___flmul+2,w
  4892  06A0  1103               	clrz
  4893  06A1  1803               	skipnc
  4894  06A2  3E01               	addlw	1
  4895  06A3  1903               	skipnz
  4896  06A4  2EA6               	goto	u2652
  4897  06A5  07B6               	addwf	___flmul@prod+2,f
  4898  06A6                     u2652:
  4899  06A6  082B               	movf	??___flmul+3,w
  4900  06A7  1103               	clrz
  4901  06A8  1803               	skipnc
  4902  06A9  3E01               	addlw	1
  4903  06AA  1903               	skipnz
  4904  06AB  2EAD               	goto	u2653
  4905  06AC  07B7               	addwf	___flmul@prod+3,f
  4906  06AD                     u2653:
  4907  06AD  0822               	movf	___flmul@b+2,w
  4908  06AE  00A8               	movwf	??___flmul
  4909  06AF  0828               	movf	??___flmul,w
  4910  06B0  00F0               	movwf	__Umul8_16@multiplicand
  4911  06B1  0826               	movf	___flmul@a+2,w
  4912  06B2  120A  158A  21CA  120A  118A  	fcall	__Umul8_16
  4913  06B7  0871               	movf	?__Umul8_16+1,w
  4914  06B8  1283               	bcf	3,5	;RP0=0, select bank0
  4915  06B9  1303               	bcf	3,6	;RP1=0, select bank0
  4916  06BA  00B9               	movwf	___flmul@temp+1
  4917  06BB  0870               	movf	?__Umul8_16,w
  4918  06BC  00B8               	movwf	___flmul@temp
  4919  06BD                     l2038:
  4920  06BD  0838               	movf	___flmul@temp,w
  4921  06BE  00A8               	movwf	??___flmul
  4922  06BF  0839               	movf	___flmul@temp+1,w
  4923  06C0  00A9               	movwf	??___flmul+1
  4924  06C1  01AA               	clrf	??___flmul+2
  4925  06C2  01AB               	clrf	??___flmul+3
  4926  06C3  3008               	movlw	8
  4927  06C4                     u2665:
  4928  06C4  1003               	clrc
  4929  06C5  0DA8               	rlf	??___flmul,f
  4930  06C6  0DA9               	rlf	??___flmul+1,f
  4931  06C7  0DAA               	rlf	??___flmul+2,f
  4932  06C8  0DAB               	rlf	??___flmul+3,f
  4933  06C9                     u2660:
  4934  06C9  3EFF               	addlw	-1
  4935  06CA  1D03               	skipz
  4936  06CB  2EC4               	goto	u2665
  4937  06CC  0828               	movf	??___flmul,w
  4938  06CD  07B4               	addwf	___flmul@prod,f
  4939  06CE  0829               	movf	??___flmul+1,w
  4940  06CF  1103               	clrz
  4941  06D0  1803               	skipnc
  4942  06D1  3E01               	addlw	1
  4943  06D2  1903               	skipnz
  4944  06D3  2ED5               	goto	u2671
  4945  06D4  07B5               	addwf	___flmul@prod+1,f
  4946  06D5                     u2671:
  4947  06D5  082A               	movf	??___flmul+2,w
  4948  06D6  1103               	clrz
  4949  06D7  1803               	skipnc
  4950  06D8  3E01               	addlw	1
  4951  06D9  1903               	skipnz
  4952  06DA  2EDC               	goto	u2672
  4953  06DB  07B6               	addwf	___flmul@prod+2,f
  4954  06DC                     u2672:
  4955  06DC  082B               	movf	??___flmul+3,w
  4956  06DD  1103               	clrz
  4957  06DE  1803               	skipnc
  4958  06DF  3E01               	addlw	1
  4959  06E0  1903               	skipnz
  4960  06E1  2EE3               	goto	u2673
  4961  06E2  07B7               	addwf	___flmul@prod+3,f
  4962  06E3                     u2673:
  4963  06E3                     l2040:
  4964  06E3  082E               	movf	___flmul@grs,w
  4965  06E4  00A8               	movwf	??___flmul
  4966  06E5  082F               	movf	___flmul@grs+1,w
  4967  06E6  00A9               	movwf	??___flmul+1
  4968  06E7  0830               	movf	___flmul@grs+2,w
  4969  06E8  00AA               	movwf	??___flmul+2
  4970  06E9  0831               	movf	___flmul@grs+3,w
  4971  06EA  00AB               	movwf	??___flmul+3
  4972  06EB  3018               	movlw	24
  4973  06EC                     u2685:
  4974  06EC  1003               	clrc
  4975  06ED  0CAB               	rrf	??___flmul+3,f
  4976  06EE  0CAA               	rrf	??___flmul+2,f
  4977  06EF  0CA9               	rrf	??___flmul+1,f
  4978  06F0  0CA8               	rrf	??___flmul,f
  4979  06F1                     u2680:
  4980  06F1  3EFF               	addlw	-1
  4981  06F2  1D03               	skipz
  4982  06F3  2EEC               	goto	u2685
  4983  06F4  0828               	movf	??___flmul,w
  4984  06F5  07B4               	addwf	___flmul@prod,f
  4985  06F6  0829               	movf	??___flmul+1,w
  4986  06F7  1103               	clrz
  4987  06F8  1803               	skipnc
  4988  06F9  3E01               	addlw	1
  4989  06FA  1903               	skipnz
  4990  06FB  2EFD               	goto	u2691
  4991  06FC  07B5               	addwf	___flmul@prod+1,f
  4992  06FD                     u2691:
  4993  06FD  082A               	movf	??___flmul+2,w
  4994  06FE  1103               	clrz
  4995  06FF  1803               	skipnc
  4996  0700  3E01               	addlw	1
  4997  0701  1903               	skipnz
  4998  0702  2F04               	goto	u2692
  4999  0703  07B6               	addwf	___flmul@prod+2,f
  5000  0704                     u2692:
  5001  0704  082B               	movf	??___flmul+3,w
  5002  0705  1103               	clrz
  5003  0706  1803               	skipnc
  5004  0707  3E01               	addlw	1
  5005  0708  1903               	skipnz
  5006  0709  2F0B               	goto	u2693
  5007  070A  07B7               	addwf	___flmul@prod+3,f
  5008  070B                     u2693:
  5009  070B                     l2042:
  5010  070B  3008               	movlw	8
  5011  070C  00A8               	movwf	??___flmul
  5012  070D                     u2705:
  5013  070D  1003               	clrc
  5014  070E  0DAE               	rlf	___flmul@grs,f
  5015  070F  0DAF               	rlf	___flmul@grs+1,f
  5016  0710  0DB0               	rlf	___flmul@grs+2,f
  5017  0711  0DB1               	rlf	___flmul@grs+3,f
  5018  0712  0BA8               	decfsz	??___flmul,f
  5019  0713  2F0D               	goto	u2705
  5020  0714                     l2044:
  5021  0714  0833               	movf	___flmul@bexp,w
  5022  0715  0732               	addwf	___flmul@aexp,w
  5023  0716  00A8               	movwf	??___flmul
  5024  0717  01A9               	clrf	??___flmul+1
  5025  0718  0DA9               	rlf	??___flmul+1,f
  5026  0719  0828               	movf	??___flmul,w
  5027  071A  3E82               	addlw	130
  5028  071B  00B8               	movwf	___flmul@temp
  5029  071C  0829               	movf	??___flmul+1,w
  5030  071D  1803               	skipnc
  5031  071E  3E01               	addlw	1
  5032  071F  3EFF               	addlw	255
  5033  0720  00B9               	movwf	___flmul@temp+1
  5034  0721  2F3F               	goto	l2056
  5035  0722                     l2046:
  5036  0722  3001               	movlw	1
  5037  0723  00A8               	movwf	??___flmul
  5038  0724                     u2715:
  5039  0724  1003               	clrc
  5040  0725  0DB4               	rlf	___flmul@prod,f
  5041  0726  0DB5               	rlf	___flmul@prod+1,f
  5042  0727  0DB6               	rlf	___flmul@prod+2,f
  5043  0728  0DB7               	rlf	___flmul@prod+3,f
  5044  0729  0BA8               	decfsz	??___flmul,f
  5045  072A  2F24               	goto	u2715
  5046  072B                     l2048:
  5047  072B  1FB1               	btfss	___flmul@grs+3,7
  5048  072C  2F2E               	goto	u2721
  5049  072D  2F2F               	goto	u2720
  5050  072E                     u2721:
  5051  072E  2F30               	goto	l2052
  5052  072F                     u2720:
  5053  072F                     l2050:
  5054  072F  1434               	bsf	___flmul@prod,0
  5055  0730                     l2052:
  5056  0730  3001               	movlw	1
  5057  0731  00A8               	movwf	??___flmul
  5058  0732                     u2735:
  5059  0732  1003               	clrc
  5060  0733  0DAE               	rlf	___flmul@grs,f
  5061  0734  0DAF               	rlf	___flmul@grs+1,f
  5062  0735  0DB0               	rlf	___flmul@grs+2,f
  5063  0736  0DB1               	rlf	___flmul@grs+3,f
  5064  0737  0BA8               	decfsz	??___flmul,f
  5065  0738  2F32               	goto	u2735
  5066  0739                     l2054:
  5067  0739  30FF               	movlw	255
  5068  073A  07B8               	addwf	___flmul@temp,f
  5069  073B  1803               	skipnc
  5070  073C  0AB9               	incf	___flmul@temp+1,f
  5071  073D  30FF               	movlw	255
  5072  073E  07B9               	addwf	___flmul@temp+1,f
  5073  073F                     l2056:
  5074  073F  1FB6               	btfss	___flmul@prod+2,7
  5075  0740  2F42               	goto	u2741
  5076  0741  2F43               	goto	u2740
  5077  0742                     u2741:
  5078  0742  2F22               	goto	l2046
  5079  0743                     u2740:
  5080  0743                     l2058:
  5081  0743  01B2               	clrf	___flmul@aexp
  5082  0744                     l2060:
  5083  0744  1FB1               	btfss	___flmul@grs+3,7
  5084  0745  2F47               	goto	u2751
  5085  0746  2F48               	goto	u2750
  5086  0747                     u2751:
  5087  0747  2F64               	goto	l2068
  5088  0748                     u2750:
  5089  0748                     l2062:
  5090  0748  30FF               	movlw	255
  5091  0749  052E               	andwf	___flmul@grs,w
  5092  074A  00A8               	movwf	??___flmul
  5093  074B  30FF               	movlw	255
  5094  074C  052F               	andwf	___flmul@grs+1,w
  5095  074D  00A9               	movwf	??___flmul+1
  5096  074E  30FF               	movlw	255
  5097  074F  0530               	andwf	___flmul@grs+2,w
  5098  0750  00AA               	movwf	??___flmul+2
  5099  0751  307F               	movlw	127
  5100  0752  0531               	andwf	___flmul@grs+3,w
  5101  0753  00AB               	movwf	??___flmul+3
  5102  0754  082B               	movf	??___flmul+3,w
  5103  0755  042A               	iorwf	??___flmul+2,w
  5104  0756  0429               	iorwf	??___flmul+1,w
  5105  0757  0428               	iorwf	??___flmul,w
  5106  0758  1903               	skipnz
  5107  0759  2F5B               	goto	u2761
  5108  075A  2F5C               	goto	u2760
  5109  075B                     u2761:
  5110  075B  2F5F               	goto	l619
  5111  075C                     u2760:
  5112  075C                     l2064:
  5113  075C  01B2               	clrf	___flmul@aexp
  5114  075D  0AB2               	incf	___flmul@aexp,f
  5115  075E  2F64               	goto	l2068
  5116  075F                     l619:
  5117  075F  1C34               	btfss	___flmul@prod,0
  5118  0760  2F62               	goto	u2771
  5119  0761  2F63               	goto	u2770
  5120  0762                     u2771:
  5121  0762  2F64               	goto	l2068
  5122  0763                     u2770:
  5123  0763  2F5C               	goto	l2064
  5124  0764                     l2068:
  5125  0764  0832               	movf	___flmul@aexp,w
  5126  0765  1903               	btfsc	3,2
  5127  0766  2F68               	goto	u2781
  5128  0767  2F69               	goto	u2780
  5129  0768                     u2781:
  5130  0768  2F9A               	goto	l2078
  5131  0769                     u2780:
  5132  0769                     l2070:
  5133  0769  3001               	movlw	1
  5134  076A  07B4               	addwf	___flmul@prod,f
  5135  076B  3000               	movlw	0
  5136  076C  1803               	skipnc
  5137  076D  3001               	movlw	1
  5138  076E  07B5               	addwf	___flmul@prod+1,f
  5139  076F  3000               	movlw	0
  5140  0770  1803               	skipnc
  5141  0771  3001               	movlw	1
  5142  0772  07B6               	addwf	___flmul@prod+2,f
  5143  0773  3000               	movlw	0
  5144  0774  1803               	skipnc
  5145  0775  3001               	movlw	1
  5146  0776  07B7               	addwf	___flmul@prod+3,f
  5147  0777                     l2072:
  5148  0777  1C37               	btfss	___flmul@prod+3,0
  5149  0778  2F7A               	goto	u2791
  5150  0779  2F7B               	goto	u2790
  5151  077A                     u2791:
  5152  077A  2F9A               	goto	l2078
  5153  077B                     u2790:
  5154  077B                     l2074:
  5155  077B  0834               	movf	___flmul@prod,w
  5156  077C  00A8               	movwf	??___flmul
  5157  077D  0835               	movf	___flmul@prod+1,w
  5158  077E  00A9               	movwf	??___flmul+1
  5159  077F  0836               	movf	___flmul@prod+2,w
  5160  0780  00AA               	movwf	??___flmul+2
  5161  0781  0837               	movf	___flmul@prod+3,w
  5162  0782  00AB               	movwf	??___flmul+3
  5163  0783  3001               	movlw	1
  5164  0784  00AC               	movwf	??___flmul+4
  5165  0785                     u2805:
  5166  0785  0D2B               	rlf	??___flmul+3,w
  5167  0786  0CAB               	rrf	??___flmul+3,f
  5168  0787  0CAA               	rrf	??___flmul+2,f
  5169  0788  0CA9               	rrf	??___flmul+1,f
  5170  0789  0CA8               	rrf	??___flmul,f
  5171  078A                     u2800:
  5172  078A  0BAC               	decfsz	??___flmul+4,f
  5173  078B  2F85               	goto	u2805
  5174  078C  082B               	movf	??___flmul+3,w
  5175  078D  00B7               	movwf	___flmul@prod+3
  5176  078E  082A               	movf	??___flmul+2,w
  5177  078F  00B6               	movwf	___flmul@prod+2
  5178  0790  0829               	movf	??___flmul+1,w
  5179  0791  00B5               	movwf	___flmul@prod+1
  5180  0792  0828               	movf	??___flmul,w
  5181  0793  00B4               	movwf	___flmul@prod
  5182  0794                     l2076:
  5183  0794  3001               	movlw	1
  5184  0795  07B8               	addwf	___flmul@temp,f
  5185  0796  1803               	skipnc
  5186  0797  0AB9               	incf	___flmul@temp+1,f
  5187  0798  3000               	movlw	0
  5188  0799  07B9               	addwf	___flmul@temp+1,f
  5189  079A                     l2078:
  5190  079A  0839               	movf	___flmul@temp+1,w
  5191  079B  3A80               	xorlw	128
  5192  079C  00FF               	movwf	btemp+1
  5193  079D  3080               	movlw	128
  5194  079E  027F               	subwf	btemp+1,w
  5195  079F  1D03               	skipz
  5196  07A0  2FA3               	goto	u2815
  5197  07A1  30FF               	movlw	255
  5198  07A2  0238               	subwf	___flmul@temp,w
  5199  07A3                     u2815:
  5200  07A3  1C03               	skipc
  5201  07A4  2FA6               	goto	u2811
  5202  07A5  2FA7               	goto	u2810
  5203  07A6                     u2811:
  5204  07A6  2FB2               	goto	l2082
  5205  07A7                     u2810:
  5206  07A7                     l2080:
  5207  07A7  307F               	movlw	127
  5208  07A8  1283               	bcf	3,5	;RP0=0, select bank0
  5209  07A9  1303               	bcf	3,6	;RP1=0, select bank0
  5210  07AA  00B7               	movwf	___flmul@prod+3
  5211  07AB  3080               	movlw	128
  5212  07AC  00B6               	movwf	___flmul@prod+2
  5213  07AD  3000               	movlw	0
  5214  07AE  00B5               	movwf	___flmul@prod+1
  5215  07AF  3000               	movlw	0
  5216  07B0  00B4               	movwf	___flmul@prod
  5217  07B1  2FE7               	goto	l625
  5218  07B2                     l2082:
  5219  07B2  1283               	bcf	3,5	;RP0=0, select bank0
  5220  07B3  1303               	bcf	3,6	;RP1=0, select bank0
  5221  07B4  0839               	movf	___flmul@temp+1,w
  5222  07B5  3A80               	xorlw	128
  5223  07B6  00FF               	movwf	btemp+1
  5224  07B7  3080               	movlw	128
  5225  07B8  027F               	subwf	btemp+1,w
  5226  07B9  1D03               	skipz
  5227  07BA  2FBD               	goto	u2825
  5228  07BB  3001               	movlw	1
  5229  07BC  0238               	subwf	___flmul@temp,w
  5230  07BD                     u2825:
  5231  07BD  1803               	skipnc
  5232  07BE  2FC0               	goto	u2821
  5233  07BF  2FC1               	goto	u2820
  5234  07C0                     u2821:
  5235  07C0  2FCD               	goto	l2088
  5236  07C1                     u2820:
  5237  07C1                     l2084:
  5238  07C1  3000               	movlw	0
  5239  07C2  1283               	bcf	3,5	;RP0=0, select bank0
  5240  07C3  1303               	bcf	3,6	;RP1=0, select bank0
  5241  07C4  00B7               	movwf	___flmul@prod+3
  5242  07C5  3000               	movlw	0
  5243  07C6  00B6               	movwf	___flmul@prod+2
  5244  07C7  3000               	movlw	0
  5245  07C8  00B5               	movwf	___flmul@prod+1
  5246  07C9  3000               	movlw	0
  5247  07CA  00B4               	movwf	___flmul@prod
  5248  07CB                     l2086:
  5249  07CB  01AD               	clrf	___flmul@sign
  5250  07CC  2FE7               	goto	l625
  5251  07CD                     l2088:
  5252  07CD  1283               	bcf	3,5	;RP0=0, select bank0
  5253  07CE  1303               	bcf	3,6	;RP1=0, select bank0
  5254  07CF  0838               	movf	___flmul@temp,w
  5255  07D0  00A8               	movwf	??___flmul
  5256  07D1  0828               	movf	??___flmul,w
  5257  07D2  00B3               	movwf	___flmul@bexp
  5258  07D3  30FF               	movlw	255
  5259  07D4  05B4               	andwf	___flmul@prod,f
  5260  07D5  30FF               	movlw	255
  5261  07D6  05B5               	andwf	___flmul@prod+1,f
  5262  07D7  307F               	movlw	127
  5263  07D8  05B6               	andwf	___flmul@prod+2,f
  5264  07D9  3000               	movlw	0
  5265  07DA  05B7               	andwf	___flmul@prod+3,f
  5266  07DB                     l2090:
  5267  07DB  1C33               	btfss	___flmul@bexp,0
  5268  07DC  2FDE               	goto	u2831
  5269  07DD  2FDF               	goto	u2830
  5270  07DE                     u2831:
  5271  07DE  2FE0               	goto	l2094
  5272  07DF                     u2830:
  5273  07DF                     l2092:
  5274  07DF  17B6               	bsf	___flmul@prod+2,7
  5275  07E0                     l2094:
  5276  07E0  0833               	movf	___flmul@bexp,w
  5277  07E1  00A8               	movwf	??___flmul
  5278  07E2  1003               	clrc
  5279  07E3  0C28               	rrf	??___flmul,w
  5280  07E4  00A9               	movwf	??___flmul+1
  5281  07E5  0829               	movf	??___flmul+1,w
  5282  07E6  00B7               	movwf	___flmul@prod+3
  5283  07E7                     l625:
  5284  07E7  082D               	movf	___flmul@sign,w
  5285  07E8  00A8               	movwf	??___flmul
  5286  07E9  0828               	movf	??___flmul,w
  5287  07EA  04B7               	iorwf	___flmul@prod+3,f
  5288  07EB                     l2096:
  5289  07EB  0837               	movf	___flmul@prod+3,w
  5290  07EC  00A3               	movwf	?___flmul+3
  5291  07ED  0836               	movf	___flmul@prod+2,w
  5292  07EE  00A2               	movwf	?___flmul+2
  5293  07EF  0835               	movf	___flmul@prod+1,w
  5294  07F0  00A1               	movwf	?___flmul+1
  5295  07F1  0834               	movf	___flmul@prod,w
  5296  07F2  00A0               	movwf	?___flmul
  5297  07F3                     l613:
  5298  07F3  0008               	return
  5299  07F4                     __end_of___flmul:
  5300                           
  5301                           	psect	text17
  5302  09CA                     __ptext17:	
  5303 ;; *************** function __Umul8_16 *****************
  5304 ;; Defined at:
  5305 ;;		line 4 in file "C:\Program Files\Microchip\xc8\v2.35\pic\sources\c90\common\Umul8_16.c"
  5306 ;; Parameters:    Size  Location     Type
  5307 ;;  multiplier      1    wreg     unsigned char 
  5308 ;;  multiplicand    1    0[COMMON] unsigned char 
  5309 ;; Auto vars:     Size  Location     Type
  5310 ;;  multiplier      1    8[COMMON] unsigned char 
  5311 ;;  word_mpld       2    6[COMMON] unsigned int 
  5312 ;;  product         2    4[COMMON] unsigned int 
  5313 ;; Return value:  Size  Location     Type
  5314 ;;                  2    0[COMMON] unsigned int 
  5315 ;; Registers used:
  5316 ;;		wreg, status,2, status,0
  5317 ;; Tracked objects:
  5318 ;;		On entry : 0/0
  5319 ;;		On exit  : 0/0
  5320 ;;		Unchanged: 0/0
  5321 ;; Data sizes:     COMMON   BANK0   BANK1   BANK3   BANK2
  5322 ;;      Params:         2       0       0       0       0
  5323 ;;      Locals:         5       0       0       0       0
  5324 ;;      Temps:          2       0       0       0       0
  5325 ;;      Totals:         9       0       0       0       0
  5326 ;;Total ram usage:        9 bytes
  5327 ;; Hardware stack levels used: 1
  5328 ;; This function calls:
  5329 ;;		Nothing
  5330 ;; This function is called by:
  5331 ;;		___flmul
  5332 ;; This function uses a non-reentrant model
  5333 ;;
  5334                           
  5335  09CA                     __Umul8_16:	
  5336                           ;psect for function __Umul8_16
  5337                           
  5338                           
  5339                           ;incstack = 0
  5340                           ; Regs used in __Umul8_16: [wreg+status,2+status,0]
  5341                           ;__Umul8_16@multiplier stored from wreg
  5342  09CA  00F8               	movwf	__Umul8_16@multiplier
  5343  09CB                     l1572:
  5344  09CB  01F4               	clrf	__Umul8_16@product
  5345  09CC  01F5               	clrf	__Umul8_16@product+1
  5346  09CD                     l1574:
  5347  09CD  0870               	movf	__Umul8_16@multiplicand,w
  5348  09CE  00F2               	movwf	??__Umul8_16
  5349  09CF  01F3               	clrf	??__Umul8_16+1
  5350  09D0  0872               	movf	??__Umul8_16,w
  5351  09D1  00F6               	movwf	__Umul8_16@word_mpld
  5352  09D2  0873               	movf	??__Umul8_16+1,w
  5353  09D3  00F7               	movwf	__Umul8_16@word_mpld+1
  5354  09D4                     l1576:
  5355  09D4  1C78               	btfss	__Umul8_16@multiplier,0
  5356  09D5  29D7               	goto	u1591
  5357  09D6  29D8               	goto	u1590
  5358  09D7                     u1591:
  5359  09D7  29DE               	goto	l632
  5360  09D8                     u1590:
  5361  09D8                     l1578:
  5362  09D8  0876               	movf	__Umul8_16@word_mpld,w
  5363  09D9  07F4               	addwf	__Umul8_16@product,f
  5364  09DA  1803               	skipnc
  5365  09DB  0AF5               	incf	__Umul8_16@product+1,f
  5366  09DC  0877               	movf	__Umul8_16@word_mpld+1,w
  5367  09DD  07F5               	addwf	__Umul8_16@product+1,f
  5368  09DE                     l632:
  5369  09DE  3001               	movlw	1
  5370  09DF                     u1605:
  5371  09DF  1003               	clrc
  5372  09E0  0DF6               	rlf	__Umul8_16@word_mpld,f
  5373  09E1  0DF7               	rlf	__Umul8_16@word_mpld+1,f
  5374  09E2  3EFF               	addlw	-1
  5375  09E3  1D03               	skipz
  5376  09E4  29DF               	goto	u1605
  5377  09E5  1003               	clrc
  5378  09E6  0CF8               	rrf	__Umul8_16@multiplier,f
  5379  09E7                     l1580:
  5380  09E7  0878               	movf	__Umul8_16@multiplier,w
  5381  09E8  1D03               	btfss	3,2
  5382  09E9  29EB               	goto	u1611
  5383  09EA  29EC               	goto	u1610
  5384  09EB                     u1611:
  5385  09EB  29D4               	goto	l1576
  5386  09EC                     u1610:
  5387  09EC                     l1582:
  5388  09EC  0875               	movf	__Umul8_16@product+1,w
  5389  09ED  00F1               	movwf	?__Umul8_16+1
  5390  09EE  0874               	movf	__Umul8_16@product,w
  5391  09EF  00F0               	movwf	?__Umul8_16
  5392  09F0                     l634:
  5393  09F0  0008               	return
  5394  09F1                     __end_of__Umul8_16:
  5395                           
  5396                           	psect	text18
  5397  001E                     __ptext18:	
  5398 ;; *************** function ___fldiv *****************
  5399 ;; Defined at:
  5400 ;;		line 8 in file "C:\Program Files\Microchip\xc8\v2.35\pic\sources\c90\common\sprcdiv.c"
  5401 ;; Parameters:    Size  Location     Type
  5402 ;;  a               4   26[BANK0 ] unsigned int 
  5403 ;;  b               4   30[BANK0 ] unsigned int 
  5404 ;; Auto vars:     Size  Location     Type
  5405 ;;  grs             4   46[BANK0 ] unsigned long 
  5406 ;;  rem             4   39[BANK0 ] unsigned long 
  5407 ;;  new_exp         2   44[BANK0 ] int 
  5408 ;;  aexp            1   51[BANK0 ] unsigned char 
  5409 ;;  bexp            1   50[BANK0 ] unsigned char 
  5410 ;;  sign            1   43[BANK0 ] unsigned char 
  5411 ;; Return value:  Size  Location     Type
  5412 ;;                  4   26[BANK0 ] unsigned char 
  5413 ;; Registers used:
  5414 ;;		wreg, status,2, status,0, btemp+1
  5415 ;; Tracked objects:
  5416 ;;		On entry : 0/0
  5417 ;;		On exit  : 0/0
  5418 ;;		Unchanged: 0/0
  5419 ;; Data sizes:     COMMON   BANK0   BANK1   BANK3   BANK2
  5420 ;;      Params:         0       8       0       0       0
  5421 ;;      Locals:         0      13       0       0       0
  5422 ;;      Temps:          0       5       0       0       0
  5423 ;;      Totals:         0      26       0       0       0
  5424 ;;Total ram usage:       26 bytes
  5425 ;; Hardware stack levels used: 1
  5426 ;; This function calls:
  5427 ;;		Nothing
  5428 ;; This function is called by:
  5429 ;;		_CENTENA
  5430 ;; This function uses a non-reentrant model
  5431 ;;
  5432                           
  5433  001E                     ___fldiv:	
  5434                           ;psect for function ___fldiv
  5435                           
  5436  001E                     l1818:	
  5437                           ;incstack = 0
  5438                           ; Regs used in ___fldiv: [wreg+status,2+status,0+btemp+1]
  5439                           
  5440  001E  1283               	bcf	3,5	;RP0=0, select bank0
  5441  001F  1303               	bcf	3,6	;RP1=0, select bank0
  5442  0020  0841               	movf	___fldiv@b+3,w
  5443  0021  3980               	andlw	128
  5444  0022  00C2               	movwf	??___fldiv
  5445  0023  0842               	movf	??___fldiv,w
  5446  0024  00CB               	movwf	___fldiv@sign
  5447  0025                     l1820:
  5448  0025  0841               	movf	___fldiv@b+3,w
  5449  0026  00C2               	movwf	??___fldiv
  5450  0027  0742               	addwf	??___fldiv,w
  5451  0028  00C3               	movwf	??___fldiv+1
  5452  0029  0843               	movf	??___fldiv+1,w
  5453  002A  00D2               	movwf	___fldiv@bexp
  5454  002B                     l1822:
  5455  002B  1FC0               	btfss	___fldiv@b+2,7
  5456  002C  282E               	goto	u2181
  5457  002D  282F               	goto	u2180
  5458  002E                     u2181:
  5459  002E  2830               	goto	l1826
  5460  002F                     u2180:
  5461  002F                     l1824:
  5462  002F  1452               	bsf	___fldiv@bexp,0
  5463  0030                     l1826:
  5464  0030  0852               	movf	___fldiv@bexp,w
  5465  0031  1903               	btfsc	3,2
  5466  0032  2834               	goto	u2191
  5467  0033  2835               	goto	u2190
  5468  0034                     u2191:
  5469  0034  2845               	goto	l1836
  5470  0035                     u2190:
  5471  0035                     l1828:
  5472  0035  0A52               	incf	___fldiv@bexp,w
  5473  0036  1D03               	btfss	3,2
  5474  0037  2839               	goto	u2201
  5475  0038  283A               	goto	u2200
  5476  0039                     u2201:
  5477  0039  2842               	goto	l1832
  5478  003A                     u2200:
  5479  003A                     l1830:
  5480  003A  3000               	movlw	0
  5481  003B  00C1               	movwf	___fldiv@b+3
  5482  003C  3000               	movlw	0
  5483  003D  00C0               	movwf	___fldiv@b+2
  5484  003E  3000               	movlw	0
  5485  003F  00BF               	movwf	___fldiv@b+1
  5486  0040  3000               	movlw	0
  5487  0041  00BE               	movwf	___fldiv@b
  5488  0042                     l1832:
  5489  0042  17C0               	bsf	___fldiv@b+2,7
  5490  0043                     l1834:
  5491  0043  01C1               	clrf	___fldiv@b+3
  5492  0044  284D               	goto	l1838
  5493  0045                     l1836:
  5494  0045  3000               	movlw	0
  5495  0046  00C1               	movwf	___fldiv@b+3
  5496  0047  3000               	movlw	0
  5497  0048  00C0               	movwf	___fldiv@b+2
  5498  0049  3000               	movlw	0
  5499  004A  00BF               	movwf	___fldiv@b+1
  5500  004B  3000               	movlw	0
  5501  004C  00BE               	movwf	___fldiv@b
  5502  004D                     l1838:
  5503  004D  083D               	movf	___fldiv@a+3,w
  5504  004E  3980               	andlw	128
  5505  004F  00C2               	movwf	??___fldiv
  5506  0050  0842               	movf	??___fldiv,w
  5507  0051  06CB               	xorwf	___fldiv@sign,f
  5508  0052                     l1840:
  5509  0052  083D               	movf	___fldiv@a+3,w
  5510  0053  00C2               	movwf	??___fldiv
  5511  0054  0742               	addwf	??___fldiv,w
  5512  0055  00C3               	movwf	??___fldiv+1
  5513  0056  0843               	movf	??___fldiv+1,w
  5514  0057  00D3               	movwf	___fldiv@aexp
  5515  0058                     l1842:
  5516  0058  1FBC               	btfss	___fldiv@a+2,7
  5517  0059  285B               	goto	u2211
  5518  005A  285C               	goto	u2210
  5519  005B                     u2211:
  5520  005B  285D               	goto	l1846
  5521  005C                     u2210:
  5522  005C                     l1844:
  5523  005C  1453               	bsf	___fldiv@aexp,0
  5524  005D                     l1846:
  5525  005D  0853               	movf	___fldiv@aexp,w
  5526  005E  1903               	btfsc	3,2
  5527  005F  2861               	goto	u2221
  5528  0060  2862               	goto	u2220
  5529  0061                     u2221:
  5530  0061  2872               	goto	l1856
  5531  0062                     u2220:
  5532  0062                     l1848:
  5533  0062  0A53               	incf	___fldiv@aexp,w
  5534  0063  1D03               	btfss	3,2
  5535  0064  2866               	goto	u2231
  5536  0065  2867               	goto	u2230
  5537  0066                     u2231:
  5538  0066  286F               	goto	l1852
  5539  0067                     u2230:
  5540  0067                     l1850:
  5541  0067  3000               	movlw	0
  5542  0068  00BD               	movwf	___fldiv@a+3
  5543  0069  3000               	movlw	0
  5544  006A  00BC               	movwf	___fldiv@a+2
  5545  006B  3000               	movlw	0
  5546  006C  00BB               	movwf	___fldiv@a+1
  5547  006D  3000               	movlw	0
  5548  006E  00BA               	movwf	___fldiv@a
  5549  006F                     l1852:
  5550  006F  17BC               	bsf	___fldiv@a+2,7
  5551  0070                     l1854:
  5552  0070  01BD               	clrf	___fldiv@a+3
  5553  0071  287A               	goto	l573
  5554  0072                     l1856:
  5555  0072  3000               	movlw	0
  5556  0073  00BD               	movwf	___fldiv@a+3
  5557  0074  3000               	movlw	0
  5558  0075  00BC               	movwf	___fldiv@a+2
  5559  0076  3000               	movlw	0
  5560  0077  00BB               	movwf	___fldiv@a+1
  5561  0078  3000               	movlw	0
  5562  0079  00BA               	movwf	___fldiv@a
  5563  007A                     l573:
  5564  007A  083D               	movf	___fldiv@a+3,w
  5565  007B  043C               	iorwf	___fldiv@a+2,w
  5566  007C  043B               	iorwf	___fldiv@a+1,w
  5567  007D  043A               	iorwf	___fldiv@a,w
  5568  007E  1D03               	skipz
  5569  007F  2881               	goto	u2241
  5570  0080  2882               	goto	u2240
  5571  0081                     u2241:
  5572  0081  289B               	goto	l1866
  5573  0082                     u2240:
  5574  0082                     l1858:
  5575  0082  3000               	movlw	0
  5576  0083  00C1               	movwf	___fldiv@b+3
  5577  0084  3000               	movlw	0
  5578  0085  00C0               	movwf	___fldiv@b+2
  5579  0086  3000               	movlw	0
  5580  0087  00BF               	movwf	___fldiv@b+1
  5581  0088  3000               	movlw	0
  5582  0089  00BE               	movwf	___fldiv@b
  5583  008A  3080               	movlw	128
  5584  008B  04C0               	iorwf	___fldiv@b+2,f
  5585  008C  307F               	movlw	127
  5586  008D  04C1               	iorwf	___fldiv@b+3,f
  5587  008E                     l1860:
  5588  008E  084B               	movf	___fldiv@sign,w
  5589  008F  00C2               	movwf	??___fldiv
  5590  0090  0842               	movf	??___fldiv,w
  5591  0091  04C1               	iorwf	___fldiv@b+3,f
  5592  0092                     l1862:
  5593  0092  0841               	movf	___fldiv@b+3,w
  5594  0093  00BD               	movwf	?___fldiv+3
  5595  0094  0840               	movf	___fldiv@b+2,w
  5596  0095  00BC               	movwf	?___fldiv+2
  5597  0096  083F               	movf	___fldiv@b+1,w
  5598  0097  00BB               	movwf	?___fldiv+1
  5599  0098  083E               	movf	___fldiv@b,w
  5600  0099  00BA               	movwf	?___fldiv
  5601  009A  29FA               	goto	l575
  5602  009B                     l1866:
  5603  009B  0852               	movf	___fldiv@bexp,w
  5604  009C  1D03               	btfss	3,2
  5605  009D  289F               	goto	u2251
  5606  009E  28A0               	goto	u2250
  5607  009F                     u2251:
  5608  009F  28A9               	goto	l1872
  5609  00A0                     u2250:
  5610  00A0                     l1868:
  5611  00A0  3000               	movlw	0
  5612  00A1  00BD               	movwf	?___fldiv+3
  5613  00A2  3000               	movlw	0
  5614  00A3  00BC               	movwf	?___fldiv+2
  5615  00A4  3000               	movlw	0
  5616  00A5  00BB               	movwf	?___fldiv+1
  5617  00A6  3000               	movlw	0
  5618  00A7  00BA               	movwf	?___fldiv
  5619  00A8  29FA               	goto	l575
  5620  00A9                     l1872:
  5621  00A9  0852               	movf	___fldiv@bexp,w
  5622  00AA  00C2               	movwf	??___fldiv
  5623  00AB  01C3               	clrf	??___fldiv+1
  5624  00AC  0843               	movf	??___fldiv+1,w
  5625  00AD  00C5               	movwf	??___fldiv+3
  5626  00AE  0853               	movf	___fldiv@aexp,w
  5627  00AF  0242               	subwf	??___fldiv,w
  5628  00B0  00C4               	movwf	??___fldiv+2
  5629  00B1  1C03               	skipc
  5630  00B2  03C5               	decf	??___fldiv+3,f
  5631  00B3  0844               	movf	??___fldiv+2,w
  5632  00B4  3E7F               	addlw	127
  5633  00B5  00CC               	movwf	___fldiv@new_exp
  5634  00B6  0845               	movf	??___fldiv+3,w
  5635  00B7  1803               	skipnc
  5636  00B8  3E01               	addlw	1
  5637  00B9  3E00               	addlw	0
  5638  00BA  00CD               	movwf	___fldiv@new_exp+1
  5639  00BB                     l1874:
  5640  00BB  0841               	movf	___fldiv@b+3,w
  5641  00BC  00CA               	movwf	___fldiv@rem+3
  5642  00BD  0840               	movf	___fldiv@b+2,w
  5643  00BE  00C9               	movwf	___fldiv@rem+2
  5644  00BF  083F               	movf	___fldiv@b+1,w
  5645  00C0  00C8               	movwf	___fldiv@rem+1
  5646  00C1  083E               	movf	___fldiv@b,w
  5647  00C2  00C7               	movwf	___fldiv@rem
  5648  00C3                     l1876:
  5649  00C3  3000               	movlw	0
  5650  00C4  00C1               	movwf	___fldiv@b+3
  5651  00C5  3000               	movlw	0
  5652  00C6  00C0               	movwf	___fldiv@b+2
  5653  00C7  3000               	movlw	0
  5654  00C8  00BF               	movwf	___fldiv@b+1
  5655  00C9  3000               	movlw	0
  5656  00CA  00BE               	movwf	___fldiv@b
  5657  00CB                     l1878:
  5658  00CB  3000               	movlw	0
  5659  00CC  00D1               	movwf	___fldiv@grs+3
  5660  00CD  3000               	movlw	0
  5661  00CE  00D0               	movwf	___fldiv@grs+2
  5662  00CF  3000               	movlw	0
  5663  00D0  00CF               	movwf	___fldiv@grs+1
  5664  00D1  3000               	movlw	0
  5665  00D2  00CE               	movwf	___fldiv@grs
  5666  00D3                     l1880:
  5667  00D3  01D3               	clrf	___fldiv@aexp
  5668  00D4  291F               	goto	l1900
  5669  00D5                     l1882:
  5670  00D5  0853               	movf	___fldiv@aexp,w
  5671  00D6  1903               	btfsc	3,2
  5672  00D7  28D9               	goto	u2261
  5673  00D8  28DA               	goto	u2260
  5674  00D9                     u2261:
  5675  00D9  28FA               	goto	l1892
  5676  00DA                     u2260:
  5677  00DA                     l1884:
  5678  00DA  3001               	movlw	1
  5679  00DB  00C2               	movwf	??___fldiv
  5680  00DC                     u2275:
  5681  00DC  1003               	clrc
  5682  00DD  0DC7               	rlf	___fldiv@rem,f
  5683  00DE  0DC8               	rlf	___fldiv@rem+1,f
  5684  00DF  0DC9               	rlf	___fldiv@rem+2,f
  5685  00E0  0DCA               	rlf	___fldiv@rem+3,f
  5686  00E1  0BC2               	decfsz	??___fldiv,f
  5687  00E2  28DC               	goto	u2275
  5688  00E3  3001               	movlw	1
  5689  00E4  00C2               	movwf	??___fldiv
  5690  00E5                     u2285:
  5691  00E5  1003               	clrc
  5692  00E6  0DBE               	rlf	___fldiv@b,f
  5693  00E7  0DBF               	rlf	___fldiv@b+1,f
  5694  00E8  0DC0               	rlf	___fldiv@b+2,f
  5695  00E9  0DC1               	rlf	___fldiv@b+3,f
  5696  00EA  0BC2               	decfsz	??___fldiv,f
  5697  00EB  28E5               	goto	u2285
  5698  00EC                     l1886:
  5699  00EC  1FD1               	btfss	___fldiv@grs+3,7
  5700  00ED  28EF               	goto	u2291
  5701  00EE  28F0               	goto	u2290
  5702  00EF                     u2291:
  5703  00EF  28F1               	goto	l1890
  5704  00F0                     u2290:
  5705  00F0                     l1888:
  5706  00F0  143E               	bsf	___fldiv@b,0
  5707  00F1                     l1890:
  5708  00F1  3001               	movlw	1
  5709  00F2  00C2               	movwf	??___fldiv
  5710  00F3                     u2305:
  5711  00F3  1003               	clrc
  5712  00F4  0DCE               	rlf	___fldiv@grs,f
  5713  00F5  0DCF               	rlf	___fldiv@grs+1,f
  5714  00F6  0DD0               	rlf	___fldiv@grs+2,f
  5715  00F7  0DD1               	rlf	___fldiv@grs+3,f
  5716  00F8  0BC2               	decfsz	??___fldiv,f
  5717  00F9  28F3               	goto	u2305
  5718  00FA                     l1892:
  5719  00FA  083D               	movf	___fldiv@a+3,w
  5720  00FB  024A               	subwf	___fldiv@rem+3,w
  5721  00FC  1D03               	skipz
  5722  00FD  2908               	goto	u2315
  5723  00FE  083C               	movf	___fldiv@a+2,w
  5724  00FF  0249               	subwf	___fldiv@rem+2,w
  5725  0100  1D03               	skipz
  5726  0101  2908               	goto	u2315
  5727  0102  083B               	movf	___fldiv@a+1,w
  5728  0103  0248               	subwf	___fldiv@rem+1,w
  5729  0104  1D03               	skipz
  5730  0105  2908               	goto	u2315
  5731  0106  083A               	movf	___fldiv@a,w
  5732  0107  0247               	subwf	___fldiv@rem,w
  5733  0108                     u2315:
  5734  0108  1C03               	skipc
  5735  0109  290B               	goto	u2311
  5736  010A  290C               	goto	u2310
  5737  010B                     u2311:
  5738  010B  291B               	goto	l1898
  5739  010C                     u2310:
  5740  010C                     l1894:
  5741  010C  1751               	bsf	___fldiv@grs+3,6
  5742  010D                     l1896:
  5743  010D  083A               	movf	___fldiv@a,w
  5744  010E  02C7               	subwf	___fldiv@rem,f
  5745  010F  083B               	movf	___fldiv@a+1,w
  5746  0110  1C03               	skipc
  5747  0111  0F3B               	incfsz	___fldiv@a+1,w
  5748  0112  02C8               	subwf	___fldiv@rem+1,f
  5749  0113  083C               	movf	___fldiv@a+2,w
  5750  0114  1C03               	skipc
  5751  0115  0F3C               	incfsz	___fldiv@a+2,w
  5752  0116  02C9               	subwf	___fldiv@rem+2,f
  5753  0117  083D               	movf	___fldiv@a+3,w
  5754  0118  1C03               	skipc
  5755  0119  0F3D               	incfsz	___fldiv@a+3,w
  5756  011A  02CA               	subwf	___fldiv@rem+3,f
  5757  011B                     l1898:
  5758  011B  3001               	movlw	1
  5759  011C  00C2               	movwf	??___fldiv
  5760  011D  0842               	movf	??___fldiv,w
  5761  011E  07D3               	addwf	___fldiv@aexp,f
  5762  011F                     l1900:
  5763  011F  301A               	movlw	26
  5764  0120  0253               	subwf	___fldiv@aexp,w
  5765  0121  1C03               	skipc
  5766  0122  2924               	goto	u2321
  5767  0123  2925               	goto	u2320
  5768  0124                     u2321:
  5769  0124  28D5               	goto	l1882
  5770  0125                     u2320:
  5771  0125                     l1902:
  5772  0125  084A               	movf	___fldiv@rem+3,w
  5773  0126  0449               	iorwf	___fldiv@rem+2,w
  5774  0127  0448               	iorwf	___fldiv@rem+1,w
  5775  0128  0447               	iorwf	___fldiv@rem,w
  5776  0129  1903               	skipnz
  5777  012A  292C               	goto	u2331
  5778  012B  292D               	goto	u2330
  5779  012C                     u2331:
  5780  012C  294C               	goto	l1916
  5781  012D                     u2330:
  5782  012D                     l1904:
  5783  012D  144E               	bsf	___fldiv@grs,0
  5784  012E  294C               	goto	l1916
  5785  012F                     l1906:
  5786  012F  3001               	movlw	1
  5787  0130  00C2               	movwf	??___fldiv
  5788  0131                     u2345:
  5789  0131  1003               	clrc
  5790  0132  0DBE               	rlf	___fldiv@b,f
  5791  0133  0DBF               	rlf	___fldiv@b+1,f
  5792  0134  0DC0               	rlf	___fldiv@b+2,f
  5793  0135  0DC1               	rlf	___fldiv@b+3,f
  5794  0136  0BC2               	decfsz	??___fldiv,f
  5795  0137  2931               	goto	u2345
  5796  0138                     l1908:
  5797  0138  1FD1               	btfss	___fldiv@grs+3,7
  5798  0139  293B               	goto	u2351
  5799  013A  293C               	goto	u2350
  5800  013B                     u2351:
  5801  013B  293D               	goto	l1912
  5802  013C                     u2350:
  5803  013C                     l1910:
  5804  013C  143E               	bsf	___fldiv@b,0
  5805  013D                     l1912:
  5806  013D  3001               	movlw	1
  5807  013E  00C2               	movwf	??___fldiv
  5808  013F                     u2365:
  5809  013F  1003               	clrc
  5810  0140  0DCE               	rlf	___fldiv@grs,f
  5811  0141  0DCF               	rlf	___fldiv@grs+1,f
  5812  0142  0DD0               	rlf	___fldiv@grs+2,f
  5813  0143  0DD1               	rlf	___fldiv@grs+3,f
  5814  0144  0BC2               	decfsz	??___fldiv,f
  5815  0145  293F               	goto	u2365
  5816  0146                     l1914:
  5817  0146  30FF               	movlw	255
  5818  0147  07CC               	addwf	___fldiv@new_exp,f
  5819  0148  1803               	skipnc
  5820  0149  0ACD               	incf	___fldiv@new_exp+1,f
  5821  014A  30FF               	movlw	255
  5822  014B  07CD               	addwf	___fldiv@new_exp+1,f
  5823  014C                     l1916:
  5824  014C  1FC0               	btfss	___fldiv@b+2,7
  5825  014D  294F               	goto	u2371
  5826  014E  2950               	goto	u2370
  5827  014F                     u2371:
  5828  014F  292F               	goto	l1906
  5829  0150                     u2370:
  5830  0150                     l1918:
  5831  0150  01D3               	clrf	___fldiv@aexp
  5832  0151                     l1920:
  5833  0151  1FD1               	btfss	___fldiv@grs+3,7
  5834  0152  2954               	goto	u2381
  5835  0153  2955               	goto	u2380
  5836  0154                     u2381:
  5837  0154  2971               	goto	l1928
  5838  0155                     u2380:
  5839  0155                     l1922:
  5840  0155  30FF               	movlw	255
  5841  0156  054E               	andwf	___fldiv@grs,w
  5842  0157  00C2               	movwf	??___fldiv
  5843  0158  30FF               	movlw	255
  5844  0159  054F               	andwf	___fldiv@grs+1,w
  5845  015A  00C3               	movwf	??___fldiv+1
  5846  015B  30FF               	movlw	255
  5847  015C  0550               	andwf	___fldiv@grs+2,w
  5848  015D  00C4               	movwf	??___fldiv+2
  5849  015E  307F               	movlw	127
  5850  015F  0551               	andwf	___fldiv@grs+3,w
  5851  0160  00C5               	movwf	??___fldiv+3
  5852  0161  0845               	movf	??___fldiv+3,w
  5853  0162  0444               	iorwf	??___fldiv+2,w
  5854  0163  0443               	iorwf	??___fldiv+1,w
  5855  0164  0442               	iorwf	??___fldiv,w
  5856  0165  1903               	skipnz
  5857  0166  2968               	goto	u2391
  5858  0167  2969               	goto	u2390
  5859  0168                     u2391:
  5860  0168  296C               	goto	l589
  5861  0169                     u2390:
  5862  0169                     l1924:
  5863  0169  01D3               	clrf	___fldiv@aexp
  5864  016A  0AD3               	incf	___fldiv@aexp,f
  5865  016B  2971               	goto	l1928
  5866  016C                     l589:
  5867  016C  1C3E               	btfss	___fldiv@b,0
  5868  016D  296F               	goto	u2401
  5869  016E  2970               	goto	u2400
  5870  016F                     u2401:
  5871  016F  2971               	goto	l1928
  5872  0170                     u2400:
  5873  0170  2969               	goto	l1924
  5874  0171                     l1928:
  5875  0171  0853               	movf	___fldiv@aexp,w
  5876  0172  1903               	btfsc	3,2
  5877  0173  2975               	goto	u2411
  5878  0174  2976               	goto	u2410
  5879  0175                     u2411:
  5880  0175  29A7               	goto	l1938
  5881  0176                     u2410:
  5882  0176                     l1930:
  5883  0176  3001               	movlw	1
  5884  0177  07BE               	addwf	___fldiv@b,f
  5885  0178  3000               	movlw	0
  5886  0179  1803               	skipnc
  5887  017A  3001               	movlw	1
  5888  017B  07BF               	addwf	___fldiv@b+1,f
  5889  017C  3000               	movlw	0
  5890  017D  1803               	skipnc
  5891  017E  3001               	movlw	1
  5892  017F  07C0               	addwf	___fldiv@b+2,f
  5893  0180  3000               	movlw	0
  5894  0181  1803               	skipnc
  5895  0182  3001               	movlw	1
  5896  0183  07C1               	addwf	___fldiv@b+3,f
  5897  0184                     l1932:
  5898  0184  1C41               	btfss	___fldiv@b+3,0
  5899  0185  2987               	goto	u2421
  5900  0186  2988               	goto	u2420
  5901  0187                     u2421:
  5902  0187  29A7               	goto	l1938
  5903  0188                     u2420:
  5904  0188                     l1934:
  5905  0188  083E               	movf	___fldiv@b,w
  5906  0189  00C2               	movwf	??___fldiv
  5907  018A  083F               	movf	___fldiv@b+1,w
  5908  018B  00C3               	movwf	??___fldiv+1
  5909  018C  0840               	movf	___fldiv@b+2,w
  5910  018D  00C4               	movwf	??___fldiv+2
  5911  018E  0841               	movf	___fldiv@b+3,w
  5912  018F  00C5               	movwf	??___fldiv+3
  5913  0190  3001               	movlw	1
  5914  0191  00C6               	movwf	??___fldiv+4
  5915  0192                     u2435:
  5916  0192  0D45               	rlf	??___fldiv+3,w
  5917  0193  0CC5               	rrf	??___fldiv+3,f
  5918  0194  0CC4               	rrf	??___fldiv+2,f
  5919  0195  0CC3               	rrf	??___fldiv+1,f
  5920  0196  0CC2               	rrf	??___fldiv,f
  5921  0197                     u2430:
  5922  0197  0BC6               	decfsz	??___fldiv+4,f
  5923  0198  2992               	goto	u2435
  5924  0199  0845               	movf	??___fldiv+3,w
  5925  019A  00C1               	movwf	___fldiv@b+3
  5926  019B  0844               	movf	??___fldiv+2,w
  5927  019C  00C0               	movwf	___fldiv@b+2
  5928  019D  0843               	movf	??___fldiv+1,w
  5929  019E  00BF               	movwf	___fldiv@b+1
  5930  019F  0842               	movf	??___fldiv,w
  5931  01A0  00BE               	movwf	___fldiv@b
  5932  01A1                     l1936:
  5933  01A1  3001               	movlw	1
  5934  01A2  07CC               	addwf	___fldiv@new_exp,f
  5935  01A3  1803               	skipnc
  5936  01A4  0ACD               	incf	___fldiv@new_exp+1,f
  5937  01A5  3000               	movlw	0
  5938  01A6  07CD               	addwf	___fldiv@new_exp+1,f
  5939  01A7                     l1938:
  5940  01A7  084D               	movf	___fldiv@new_exp+1,w
  5941  01A8  3A80               	xorlw	128
  5942  01A9  00FF               	movwf	btemp+1
  5943  01AA  3080               	movlw	128
  5944  01AB  027F               	subwf	btemp+1,w
  5945  01AC  1D03               	skipz
  5946  01AD  29B0               	goto	u2445
  5947  01AE  30FF               	movlw	255
  5948  01AF  024C               	subwf	___fldiv@new_exp,w
  5949  01B0                     u2445:
  5950  01B0  1C03               	skipc
  5951  01B1  29B3               	goto	u2441
  5952  01B2  29B4               	goto	u2440
  5953  01B3                     u2441:
  5954  01B3  29C2               	goto	l1942
  5955  01B4                     u2440:
  5956  01B4                     l1940:
  5957  01B4  30FF               	movlw	255
  5958  01B5  1283               	bcf	3,5	;RP0=0, select bank0
  5959  01B6  1303               	bcf	3,6	;RP1=0, select bank0
  5960  01B7  00CC               	movwf	___fldiv@new_exp
  5961  01B8  3000               	movlw	0
  5962  01B9  00CD               	movwf	___fldiv@new_exp+1
  5963  01BA  3000               	movlw	0
  5964  01BB  00C1               	movwf	___fldiv@b+3
  5965  01BC  3000               	movlw	0
  5966  01BD  00C0               	movwf	___fldiv@b+2
  5967  01BE  3000               	movlw	0
  5968  01BF  00BF               	movwf	___fldiv@b+1
  5969  01C0  3000               	movlw	0
  5970  01C1  00BE               	movwf	___fldiv@b
  5971  01C2                     l1942:
  5972  01C2  1283               	bcf	3,5	;RP0=0, select bank0
  5973  01C3  1303               	bcf	3,6	;RP1=0, select bank0
  5974  01C4  084D               	movf	___fldiv@new_exp+1,w
  5975  01C5  3A80               	xorlw	128
  5976  01C6  00FF               	movwf	btemp+1
  5977  01C7  3080               	movlw	128
  5978  01C8  027F               	subwf	btemp+1,w
  5979  01C9  1D03               	skipz
  5980  01CA  29CD               	goto	u2455
  5981  01CB  3001               	movlw	1
  5982  01CC  024C               	subwf	___fldiv@new_exp,w
  5983  01CD                     u2455:
  5984  01CD  1803               	skipnc
  5985  01CE  29D0               	goto	u2451
  5986  01CF  29D1               	goto	u2450
  5987  01D0                     u2451:
  5988  01D0  29DE               	goto	l595
  5989  01D1                     u2450:
  5990  01D1                     l1944:
  5991  01D1  1283               	bcf	3,5	;RP0=0, select bank0
  5992  01D2  1303               	bcf	3,6	;RP1=0, select bank0
  5993  01D3  01CC               	clrf	___fldiv@new_exp
  5994  01D4  01CD               	clrf	___fldiv@new_exp+1
  5995  01D5                     l1946:
  5996  01D5  3000               	movlw	0
  5997  01D6  00C1               	movwf	___fldiv@b+3
  5998  01D7  3000               	movlw	0
  5999  01D8  00C0               	movwf	___fldiv@b+2
  6000  01D9  3000               	movlw	0
  6001  01DA  00BF               	movwf	___fldiv@b+1
  6002  01DB  3000               	movlw	0
  6003  01DC  00BE               	movwf	___fldiv@b
  6004  01DD                     l1948:
  6005  01DD  01CB               	clrf	___fldiv@sign
  6006  01DE                     l595:
  6007  01DE  1283               	bcf	3,5	;RP0=0, select bank0
  6008  01DF  1303               	bcf	3,6	;RP1=0, select bank0
  6009  01E0  084C               	movf	___fldiv@new_exp,w
  6010  01E1  00C2               	movwf	??___fldiv
  6011  01E2  0842               	movf	??___fldiv,w
  6012  01E3  00D2               	movwf	___fldiv@bexp
  6013  01E4                     l1950:
  6014  01E4  1C52               	btfss	___fldiv@bexp,0
  6015  01E5  29E7               	goto	u2461
  6016  01E6  29E8               	goto	u2460
  6017  01E7                     u2461:
  6018  01E7  29EA               	goto	l1954
  6019  01E8                     u2460:
  6020  01E8                     l1952:
  6021  01E8  17C0               	bsf	___fldiv@b+2,7
  6022  01E9  29EE               	goto	l597
  6023  01EA                     l1954:
  6024  01EA  307F               	movlw	127
  6025  01EB  00C2               	movwf	??___fldiv
  6026  01EC  0842               	movf	??___fldiv,w
  6027  01ED  05C0               	andwf	___fldiv@b+2,f
  6028  01EE                     l597:
  6029  01EE  0852               	movf	___fldiv@bexp,w
  6030  01EF  00C2               	movwf	??___fldiv
  6031  01F0  1003               	clrc
  6032  01F1  0C42               	rrf	??___fldiv,w
  6033  01F2  00C3               	movwf	??___fldiv+1
  6034  01F3  0843               	movf	??___fldiv+1,w
  6035  01F4  00C1               	movwf	___fldiv@b+3
  6036  01F5  084B               	movf	___fldiv@sign,w
  6037  01F6  00C2               	movwf	??___fldiv
  6038  01F7  0842               	movf	??___fldiv,w
  6039  01F8  04C1               	iorwf	___fldiv@b+3,f
  6040  01F9  2892               	goto	l1862
  6041  01FA                     l575:
  6042  01FA  0008               	return
  6043  01FB                     __end_of___fldiv:
  6044                           
  6045                           	psect	text19
  6046  0946                     __ptext19:	
  6047 ;; *************** function _LCD_XY *****************
  6048 ;; Defined at:
  6049 ;;		line 41 in file "LCD.c"
  6050 ;; Parameters:    Size  Location     Type
  6051 ;;  x               1    wreg     unsigned char 
  6052 ;;  y               1    4[COMMON] unsigned char 
  6053 ;; Auto vars:     Size  Location     Type
  6054 ;;  x               1    5[COMMON] unsigned char 
  6055 ;; Return value:  Size  Location     Type
  6056 ;;                  1    wreg      void 
  6057 ;; Registers used:
  6058 ;;		wreg, status,2, status,0, pclath, cstack
  6059 ;; Tracked objects:
  6060 ;;		On entry : 0/0
  6061 ;;		On exit  : 0/0
  6062 ;;		Unchanged: 0/0
  6063 ;; Data sizes:     COMMON   BANK0   BANK1   BANK3   BANK2
  6064 ;;      Params:         1       0       0       0       0
  6065 ;;      Locals:         1       0       0       0       0
  6066 ;;      Temps:          0       0       0       0       0
  6067 ;;      Totals:         2       0       0       0       0
  6068 ;;Total ram usage:        2 bytes
  6069 ;; Hardware stack levels used: 1
  6070 ;; Hardware stack levels required when called: 2
  6071 ;; This function calls:
  6072 ;;		_LCD_COM
  6073 ;; This function is called by:
  6074 ;;		_main
  6075 ;; This function uses a non-reentrant model
  6076 ;;
  6077                           
  6078  0946                     _LCD_XY:	
  6079                           ;psect for function _LCD_XY
  6080                           
  6081                           
  6082                           ;incstack = 0
  6083                           ; Regs used in _LCD_XY: [wreg+status,2+status,0+pclath+cstack]
  6084                           ;LCD_XY@x stored from wreg
  6085  0946  00F5               	movwf	LCD_XY@x
  6086  0947                     l2294:
  6087                           
  6088                           ;LCD.c: 42:     if(x == 1)
  6089  0947  0375               	decf	LCD_XY@x,w
  6090  0948  1D03               	btfss	3,2
  6091  0949  294B               	goto	u3141
  6092  094A  294C               	goto	u3140
  6093  094B                     u3141:
  6094  094B  2954               	goto	l2298
  6095  094C                     u3140:
  6096  094C                     l2296:
  6097                           
  6098                           ;LCD.c: 43:         LCD_COM(0x80 + y);
  6099  094C  0874               	movf	LCD_XY@y,w
  6100  094D  3E80               	addlw	128
  6101  094E  120A  118A  2004  120A  158A  	fcall	_LCD_COM
  6102  0953  2961               	goto	l97
  6103  0954                     l2298:
  6104  0954  3002               	movlw	2
  6105  0955  0675               	xorwf	LCD_XY@x,w
  6106  0956  1D03               	btfss	3,2
  6107  0957  2959               	goto	u3151
  6108  0958  295A               	goto	u3150
  6109  0959                     u3151:
  6110  0959  2961               	goto	l97
  6111  095A                     u3150:
  6112  095A                     l2300:
  6113                           
  6114                           ;LCD.c: 45:         LCD_COM(0xC0 + y);
  6115  095A  0874               	movf	LCD_XY@y,w
  6116  095B  3EC0               	addlw	192
  6117  095C  120A  118A  2004  120A  158A  	fcall	_LCD_COM
  6118  0961                     l97:
  6119  0961  0008               	return
  6120  0962                     __end_of_LCD_XY:
  6121                           
  6122                           	psect	text20
  6123  0004                     __ptext20:	
  6124 ;; *************** function _LCD_COM *****************
  6125 ;; Defined at:
  6126 ;;		line 30 in file "LCD.c"
  6127 ;; Parameters:    Size  Location     Type
  6128 ;;  a               1    wreg     unsigned char 
  6129 ;; Auto vars:     Size  Location     Type
  6130 ;;  a               1    3[COMMON] unsigned char 
  6131 ;; Return value:  Size  Location     Type
  6132 ;;                  1    wreg      void 
  6133 ;; Registers used:
  6134 ;;		wreg, status,2, status,0, pclath, cstack
  6135 ;; Tracked objects:
  6136 ;;		On entry : 0/0
  6137 ;;		On exit  : 0/0
  6138 ;;		Unchanged: 0/0
  6139 ;; Data sizes:     COMMON   BANK0   BANK1   BANK3   BANK2
  6140 ;;      Params:         0       0       0       0       0
  6141 ;;      Locals:         1       0       0       0       0
  6142 ;;      Temps:          2       0       0       0       0
  6143 ;;      Totals:         3       0       0       0       0
  6144 ;;Total ram usage:        3 bytes
  6145 ;; Hardware stack levels used: 1
  6146 ;; Hardware stack levels required when called: 1
  6147 ;; This function calls:
  6148 ;;		_LCD_PORT
  6149 ;; This function is called by:
  6150 ;;		_LCD_XY
  6151 ;;		_LCD_INIT
  6152 ;; This function uses a non-reentrant model
  6153 ;;
  6154                           
  6155  0004                     _LCD_COM:	
  6156                           ;psect for function _LCD_COM
  6157                           
  6158                           
  6159                           ;incstack = 0
  6160                           ; Regs used in _LCD_COM: [wreg+status,2+status,0+pclath+cstack]
  6161                           ;LCD_COM@a stored from wreg
  6162  0004  00F3               	movwf	LCD_COM@a
  6163  0005                     l2150:
  6164                           
  6165                           ;LCD.c: 31:     RD6 = 0;
  6166  0005  1283               	bcf	3,5	;RP0=0, select bank0
  6167  0006  1303               	bcf	3,6	;RP1=0, select bank0
  6168  0007  1308               	bcf	8,6	;volatile
  6169  0008                     l2152:
  6170                           
  6171                           ;LCD.c: 32:     LCD_PORT(a);
  6172  0008  0873               	movf	LCD_COM@a,w
  6173  0009  120A  158A  20ED  120A  118A  	fcall	_LCD_PORT
  6174  000E                     l2154:
  6175                           
  6176                           ;LCD.c: 33:     RD7 = 1;
  6177  000E  1283               	bcf	3,5	;RP0=0, select bank0
  6178  000F  1303               	bcf	3,6	;RP1=0, select bank0
  6179  0010  1788               	bsf	8,7	;volatile
  6180  0011                     l2156:
  6181                           
  6182                           ;LCD.c: 34:     _delay((unsigned long)((5)*(8000000/4000.0)));
  6183  0011  300D               	movlw	13
  6184  0012  00F2               	movwf	??_LCD_COM+1
  6185  0013  30FB               	movlw	251
  6186  0014  00F1               	movwf	??_LCD_COM
  6187  0015                     u3267:
  6188  0015  0BF1               	decfsz	??_LCD_COM,f
  6189  0016  2815               	goto	u3267
  6190  0017  0BF2               	decfsz	??_LCD_COM+1,f
  6191  0018  2815               	goto	u3267
  6192  0019  281A               	nop2
  6193  001A                     l2158:
  6194                           
  6195                           ;LCD.c: 35:     RD7 = 0;
  6196  001A  1283               	bcf	3,5	;RP0=0, select bank0
  6197  001B  1303               	bcf	3,6	;RP1=0, select bank0
  6198  001C  1388               	bcf	8,7	;volatile
  6199  001D                     l88:
  6200  001D  0008               	return
  6201  001E                     __end_of_LCD_COM:
  6202                           
  6203                           	psect	text21
  6204  09A5                     __ptext21:	
  6205 ;; *************** function _LCD_STRING *****************
  6206 ;; Defined at:
  6207 ;;		line 70 in file "LCD.c"
  6208 ;; Parameters:    Size  Location     Type
  6209 ;;  a               1    wreg     PTR unsigned char 
  6210 ;;		 -> STR_3(2), STR_2(2), STR_1(16), 
  6211 ;; Auto vars:     Size  Location     Type
  6212 ;;  a               1    6[COMMON] PTR unsigned char 
  6213 ;;		 -> STR_3(2), STR_2(2), STR_1(16), 
  6214 ;;  i               2    4[COMMON] int 
  6215 ;; Return value:  Size  Location     Type
  6216 ;;                  1    wreg      void 
  6217 ;; Registers used:
  6218 ;;		wreg, fsr0l, fsr0h, status,2, status,0, pclath, cstack
  6219 ;; Tracked objects:
  6220 ;;		On entry : 0/0
  6221 ;;		On exit  : 0/0
  6222 ;;		Unchanged: 0/0
  6223 ;; Data sizes:     COMMON   BANK0   BANK1   BANK3   BANK2
  6224 ;;      Params:         0       0       0       0       0
  6225 ;;      Locals:         3       0       0       0       0
  6226 ;;      Temps:          0       0       0       0       0
  6227 ;;      Totals:         3       0       0       0       0
  6228 ;;Total ram usage:        3 bytes
  6229 ;; Hardware stack levels used: 1
  6230 ;; Hardware stack levels required when called: 2
  6231 ;; This function calls:
  6232 ;;		_LCD_CHAR
  6233 ;; This function is called by:
  6234 ;;		_main
  6235 ;; This function uses a non-reentrant model
  6236 ;;
  6237                           
  6238  09A5                     _LCD_STRING:	
  6239                           ;psect for function _LCD_STRING
  6240                           
  6241                           
  6242                           ;incstack = 0
  6243                           ; Regs used in _LCD_STRING: [wreg-fsr0h+status,2+status,0+pclath+cstack]
  6244                           ;LCD_STRING@a stored from wreg
  6245  09A5  00F6               	movwf	LCD_STRING@a
  6246  09A6                     l2302:
  6247                           
  6248                           ;LCD.c: 71:     int i;;LCD.c: 72:  for(i=0;a[i]!='\0';i++)
  6249  09A6  01F4               	clrf	LCD_STRING@i
  6250  09A7  01F5               	clrf	LCD_STRING@i+1
  6251  09A8  29BC               	goto	l2308
  6252  09A9                     l2304:
  6253                           
  6254                           ;LCD.c: 73:   LCD_CHAR(a[i]);
  6255  09A9  0874               	movf	LCD_STRING@i,w
  6256  09AA  0776               	addwf	LCD_STRING@a,w
  6257  09AB  0084               	movwf	4
  6258  09AC  120A  158A  2000  120A  158A  	fcall	stringdir
  6259  09B1  120A  158A  212C  120A  158A  	fcall	_LCD_CHAR
  6260  09B6                     l2306:
  6261  09B6  3001               	movlw	1
  6262  09B7  07F4               	addwf	LCD_STRING@i,f
  6263  09B8  1803               	skipnc
  6264  09B9  0AF5               	incf	LCD_STRING@i+1,f
  6265  09BA  3000               	movlw	0
  6266  09BB  07F5               	addwf	LCD_STRING@i+1,f
  6267  09BC                     l2308:
  6268  09BC  0874               	movf	LCD_STRING@i,w
  6269  09BD  0776               	addwf	LCD_STRING@a,w
  6270  09BE  0084               	movwf	4
  6271  09BF  120A  158A  2000  120A  158A  	fcall	stringdir
  6272  09C4  3A00               	xorlw	0
  6273  09C5  1D03               	skipz
  6274  09C6  29C8               	goto	u3161
  6275  09C7  29C9               	goto	u3160
  6276  09C8                     u3161:
  6277  09C8  29A9               	goto	l2304
  6278  09C9                     u3160:
  6279  09C9                     l109:
  6280  09C9  0008               	return
  6281  09CA                     __end_of_LCD_STRING:
  6282                           
  6283                           	psect	text22
  6284  092C                     __ptext22:	
  6285 ;; *************** function _LCD_CHAR *****************
  6286 ;; Defined at:
  6287 ;;		line 63 in file "LCD.c"
  6288 ;; Parameters:    Size  Location     Type
  6289 ;;  a               1    wreg     unsigned char 
  6290 ;; Auto vars:     Size  Location     Type
  6291 ;;  a               1    3[COMMON] unsigned char 
  6292 ;; Return value:  Size  Location     Type
  6293 ;;                  1    wreg      void 
  6294 ;; Registers used:
  6295 ;;		wreg, status,2, status,0, pclath, cstack
  6296 ;; Tracked objects:
  6297 ;;		On entry : 0/0
  6298 ;;		On exit  : 0/0
  6299 ;;		Unchanged: 0/0
  6300 ;; Data sizes:     COMMON   BANK0   BANK1   BANK3   BANK2
  6301 ;;      Params:         0       0       0       0       0
  6302 ;;      Locals:         1       0       0       0       0
  6303 ;;      Temps:          2       0       0       0       0
  6304 ;;      Totals:         3       0       0       0       0
  6305 ;;Total ram usage:        3 bytes
  6306 ;; Hardware stack levels used: 1
  6307 ;; Hardware stack levels required when called: 1
  6308 ;; This function calls:
  6309 ;;		_LCD_PORT
  6310 ;; This function is called by:
  6311 ;;		_main
  6312 ;;		_LCD_STRING
  6313 ;; This function uses a non-reentrant model
  6314 ;;
  6315                           
  6316  092C                     _LCD_CHAR:	
  6317                           ;psect for function _LCD_CHAR
  6318                           
  6319                           
  6320                           ;incstack = 0
  6321                           ; Regs used in _LCD_CHAR: [wreg+status,2+status,0+pclath+cstack]
  6322                           ;LCD_CHAR@a stored from wreg
  6323  092C  00F3               	movwf	LCD_CHAR@a
  6324  092D                     l2230:
  6325                           
  6326                           ;LCD.c: 64:     RD6 = 1;
  6327  092D  1283               	bcf	3,5	;RP0=0, select bank0
  6328  092E  1303               	bcf	3,6	;RP1=0, select bank0
  6329  092F  1708               	bsf	8,6	;volatile
  6330  0930                     l2232:
  6331                           
  6332                           ;LCD.c: 65:     LCD_PORT(a);
  6333  0930  0873               	movf	LCD_CHAR@a,w
  6334  0931  120A  158A  20ED  120A  158A  	fcall	_LCD_PORT
  6335  0936                     l2234:
  6336                           
  6337                           ;LCD.c: 66:     RD7 = 1;
  6338  0936  1283               	bcf	3,5	;RP0=0, select bank0
  6339  0937  1303               	bcf	3,6	;RP1=0, select bank0
  6340  0938  1788               	bsf	8,7	;volatile
  6341  0939                     l2236:
  6342                           
  6343                           ;LCD.c: 67:    _delay((unsigned long)((4)*(8000000/4000.0)));
  6344  0939  300B               	movlw	11
  6345  093A  00F2               	movwf	??_LCD_CHAR+1
  6346  093B  3062               	movlw	98
  6347  093C  00F1               	movwf	??_LCD_CHAR
  6348  093D                     u3277:
  6349  093D  0BF1               	decfsz	??_LCD_CHAR,f
  6350  093E  293D               	goto	u3277
  6351  093F  0BF2               	decfsz	??_LCD_CHAR+1,f
  6352  0940  293D               	goto	u3277
  6353  0941  0000               	nop
  6354  0942                     l2238:
  6355                           
  6356                           ;LCD.c: 68:     RD7 = 0;
  6357  0942  1283               	bcf	3,5	;RP0=0, select bank0
  6358  0943  1303               	bcf	3,6	;RP1=0, select bank0
  6359  0944  1388               	bcf	8,7	;volatile
  6360  0945                     l103:
  6361  0945  0008               	return
  6362  0946                     __end_of_LCD_CHAR:
  6363                           
  6364                           	psect	text23
  6365  0909                     __ptext23:	
  6366 ;; *************** function _LCD_CLEAR *****************
  6367 ;; Defined at:
  6368 ;;		line 37 in file "LCD.c"
  6369 ;; Parameters:    Size  Location     Type
  6370 ;;		None
  6371 ;; Auto vars:     Size  Location     Type
  6372 ;;		None
  6373 ;; Return value:  Size  Location     Type
  6374 ;;                  1    wreg      void 
  6375 ;; Registers used:
  6376 ;;		wreg, status,2, status,0, pclath, cstack
  6377 ;; Tracked objects:
  6378 ;;		On entry : 0/0
  6379 ;;		On exit  : 0/0
  6380 ;;		Unchanged: 0/0
  6381 ;; Data sizes:     COMMON   BANK0   BANK1   BANK3   BANK2
  6382 ;;      Params:         0       0       0       0       0
  6383 ;;      Locals:         0       0       0       0       0
  6384 ;;      Temps:          0       0       0       0       0
  6385 ;;      Totals:         0       0       0       0       0
  6386 ;;Total ram usage:        0 bytes
  6387 ;; Hardware stack levels used: 1
  6388 ;; Hardware stack levels required when called: 1
  6389 ;; This function calls:
  6390 ;;		_LCD_PORT
  6391 ;; This function is called by:
  6392 ;;		_main
  6393 ;; This function uses a non-reentrant model
  6394 ;;
  6395                           
  6396  0909                     _LCD_CLEAR:	
  6397                           ;psect for function _LCD_CLEAR
  6398                           
  6399  0909                     l2292:	
  6400                           ;incstack = 0
  6401                           ; Regs used in _LCD_CLEAR: [wreg+status,2+status,0+pclath+cstack]
  6402                           
  6403                           
  6404                           ;LCD.c: 38:     LCD_PORT(0);
  6405  0909  3000               	movlw	0
  6406  090A  120A  158A  20ED  120A  158A  	fcall	_LCD_PORT
  6407                           
  6408                           ;LCD.c: 39:     LCD_PORT(1);
  6409  090F  3001               	movlw	1
  6410  0910  120A  158A  20ED  120A  158A  	fcall	_LCD_PORT
  6411  0915                     l91:
  6412  0915  0008               	return
  6413  0916                     __end_of_LCD_CLEAR:
  6414                           
  6415                           	psect	text24
  6416  08ED                     __ptext24:	
  6417 ;; *************** function _LCD_PORT *****************
  6418 ;; Defined at:
  6419 ;;		line 27 in file "LCD.c"
  6420 ;; Parameters:    Size  Location     Type
  6421 ;;  a               1    wreg     unsigned char 
  6422 ;; Auto vars:     Size  Location     Type
  6423 ;;  a               1    0[COMMON] unsigned char 
  6424 ;; Return value:  Size  Location     Type
  6425 ;;                  1    wreg      void 
  6426 ;; Registers used:
  6427 ;;		wreg
  6428 ;; Tracked objects:
  6429 ;;		On entry : 0/0
  6430 ;;		On exit  : 0/0
  6431 ;;		Unchanged: 0/0
  6432 ;; Data sizes:     COMMON   BANK0   BANK1   BANK3   BANK2
  6433 ;;      Params:         0       0       0       0       0
  6434 ;;      Locals:         1       0       0       0       0
  6435 ;;      Temps:          0       0       0       0       0
  6436 ;;      Totals:         1       0       0       0       0
  6437 ;;Total ram usage:        1 bytes
  6438 ;; Hardware stack levels used: 1
  6439 ;; This function calls:
  6440 ;;		Nothing
  6441 ;; This function is called by:
  6442 ;;		_LCD_COM
  6443 ;;		_LCD_CLEAR
  6444 ;;		_LCD_INIT
  6445 ;;		_LCD_CHAR
  6446 ;; This function uses a non-reentrant model
  6447 ;;
  6448                           
  6449  08ED                     _LCD_PORT:	
  6450                           ;psect for function _LCD_PORT
  6451                           
  6452                           
  6453                           ;incstack = 0
  6454                           ; Regs used in _LCD_PORT: [wreg]
  6455                           ;LCD_PORT@a stored from wreg
  6456  08ED  00F0               	movwf	LCD_PORT@a
  6457  08EE                     l1586:
  6458                           
  6459                           ;LCD.c: 28:     PORTB = a;
  6460  08EE  0870               	movf	LCD_PORT@a,w
  6461  08EF  1283               	bcf	3,5	;RP0=0, select bank0
  6462  08F0  1303               	bcf	3,6	;RP1=0, select bank0
  6463  08F1  0086               	movwf	6	;volatile
  6464  08F2                     l85:
  6465  08F2  0008               	return
  6466  08F3                     __end_of_LCD_PORT:
  6467  007E                     btemp	set	126	;btemp
  6468  007E                     wtemp0	set	126
  6469                           
  6470                           	psect	idloc
  6471                           
  6472                           ;Config register IDLOC0 @ 0x2000
  6473                           ;	unspecified, using default values
  6474  2000                     	org	8192
  6475  2000  3FFF               	dw	16383
  6476                           
  6477                           ;Config register IDLOC1 @ 0x2001
  6478                           ;	unspecified, using default values
  6479  2001                     	org	8193
  6480  2001  3FFF               	dw	16383
  6481                           
  6482                           ;Config register IDLOC2 @ 0x2002
  6483                           ;	unspecified, using default values
  6484  2002                     	org	8194
  6485  2002  3FFF               	dw	16383
  6486                           
  6487                           ;Config register IDLOC3 @ 0x2003
  6488                           ;	unspecified, using default values
  6489  2003                     	org	8195
  6490  2003  3FFF               	dw	16383
  6491                           
  6492                           	psect	config
  6493                           
  6494                           ;Config register CONFIG1 @ 0x2007
  6495                           ;	Oscillator Selection bits
  6496                           ;	FOSC = INTRC_NOCLKOUT, INTOSCIO oscillator: I/O function on RA6/OSC2/CLKOUT pin, I/O f
      +                          unction on RA7/OSC1/CLKIN
  6497                           ;	Watchdog Timer Enable bit
  6498                           ;	WDTE = OFF, WDT disabled and can be enabled by SWDTEN bit of the WDTCON register
  6499                           ;	Power-up Timer Enable bit
  6500                           ;	PWRTE = OFF, PWRT disabled
  6501                           ;	RE3/MCLR pin function select bit
  6502                           ;	MCLRE = OFF, RE3/MCLR pin function is digital input, MCLR internally tied to VDD
  6503                           ;	Code Protection bit
  6504                           ;	CP = OFF, Program memory code protection is disabled
  6505                           ;	Data Code Protection bit
  6506                           ;	CPD = OFF, Data memory code protection is disabled
  6507                           ;	Brown Out Reset Selection bits
  6508                           ;	BOREN = OFF, BOR disabled
  6509                           ;	Internal External Switchover bit
  6510                           ;	IESO = OFF, Internal/External Switchover mode is disabled
  6511                           ;	Fail-Safe Clock Monitor Enabled bit
  6512                           ;	FCMEN = OFF, Fail-Safe Clock Monitor is disabled
  6513                           ;	Low Voltage Programming Enable bit
  6514                           ;	LVP = OFF, RB3 pin has digital I/O, HV on MCLR must be used for programming
  6515                           ;	In-Circuit Debugger Mode bit
  6516                           ;	DEBUG = 0x1, unprogrammed default
  6517  2007                     	org	8199
  6518  2007  20D4               	dw	8404
  6519                           
  6520                           ;Config register CONFIG2 @ 0x2008
  6521                           ;	Brown-out Reset Selection bit
  6522                           ;	BOR4V = BOR40V, Brown-out Reset set to 4.0V
  6523                           ;	Flash Program Memory Self Write Enable bits
  6524                           ;	WRT = OFF, Write protection off
  6525  2008                     	org	8200
  6526  2008  3FFF               	dw	16383

Data Sizes:
    Strings     18
    Constant    0
    Data        0
    BSS         6
    Persistent  0
    Stack       0

Auto Spaces:
    Space          Size  Autos    Used
    COMMON           14     14      14
    BANK0            80     80      80
    BANK1            80     41      47
    BANK3            96      0       0
    BANK2            96      0       0

Pointer List with Targets:

    LCD_STRING@a	PTR unsigned char  size(1) Largest target is 16
		 -> STR_3(CODE[2]), STR_2(CODE[2]), STR_1(CODE[16]), 


Critical Paths under _main in COMMON

    _setup->_LCD_INIT
    _LCD_INIT->_LCD_COM
    _UNIDAD->___xxtofl
    _DECENA->___xxtofl
    ___wmul->___xxtofl
    ___flsub->___xxtofl
    ___awdiv->___xxtofl
    _CENTENA->___xxtofl
    ___fltol->___xxtofl
    ___flmul->___xxtofl
    ___fldiv->___xxtofl
    _LCD_XY->_LCD_COM
    _LCD_COM->_LCD_PORT
    _LCD_STRING->_LCD_CHAR
    _LCD_CHAR->_LCD_PORT
    _LCD_CLEAR->_LCD_PORT

Critical Paths under _main in BANK0

    _DECENA->___awdiv
    ___wmul->_CENTENA
    ___flsub->___wmul
    ___awdiv->___wmul
    _CENTENA->___fltol
    ___fltol->___fldiv
    ___fldiv->___flmul

Critical Paths under _main in BANK1

    _main->_UNIDAD
    _UNIDAD->_DECENA
    _DECENA->___awdiv
    ___awdiv->___flsub

Critical Paths under _main in BANK3

    None.

Critical Paths under _main in BANK2

    None.

Call Graph Tables:

 ---------------------------------------------------------------------------------
 (Depth) Function   	        Calls       Base Space   Used Autos Params    Refs
 ---------------------------------------------------------------------------------
 (0) _main                                                 2     2      0   44944
                                             39 BANK1      2     2      0
                            _CENTENA
                             _DECENA
                           _LCD_CHAR
                          _LCD_CLEAR
                         _LCD_STRING
                             _LCD_XY
                             _UNIDAD
                              _setup
                            _spiRead
                           _spiWrite
 ---------------------------------------------------------------------------------
 (1) _spiWrite                                             1     1      0      22
                                              0 COMMON     1     1      0
 ---------------------------------------------------------------------------------
 (1) _spiRead                                              0     0      0       0
                     _spiReceiveWait
 ---------------------------------------------------------------------------------
 (2) _spiReceiveWait                                       0     0      0       0
 ---------------------------------------------------------------------------------
 (1) _setup                                                0     0      0     426
                           _LCD_INIT
                            _spiInit
 ---------------------------------------------------------------------------------
 (2) _spiInit                                              4     1      3     360
                                              0 COMMON     4     1      3
 ---------------------------------------------------------------------------------
 (2) _LCD_INIT                                             2     2      0      66
                                              4 COMMON     2     2      0
                            _LCD_COM
                           _LCD_PORT
 ---------------------------------------------------------------------------------
 (1) _UNIDAD                                              15    15      0   25530
                                             24 BANK1     15    15      0
                            _CENTENA
                             _DECENA
                            ___flmul
                            ___flsub
                            ___fltol
                             ___wmul
                           ___xxtofl
 ---------------------------------------------------------------------------------
 (2) _DECENA                                              12    12      0   12957
                                             12 BANK1     12    12      0
                            _CENTENA
                            ___awdiv
                            ___flmul
                            ___flsub
                            ___fltol
                             ___wmul
                           ___xxtofl
 ---------------------------------------------------------------------------------
 (2) ___wmul                                               6     2      4     548
                                             69 BANK0      6     2      4
                            _CENTENA (ARG)
                            ___fltol (ARG)
                           ___xxtofl (ARG)
 ---------------------------------------------------------------------------------
 (2) ___flsub                                              8     0      8    2637
                                              0 BANK1      8     0      8
                            _CENTENA (ARG)
                            ___fladd
                            ___flmul (ARG)
                            ___fltol (ARG)
                             ___wmul (ARG)
                           ___xxtofl (ARG)
 ---------------------------------------------------------------------------------
 (3) ___fladd                                             20    12      8    2136
                                              0 COMMON    12     4      8
                                              0 BANK0      8     8      0
 ---------------------------------------------------------------------------------
 (3) ___awdiv                                              9     5      4     452
                                             75 BANK0      5     1      4
                                              8 BANK1      4     4      0
                            _CENTENA (ARG)
                            ___flmul (ARG)
                            ___flsub (ARG)
                            ___fltol (ARG)
                             ___wmul (ARG)
                           ___xxtofl (ARG)
 ---------------------------------------------------------------------------------
 (3) _CENTENA                                              6     6      0    5274
                                             63 BANK0      6     6      0
                            ___fldiv
                            ___flmul
                            ___fltol
                           ___xxtofl
 ---------------------------------------------------------------------------------
 (2) ___xxtofl                                            14    10      4     778
                                              0 COMMON    14    10      4
 ---------------------------------------------------------------------------------
 (2) ___fltol                                             11     7      4     457
                                             52 BANK0     11     7      4
                            ___fladd (ARG)
                            ___fldiv (ARG)
                            ___flmul (ARG)
                           ___xxtofl (ARG)
 ---------------------------------------------------------------------------------
 (2) ___flmul                                             26    18      8    2721
                                              0 BANK0     26    18      8
                          __Umul8_16
                           ___xxtofl (ARG)
 ---------------------------------------------------------------------------------
 (3) __Umul8_16                                            9     7      2     799
                                              0 COMMON     9     7      2
 ---------------------------------------------------------------------------------
 (4) ___fldiv                                             26    18      8    1273
                                             26 BANK0     26    18      8
                            ___flmul (ARG)
                           ___xxtofl (ARG)
 ---------------------------------------------------------------------------------
 (1) _LCD_XY                                               2     1      1     436
                                              4 COMMON     2     1      1
                            _LCD_COM
 ---------------------------------------------------------------------------------
 (3) _LCD_COM                                              3     3      0      44
                                              1 COMMON     3     3      0
                           _LCD_PORT
 ---------------------------------------------------------------------------------
 (1) _LCD_STRING                                           3     3      0     233
                                              4 COMMON     3     3      0
                           _LCD_CHAR
 ---------------------------------------------------------------------------------
 (2) _LCD_CHAR                                             3     3      0      44
                                              1 COMMON     3     3      0
                           _LCD_PORT
 ---------------------------------------------------------------------------------
 (1) _LCD_CLEAR                                            0     0      0      22
                           _LCD_PORT
 ---------------------------------------------------------------------------------
 (3) _LCD_PORT                                             1     1      0      22
                                              0 COMMON     1     1      0
 ---------------------------------------------------------------------------------
 Estimated maximum stack depth 4
 ---------------------------------------------------------------------------------

 Call Graph Graphs:

 _main (ROOT)
   _CENTENA
     ___fldiv
       ___flmul (ARG)
         __Umul8_16
         ___xxtofl (ARG)
       ___xxtofl (ARG)
     ___flmul
     ___fltol
       ___fladd (ARG)
       ___fldiv (ARG)
       ___flmul (ARG)
       ___xxtofl (ARG)
     ___xxtofl
   _DECENA
     _CENTENA
     ___awdiv
       _CENTENA (ARG)
       ___flmul (ARG)
       ___flsub (ARG)
         _CENTENA (ARG)
         ___fladd (ARG)
         ___flmul (ARG)
         ___fltol (ARG)
         ___wmul (ARG)
           _CENTENA (ARG)
           ___fltol (ARG)
           ___xxtofl (ARG)
         ___xxtofl (ARG)
       ___fltol (ARG)
       ___wmul (ARG)
       ___xxtofl (ARG)
     ___flmul
     ___flsub
     ___fltol
     ___wmul
     ___xxtofl
   _LCD_CHAR
     _LCD_PORT
   _LCD_CLEAR
     _LCD_PORT
   _LCD_STRING
     _LCD_CHAR
   _LCD_XY
     _LCD_COM
       _LCD_PORT
   _UNIDAD
     _CENTENA
     _DECENA
     ___flmul
     ___flsub
     ___fltol
     ___wmul
     ___xxtofl
   _setup
     _LCD_INIT
       _LCD_COM
       _LCD_PORT
     _spiInit
   _spiRead
     _spiReceiveWait
   _spiWrite

 Address spaces:
Name               Size   Autos  Total    Cost      Usage
BITCOMMON            E      0       0       0        0.0%
EEDATA             100      0       0       0        0.0%
NULL                 0      0       0       0        0.0%
CODE                 0      0       0       0        0.0%
COMMON               E      E       E       1      100.0%
BITSFR0              0      0       0       1        0.0%
SFR0                 0      0       0       1        0.0%
BITSFR1              0      0       0       2        0.0%
SFR1                 0      0       0       2        0.0%
STACK                0      0       0       2        0.0%
ABS                  0      0      8D       3        0.0%
BITBANK0            50      0       0       4        0.0%
BITSFR3              0      0       0       4        0.0%
SFR3                 0      0       0       4        0.0%
BANK0               50     50      50       5      100.0%
BITSFR2              0      0       0       5        0.0%
SFR2                 0      0       0       5        0.0%
BITBANK1            50      0       0       6        0.0%
BANK1               50     29      2F       7       58.8%
BITBANK3            60      0       0       8        0.0%
BANK3               60      0       0       9        0.0%
BITBANK2            60      0       0      10        0.0%
BANK2               60      0       0      11        0.0%
DATA                 0      0      8D      12        0.0%


Microchip Technology PIC Macro Assembler V2.35 build 20211206165544 
Symbol Table                                                                                   Sun Jul 30 20:12:52 2023

           ___fldiv@aexp 0053             ___fldiv@bexp 0052                        pc 0002  
           ___fldiv@sign 004B              _SSPSTATbits 0094                       l65 0980  
                     l82 0E6C                       l91 0915                       l76 0AC0  
                     l85 08F2                       l79 0D5A                       l88 001D  
                     l97 0961             ___awdiv@sign 00A9                       fsr 0004  
    ___wmul@multiplicand 0067      __Umul8_16@word_mpld 0076                      l100 0A65  
                    l103 0945                      l132 08FF                      l109 09C9  
                    l125 0926                      l126 092B                      l135 08F8  
                    l224 09FF                      l129 08F9                      l410 0B3C  
                    l226 0A17                      l138 0908                      l420 0B3C  
                    l417 0B27                      l521 0307                      l530 0492  
                    l523 02DC                      l613 07F3                      l517 025E  
                    l542 03FE                      l551 0460                      l632 09DE  
                    l560 0492                      l625 07E7                      l377 0BC7  
                    l634 09F0                      l538 03D8                      l619 075F  
                    l563 09A4                      l548 0420                      l573 007A  
                    l670 0C4B                      l575 01FA                      l671 0C57  
                    l663 0C2F                      l559 0484                      l657 0BEA  
                    l595 01DE                      l659 0C81                      l597 01EE  
                    l589 016C                      _RD6 0046                      _RD7 0047  
                    fsr0 0004          __end_of_CENTENA 0AC1              LCD_STRING@a 0076  
            LCD_STRING@i 0074             ___flmul@aexp 0032             ___flmul@bexp 0033  
           ___flmul@sign 002D             ___flmul@temp 0038             ___flmul@prod 0034  
        __end_of_LCD_COM 001E             ___fltol@exp1 005E                     l2000 04F7  
                   l2010 053A                     l2020 05C3                     l2012 0556  
                   l2004 0500                     l2100 0BC9                     l2030 0636  
                   l2022 05D3                     l2014 0582                     l2006 0510  
                   l2102 0BCE                     l2040 06E3                     l2032 0653  
                   l2024 05F0                     l2016 059E                     l2008 051D  
                   l2120 0C18                     l2112 0BFB                     l2104 0BD2  
                   l2200 0B83                     l2050 072F                     l2042 070B  
                   l2034 0680                     l2026 0600                     l2018 05BA  
                   l2130 0C4F                     l2122 0C26                     l2114 0C00  
                   l2106 0BE2                     l2202 0B98                     l2210 0BB1  
                   l2300 095A                     l2060 0744                     l2052 0730  
                   l2044 0714                     l2036 0690                     l2028 061D  
                   l2140 0C79                     l2132 0C59                     l2124 0C36  
                   l2116 0C0D                     l2108 0BF2                     l2212 0BB8  
                   l2204 0B9E                     l2220 0985                     l2230 092D  
                   l2302 09A6                     l2150 0005                     l2070 0769  
                   l2062 0748                     l2054 0739                     l2046 0722  
                   l2038 06BD                     l2134 0C6F                     l2126 0C41  
                   l2118 0C14                     l2214 0BBD                     l2206 0BA1  
                   l2310 0E6D                     l2232 0930                     l2304 09A9  
                   l2152 0008                     l2080 07A7                     l2072 0777  
                   l2064 075C                     l2048 072B                     l2056 073F  
                   l1600 0AF5                     l2136 0C74                     l2128 0C45  
                   l2144 0A69                     l2208 0BA9                     l2160 09F1  
                   l2224 0C85                     l2240 0A18                     l2400 0FCC  
                   l2320 0E86                     l2312 0E72                     l2234 0936  
                   l2306 09B6                     l2154 000E                     l2090 07DB  
                   l2082 07B2                     l2074 077B                     l2058 0743  
                   l1610 0B03                     l1602 0AF7                     l2138 0C78  
                   l2146 0ABF                     l2218 0981                     l2170 0A13  
                   l2162 09F5                     l2226 0D59                     l2250 0A3F  
                   l2242 0A1E                     l2410 0FEC                     l2402 0FD0  
                   l2330 0EA8                     l2322 0E90                     l2314 0E75  
                   l2236 0939                     l2308 09BC                     l2156 0011  
                   l2092 07DF                     l2084 07C1                     l2076 0794  
                   l2068 0764                     l1620 0B2C                     l1604 0AFB  
                   l1612 0B15                     l2180 0B4B                     l1700 02A4  
                   l2164 09F9                     l2244 0A21                     l2260 0925  
                   l2252 0917                     l2412 0FF4                     l2404 0FD4  
                   l2340 0EC6                     l2332 0EAE                     l2324 0E9A  
                   l2316 0E76                     l2238 0942                     l2158 001A  
                   l2094 07E0                     l2086 07CB                     l2078 079A  
                   l1622 0B31                     l2190 0B63                     l2182 0B4F  
                   l2174 0B3D                     l1710 02EB                     l1702 02A8  
                   l1630 020C                     l2166 0A06                     l2246 0A2A  
                   l2254 091E                     l2270 0970                     l2262 08F9  
                   l2406 0FDE                     l2350 0EED                     l2342 0ED0  
                   l2334 0EB8                     l2326 0E9D                     l2318 0E80  
                   l2096 07EB                     l2088 07CD                     l2192 0B6B  
                   l2184 0B54                     l2176 0B40                     l1800 0465  
                   l1712 02ED                     l1720 0301                     l1704 02A9  
                   l1640 0220                     l1632 020D                     l1624 01FB  
                   l2168 0A0D                     l2248 0A39                     l2256 0920  
                   l2272 0971                     l2264 0962                     l2280 0900  
                   l2408 0FE6                     l2360 0F15                     l2352 0EEE  
                   l2344 0ED6                     l2336 0EC2                     l2328 0E9E  
                   l1618 0B1C                     l2194 0B70                     l2186 0B59  
                   l2178 0B46                     l1810 047C                     l1802 046A  
                   l1730 0330                     l1722 030B                     l1714 02F1  
                   l1706 02C0                     l1650 0236                     l1634 0212  
                   l1642 0222                     l1626 0202                     l2258 0922  
                   l2274 0972                     l2266 0966                     l2282 0905  
                   l2370 0F2F                     l2362 0F19                     l2354 0EFB  
                   l2346 0EE0                     l2338 0EC5                     l2292 0909  
                   l1900 011F                     l1820 0025                     l1580 09E7  
                   l1572 09CB                     l2196 0B77                     l2188 0B5F  
                   l1812 047E                     l1804 0472                     l1740 0349  
                   l1732 0334                     l1724 0310                     l1716 02F2  
                   l1708 02E0                     l1660 024B                     l1652 023C  
                   l1644 022A                     l1636 0217                     l1628 0208  
                   l2276 0977                     l2268 0969                     l2380 0F54  
                   l2372 0F36                     l2364 0F1D                     l2356 0F06  
                   l2348 0EEA                     l2294 0947                     l1910 013C  
                   l1902 0125                     l1830 003A                     l1822 002B  
                   l1582 09EC                     l1574 09CD                     l1590 0ACE  
                   l2198 0B7D                     l1814 048D                     l1806 0477  
                   l1750 03B0                     l1742 034A                     l1734 0338  
                   l1718 02FD                     l1670 0268                     l1662 0253  
                   l1654 0240                     l1646 022F                     l1638 021F  
                   l2286 0D5E                     l2278 08F4                     l2390 0F7F  
                   l2382 0F61                     l2374 0F3E                     l2366 0F22  
                   l2358 0F11                     l2296 094C                     l1920 0151  
                   l1912 013D                     l1904 012D                     l1840 0052  
                   l1832 0042                     l1824 002F                     l1576 09D4  
                   l1816 0491                     l1808 0478                     l1760 03E5  
                   l1752 03B6                     l1744 0355                     l1736 0343  
                   l1728 0319                     l1680 027C                     l1672 026C  
                   l1664 0254                     l1656 0241                     l1648 0235  
                   l2288 0E6B                     l2392 0FA5                     l2384 0F6C  
                   l2376 0F44                     l2368 0F29                     l1586 08EE  
                   l2298 0954                     l1930 0176                     l1922 0155  
                   l1914 0146                     l1906 012F                     l1850 0067  
                   l1842 0058                     l1834 0043                     l1826 0030  
                   l1818 001E                     l1578 09D8                     l1594 0AD7  
                   l1770 0402                     l1754 03BB                     l1738 0345  
                   l1746 035A                     l1690 0290                     l1682 0280  
                   l1674 0270                     l1658 0246                     l1666 0256  
                   l2394 0FB2                     l2386 0F77                     l2378 0F4C  
                   l1940 01B4                     l1932 0184                     l1924 0169  
                   l1908 0138                     l1916 014C                     l1860 008E  
                   l1852 006F                     l1844 005C                     l1828 0035  
                   l1836 0045                     l1596 0AEC                     l1588 0AC1  
                   l1772 0405                     l1764 03EE                     l1748 0370  
                   l1756 03CA                     l1780 0412                     l1692 0294  
                   l1684 0284                     l1676 0274                     l1668 0264  
                   l2396 0FBD                     l2388 0F7B                     l1950 01E4  
                   l1942 01C2                     l1934 0188                     l1918 0150  
                   l1862 0092                     l1854 0070                     l1846 005D  
                   l1838 004D                     l1598 0AED                     l1790 0425  
                   l1782 0413                     l1774 0407                     l1766 03F9  
                   l1758 03E0                     l1694 0298                     l1686 0288  
                   l1678 0278                     l2398 0FC8                     l1952 01E8  
                   l1944 01D1                     l1936 01A1                     l1928 0171  
                   l1880 00D3                     l1872 00A9                     l1848 0062  
                   l1856 0072                     l1960 0493                     l1792 042A  
                   l1784 0417                     l1776 040C                     l1768 03FD  
                   l1696 029C                     l1688 028C                     l1954 01EA  
                   l1946 01D5                     l1938 01A7                     l1890 00F1  
                   l1882 00D5                     l1874 00BB                     l1858 0082  
                   l1866 009B                     l1970 04AA                     l1962 049A  
                   l1794 0438                     l1786 041D                     l1778 040E  
                   l1698 02A0                     l1948 01DD                     l1884 00DA  
                   l1892 00FA                     l1876 00C3                     l1868 00A0  
                   l1980 04C6                     l1972 04AF                     l1964 04A0  
                   l1796 043C                     l1894 010C                     l1886 00EC  
                   l1878 00CB                     l1990 04DB                     l1982 04CC  
                   l1974 04B7                     l1966 04A4                     l1798 045C  
                   l1896 010D                     l1888 00F0                     l1992 04E3  
                   l1984 04D0                     l1976 04B9                     l1968 04A5  
                   l1898 011B                     l1994 04E5                     l1986 04D1  
                   l1978 04C1                     l1996 04ED                     l1988 04D6  
                   l1998 04F2                     STR_1 0806                     STR_2 0816  
                   STR_3 0816                     u2000 03E5                     u2001 03E4  
                   u2100 043C                     u2020 03FD                     u2101 043B  
                   u2021 03FC                     u2110 044D                     u2030 0402  
                   u2031 0401                     u2015 03F2                     u2200 003A  
                   u2120 045C                     u2040 040C                     u2201 0039  
                   u2121 045B                     u2041 040B                     u2210 005C  
                   u2130 0465                     u2050 0412                     u3010 0A13  
                   u2211 005B                     u2131 0464                     u2115 0448  
                   u2051 0411                     u3011 0A12                     u2220 0062  
                   u3100 0BB1                     u3020 0B46                     u2140 046A  
                   u2060 0417                     u2221 0061                     u3101 0BB0  
                   u3021 0B45                     u2141 0469                     u2061 0416  
                   u3005 0A07                     u2310 010C                     u2230 0067  
                   u3110 0BB8                     u3030 0B54                     u2150 0477  
                   u2070 041D                     u2311 010B                     u2231 0066  
                   u3111 0BB7                     u3031 0B53                     u2151 0476  
                   u2071 041C                     u2400 0170                     u2320 0125  
                   u2240 0082                     u3040 0B6B                     u2160 047C  
                   u2080 0424                     u3120 091E                     u2401 016F  
                   u2321 0124                     u2305 00F3                     u2241 0081  
                   u3041 0B6A                     u2161 047B                     u2081 0423  
                   u3121 091D                     u2410 0176                     u2330 012D  
                   u2250 00A0                     u1610 09EC                     u2170 0491  
                   u2090 042A                     u3130 08FF                     u2411 0175  
                   u2331 012C                     u2315 0108                     u2251 009F  
                   u1611 09EB                     u2171 0490                     u2091 0429  
                   u3131 08FE                     u3140 094C                     u2420 0188  
                   u2260 00DA                     u2180 002F                     u2500 04D0  
                   u1700 0B2C                     u1620 0ACE                     u3060 0B83  
                   u3141 094B                     u2421 0187                     u2261 00D9  
                   u2181 002E                     u1605 09DF                     u2501 04CF  
                   u1701 0B2B                     u1621 0ACD                     u3061 0B82  
                   u3150 095A                     u2430 0197                     u2350 013C  
                   u2190 0035                     u2510 04D6                     u1710 0B31  
                   u1630 0AE5                     u3151 0959                     u2351 013B  
                   u2191 0034                     u2511 04D5                     u1711 0B30  
                   u3055 0B71                     u3207 0EBE                     u3160 09C9  
                   u2440 01B4                     u2520 04DB                     u1640 0AFB  
                   u3080 0B98                     u1800 0268                     u1720 020C  
                   u3161 09C8                     u2441 01B3                     u2345 0131  
                   u2601 05E2                     u2521 04DA                     u1641 0AFA  
                   u3081 0B97                     u1801 0267                     u1721 020B  
                   u3217 0ECC                     u2450 01D1                     u2370 0150  
                   u2290 00F0                     u2602 05E9                     u2530 04F2  
                   u1650 0B02                     u1810 02C0                     u1730 0212  
                   u2451 01D0                     u2435 0192                     u2371 014F  
                   u2291 00EF                     u2275 00DC                     u2611 060F  
                   u2603 05F0                     u2531 04F1                     u1651 0B01  
                   u1635 0AE0                     u3075 0B86                     u1811 02BF  
                   u1731 0211                     u3227 0EE6                     u2460 01E8  
                   u2380 0155                     u2612 0616                     u2540 04F7  
                   u1820 02C9                     u1740 0217                     u2461 01E7  
                   u2445 01B0                     u2381 0154                     u2365 013F  
                   u2285 00E5                     u2613 061D                     u2541 04F6  
                   u3085 0B94                     u1901 0322                     u1821 02C7  
                   u1741 0216                     u3237 0A25                     u2390 0169  
                   u1590 09D8                     u2470 04A4                     u1670 0B14  
                   u1910 0334                     u1902 0329                     u1830 02CA  
                   u1750 0235                     u2455 01CD                     u2391 0168  
                   u1591 09D7                     u2631 0645                     u2551 0548  
                   u2471 04A3                     u1671 0B13                     u3095 0BA3  
                   u1911 0333                     u1903 0330                     u1815 02BC  
                   u1751 0234                     u3247 0A34                     u2800 078A  
                   u2720 072F                     u2632 064C                     u2552 054F  
                   u2480 04AA                     u1680 0B1B                     u1920 0338  
                   u1840 02E0                     u1760 0240                     u2721 072E  
                   u2705 070D                     u2641 0672                     u2633 0653  
                   u2625 061F                     u2561 0564                     u2553 0556  
                   u2481 04A9                     u1681 0B1A                     u1665 0B04  
                   u1921 0337                     u1841 02DF                     u1761 023F  
                   u3257 0A43                     u3177 0E7C                     u2810 07A7  
                   u2642 0679                     u2562 056B                     u2490 04AF  
                   u1930 0349                     u1850 02F1                     u1770 0246  
                   u3267 0015                     u2811 07A6                     u2715 0724  
                   u2651 069F                     u2643 0680                     u2571 0590  
                   u2563 0572                     u2491 04AE                     u1931 0348  
                   u1851 02F0                     u1771 0245                     u3187 0E96  
                   u2820 07C1                     u2740 0743                     u2660 06C9  
                   u2652 06A6                     u2572 0597                     u2900 0C35  
                   u1780 024B                     u3277 093D                     u2821 07C0  
                   u2805 0785                     u2741 0742                     u2653 06AD  
                   u2581 05AC                     u2573 059E                     u2901 0C34  
                   u1781 024A                     u3197 0EA4                     u2830 07DF  
                   u2750 0748                     u2582 05B3                     u1950 0370  
                   u1870 0307                     u1790 0264                     u2831 07DE  
                   u2815 07A3                     u2751 0747                     u2735 0732  
                   u2671 06D5                     u2583 05BA                     u1695 0B1E  
                   u1951 036F                     u1871 0306                     u1791 0263  
                   u2760 075C                     u2680 06F1                     u2672 06DC  
                   u2920 0C45                     u2840 0BCE                     u1880 030B  
                   u2825 07BD                     u2761 075B                     u2673 06E3  
                   u2665 06C4                     u2921 0C44                     u2841 0BCD  
                   u1961 0389                     u1953 036C                     u1945 034E  
                   u1881 030A                     u1865 02F6                     u2770 0763  
                   u2930 0C4B                     u2850 0BD2                     u1970 039D  
                   u1962 038A                     u1890 0310                     u2771 0762  
                   u2691 06FD                     u2595 05BC                     u2931 0C4A  
                   u2915 0C3A                     u2851 0BD1                     u1971 039E  
                   u1963 038F                     u1891 030F                     u2780 0769  
                   u2692 0704                     u2940 0C4F                     u2860 0BF2  
                   u1980 03BB                     u1972 03A3                     u1964 0390  
                   u2781 0768                     u2693 070B                     u2685 06EC  
                   u2941 0C4E                     u2861 0BF1                     u1981 03BA  
                   u1973 03A4                     u1965 0395                     u2790 077B  
                   u2950 0C64                     u1990 03E0                     u1966 0396  
                   u2791 077A                     u1991 03DF                     u2960 0C74  
                   u2880 0C13                     u2961 0C73                     u2881 0C12  
                   u2970 0C78                     u2971 0C77                     u2955 0C5F  
                   u2875 0C05                     u2980 09F9                     u2981 09F8  
                   u2895 0C27                     u2995 0A00                     _POT1 00CB  
                   _POT2 00CA                     _cont 00C9                     _main 0E6D  
                   btemp 007E                     start 0000          ___fldiv@new_exp 004C  
       __end_of_LCD_CHAR 0946         __end_of_LCD_INIT 0A66         __end_of_LCD_PORT 08F3  
          ___fltol@sign1 005D          __end_of___fladd 0493                    ?_main 0070  
        __end_of___fldiv 01FB          __end_of___awdiv 0BC8          __end_of___flmul 07F4  
        __end_of___flsub 09A5          __end_of___fltol 0B3D                    _ANSEL 0188  
        ___awdiv@divisor 006B          ___awdiv@counter 00A8                    _PORTB 0006  
                  _PORTD 0008                    _TRISB 0086                    _TRISD 0088  
                  _setup 0962                    pclath 000A          __end_of_spiInit 092C  
        __end_of_spiRead 0909                    status 0003                    wtemp0 007E  
        __initialization 07F4             __end_of_main 1000        __end_of_LCD_CLEAR 0916  
              ??_CENTENA 005F                   ??_main 00C7                ??_LCD_COM 0071  
                 _DECENA 0C82         ___awdiv@dividend 006D                   ?_setup 0070  
                 _ANSELH 0189                   _LCD_XY 0946                   _UNIDAD 0D5B  
                 _TRISC3 043B                   _TRISC5 043D                   _SSPCON 0014  
                 _SSPBUF 0013         __end_of___xxtofl 0C82                ??___fladd 0020  
                 ___wmul 09F1                ??___fldiv 0042                ??___awdiv 006F  
                 _decena 00CD                ??___flmul 0028                ??___flsub 007E  
              ??___fltol 0058         ___awdiv@quotient 00AA                   _unidad 00CE  
       __end_of_spiWrite 08F9                ??_spiInit 0073                ??_spiRead 0070  
              LCD_CHAR@a 0073                ?_LCD_CHAR 0070             ___xxtofl@arg 007A  
              ?_LCD_INIT 0070             ___xxtofl@exp 0079             ___xxtofl@val 0070  
              ?_LCD_PORT 0070  __end_of__initialization 07FC                LCD_PORT@a 0070  
             ___fltol@f1 0054             ??_LCD_STRING 0074           __pcstackCOMMON 0070  
          __end_of_setup 0981                  DECENA@c 00B7                  ?_DECENA 0070  
     __end_of_LCD_STRING 09CA                  ??_setup 0076               __pbssBANK1 00C9  
                ?_LCD_XY 0074               ??_LCD_CHAR 0071               ??_LCD_INIT 0074  
             ??_LCD_PORT 0070                  LCD_XY@x 0075                  LCD_XY@y 0074  
                ?_UNIDAD 0070        __end_of__Umul8_16 09F1               __pmaintext 0E6D  
                UNIDAD@c 00C6                  ?___wmul 0065                  _CENTENA 0A66  
                _LCD_COM 0004                ?___xxtofl 0070                  _SSPSTAT 0094  
             __stringtab 0800                ?_spiWrite 0070                  ___fladd 01FB  
                ___fldiv 001E                  ___awdiv 0B3D                  ___flmul 0493  
                ___flsub 0981                  ___fltol 0AC1                  _centena 00CC  
                __ptext1 08F3                  __ptext2 0900                  __ptext3 08F9  
                __ptext4 0962                  __ptext5 0916                  __ptext6 0A18  
                __ptext7 0D5B                  __ptext8 0C82                  __ptext9 09F1  
              _LCD_CLEAR 0909               ??___xxtofl 0074                  _spiInit 0916  
                _spiRead 0900     end_of_initialization 07FC               ??_spiWrite 0070  
              _PORTCbits 0007              ___fladd@grs 007B               ?_LCD_CLEAR 0070  
          ___xxtofl@sign 0078                _TRISCbits 0087              ___fldiv@grs 004E  
            ___fldiv@rem 0047              spiWrite@dat 0070           __end_of_DECENA 0D5B  
            ___flmul@grs 002E           __end_of_LCD_XY 0962           __end_of_UNIDAD 0E6D  
         _spiReceiveWait 08F9           __end_of___wmul 0A18      start_initialization 07F4  
               ??_DECENA 00AC                 ??_LCD_XY 0075                 ??_UNIDAD 00B8  
               CENTENA@c 0064   __end_of_spiReceiveWait 0900                 ??___wmul 007E  
              __Umul8_16 09CA                 ?_CENTENA 0070                ___fladd@a 0074  
              ___fladd@b 0070                 ?_LCD_COM 0070                 LCD_COM@a 0073  
              ___fldiv@a 003A                ___fldiv@b 003E              ??_LCD_CLEAR 0071  
              ___flmul@a 0024                ___flmul@b 0020                ___flsub@a 00A0  
              ___flsub@b 00A4                ___latbits 0002            __pcstackBANK0 0020  
          __pcstackBANK1 00A0          ?_spiReceiveWait 0070                 ?___fladd 0070  
               ?___fldiv 003A                 ?___awdiv 006B                 ?___flmul 0020  
               ?___flsub 00A0                 ?___fltol 0054               ?__Umul8_16 0070  
              __pstrings 0800                 ?_spiInit 0070                 ?_spiRead 0070  
               _LCD_CHAR 092C                 _LCD_INIT 0A18                 _LCD_PORT 08ED  
   spiInit@sTransmitEdge 0072           ___wmul@product 0069       spiInit@sDataSample 0070  
            __stringbase 0805        ___wmul@multiplier 0065               _DECENA$944 00B3  
            ??__Umul8_16 0072       __end_of__stringtab 0806                 ___xxtofl 0BC8  
               __ptext10 0981                 __ptext11 01FB                 __ptext20 0004  
               __ptext12 0B3D                 __ptext21 09A5                 __ptext13 0A66  
               __ptext22 092C                 __ptext14 0BC8                 __ptext23 0909  
               __ptext15 0AC1                 __ptext24 08ED                 __ptext16 0493  
               __ptext17 09CA                 __ptext18 001E                 __ptext19 0946  
             _LCD_STRING 09A5                 _spiWrite 08F3             spiInit@sType 0073  
      spiInit@sClockIdle 0071         ??_spiReceiveWait 0070                stringcode 0800  
             _UNIDAD$945 00BC               _UNIDAD$946 00C4               _UNIDAD$947 00C0  
 __Umul8_16@multiplicand 0070                 stringdir 0800                 stringtab 0800  
          ___fladd@signs 0078             ___fladd@aexp 0079             ___fladd@bexp 007A  
   __Umul8_16@multiplier 0078        __Umul8_16@product 0074              ?_LCD_STRING 0070  
